
build/./src/comms/ethernet_comms.cpp.o:     file format elf32-littlearm

SYMBOL TABLE:
00000000 l    df *ABS*	00000000 ethernet_comms.cpp
00000000 l    d  .text	00000000 .text
00000000 l    d  .data	00000000 .data
00000000 l    d  .bss	00000000 .bss
00000000 l    d  .text._ZN10StaticInitIN9qindesign8security12RandomDeviceEED2Ev	00000000 .text._ZN10StaticInitIN9qindesign8security12RandomDeviceEED2Ev
00000000 l    d  .text._ZN10StaticInitIN9qindesign7network13EthernetClassEED2Ev	00000000 .text._ZN10StaticInitIN9qindesign7network13EthernetClassEED2Ev
00000000 l    d  .text._ZN10StaticInitIN9qindesign7network9MDNSClassEED2Ev	00000000 .text._ZN10StaticInitIN9qindesign7network9MDNSClassEED2Ev
00000000 l    d  .text._ZN5Comms13EthernetComms19get_incoming_packetEv	00000000 .text._ZN5Comms13EthernetComms19get_incoming_packetEv
00000000 l    d  .text._ZN5Comms13EthernetComms19get_outgoing_packetEv	00000000 .text._ZN5Comms13EthernetComms19get_outgoing_packetEv
00000000 l    d  .text._ZNK5Comms13EthernetComms12is_connectedEv	00000000 .text._ZNK5Comms13EthernetComms12is_connectedEv
00000000 l    d  .text._ZNK5Comms13EthernetComms10get_statusEv	00000000 .text._ZNK5Comms13EthernetComms10get_statusEv
00000000 l    d  .text._ZNK5Comms13EthernetComms19get_regulation_timeEv	00000000 .text._ZNK5Comms13EthernetComms19get_regulation_timeEv
00000000 l    d  .text._ZN5Comms13EthernetComms11send_packetERNS_14EthernetPacketE	00000000 .text._ZN5Comms13EthernetComms11send_packetERNS_14EthernetPacketE
00000000 l    d  .text._ZN5Comms13EthernetComms16check_connectionEv	00000000 .text._ZN5Comms13EthernetComms16check_connectionEv
00000000 l    d  .text.startup._GLOBAL__sub_I__ZN5Comms13EthernetComms5beginEm	00000000 .text.startup._GLOBAL__sub_I__ZN5Comms13EthernetComms5beginEm
00000000 l     F .text.startup._GLOBAL__sub_I__ZN5Comms13EthernetComms5beginEm	000000ac _GLOBAL__sub_I__ZN5Comms13EthernetComms5beginEm
00000000 l    d  .init_array	00000000 .init_array
00000000 l    d  .rodata._ZN5Comms13EthernetComms5beginEm.str1.4	00000000 .rodata._ZN5Comms13EthernetComms5beginEm.str1.4
00000000 l    d  .text._ZN5Comms13EthernetComms5beginEm	00000000 .text._ZN5Comms13EthernetComms5beginEm
00000000 l    d  .text._ZN5Comms13EthernetComms11recv_packetEPNS_14EthernetPacketE	00000000 .text._ZN5Comms13EthernetComms11recv_packetEPNS_14EthernetPacketE
00000000 l    d  .rodata._ZN5Comms13EthernetComms14connect_jetsonEv.str1.4	00000000 .rodata._ZN5Comms13EthernetComms14connect_jetsonEv.str1.4
00000000 l    d  .text._ZN5Comms13EthernetComms14connect_jetsonEv	00000000 .text._ZN5Comms13EthernetComms14connect_jetsonEv
00000000 l    d  .rodata._ZN5Comms13EthernetComms4loopEv.str1.4	00000000 .rodata._ZN5Comms13EthernetComms4loopEv.str1.4
00000000 l    d  .text._ZN5Comms13EthernetComms4loopEv	00000000 .text._ZN5Comms13EthernetComms4loopEv
00000000 l    d  .bss._ZN9qindesign7networkL12EthernetInitE	00000000 .bss._ZN9qindesign7networkL12EthernetInitE
00000000 l     O .bss._ZN9qindesign7networkL12EthernetInitE	00000001 _ZN9qindesign7networkL12EthernetInitE
00000000 l    d  .bss._ZN9qindesign7networkL8MDNSInitE	00000000 .bss._ZN9qindesign7networkL8MDNSInitE
00000000 l     O .bss._ZN9qindesign7networkL8MDNSInitE	00000001 _ZN9qindesign7networkL8MDNSInitE
00000000 l    d  .bss._ZN9qindesign8securityL16randomDeviceInitE	00000000 .bss._ZN9qindesign8securityL16randomDeviceInitE
00000000 l     O .bss._ZN9qindesign8securityL16randomDeviceInitE	00000001 _ZN9qindesign8securityL16randomDeviceInitE
00000000 l       .group	00000000 _ZN10StaticInitIN9qindesign8security12RandomDeviceEED5Ev
00000000 l       .group	00000000 _ZN10StaticInitIN9qindesign7network13EthernetClassEED5Ev
00000000 l       .group	00000000 _ZN10StaticInitIN9qindesign7network9MDNSClassEED5Ev
00000000 l    d  .comment	00000000 .comment
00000000 l    d  .ARM.attributes	00000000 .ARM.attributes
00000000 l    d  .group	00000000 .group
00000000 l    d  .group	00000000 .group
00000000 l    d  .group	00000000 .group
00000000  w    F .text._ZN10StaticInitIN9qindesign8security12RandomDeviceEED2Ev	00000018 _ZN10StaticInitIN9qindesign8security12RandomDeviceEED2Ev
00000000         *UND*	00000000 _ZN10StaticInitIN9qindesign8security12RandomDeviceEE13nifty_counterE
00000000         *UND*	00000000 _ZN10StaticInitIN9qindesign8security12RandomDeviceEE2pTE
00000000  w    F .text._ZN10StaticInitIN9qindesign8security12RandomDeviceEED2Ev	00000018 _ZN10StaticInitIN9qindesign8security12RandomDeviceEED1Ev
00000000  w    F .text._ZN10StaticInitIN9qindesign7network13EthernetClassEED2Ev	00000028 _ZN10StaticInitIN9qindesign7network13EthernetClassEED2Ev
00000000         *UND*	00000000 _ZN9qindesign7network13EthernetClassD1Ev
00000000         *UND*	00000000 _ZN10StaticInitIN9qindesign7network13EthernetClassEE13nifty_counterE
00000000         *UND*	00000000 _ZN10StaticInitIN9qindesign7network13EthernetClassEE2pTE
00000000  w    F .text._ZN10StaticInitIN9qindesign7network13EthernetClassEED2Ev	00000028 _ZN10StaticInitIN9qindesign7network13EthernetClassEED1Ev
00000000  w    F .text._ZN10StaticInitIN9qindesign7network9MDNSClassEED2Ev	00000028 _ZN10StaticInitIN9qindesign7network9MDNSClassEED2Ev
00000000         *UND*	00000000 _ZN9qindesign7network9MDNSClassD1Ev
00000000         *UND*	00000000 _ZN10StaticInitIN9qindesign7network9MDNSClassEE13nifty_counterE
00000000         *UND*	00000000 _ZN10StaticInitIN9qindesign7network9MDNSClassEE2pTE
00000000  w    F .text._ZN10StaticInitIN9qindesign7network9MDNSClassEED2Ev	00000028 _ZN10StaticInitIN9qindesign7network9MDNSClassEED1Ev
00000000 g     F .text._ZN5Comms13EthernetComms19get_incoming_packetEv	00000004 _ZN5Comms13EthernetComms19get_incoming_packetEv
00000000 g     F .text._ZN5Comms13EthernetComms19get_outgoing_packetEv	0000000a _ZN5Comms13EthernetComms19get_outgoing_packetEv
00000000 g     F .text._ZNK5Comms13EthernetComms12is_connectedEv	00000006 _ZNK5Comms13EthernetComms12is_connectedEv
00000000 g     F .text._ZNK5Comms13EthernetComms10get_statusEv	00000004 _ZNK5Comms13EthernetComms10get_statusEv
00000000 g     F .text._ZNK5Comms13EthernetComms19get_regulation_timeEv	00000006 _ZNK5Comms13EthernetComms19get_regulation_timeEv
00000000 g     F .text._ZN5Comms13EthernetComms11send_packetERNS_14EthernetPacketE	00000042 _ZN5Comms13EthernetComms11send_packetERNS_14EthernetPacketE
00000000         *UND*	00000000 _ZN9qindesign7network11EthernetUDP4sendERK9IPAddresstPKhj
00000000 g     F .text._ZN5Comms13EthernetComms16check_connectionEv	0000001c _ZN5Comms13EthernetComms16check_connectionEv
00000000         *UND*	00000000 micros
00000000         *UND*	00000000 __aeabi_atexit
00000000         *UND*	00000000 _ZN9qindesign7network9MDNSClassC1Ev
00000000         *UND*	00000000 _ZN9qindesign7network13EthernetClassC1Ev
00000000         *UND*	00000000 _ZN9qindesign8security12RandomDeviceC1Ev
00000000         *UND*	00000000 .hidden __dso_handle
00000000         *UND*	00000000 _ZN10StaticInitIN9qindesign7network9MDNSClassEE3bufE
00000000         *UND*	00000000 _ZN10StaticInitIN9qindesign7network13EthernetClassEE3bufE
00000000         *UND*	00000000 _ZN10StaticInitIN9qindesign8security12RandomDeviceEE3bufE
00000000 g     F .text._ZN5Comms13EthernetComms5beginEm	0000012c _ZN5Comms13EthernetComms5beginEm
00000000         *UND*	00000000 _ZN9qindesign7network13EthernetClass5beginERK9IPAddressS4_S4_
00000000         *UND*	00000000 _ZN9qindesign7network11EthernetUDP5beginEt
00000000         *UND*	00000000 _ZN5Print6printfEPKcz
00000000         *UND*	00000000 _ZN9qindesign7network13EthernetClass4loopEv
00000000         *UND*	00000000 _ZNK9qindesign7network13EthernetClass14hardwareStatusEv
00000000         *UND*	00000000 _ZN9qindesign7network8EthernetE
00000000         *UND*	00000000 Serial
00000000         *UND*	00000000 F_CPU_ACTUAL
00000000 g     F .text._ZN5Comms13EthernetComms11recv_packetEPNS_14EthernetPacketE	0000006c _ZN5Comms13EthernetComms11recv_packetEPNS_14EthernetPacketE
00000000         *UND*	00000000 _ZN9qindesign7network11EthernetUDP11parsePacketEv
00000000         *UND*	00000000 _ZNK9qindesign7network11EthernetUDP4dataEv
00000000         *UND*	00000000 memcpy
00000000 g     F .text._ZN5Comms13EthernetComms14connect_jetsonEv	0000017c _ZN5Comms13EthernetComms14connect_jetsonEv
00000000         *UND*	00000000 memset
00000000 g     F .text._ZN5Comms13EthernetComms4loopEv	0000009c _ZN5Comms13EthernetComms4loopEv


Contents of section .group:
 0000 01000000 07000000 08000000           ............    
Contents of section .group:
 0000 01000000 09000000 0a000000           ............    
Contents of section .group:
 0000 01000000 0b000000 0c000000           ............    
Contents of section .text._ZN10StaticInitIN9qindesign8security12RandomDeviceEED2Ev:
 0000 034a1368 013b1360 0bb9024a 13607047  .J.h.;.`...J.`pG
 0010 00000000 00000000                    ........        
Contents of section .text._ZN10StaticInitIN9qindesign7network13EthernetClassEED2Ev:
 0000 074b70b5 1c680546 013c1c60 0cb12846  .Kp..h.F.<.`..(F
 0010 70bd044e 3068fff7 feff2846 346070bd  p..N0h....(F4`p.
 0020 00000000 00000000                    ........        
Contents of section .text._ZN10StaticInitIN9qindesign7network9MDNSClassEED2Ev:
 0000 074b70b5 1c680546 013c1c60 0cb12846  .Kp..h.F.<.`..(F
 0010 70bd044e 3068fff7 feff2846 346070bd  p..N0h....(F4`p.
 0020 00000000 00000000                    ........        
Contents of section .text._ZN5Comms13EthernetComms19get_incoming_packetEv:
 0000 e8307047                             .0pG            
Contents of section .text._ZN5Comms13EthernetComms19get_outgoing_packetEv:
 0000 034641f6 e8001844 704700bf           .FA....DpG..    
Contents of section .text._ZNK5Comms13EthernetComms12is_connectedEv:
 0000 90f8ac00 704700bf                    ....pG..        
Contents of section .text._ZNK5Comms13EthernetComms10get_statusEv:
 0000 c0307047                             .0pG            
Contents of section .text._ZNK5Comms13EthernetComms19get_regulation_timeEv:
 0000 d0f8a400 704700bf                    ....pG..        
Contents of section .text._ZN5Comms13EthernetComms11send_packetERNS_14EthernetPacketE:
 0000 10b54ff4 c05282b0 0b460446 00f11c01  ..O..R...F.F....
 0010 00922830 30f8042c fff7feff 40b9d4e9  ..(00..,....@...
 0020 32320133 42f10002 c4e93232 02b010bd  22.3B.....22....
 0030 d4e93032 013342f1 0002c4e9 303202b0  ..02.3B.....02..
 0040 10bd00bf                             ....            
Contents of section .text._ZN5Comms13EthernetComms16check_connectionEv:
 0000 10b50446 fff7feff d4e92c23 801a9842  ...F......,#...B
 0010 8cbf0020 012084f8 ac0010bd           ... . ......    
Contents of section .text.startup._GLOBAL__sub_I__ZN5Comms13EthernetComms5beginEm:
 0000 1a4a1368 591c10b5 1160d3b1 184a1949  .J.hY....`...J.I
 0010 1948fff7 feff194a 1368591c 1160f3b1  .H.....J.hY..`..
 0020 134a1749 1748fff7 feff174a 1368591c  .J.I.H.....J.hY.
 0030 11606bb1 0e4a1549 1548bde8 1040fff7  .`k..J.I.H...@..
 0040 febf144c 2046fff7 feff134b 1c60dde7  ...L F.....K.`..
 0050 124c2046 fff7feff 114b1c60 eae7114c  .L F.....K.`...L
 0060 2046fff7 feff104b 1c60d9e7 00000000   F.....K.`......
 0070 00000000 00000000 00000000 00000000  ................
 0080 00000000 00000000 00000000 00000000  ................
 0090 00000000 00000000 00000000 00000000  ................
 00a0 00000000 00000000 00000000           ............    
Contents of section .init_array:
 0000 00000000                             ....            
Contents of section .rodata._ZN5Comms13EthernetComms5beginEm.str1.4:
 0000 4661696c 65642074 6f207374 61727420  Failed to start 
 0010 45746865 726e6574 210a0000 5465656e  Ethernet!...Teen
 0020 73792045 74686572 6e657420 68617264  sy Ethernet hard
 0030 77617265 206e6f74 20707265 73656e74  ware not present
 0040 210a0000 55445020 73657276 65722066  !...UDP server f
 0050 61696c65 6420746f 20737461 7274210a  ailed to start!.
 0060 00000000 45746865 726e6574 206f6e6c  ....Ethernet onl
 0070 696e6521 0a00                        ine!..          
Contents of section .text._ZN5Comms13EthernetComms5beginEm:
 0000 404b00f1 10022de9 f04f1e68 83b00446  @K....-..O.h...F
 0010 0d4600f1 08030146 3046fff7 feff0028  .F.....F0F.....(
 0020 54d004f1 2808218b 4046fff7 feff0346  T...(.!.@F.....F
 0030 00285dd0 07ee905a dfed336a 41f6e807  .(]....Z..3jA...
 0040 c4f8a850 b8ee677a 04f11c09 27442f4d  ...P..gz....'D/M
 0050 dff8d4b0 c6ee877a fafe677a fceee77a  .......z..gz...z
 0060 c4ed297a 4ff4c050 a28c3b46 49460090  ..)zO..P..;FIF..
 0070 4046fff7 feff8246 70b12549 2548d4e9  @F.....Fp.%I%H..
 0080 30250132 45f10005 c4e93025 fff7feff  0%.2E.....0%....
 0090 504603b0 bde8f08f d4e93232 30460133  PF........220F.3
 00a0 42f10002 c4e93232 fff7feff 69681a48  B.....22....ih.H
 00b0 dbf80020 d4f8a430 a0fb0202 920c03fb  ... ...0........
 00c0 02f26b68 5b1a9a42 fbd8cbe7 13498246  ..kh[..B.....I.F
 00d0 1048fff7 feff3046 fff7feff 0428d7d0  .H....0F.....(..
 00e0 0f490c48 fff7feff 504603b0 bde8f08f  .I.H....PF......
 00f0 9a460c49 0748fff7 feff5046 03b0bde8  .F.I.H....PF....
 0100 f08f00bf 00000000 00004047 001000e0  ..........@G....
 0110 64000000 00000000 83de1b43 00000000  d..........C....
 0120 1c000000 44000000 00000000           ....D.......    
Contents of section .text._ZN5Comms13EthernetComms11recv_packetEPNS_14EthernetPacketE:
 0000 f8b500f1 28060446 0f463046 fff7feff  ....(..F.F0F....
 0010 431c0cd0 b0f5c05f 05460ad0 0020d4e9  C......_.F... ..
 0020 36320133 42f10002 c4e93632 f8bd0020  62.3B.....62... 
 0030 f8bdd4f8 d0303046 0133c4f8 d030d4f8  .....00F.3...0..
 0040 d43043f1 0003c4f8 d430fff7 feff3046  .0C......0....0F
 0050 fff7feff 2a460146 3846fff7 fefffff7  ....*F.F8F......
 0060 feff0346 0120c4f8 b030f8bd           ...F. ...0..    
Contents of section .rodata._ZN5Comms13EthernetComms14connect_jetsonEv.str1.4:
 0000 48616e64 7368616b 65206661 696c6564  Handshake failed
 0010 3a207469 6d656f75 74210a00           : timeout!..    
Contents of section .text._ZN5Comms13EthernetComms14connect_jetsonEv:
 0000 2de9f04f 00f1f803 00250446 41f2f072  -..O.....%.FA..r
 0010 294600f1 e80804f1 1c0a04f1 28092ded  )F..........(.-.
 0020 048bc0f8 e85083b0 c0f8ec50 09ee103a  .....P.....P...:
 0030 c0f8f050 c0f8f450 1846fff7 feff41f6  ...P...P.F....A.
 0040 e8032946 41f2f072 e718e550 07f11003  ..)FA..r...P....
 0050 7d60bd60 08ee107a 1846fd60 08ee903a  }`.`...z.F.`...:
 0060 fff7feff 04f58053 40f20232 a3f8f628  .......S@..2...(
 0070 fff7feff 8346fff7 feff3d4b 05461e68  .....F....=K.F.h
 0080 fff7feff 0346d4f8 a4203046 5b1b9342  .....F... 0F[..B
 0090 f6d3fff7 feff4146 2046fff7 feff0246  ......AF F.....F
 00a0 18ee103a 51464846 002ae9d0 94f8f620  ...:QFHF.*..... 
 00b0 022a28d1 4ff4c057 a28c0097 fff7feff  .*(.O..W........
 00c0 c8b9d4e9 32320133 42f10002 c4e93232  ....22.3B.....22
 00d0 fff7feff d4f8b830 a0eb0b00 9842cfd3  .......0.....B..
 00e0 24492548 fff7feff 4ff0ff30 03b0bdec  $I%H....O..0....
 00f0 048bbde8 f08fd4e9 30320133 42f10002  ........02.3B...
 0100 c4e93032 e4e70025 19ee100a 41f2f072  ..02...%....A..r
 0110 18ee107a c4f8e850 2946c8f8 0450c8f8  ...z...P)F...P..
 0120 0850c8f8 0c50fff7 feff41f6 e8032946  .P...P....A...)F
 0130 41f2f072 e55018ee 900a7d60 bd60fd60  A..r.P....}`.`.`
 0140 fff7feff 00220023 c4e93423 c4e93623  .....".#..4#..6#
 0150 c4e93023 c4e93223 fff7feff 03462846  ..0#..2#.....F(F
 0160 c4f8e030 03b0bdec 048bbde8 f08f00bf  ...0............
 0170 00000000 00000000 00000000           ............    
Contents of section .rodata._ZN5Comms13EthernetComms4loopEv.str1.4:
 0000 48616e64 7368616b 65207265 63656976  Handshake receiv
 0010 65642e2e 2e0a0000 48616e64 7368616b  ed......Handshak
 0020 65206669 6e697368 6564210a 00        e finished!..   
Contents of section .text._ZN5Comms13EthernetComms4loopEv:
 0000 224b10b5 044682b0 1868fff7 feff4ff4  "K...F...h....O.
 0010 c05041f6 e803a28c 04f11c01 00902344  .PA...........#D
 0020 04f12800 fff7feff e0b9d4e9 32320133  ..(.........22.3
 0030 42f10002 c4e93232 04f1e801 2046fff7  B.....22.... F..
 0040 feff94f8 f630022b 14d0fff7 feffd4e9  .....0.+........
 0050 2c23801a 98428cbf 00200120 84f8ac00  ,#...B... . ....
 0060 02b010bd d4e93032 013342f1 0002c4e9  ......02.3B.....
 0070 3032e1e7 06490748 fff7feff 2046fff7  02...I.H.... F..
 0080 feff0549 0348fff7 feffdee7 00000000  ...I.H..........
 0090 00000000 00000000 18000000           ............    
Contents of section .comment:
 0000 00474343 3a202841 726d2047 4e552054  .GCC: (Arm GNU T
 0010 6f6f6c63 6861696e 2031312e 332e5265  oolchain 11.3.Re
 0020 6c312920 31312e33 2e312032 30323230  l1) 11.3.1 20220
 0030 37313200                             712.            
Contents of section .ARM.attributes:
 0000 41310000 00616561 62690001 27000000  A1...aeabi..'...
 0010 0537452d 4d00060d 074d0902 0a081204  .7E-M....M......
 0020 14011501 17031801 19011a01 1c011e02  ................
 0030 2201                                 ".              

Disassembly of section .text._ZN10StaticInitIN9qindesign8security12RandomDeviceEED2Ev:

00000000 <_ZN10StaticInitIN9qindesign8security12RandomDeviceEED1Ev>:
   0:	4a03      	ldr	r2, [pc, #12]	; (10 <_ZN10StaticInitIN9qindesign8security12RandomDeviceEED1Ev+0x10>)
   2:	6813      	ldr	r3, [r2, #0]
   4:	3b01      	subs	r3, #1
   6:	6013      	str	r3, [r2, #0]
   8:	b90b      	cbnz	r3, e <_ZN10StaticInitIN9qindesign8security12RandomDeviceEED1Ev+0xe>
   a:	4a02      	ldr	r2, [pc, #8]	; (14 <_ZN10StaticInitIN9qindesign8security12RandomDeviceEED1Ev+0x14>)
   c:	6013      	str	r3, [r2, #0]
   e:	4770      	bx	lr
  10:	00000000 	.word	0x00000000
  14:	00000000 	.word	0x00000000

Disassembly of section .text._ZN10StaticInitIN9qindesign7network13EthernetClassEED2Ev:

00000000 <_ZN10StaticInitIN9qindesign7network13EthernetClassEED1Ev>:
   0:	4b07      	ldr	r3, [pc, #28]	; (20 <_ZN10StaticInitIN9qindesign7network13EthernetClassEED1Ev+0x20>)
   2:	b570      	push	{r4, r5, r6, lr}
   4:	681c      	ldr	r4, [r3, #0]
   6:	4605      	mov	r5, r0
   8:	3c01      	subs	r4, #1
   a:	601c      	str	r4, [r3, #0]
   c:	b10c      	cbz	r4, 12 <_ZN10StaticInitIN9qindesign7network13EthernetClassEED1Ev+0x12>
   e:	4628      	mov	r0, r5
  10:	bd70      	pop	{r4, r5, r6, pc}
  12:	4e04      	ldr	r6, [pc, #16]	; (24 <_ZN10StaticInitIN9qindesign7network13EthernetClassEED1Ev+0x24>)
  14:	6830      	ldr	r0, [r6, #0]
  16:	f7ff fffe 	bl	0 <_ZN9qindesign7network13EthernetClassD1Ev>
  1a:	4628      	mov	r0, r5
  1c:	6034      	str	r4, [r6, #0]
  1e:	bd70      	pop	{r4, r5, r6, pc}
  20:	00000000 	.word	0x00000000
  24:	00000000 	.word	0x00000000

Disassembly of section .text._ZN10StaticInitIN9qindesign7network9MDNSClassEED2Ev:

00000000 <_ZN10StaticInitIN9qindesign7network9MDNSClassEED1Ev>:
   0:	4b07      	ldr	r3, [pc, #28]	; (20 <_ZN10StaticInitIN9qindesign7network9MDNSClassEED1Ev+0x20>)
   2:	b570      	push	{r4, r5, r6, lr}
   4:	681c      	ldr	r4, [r3, #0]
   6:	4605      	mov	r5, r0
   8:	3c01      	subs	r4, #1
   a:	601c      	str	r4, [r3, #0]
   c:	b10c      	cbz	r4, 12 <_ZN10StaticInitIN9qindesign7network9MDNSClassEED1Ev+0x12>
   e:	4628      	mov	r0, r5
  10:	bd70      	pop	{r4, r5, r6, pc}
  12:	4e04      	ldr	r6, [pc, #16]	; (24 <_ZN10StaticInitIN9qindesign7network9MDNSClassEED1Ev+0x24>)
  14:	6830      	ldr	r0, [r6, #0]
  16:	f7ff fffe 	bl	0 <_ZN9qindesign7network9MDNSClassD1Ev>
  1a:	4628      	mov	r0, r5
  1c:	6034      	str	r4, [r6, #0]
  1e:	bd70      	pop	{r4, r5, r6, pc}
  20:	00000000 	.word	0x00000000
  24:	00000000 	.word	0x00000000

Disassembly of section .text._ZN5Comms13EthernetComms19get_incoming_packetEv:

00000000 <_ZN5Comms13EthernetComms19get_incoming_packetEv>:
   0:	30e8      	adds	r0, #232	; 0xe8
   2:	4770      	bx	lr

Disassembly of section .text._ZN5Comms13EthernetComms19get_outgoing_packetEv:

00000000 <_ZN5Comms13EthernetComms19get_outgoing_packetEv>:
   0:	4603      	mov	r3, r0
   2:	f641 00e8 	movw	r0, #6376	; 0x18e8
   6:	4418      	add	r0, r3
   8:	4770      	bx	lr
   a:	bf00      	nop

Disassembly of section .text._ZNK5Comms13EthernetComms12is_connectedEv:

00000000 <_ZNK5Comms13EthernetComms12is_connectedEv>:
   0:	f890 00ac 	ldrb.w	r0, [r0, #172]	; 0xac
   4:	4770      	bx	lr
   6:	bf00      	nop

Disassembly of section .text._ZNK5Comms13EthernetComms10get_statusEv:

00000000 <_ZNK5Comms13EthernetComms10get_statusEv>:
   0:	30c0      	adds	r0, #192	; 0xc0
   2:	4770      	bx	lr

Disassembly of section .text._ZNK5Comms13EthernetComms19get_regulation_timeEv:

00000000 <_ZNK5Comms13EthernetComms19get_regulation_timeEv>:
   0:	f8d0 00a4 	ldr.w	r0, [r0, #164]	; 0xa4
   4:	4770      	bx	lr
   6:	bf00      	nop

Disassembly of section .text._ZN5Comms13EthernetComms11send_packetERNS_14EthernetPacketE:

00000000 <_ZN5Comms13EthernetComms11send_packetERNS_14EthernetPacketE>:
   0:	b510      	push	{r4, lr}
   2:	f44f 52c0 	mov.w	r2, #6144	; 0x1800
   6:	b082      	sub	sp, #8
   8:	460b      	mov	r3, r1
   a:	4604      	mov	r4, r0
   c:	f100 011c 	add.w	r1, r0, #28
  10:	9200      	str	r2, [sp, #0]
  12:	3028      	adds	r0, #40	; 0x28
  14:	f830 2c04 	ldrh.w	r2, [r0, #-4]
  18:	f7ff fffe 	bl	0 <_ZN9qindesign7network11EthernetUDP4sendERK9IPAddresstPKhj>
  1c:	b940      	cbnz	r0, 30 <_ZN5Comms13EthernetComms11send_packetERNS_14EthernetPacketE+0x30>
  1e:	e9d4 3232 	ldrd	r3, r2, [r4, #200]	; 0xc8
  22:	3301      	adds	r3, #1
  24:	f142 0200 	adc.w	r2, r2, #0
  28:	e9c4 3232 	strd	r3, r2, [r4, #200]	; 0xc8
  2c:	b002      	add	sp, #8
  2e:	bd10      	pop	{r4, pc}
  30:	e9d4 3230 	ldrd	r3, r2, [r4, #192]	; 0xc0
  34:	3301      	adds	r3, #1
  36:	f142 0200 	adc.w	r2, r2, #0
  3a:	e9c4 3230 	strd	r3, r2, [r4, #192]	; 0xc0
  3e:	b002      	add	sp, #8
  40:	bd10      	pop	{r4, pc}
  42:	bf00      	nop

Disassembly of section .text._ZN5Comms13EthernetComms16check_connectionEv:

00000000 <_ZN5Comms13EthernetComms16check_connectionEv>:
   0:	b510      	push	{r4, lr}
   2:	4604      	mov	r4, r0
   4:	f7ff fffe 	bl	0 <micros>
   8:	e9d4 232c 	ldrd	r2, r3, [r4, #176]	; 0xb0
   c:	1a80      	subs	r0, r0, r2
   e:	4298      	cmp	r0, r3
  10:	bf8c      	ite	hi
  12:	2000      	movhi	r0, #0
  14:	2001      	movls	r0, #1
  16:	f884 00ac 	strb.w	r0, [r4, #172]	; 0xac
  1a:	bd10      	pop	{r4, pc}

Disassembly of section .text.startup._GLOBAL__sub_I__ZN5Comms13EthernetComms5beginEm:

00000000 <_GLOBAL__sub_I__ZN5Comms13EthernetComms5beginEm>:
   0:	4a1a      	ldr	r2, [pc, #104]	; (6c <_GLOBAL__sub_I__ZN5Comms13EthernetComms5beginEm+0x6c>)
   2:	6813      	ldr	r3, [r2, #0]
   4:	1c59      	adds	r1, r3, #1
   6:	b510      	push	{r4, lr}
   8:	6011      	str	r1, [r2, #0]
   a:	b1d3      	cbz	r3, 42 <_GLOBAL__sub_I__ZN5Comms13EthernetComms5beginEm+0x42>
   c:	4a18      	ldr	r2, [pc, #96]	; (70 <_GLOBAL__sub_I__ZN5Comms13EthernetComms5beginEm+0x70>)
   e:	4919      	ldr	r1, [pc, #100]	; (74 <_GLOBAL__sub_I__ZN5Comms13EthernetComms5beginEm+0x74>)
  10:	4819      	ldr	r0, [pc, #100]	; (78 <_GLOBAL__sub_I__ZN5Comms13EthernetComms5beginEm+0x78>)
  12:	f7ff fffe 	bl	0 <__aeabi_atexit>
  16:	4a19      	ldr	r2, [pc, #100]	; (7c <_GLOBAL__sub_I__ZN5Comms13EthernetComms5beginEm+0x7c>)
  18:	6813      	ldr	r3, [r2, #0]
  1a:	1c59      	adds	r1, r3, #1
  1c:	6011      	str	r1, [r2, #0]
  1e:	b1f3      	cbz	r3, 5e <_GLOBAL__sub_I__ZN5Comms13EthernetComms5beginEm+0x5e>
  20:	4a13      	ldr	r2, [pc, #76]	; (70 <_GLOBAL__sub_I__ZN5Comms13EthernetComms5beginEm+0x70>)
  22:	4917      	ldr	r1, [pc, #92]	; (80 <_GLOBAL__sub_I__ZN5Comms13EthernetComms5beginEm+0x80>)
  24:	4817      	ldr	r0, [pc, #92]	; (84 <_GLOBAL__sub_I__ZN5Comms13EthernetComms5beginEm+0x84>)
  26:	f7ff fffe 	bl	0 <__aeabi_atexit>
  2a:	4a17      	ldr	r2, [pc, #92]	; (88 <_GLOBAL__sub_I__ZN5Comms13EthernetComms5beginEm+0x88>)
  2c:	6813      	ldr	r3, [r2, #0]
  2e:	1c59      	adds	r1, r3, #1
  30:	6011      	str	r1, [r2, #0]
  32:	b16b      	cbz	r3, 50 <_GLOBAL__sub_I__ZN5Comms13EthernetComms5beginEm+0x50>
  34:	4a0e      	ldr	r2, [pc, #56]	; (70 <_GLOBAL__sub_I__ZN5Comms13EthernetComms5beginEm+0x70>)
  36:	4915      	ldr	r1, [pc, #84]	; (8c <_GLOBAL__sub_I__ZN5Comms13EthernetComms5beginEm+0x8c>)
  38:	4815      	ldr	r0, [pc, #84]	; (90 <_GLOBAL__sub_I__ZN5Comms13EthernetComms5beginEm+0x90>)
  3a:	e8bd 4010 	ldmia.w	sp!, {r4, lr}
  3e:	f7ff bffe 	b.w	0 <__aeabi_atexit>
  42:	4c14      	ldr	r4, [pc, #80]	; (94 <_GLOBAL__sub_I__ZN5Comms13EthernetComms5beginEm+0x94>)
  44:	4620      	mov	r0, r4
  46:	f7ff fffe 	bl	0 <_ZN9qindesign7network9MDNSClassC1Ev>
  4a:	4b13      	ldr	r3, [pc, #76]	; (98 <_GLOBAL__sub_I__ZN5Comms13EthernetComms5beginEm+0x98>)
  4c:	601c      	str	r4, [r3, #0]
  4e:	e7dd      	b.n	c <_GLOBAL__sub_I__ZN5Comms13EthernetComms5beginEm+0xc>
  50:	4c12      	ldr	r4, [pc, #72]	; (9c <_GLOBAL__sub_I__ZN5Comms13EthernetComms5beginEm+0x9c>)
  52:	4620      	mov	r0, r4
  54:	f7ff fffe 	bl	0 <_ZN9qindesign7network13EthernetClassC1Ev>
  58:	4b11      	ldr	r3, [pc, #68]	; (a0 <_GLOBAL__sub_I__ZN5Comms13EthernetComms5beginEm+0xa0>)
  5a:	601c      	str	r4, [r3, #0]
  5c:	e7ea      	b.n	34 <_GLOBAL__sub_I__ZN5Comms13EthernetComms5beginEm+0x34>
  5e:	4c11      	ldr	r4, [pc, #68]	; (a4 <_GLOBAL__sub_I__ZN5Comms13EthernetComms5beginEm+0xa4>)
  60:	4620      	mov	r0, r4
  62:	f7ff fffe 	bl	0 <_ZN9qindesign8security12RandomDeviceC1Ev>
  66:	4b10      	ldr	r3, [pc, #64]	; (a8 <_GLOBAL__sub_I__ZN5Comms13EthernetComms5beginEm+0xa8>)
  68:	601c      	str	r4, [r3, #0]
  6a:	e7d9      	b.n	20 <_GLOBAL__sub_I__ZN5Comms13EthernetComms5beginEm+0x20>
  6c:	00000000 	.word	0x00000000
  70:	00000000 	.word	0x00000000
  74:	00000000 	.word	0x00000000
  78:	00000000 	.word	0x00000000
  7c:	00000000 	.word	0x00000000
  80:	00000000 	.word	0x00000000
  84:	00000000 	.word	0x00000000
  88:	00000000 	.word	0x00000000
  8c:	00000000 	.word	0x00000000
  90:	00000000 	.word	0x00000000
  94:	00000000 	.word	0x00000000
  98:	00000000 	.word	0x00000000
  9c:	00000000 	.word	0x00000000
  a0:	00000000 	.word	0x00000000
  a4:	00000000 	.word	0x00000000
  a8:	00000000 	.word	0x00000000

Disassembly of section .text._ZN5Comms13EthernetComms5beginEm:

00000000 <_ZN5Comms13EthernetComms5beginEm>:
   0:	4b40      	ldr	r3, [pc, #256]	; (104 <_ZN5Comms13EthernetComms5beginEm+0x104>)
   2:	f100 0210 	add.w	r2, r0, #16
   6:	e92d 4ff0 	stmdb	sp!, {r4, r5, r6, r7, r8, r9, sl, fp, lr}
   a:	681e      	ldr	r6, [r3, #0]
   c:	b083      	sub	sp, #12
   e:	4604      	mov	r4, r0
  10:	460d      	mov	r5, r1
  12:	f100 0308 	add.w	r3, r0, #8
  16:	4601      	mov	r1, r0
  18:	4630      	mov	r0, r6
  1a:	f7ff fffe 	bl	0 <_ZN9qindesign7network13EthernetClass5beginERK9IPAddressS4_S4_>
  1e:	2800      	cmp	r0, #0
  20:	d054      	beq.n	cc <_ZN5Comms13EthernetComms5beginEm+0xcc>
  22:	f104 0828 	add.w	r8, r4, #40	; 0x28
  26:	8b21      	ldrh	r1, [r4, #24]
  28:	4640      	mov	r0, r8
  2a:	f7ff fffe 	bl	0 <_ZN9qindesign7network11EthernetUDP5beginEt>
  2e:	4603      	mov	r3, r0
  30:	2800      	cmp	r0, #0
  32:	d05d      	beq.n	f0 <_ZN5Comms13EthernetComms5beginEm+0xf0>
  34:	ee07 5a90 	vmov	s15, r5
  38:	eddf 6a33 	vldr	s13, [pc, #204]	; 108 <_ZN5Comms13EthernetComms5beginEm+0x108>
  3c:	f641 07e8 	movw	r7, #6376	; 0x18e8
  40:	f8c4 50a8 	str.w	r5, [r4, #168]	; 0xa8
  44:	eeb8 7a67 	vcvt.f32.u32	s14, s15
  48:	f104 091c 	add.w	r9, r4, #28
  4c:	4427      	add	r7, r4
  4e:	4d2f      	ldr	r5, [pc, #188]	; (10c <_ZN5Comms13EthernetComms5beginEm+0x10c>)
  50:	f8df b0d4 	ldr.w	fp, [pc, #212]	; 128 <_ZN5Comms13EthernetComms5beginEm+0x128>
  54:	eec6 7a87 	vdiv.f32	s15, s13, s14
  58:	fefa 7a67 	vrintp.f32	s15, s15
  5c:	eefc 7ae7 	vcvt.u32.f32	s15, s15
  60:	edc4 7a29 	vstr	s15, [r4, #164]	; 0xa4
  64:	f44f 50c0 	mov.w	r0, #6144	; 0x1800
  68:	8ca2      	ldrh	r2, [r4, #36]	; 0x24
  6a:	463b      	mov	r3, r7
  6c:	4649      	mov	r1, r9
  6e:	9000      	str	r0, [sp, #0]
  70:	4640      	mov	r0, r8
  72:	f7ff fffe 	bl	0 <_ZN9qindesign7network11EthernetUDP4sendERK9IPAddresstPKhj>
  76:	4682      	mov	sl, r0
  78:	b170      	cbz	r0, 98 <_ZN5Comms13EthernetComms5beginEm+0x98>
  7a:	4925      	ldr	r1, [pc, #148]	; (110 <_ZN5Comms13EthernetComms5beginEm+0x110>)
  7c:	4825      	ldr	r0, [pc, #148]	; (114 <_ZN5Comms13EthernetComms5beginEm+0x114>)
  7e:	e9d4 2530 	ldrd	r2, r5, [r4, #192]	; 0xc0
  82:	3201      	adds	r2, #1
  84:	f145 0500 	adc.w	r5, r5, #0
  88:	e9c4 2530 	strd	r2, r5, [r4, #192]	; 0xc0
  8c:	f7ff fffe 	bl	0 <_ZN5Print6printfEPKcz>
  90:	4650      	mov	r0, sl
  92:	b003      	add	sp, #12
  94:	e8bd 8ff0 	ldmia.w	sp!, {r4, r5, r6, r7, r8, r9, sl, fp, pc}
  98:	e9d4 3232 	ldrd	r3, r2, [r4, #200]	; 0xc8
  9c:	4630      	mov	r0, r6
  9e:	3301      	adds	r3, #1
  a0:	f142 0200 	adc.w	r2, r2, #0
  a4:	e9c4 3232 	strd	r3, r2, [r4, #200]	; 0xc8
  a8:	f7ff fffe 	bl	0 <_ZN9qindesign7network13EthernetClass4loopEv>
  ac:	6869      	ldr	r1, [r5, #4]
  ae:	481a      	ldr	r0, [pc, #104]	; (118 <_ZN5Comms13EthernetComms5beginEm+0x118>)
  b0:	f8db 2000 	ldr.w	r2, [fp]
  b4:	f8d4 30a4 	ldr.w	r3, [r4, #164]	; 0xa4
  b8:	fba0 0202 	umull	r0, r2, r0, r2
  bc:	0c92      	lsrs	r2, r2, #18
  be:	fb03 f202 	mul.w	r2, r3, r2
  c2:	686b      	ldr	r3, [r5, #4]
  c4:	1a5b      	subs	r3, r3, r1
  c6:	429a      	cmp	r2, r3
  c8:	d8fb      	bhi.n	c2 <_ZN5Comms13EthernetComms5beginEm+0xc2>
  ca:	e7cb      	b.n	64 <_ZN5Comms13EthernetComms5beginEm+0x64>
  cc:	4913      	ldr	r1, [pc, #76]	; (11c <_ZN5Comms13EthernetComms5beginEm+0x11c>)
  ce:	4682      	mov	sl, r0
  d0:	4810      	ldr	r0, [pc, #64]	; (114 <_ZN5Comms13EthernetComms5beginEm+0x114>)
  d2:	f7ff fffe 	bl	0 <_ZN5Print6printfEPKcz>
  d6:	4630      	mov	r0, r6
  d8:	f7ff fffe 	bl	0 <_ZNK9qindesign7network13EthernetClass14hardwareStatusEv>
  dc:	2804      	cmp	r0, #4
  de:	d0d7      	beq.n	90 <_ZN5Comms13EthernetComms5beginEm+0x90>
  e0:	490f      	ldr	r1, [pc, #60]	; (120 <_ZN5Comms13EthernetComms5beginEm+0x120>)
  e2:	480c      	ldr	r0, [pc, #48]	; (114 <_ZN5Comms13EthernetComms5beginEm+0x114>)
  e4:	f7ff fffe 	bl	0 <_ZN5Print6printfEPKcz>
  e8:	4650      	mov	r0, sl
  ea:	b003      	add	sp, #12
  ec:	e8bd 8ff0 	ldmia.w	sp!, {r4, r5, r6, r7, r8, r9, sl, fp, pc}
  f0:	469a      	mov	sl, r3
  f2:	490c      	ldr	r1, [pc, #48]	; (124 <_ZN5Comms13EthernetComms5beginEm+0x124>)
  f4:	4807      	ldr	r0, [pc, #28]	; (114 <_ZN5Comms13EthernetComms5beginEm+0x114>)
  f6:	f7ff fffe 	bl	0 <_ZN5Print6printfEPKcz>
  fa:	4650      	mov	r0, sl
  fc:	b003      	add	sp, #12
  fe:	e8bd 8ff0 	ldmia.w	sp!, {r4, r5, r6, r7, r8, r9, sl, fp, pc}
 102:	bf00      	nop
 104:	00000000 	.word	0x00000000
 108:	47400000 	.word	0x47400000
 10c:	e0001000 	.word	0xe0001000
 110:	00000064 	.word	0x00000064
 114:	00000000 	.word	0x00000000
 118:	431bde83 	.word	0x431bde83
 11c:	00000000 	.word	0x00000000
 120:	0000001c 	.word	0x0000001c
 124:	00000044 	.word	0x00000044
 128:	00000000 	.word	0x00000000

Disassembly of section .text._ZN5Comms13EthernetComms11recv_packetEPNS_14EthernetPacketE:

00000000 <_ZN5Comms13EthernetComms11recv_packetEPNS_14EthernetPacketE>:
   0:	b5f8      	push	{r3, r4, r5, r6, r7, lr}
   2:	f100 0628 	add.w	r6, r0, #40	; 0x28
   6:	4604      	mov	r4, r0
   8:	460f      	mov	r7, r1
   a:	4630      	mov	r0, r6
   c:	f7ff fffe 	bl	0 <_ZN9qindesign7network11EthernetUDP11parsePacketEv>
  10:	1c43      	adds	r3, r0, #1
  12:	d00c      	beq.n	2e <_ZN5Comms13EthernetComms11recv_packetEPNS_14EthernetPacketE+0x2e>
  14:	f5b0 5fc0 	cmp.w	r0, #6144	; 0x1800
  18:	4605      	mov	r5, r0
  1a:	d00a      	beq.n	32 <_ZN5Comms13EthernetComms11recv_packetEPNS_14EthernetPacketE+0x32>
  1c:	2000      	movs	r0, #0
  1e:	e9d4 3236 	ldrd	r3, r2, [r4, #216]	; 0xd8
  22:	3301      	adds	r3, #1
  24:	f142 0200 	adc.w	r2, r2, #0
  28:	e9c4 3236 	strd	r3, r2, [r4, #216]	; 0xd8
  2c:	bdf8      	pop	{r3, r4, r5, r6, r7, pc}
  2e:	2000      	movs	r0, #0
  30:	bdf8      	pop	{r3, r4, r5, r6, r7, pc}
  32:	f8d4 30d0 	ldr.w	r3, [r4, #208]	; 0xd0
  36:	4630      	mov	r0, r6
  38:	3301      	adds	r3, #1
  3a:	f8c4 30d0 	str.w	r3, [r4, #208]	; 0xd0
  3e:	f8d4 30d4 	ldr.w	r3, [r4, #212]	; 0xd4
  42:	f143 0300 	adc.w	r3, r3, #0
  46:	f8c4 30d4 	str.w	r3, [r4, #212]	; 0xd4
  4a:	f7ff fffe 	bl	0 <_ZNK9qindesign7network11EthernetUDP4dataEv>
  4e:	4630      	mov	r0, r6
  50:	f7ff fffe 	bl	0 <_ZNK9qindesign7network11EthernetUDP4dataEv>
  54:	462a      	mov	r2, r5
  56:	4601      	mov	r1, r0
  58:	4638      	mov	r0, r7
  5a:	f7ff fffe 	bl	0 <memcpy>
  5e:	f7ff fffe 	bl	0 <micros>
  62:	4603      	mov	r3, r0
  64:	2001      	movs	r0, #1
  66:	f8c4 30b0 	str.w	r3, [r4, #176]	; 0xb0
  6a:	bdf8      	pop	{r3, r4, r5, r6, r7, pc}

Disassembly of section .text._ZN5Comms13EthernetComms14connect_jetsonEv:

00000000 <_ZN5Comms13EthernetComms14connect_jetsonEv>:
   0:	e92d 4ff0 	stmdb	sp!, {r4, r5, r6, r7, r8, r9, sl, fp, lr}
   4:	f100 03f8 	add.w	r3, r0, #248	; 0xf8
   8:	2500      	movs	r5, #0
   a:	4604      	mov	r4, r0
   c:	f241 72f0 	movw	r2, #6128	; 0x17f0
  10:	4629      	mov	r1, r5
  12:	f100 08e8 	add.w	r8, r0, #232	; 0xe8
  16:	f104 0a1c 	add.w	sl, r4, #28
  1a:	f104 0928 	add.w	r9, r4, #40	; 0x28
  1e:	ed2d 8b04 	vpush	{d8-d9}
  22:	f8c0 50e8 	str.w	r5, [r0, #232]	; 0xe8
  26:	b083      	sub	sp, #12
  28:	f8c0 50ec 	str.w	r5, [r0, #236]	; 0xec
  2c:	ee09 3a10 	vmov	s18, r3
  30:	f8c0 50f0 	str.w	r5, [r0, #240]	; 0xf0
  34:	f8c0 50f4 	str.w	r5, [r0, #244]	; 0xf4
  38:	4618      	mov	r0, r3
  3a:	f7ff fffe 	bl	0 <memset>
  3e:	f641 03e8 	movw	r3, #6376	; 0x18e8
  42:	4629      	mov	r1, r5
  44:	f241 72f0 	movw	r2, #6128	; 0x17f0
  48:	18e7      	adds	r7, r4, r3
  4a:	50e5      	str	r5, [r4, r3]
  4c:	f107 0310 	add.w	r3, r7, #16
  50:	607d      	str	r5, [r7, #4]
  52:	60bd      	str	r5, [r7, #8]
  54:	ee08 7a10 	vmov	s16, r7
  58:	4618      	mov	r0, r3
  5a:	60fd      	str	r5, [r7, #12]
  5c:	ee08 3a90 	vmov	s17, r3
  60:	f7ff fffe 	bl	0 <memset>
  64:	f504 5380 	add.w	r3, r4, #4096	; 0x1000
  68:	f240 3202 	movw	r2, #770	; 0x302
  6c:	f8a3 28f6 	strh.w	r2, [r3, #2294]	; 0x8f6
  70:	f7ff fffe 	bl	0 <micros>
  74:	4683      	mov	fp, r0
  76:	f7ff fffe 	bl	0 <micros>
  7a:	4b3d      	ldr	r3, [pc, #244]	; (170 <_ZN5Comms13EthernetComms14connect_jetsonEv+0x170>)
  7c:	4605      	mov	r5, r0
  7e:	681e      	ldr	r6, [r3, #0]
  80:	f7ff fffe 	bl	0 <micros>
  84:	4603      	mov	r3, r0
  86:	f8d4 20a4 	ldr.w	r2, [r4, #164]	; 0xa4
  8a:	4630      	mov	r0, r6
  8c:	1b5b      	subs	r3, r3, r5
  8e:	4293      	cmp	r3, r2
  90:	d3f6      	bcc.n	80 <_ZN5Comms13EthernetComms14connect_jetsonEv+0x80>
  92:	f7ff fffe 	bl	0 <_ZN9qindesign7network13EthernetClass4loopEv>
  96:	4641      	mov	r1, r8
  98:	4620      	mov	r0, r4
  9a:	f7ff fffe 	bl	0 <_ZN5Comms13EthernetComms14connect_jetsonEv>
  9e:	4602      	mov	r2, r0
  a0:	ee18 3a10 	vmov	r3, s16
  a4:	4651      	mov	r1, sl
  a6:	4648      	mov	r0, r9
  a8:	2a00      	cmp	r2, #0
  aa:	d0e9      	beq.n	80 <_ZN5Comms13EthernetComms14connect_jetsonEv+0x80>
  ac:	f894 20f6 	ldrb.w	r2, [r4, #246]	; 0xf6
  b0:	2a02      	cmp	r2, #2
  b2:	d128      	bne.n	106 <_ZN5Comms13EthernetComms14connect_jetsonEv+0x106>
  b4:	f44f 57c0 	mov.w	r7, #6144	; 0x1800
  b8:	8ca2      	ldrh	r2, [r4, #36]	; 0x24
  ba:	9700      	str	r7, [sp, #0]
  bc:	f7ff fffe 	bl	0 <_ZN9qindesign7network11EthernetUDP4sendERK9IPAddresstPKhj>
  c0:	b9c8      	cbnz	r0, f6 <_ZN5Comms13EthernetComms14connect_jetsonEv+0xf6>
  c2:	e9d4 3232 	ldrd	r3, r2, [r4, #200]	; 0xc8
  c6:	3301      	adds	r3, #1
  c8:	f142 0200 	adc.w	r2, r2, #0
  cc:	e9c4 3232 	strd	r3, r2, [r4, #200]	; 0xc8
  d0:	f7ff fffe 	bl	0 <micros>
  d4:	f8d4 30b8 	ldr.w	r3, [r4, #184]	; 0xb8
  d8:	eba0 000b 	sub.w	r0, r0, fp
  dc:	4298      	cmp	r0, r3
  de:	d3cf      	bcc.n	80 <_ZN5Comms13EthernetComms14connect_jetsonEv+0x80>
  e0:	4924      	ldr	r1, [pc, #144]	; (174 <_ZN5Comms13EthernetComms14connect_jetsonEv+0x174>)
  e2:	4825      	ldr	r0, [pc, #148]	; (178 <_ZN5Comms13EthernetComms14connect_jetsonEv+0x178>)
  e4:	f7ff fffe 	bl	0 <_ZN5Print6printfEPKcz>
  e8:	f04f 30ff 	mov.w	r0, #4294967295	; 0xffffffff
  ec:	b003      	add	sp, #12
  ee:	ecbd 8b04 	vpop	{d8-d9}
  f2:	e8bd 8ff0 	ldmia.w	sp!, {r4, r5, r6, r7, r8, r9, sl, fp, pc}
  f6:	e9d4 3230 	ldrd	r3, r2, [r4, #192]	; 0xc0
  fa:	3301      	adds	r3, #1
  fc:	f142 0200 	adc.w	r2, r2, #0
 100:	e9c4 3230 	strd	r3, r2, [r4, #192]	; 0xc0
 104:	e7e4      	b.n	d0 <_ZN5Comms13EthernetComms14connect_jetsonEv+0xd0>
 106:	2500      	movs	r5, #0
 108:	ee19 0a10 	vmov	r0, s18
 10c:	f241 72f0 	movw	r2, #6128	; 0x17f0
 110:	ee18 7a10 	vmov	r7, s16
 114:	f8c4 50e8 	str.w	r5, [r4, #232]	; 0xe8
 118:	4629      	mov	r1, r5
 11a:	f8c8 5004 	str.w	r5, [r8, #4]
 11e:	f8c8 5008 	str.w	r5, [r8, #8]
 122:	f8c8 500c 	str.w	r5, [r8, #12]
 126:	f7ff fffe 	bl	0 <memset>
 12a:	f641 03e8 	movw	r3, #6376	; 0x18e8
 12e:	4629      	mov	r1, r5
 130:	f241 72f0 	movw	r2, #6128	; 0x17f0
 134:	50e5      	str	r5, [r4, r3]
 136:	ee18 0a90 	vmov	r0, s17
 13a:	607d      	str	r5, [r7, #4]
 13c:	60bd      	str	r5, [r7, #8]
 13e:	60fd      	str	r5, [r7, #12]
 140:	f7ff fffe 	bl	0 <memset>
 144:	2200      	movs	r2, #0
 146:	2300      	movs	r3, #0
 148:	e9c4 2334 	strd	r2, r3, [r4, #208]	; 0xd0
 14c:	e9c4 2336 	strd	r2, r3, [r4, #216]	; 0xd8
 150:	e9c4 2330 	strd	r2, r3, [r4, #192]	; 0xc0
 154:	e9c4 2332 	strd	r2, r3, [r4, #200]	; 0xc8
 158:	f7ff fffe 	bl	0 <micros>
 15c:	4603      	mov	r3, r0
 15e:	4628      	mov	r0, r5
 160:	f8c4 30e0 	str.w	r3, [r4, #224]	; 0xe0
 164:	b003      	add	sp, #12
 166:	ecbd 8b04 	vpop	{d8-d9}
 16a:	e8bd 8ff0 	ldmia.w	sp!, {r4, r5, r6, r7, r8, r9, sl, fp, pc}
 16e:	bf00      	nop
 170:	00000000 	.word	0x00000000
 174:	00000000 	.word	0x00000000
 178:	00000000 	.word	0x00000000

Disassembly of section .text._ZN5Comms13EthernetComms4loopEv:

00000000 <_ZN5Comms13EthernetComms4loopEv>:
   0:	4b22      	ldr	r3, [pc, #136]	; (8c <_ZN5Comms13EthernetComms4loopEv+0x8c>)
   2:	b510      	push	{r4, lr}
   4:	4604      	mov	r4, r0
   6:	b082      	sub	sp, #8
   8:	6818      	ldr	r0, [r3, #0]
   a:	f7ff fffe 	bl	0 <_ZN9qindesign7network13EthernetClass4loopEv>
   e:	f44f 50c0 	mov.w	r0, #6144	; 0x1800
  12:	f641 03e8 	movw	r3, #6376	; 0x18e8
  16:	8ca2      	ldrh	r2, [r4, #36]	; 0x24
  18:	f104 011c 	add.w	r1, r4, #28
  1c:	9000      	str	r0, [sp, #0]
  1e:	4423      	add	r3, r4
  20:	f104 0028 	add.w	r0, r4, #40	; 0x28
  24:	f7ff fffe 	bl	0 <_ZN9qindesign7network11EthernetUDP4sendERK9IPAddresstPKhj>
  28:	b9e0      	cbnz	r0, 64 <_ZN5Comms13EthernetComms4loopEv+0x64>
  2a:	e9d4 3232 	ldrd	r3, r2, [r4, #200]	; 0xc8
  2e:	3301      	adds	r3, #1
  30:	f142 0200 	adc.w	r2, r2, #0
  34:	e9c4 3232 	strd	r3, r2, [r4, #200]	; 0xc8
  38:	f104 01e8 	add.w	r1, r4, #232	; 0xe8
  3c:	4620      	mov	r0, r4
  3e:	f7ff fffe 	bl	0 <_ZN5Comms13EthernetComms4loopEv>
  42:	f894 30f6 	ldrb.w	r3, [r4, #246]	; 0xf6
  46:	2b02      	cmp	r3, #2
  48:	d014      	beq.n	74 <_ZN5Comms13EthernetComms4loopEv+0x74>
  4a:	f7ff fffe 	bl	0 <micros>
  4e:	e9d4 232c 	ldrd	r2, r3, [r4, #176]	; 0xb0
  52:	1a80      	subs	r0, r0, r2
  54:	4298      	cmp	r0, r3
  56:	bf8c      	ite	hi
  58:	2000      	movhi	r0, #0
  5a:	2001      	movls	r0, #1
  5c:	f884 00ac 	strb.w	r0, [r4, #172]	; 0xac
  60:	b002      	add	sp, #8
  62:	bd10      	pop	{r4, pc}
  64:	e9d4 3230 	ldrd	r3, r2, [r4, #192]	; 0xc0
  68:	3301      	adds	r3, #1
  6a:	f142 0200 	adc.w	r2, r2, #0
  6e:	e9c4 3230 	strd	r3, r2, [r4, #192]	; 0xc0
  72:	e7e1      	b.n	38 <_ZN5Comms13EthernetComms4loopEv+0x38>
  74:	4906      	ldr	r1, [pc, #24]	; (90 <_ZN5Comms13EthernetComms4loopEv+0x90>)
  76:	4807      	ldr	r0, [pc, #28]	; (94 <_ZN5Comms13EthernetComms4loopEv+0x94>)
  78:	f7ff fffe 	bl	0 <_ZN5Print6printfEPKcz>
  7c:	4620      	mov	r0, r4
  7e:	f7ff fffe 	bl	0 <_ZN5Comms13EthernetComms4loopEv>
  82:	4905      	ldr	r1, [pc, #20]	; (98 <_ZN5Comms13EthernetComms4loopEv+0x98>)
  84:	4803      	ldr	r0, [pc, #12]	; (94 <_ZN5Comms13EthernetComms4loopEv+0x94>)
  86:	f7ff fffe 	bl	0 <_ZN5Print6printfEPKcz>
  8a:	e7de      	b.n	4a <_ZN5Comms13EthernetComms4loopEv+0x4a>
  8c:	00000000 	.word	0x00000000
  90:	00000000 	.word	0x00000000
  94:	00000000 	.word	0x00000000
  98:	00000018 	.word	0x00000018
