
build/./libraries/FastLED/src/FastLED.cpp.o:     file format elf32-littlearm

SYMBOL TABLE:
00000000 l    df *ABS*	00000000 FastLED.cpp
00000000 l    d  .text	00000000 .text
00000000 l    d  .data	00000000 .data
00000000 l    d  .bss	00000000 .bss
00000000 l    d  .text._ZN14CLEDController13beginShowLedsEv	00000000 .text._ZN14CLEDController13beginShowLedsEv
00000000 l    d  .text._ZN14CLEDController11endShowLedsEPv	00000000 .text._ZN14CLEDController11endShowLedsEPv
00000000 l    d  .text._ZNK14CLEDController17getMaxRefreshRateEv	00000000 .text._ZNK14CLEDController17getMaxRefreshRateEv
00000000 l    d  .text._ZN8CFastLEDC2Ev	00000000 .text._ZN8CFastLEDC2Ev
00000000 l    d  .text._ZN8CFastLED7addLedsEP14CLEDControllerP4CRGBii	00000000 .text._ZN8CFastLED7addLedsEP14CLEDControllerP4CRGBii
00000000 l    d  .text._ZN8CFastLED4showEh	00000000 .text._ZN8CFastLED4showEh
00000000 l    d  .text._ZN8CFastLED5countEv	00000000 .text._ZN8CFastLED5countEv
00000000 l    d  .text._ZN8CFastLEDixEi	00000000 .text._ZN8CFastLEDixEi
00000000 l    d  .text._ZN8CFastLED9showColorERK4CRGBh	00000000 .text._ZN8CFastLED9showColorERK4CRGBh
00000000 l    d  .text._ZN8CFastLED5clearEb	00000000 .text._ZN8CFastLED5clearEb
00000000 l    d  .text._ZN8CFastLED9clearDataEv	00000000 .text._ZN8CFastLED9clearDataEv
00000000 l    d  .text._ZN8CFastLED5delayEm	00000000 .text._ZN8CFastLED5delayEm
00000000 l    d  .text._ZN8CFastLED14setTemperatureERK4CRGB	00000000 .text._ZN8CFastLED14setTemperatureERK4CRGB
00000000 l    d  .text._ZN8CFastLED13setCorrectionERK4CRGB	00000000 .text._ZN8CFastLED13setCorrectionERK4CRGB
00000000 l    d  .text._ZN8CFastLED9setDitherEh	00000000 .text._ZN8CFastLED9setDitherEh
00000000 l    d  .text._ZN8CFastLED8countFPSEi	00000000 .text._ZN8CFastLED8countFPSEi
00000000 l    d  .text._ZN8CFastLED17setMaxRefreshRateEtb	00000000 .text._ZN8CFastLED17setMaxRefreshRateEtb
00000000 l    d  .text.atexit	00000000 .text.atexit
00000000 l    d  .text.startup._GLOBAL__sub_I_pSmartMatrix	00000000 .text.startup._GLOBAL__sub_I_pSmartMatrix
00000000 l     F .text.startup._GLOBAL__sub_I_pSmartMatrix	00000018 _GLOBAL__sub_I_pSmartMatrix
00000000 l    d  .init_array	00000000 .init_array
00000000 l    d  .bss.FastLED	00000000 .bss.FastLED
00000000 l    d  .bss._ZL8lastshow	00000000 .bss._ZL8lastshow
00000000 l     O .bss._ZL8lastshow	00000004 _ZL8lastshow
00000000 l    d  .bss._ZN14CLEDController7m_pHeadE	00000000 .bss._ZN14CLEDController7m_pHeadE
00000000 l    d  .bss._ZN14CLEDController7m_pTailE	00000000 .bss._ZN14CLEDController7m_pTailE
00000000 l    d  .bss._ZZN8CFastLED8countFPSEiE2br	00000000 .bss._ZZN8CFastLED8countFPSEiE2br
00000000 l     O .bss._ZZN8CFastLED8countFPSEiE2br	00000004 _ZZN8CFastLED8countFPSEiE2br
00000000 l    d  .bss._ZZN8CFastLED8countFPSEiE9lastframe	00000000 .bss._ZZN8CFastLED8countFPSEiE9lastframe
00000000 l     O .bss._ZZN8CFastLED8countFPSEiE9lastframe	00000004 _ZZN8CFastLED8countFPSEiE9lastframe
00000000 l    d  .bss._frame_cnt	00000000 .bss._frame_cnt
00000000 l    d  .bss._retry_cnt	00000000 .bss._retry_cnt
00000000 l    d  .bss.pSmartMatrix	00000000 .bss.pSmartMatrix
00000000 l    d  .comment	00000000 .comment
00000000 l    d  .ARM.attributes	00000000 .ARM.attributes
00000000 l    d  .group	00000000 .group
00000000 l    d  .group	00000000 .group
00000000 l    d  .group	00000000 .group
00000000  w    F .text._ZN14CLEDController13beginShowLedsEv	00000004 _ZN14CLEDController13beginShowLedsEv
00000000  w    F .text._ZN14CLEDController11endShowLedsEPv	00000004 _ZN14CLEDController11endShowLedsEPv
00000000  w    F .text._ZNK14CLEDController17getMaxRefreshRateEv	00000004 _ZNK14CLEDController17getMaxRefreshRateEv
00000000 g     F .text._ZN8CFastLEDC2Ev	00000016 _ZN8CFastLEDC2Ev
00000000 g     F .text._ZN8CFastLEDC2Ev	00000016 _ZN8CFastLEDC1Ev
00000000 g     F .text._ZN8CFastLED7addLedsEP14CLEDControllerP4CRGBii	00000058 _ZN8CFastLED7addLedsEP14CLEDControllerP4CRGBii
00000000 g     F .text._ZN8CFastLED4showEh	00000180 _ZN8CFastLED4showEh
00000000         *UND*	00000000 micros
00000000         *UND*	00000000 memset
00000000         *UND*	00000000 systick_millis_count
00000000 g     F .text._ZN8CFastLED5countEv	0000001c _ZN8CFastLED5countEv
00000000 g     F .text._ZN8CFastLEDixEi	00000030 _ZN8CFastLEDixEi
00000000 g     F .text._ZN8CFastLED9showColorERK4CRGBh	0000017c _ZN8CFastLED9showColorERK4CRGBh
00000000 g     F .text._ZN8CFastLED5clearEb	0000003c _ZN8CFastLED5clearEb
00000000 g     F .text._ZN8CFastLED9clearDataEv	00000024 _ZN8CFastLED9clearDataEv
00000000 g     F .text._ZN8CFastLED5delayEm	00000024 _ZN8CFastLED5delayEm
00000000         *UND*	00000000 yield
00000000 g     F .text._ZN8CFastLED14setTemperatureERK4CRGB	00000030 _ZN8CFastLED14setTemperatureERK4CRGB
00000000 g     F .text._ZN8CFastLED13setCorrectionERK4CRGB	0000002c _ZN8CFastLED13setCorrectionERK4CRGB
00000000 g     F .text._ZN8CFastLED9setDitherEh	00000014 _ZN8CFastLED9setDitherEh
00000000 g     F .text._ZN8CFastLED8countFPSEi	00000044 _ZN8CFastLED8countFPSEi
00000000 g     F .text._ZN8CFastLED17setMaxRefreshRateEtb	0000002c _ZN8CFastLED17setMaxRefreshRateEtb
00000000 g     F .text.atexit	00000004 atexit
00000000 g     O .bss._retry_cnt	00000004 _retry_cnt
00000000 g     O .bss._frame_cnt	00000004 _frame_cnt
00000000 g     O .bss._ZN14CLEDController7m_pTailE	00000004 _ZN14CLEDController7m_pTailE
00000000 g     O .bss._ZN14CLEDController7m_pHeadE	00000004 _ZN14CLEDController7m_pHeadE
00000000 g     O .bss.FastLED	00000010 FastLED
00000000 g     O .bss.pSmartMatrix	00000004 pSmartMatrix


Contents of section .group:
 0000 01000000 07000000                    ........        
Contents of section .group:
 0000 01000000 08000000                    ........        
Contents of section .group:
 0000 01000000 09000000                    ........        
Contents of section .text._ZN14CLEDController13beginShowLedsEv:
 0000 807c7047                             .|pG            
Contents of section .text._ZN14CLEDController11endShowLedsEPv:
 0000 81747047                             .tpG            
Contents of section .text._ZNK14CLEDController17getMaxRefreshRateEv:
 0000 00207047                             . pG            
Contents of section .text._ZN8CFastLEDC2Ev:
 0000 00224ff0 ff0c4ff0 ff3180f8 00c04280  ."O...O..1....B.
 0010 c0e90212 704700bf                    ....pG..        
Contents of section .text._ZN8CFastLED7addLedsEP14CLEDControllerP4CRGBii:
 0000 002b70b5 04460e46 154603dd 02eb4202  .+p..F.F.F....B.
 0010 1d461644 23682046 9b689847 23680b4a  .F.D#h F.h.G#h.J
 0020 1b6a6660 93426561 01d12046 70bd2046  .jf`.Bea.. Fp. F
 0030 98470028 f9d0064b 064ab3fb f0f05368  .G.(...K.J....Sh
 0040 834238bf 03462046 536070bd 00000000  .B8..F FS`p.....
 0050 40420f00 00000000                    @B......        
Contents of section .text._ZN8CFastLED4showEh:
 0000 2de9f04f 4368c7b0 564c0646 8a4633b1  -..OCh..VL.F.F3.
 0010 fff7feff 22687368 801a9842 f7d3fff7  ...."hsh...B....
 0020 fefff368 20601bb1 5046b168 98478246  ...h `..PF.h.G.F
 0030 4ff48072 002106a8 fff7feff 4a4b1c68  O..r.!......JK.h
 0040 002c6ed0 0df11808 0025c146 2f46cde9  .,n......%.F/F..
 0050 0068d046 23684549 9a698a42 7dd1a07c  .h.F#hEI.i.B}..|
 0060 009a0135 61685288 49f8040b 632aadf8  ...5ahR.I...c*..
 0070 10706269 98bfa774 8df81270 5e68b8f1  .pbi...t...p^h..
 0080 000f1cd0 04f10b00 0df1100c 04f10e0b  ................
 0090 a64610f8 014f90f8 03a05cb1 0af10103  .F...O....\.....
 00a0 baf1000f 06d004fb 033308fb 03f31b0c  .........3......
 00b0 8cf80030 83450cf1 010cead1 7446049b  ...0.E......tF..
 00c0 2046adf8 14301b0c 8df81630 059badf8   F...0.....0....
 00d0 08301b0c 8df80a30 029badf8 0c301b0c  .0.....0.....0..
 00e0 8df80e30 039bb047 a4680cb1 3f2db1dd  ...0...G.h..?-..
 00f0 1d4b1c68 dde90068 9cb10025 1c4f04e0  .K.h...h...%.O..
 0100 a174a468 6cb13f2d 0bdc2368 013558f8  .t.hl.?-..#h.5X.
 0110 041bdb69 bb42f3d0 20469847 a468002c  ...i.B.. F.G.h.,
 0120 f1d1144a 11684b1c 18291360 12dd1248  ...J.hK..).`...H
 0130 4ff47a74 016804fb 03f30568 0f480468  O.zt.h.....h.H.h
 0140 05600020 091b1060 012938bf 0121b3fb  .`. ...`.)8..!..
 0150 f1f37380 47b0bde8 f08f2046 90472368  ..s.G..... F.G#h
 0160 7ee700bf 00000000 00000000 00000000  ~...............
 0170 00000000 00000000 00000000 00000000  ................
Contents of section .text._ZN8CFastLED5countEv:
 0000 054b1b68 2bb10020 9b680130 002bfbd1  .K.h+.. .h.0.+..
 0010 70471846 704700bf 00000000           pG.FpG......    
Contents of section .text._ZN8CFastLEDixEi:
 0000 0a4b1b68 79b163b1 02391846 00e040b1  .K.hy.c..9.F..@.
 0010 4a1c8068 01f1ff31 f9d10028 08bf1846  J..h...1...(...F
 0020 70471846 70471846 f7e700bf 00000000  pG.FpG.F........
Contents of section .text._ZN8CFastLED9showColorERK4CRGBh:
 0000 2de9f04f 4368c7b0 554c0646 89469346  -..OCh..UL.F.F.F
 0010 33b1fff7 feff2268 7368801a 9842f7d3  3....."hsh...B..
 0020 fff7feff f3682060 1bb15846 b1689847  .....h `..XF.h.G
 0030 83464ff4 80720021 06a8fff7 feff494b  .FO..r.!......IK
 0040 1c68002c 6cd00df1 18080025 c2462f46  .h.,l......%.F/F
 0050 cde90068 d8462368 43499a69 8a427bd1  ...h.F#hCI.i.B{.
 0060 a07c009a 01354af8 040b5288 adf81070  .|...5J...R....p
 0070 632a8df8 12706269 98bfa774 1e68b8f1  c*...pbi...t.h..
 0080 000f1ad0 04f10b00 04a904f1 0e0ba446  ...............F
 0090 10f8014f 90f803e0 54b10ef1 0103bef1  ...O....T.......
 00a0 000f05d0 04fb0333 08fb03f3 1b0c0b70  .......3.......p
 00b0 834501f1 0101ebd1 6446049b 20464946  .E......dF.. FIF
 00c0 adf81430 1b0c8df8 1630059b adf80830  ...0.....0.....0
 00d0 1b0c8df8 0a30029b adf80c30 1b0c8df8  .....0.....0....
 00e0 0e30039b b047a468 0cb13f2d b3dd1d4b  .0...G.h..?-...K
 00f0 1c68dde9 00689cb1 00251c4f 04e0a174  .h...h...%.O...t
 0100 a4686cb1 3f2d0bdc 23680135 58f8041b  .hl.?-..#h.5X...
 0110 db69bb42 f3d02046 9847a468 002cf1d1  .i.B.. F.G.h.,..
 0120 134a1168 4b1c1829 136012dd 11484ff4  .J.hK..).`...HO.
 0130 7a740168 04fb03f3 05680f48 04680560  zt.h.....h.H.h.`
 0140 0020091b 10600129 38bf0121 b3fbf1f3  . ...`.)8..!....
 0150 738047b0 bde8f08f 20469047 236880e7  s.G..... F.G#h..
 0160 00000000 00000000 00000000 00000000  ................
 0170 00000000 00000000 00000000           ............    
Contents of section .text._ZN8CFastLED5clearEb:
 0000 10b582b0 79b90c4b 1c6854b1 60680021  ....y..K.hT.`h.!
 0010 20b16269 02eb4202 fff7feff a468002c   .bi..B......h.,
 0020 f4d102b0 10bd0022 01a9adf8 04208df8  ......."..... ..
 0030 0620fff7 feffe6e7 00000000           . ..........    
Contents of section .text._ZN8CFastLED9clearDataEv:
 0000 074b10b5 1c6854b1 60680021 20b16269  .K...hT.`h.! .bi
 0010 02eb4202 fff7feff a468002c f4d110bd  ..B......h.,....
 0020 00000000                             ....            
Contents of section .text._ZN8CFastLED5delayEm:
 0000 f8b5074e 04460d46 37682178 2046fff7  ...N.F.F7h!x F..
 0010 fefffff7 feff3368 db1bab42 f5d3f8bd  ......3h...B....
 0020 00000000                             ....            
Contents of section .text._ZN8CFastLED14setTemperatureERK4CRGB:
 0000 0a4b1b68 83b182b0 08888a78 adf80400  .K.h.......x....
 0010 bdf80400 5a74a3f8 0f009b68 8df80620  ....Zt.....h... 
 0020 002bf1d1 02b07047 704700bf 00000000  .+....pGpG......
Contents of section .text._ZN8CFastLED13setCorrectionERK4CRGB:
 0000 094b1b68 7bb182b0 08888a78 adf80400  .K.h{......x....
 0010 8df80620 019a100c 9a819873 9b68002b  ... .......s.h.+
 0020 f2d102b0 70477047 00000000           ....pGpG....    
Contents of section .text._ZN8CFastLED9setDitherEh:
 0000 034b1b68 1bb19974 9b68002b fbd17047  .K.h...t.h.+..pG
 0010 00000000                             ....            
Contents of section .text._ZN8CFastLED8countFPSEi:
 0000 70b40d4c 2268531c 8a422360 12db0b49  p..L"hS..B#`...I
 0010 4ff47a75 0a6805fb 03f30e68 08490d68  O.zu.h.....h.I.h
 0020 0e600021 521b2160 012a38bf 0122b3fb  .`.!R.!`.*8.."..
 0030 f2f34380 70bc7047 00000000 00000000  ..C.p.pG........
 0040 00000000                             ....            
Contents of section .text._ZN8CFastLED17setMaxRefreshRateEtb:
 0000 4ab151b1 084a4368 b2fbf1f2 934238bf  J.Q..JCh.....B8.
 0010 13464360 704709b9 41607047 024bb3fb  .FC`pG..A`pG.K..
 0020 f1f34360 704700bf 40420f00           ..C`pG..@B..    
Contents of section .text.atexit:
 0000 00207047                             . pG            
Contents of section .text.startup._GLOBAL__sub_I_pSmartMatrix:
 0000 044bff20 4ff0ff31 00221860 c3e90212  .K. O..1.".`....
 0010 704700bf 00000000                    pG......        
Contents of section .init_array:
 0000 00000000                             ....            
Contents of section .comment:
 0000 00474343 3a202841 726d2047 4e552054  .GCC: (Arm GNU T
 0010 6f6f6c63 6861696e 2031312e 332e5265  oolchain 11.3.Re
 0020 6c312920 31312e33 2e312032 30323230  l1) 11.3.1 20220
 0030 37313200                             712.            
Contents of section .ARM.attributes:
 0000 41310000 00616561 62690001 27000000  A1...aeabi..'...
 0010 0537452d 4d00060d 074d0902 0a081204  .7E-M....M......
 0020 14011501 17031801 19011a01 1c011e02  ................
 0030 2201                                 ".              

Disassembly of section .text._ZN14CLEDController13beginShowLedsEv:

00000000 <_ZN14CLEDController13beginShowLedsEv>:
   0:	7c80      	ldrb	r0, [r0, #18]
   2:	4770      	bx	lr

Disassembly of section .text._ZN14CLEDController11endShowLedsEPv:

00000000 <_ZN14CLEDController11endShowLedsEPv>:
   0:	7481      	strb	r1, [r0, #18]
   2:	4770      	bx	lr

Disassembly of section .text._ZNK14CLEDController17getMaxRefreshRateEv:

00000000 <_ZNK14CLEDController17getMaxRefreshRateEv>:
   0:	2000      	movs	r0, #0
   2:	4770      	bx	lr

Disassembly of section .text._ZN8CFastLEDC2Ev:

00000000 <_ZN8CFastLEDC1Ev>:
   0:	2200      	movs	r2, #0
   2:	f04f 0cff 	mov.w	ip, #255	; 0xff
   6:	f04f 31ff 	mov.w	r1, #4294967295	; 0xffffffff
   a:	f880 c000 	strb.w	ip, [r0]
   e:	8042      	strh	r2, [r0, #2]
  10:	e9c0 1202 	strd	r1, r2, [r0, #8]
  14:	4770      	bx	lr
  16:	bf00      	nop

Disassembly of section .text._ZN8CFastLED7addLedsEP14CLEDControllerP4CRGBii:

00000000 <_ZN8CFastLED7addLedsEP14CLEDControllerP4CRGBii>:
   0:	2b00      	cmp	r3, #0
   2:	b570      	push	{r4, r5, r6, lr}
   4:	4604      	mov	r4, r0
   6:	460e      	mov	r6, r1
   8:	4615      	mov	r5, r2
   a:	dd03      	ble.n	14 <_ZN8CFastLED7addLedsEP14CLEDControllerP4CRGBii+0x14>
   c:	eb02 0242 	add.w	r2, r2, r2, lsl #1
  10:	461d      	mov	r5, r3
  12:	4416      	add	r6, r2
  14:	6823      	ldr	r3, [r4, #0]
  16:	4620      	mov	r0, r4
  18:	689b      	ldr	r3, [r3, #8]
  1a:	4798      	blx	r3
  1c:	6823      	ldr	r3, [r4, #0]
  1e:	4a0b      	ldr	r2, [pc, #44]	; (4c <_ZN8CFastLED7addLedsEP14CLEDControllerP4CRGBii+0x4c>)
  20:	6a1b      	ldr	r3, [r3, #32]
  22:	6066      	str	r6, [r4, #4]
  24:	4293      	cmp	r3, r2
  26:	6165      	str	r5, [r4, #20]
  28:	d101      	bne.n	2e <_ZN8CFastLED7addLedsEP14CLEDControllerP4CRGBii+0x2e>
  2a:	4620      	mov	r0, r4
  2c:	bd70      	pop	{r4, r5, r6, pc}
  2e:	4620      	mov	r0, r4
  30:	4798      	blx	r3
  32:	2800      	cmp	r0, #0
  34:	d0f9      	beq.n	2a <_ZN8CFastLED7addLedsEP14CLEDControllerP4CRGBii+0x2a>
  36:	4b06      	ldr	r3, [pc, #24]	; (50 <_ZN8CFastLED7addLedsEP14CLEDControllerP4CRGBii+0x50>)
  38:	4a06      	ldr	r2, [pc, #24]	; (54 <_ZN8CFastLED7addLedsEP14CLEDControllerP4CRGBii+0x54>)
  3a:	fbb3 f0f0 	udiv	r0, r3, r0
  3e:	6853      	ldr	r3, [r2, #4]
  40:	4283      	cmp	r3, r0
  42:	bf38      	it	cc
  44:	4603      	movcc	r3, r0
  46:	4620      	mov	r0, r4
  48:	6053      	str	r3, [r2, #4]
  4a:	bd70      	pop	{r4, r5, r6, pc}
  4c:	00000000 	.word	0x00000000
  50:	000f4240 	.word	0x000f4240
  54:	00000000 	.word	0x00000000

Disassembly of section .text._ZN8CFastLED4showEh:

00000000 <_ZN8CFastLED4showEh>:
   0:	e92d 4ff0 	stmdb	sp!, {r4, r5, r6, r7, r8, r9, sl, fp, lr}
   4:	6843      	ldr	r3, [r0, #4]
   6:	b0c7      	sub	sp, #284	; 0x11c
   8:	4c56      	ldr	r4, [pc, #344]	; (164 <_ZN8CFastLED4showEh+0x164>)
   a:	4606      	mov	r6, r0
   c:	468a      	mov	sl, r1
   e:	b133      	cbz	r3, 1e <_ZN8CFastLED4showEh+0x1e>
  10:	f7ff fffe 	bl	0 <micros>
  14:	6822      	ldr	r2, [r4, #0]
  16:	6873      	ldr	r3, [r6, #4]
  18:	1a80      	subs	r0, r0, r2
  1a:	4298      	cmp	r0, r3
  1c:	d3f7      	bcc.n	e <_ZN8CFastLED4showEh+0xe>
  1e:	f7ff fffe 	bl	0 <micros>
  22:	68f3      	ldr	r3, [r6, #12]
  24:	6020      	str	r0, [r4, #0]
  26:	b11b      	cbz	r3, 30 <_ZN8CFastLED4showEh+0x30>
  28:	4650      	mov	r0, sl
  2a:	68b1      	ldr	r1, [r6, #8]
  2c:	4798      	blx	r3
  2e:	4682      	mov	sl, r0
  30:	f44f 7280 	mov.w	r2, #256	; 0x100
  34:	2100      	movs	r1, #0
  36:	a806      	add	r0, sp, #24
  38:	f7ff fffe 	bl	0 <memset>
  3c:	4b4a      	ldr	r3, [pc, #296]	; (168 <_ZN8CFastLED4showEh+0x168>)
  3e:	681c      	ldr	r4, [r3, #0]
  40:	2c00      	cmp	r4, #0
  42:	d06e      	beq.n	122 <_ZN8CFastLED4showEh+0x122>
  44:	f10d 0818 	add.w	r8, sp, #24
  48:	2500      	movs	r5, #0
  4a:	46c1      	mov	r9, r8
  4c:	462f      	mov	r7, r5
  4e:	e9cd 6800 	strd	r6, r8, [sp]
  52:	46d0      	mov	r8, sl
  54:	6823      	ldr	r3, [r4, #0]
  56:	4945      	ldr	r1, [pc, #276]	; (16c <_ZN8CFastLED4showEh+0x16c>)
  58:	699a      	ldr	r2, [r3, #24]
  5a:	428a      	cmp	r2, r1
  5c:	d17d      	bne.n	15a <_ZN8CFastLED4showEh+0x15a>
  5e:	7ca0      	ldrb	r0, [r4, #18]
  60:	9a00      	ldr	r2, [sp, #0]
  62:	3501      	adds	r5, #1
  64:	6861      	ldr	r1, [r4, #4]
  66:	8852      	ldrh	r2, [r2, #2]
  68:	f849 0b04 	str.w	r0, [r9], #4
  6c:	2a63      	cmp	r2, #99	; 0x63
  6e:	f8ad 7010 	strh.w	r7, [sp, #16]
  72:	6962      	ldr	r2, [r4, #20]
  74:	bf98      	it	ls
  76:	74a7      	strbls	r7, [r4, #18]
  78:	f88d 7012 	strb.w	r7, [sp, #18]
  7c:	685e      	ldr	r6, [r3, #4]
  7e:	f1b8 0f00 	cmp.w	r8, #0
  82:	d01c      	beq.n	be <_ZN8CFastLED4showEh+0xbe>
  84:	f104 000b 	add.w	r0, r4, #11
  88:	f10d 0c10 	add.w	ip, sp, #16
  8c:	f104 0b0e 	add.w	fp, r4, #14
  90:	46a6      	mov	lr, r4
  92:	f810 4f01 	ldrb.w	r4, [r0, #1]!
  96:	f890 a003 	ldrb.w	sl, [r0, #3]
  9a:	b15c      	cbz	r4, b4 <_ZN8CFastLED4showEh+0xb4>
  9c:	f10a 0301 	add.w	r3, sl, #1
  a0:	f1ba 0f00 	cmp.w	sl, #0
  a4:	d006      	beq.n	b4 <_ZN8CFastLED4showEh+0xb4>
  a6:	fb04 3303 	mla	r3, r4, r3, r3
  aa:	fb08 f303 	mul.w	r3, r8, r3
  ae:	0c1b      	lsrs	r3, r3, #16
  b0:	f88c 3000 	strb.w	r3, [ip]
  b4:	4583      	cmp	fp, r0
  b6:	f10c 0c01 	add.w	ip, ip, #1
  ba:	d1ea      	bne.n	92 <_ZN8CFastLED4showEh+0x92>
  bc:	4674      	mov	r4, lr
  be:	9b04      	ldr	r3, [sp, #16]
  c0:	4620      	mov	r0, r4
  c2:	f8ad 3014 	strh.w	r3, [sp, #20]
  c6:	0c1b      	lsrs	r3, r3, #16
  c8:	f88d 3016 	strb.w	r3, [sp, #22]
  cc:	9b05      	ldr	r3, [sp, #20]
  ce:	f8ad 3008 	strh.w	r3, [sp, #8]
  d2:	0c1b      	lsrs	r3, r3, #16
  d4:	f88d 300a 	strb.w	r3, [sp, #10]
  d8:	9b02      	ldr	r3, [sp, #8]
  da:	f8ad 300c 	strh.w	r3, [sp, #12]
  de:	0c1b      	lsrs	r3, r3, #16
  e0:	f88d 300e 	strb.w	r3, [sp, #14]
  e4:	9b03      	ldr	r3, [sp, #12]
  e6:	47b0      	blx	r6
  e8:	68a4      	ldr	r4, [r4, #8]
  ea:	b10c      	cbz	r4, f0 <_ZN8CFastLED4showEh+0xf0>
  ec:	2d3f      	cmp	r5, #63	; 0x3f
  ee:	ddb1      	ble.n	54 <_ZN8CFastLED4showEh+0x54>
  f0:	4b1d      	ldr	r3, [pc, #116]	; (168 <_ZN8CFastLED4showEh+0x168>)
  f2:	681c      	ldr	r4, [r3, #0]
  f4:	e9dd 6800 	ldrd	r6, r8, [sp]
  f8:	b19c      	cbz	r4, 122 <_ZN8CFastLED4showEh+0x122>
  fa:	2500      	movs	r5, #0
  fc:	4f1c      	ldr	r7, [pc, #112]	; (170 <_ZN8CFastLED4showEh+0x170>)
  fe:	e004      	b.n	10a <_ZN8CFastLED4showEh+0x10a>
 100:	74a1      	strb	r1, [r4, #18]
 102:	68a4      	ldr	r4, [r4, #8]
 104:	b16c      	cbz	r4, 122 <_ZN8CFastLED4showEh+0x122>
 106:	2d3f      	cmp	r5, #63	; 0x3f
 108:	dc0b      	bgt.n	122 <_ZN8CFastLED4showEh+0x122>
 10a:	6823      	ldr	r3, [r4, #0]
 10c:	3501      	adds	r5, #1
 10e:	f858 1b04 	ldr.w	r1, [r8], #4
 112:	69db      	ldr	r3, [r3, #28]
 114:	42bb      	cmp	r3, r7
 116:	d0f3      	beq.n	100 <_ZN8CFastLED4showEh+0x100>
 118:	4620      	mov	r0, r4
 11a:	4798      	blx	r3
 11c:	68a4      	ldr	r4, [r4, #8]
 11e:	2c00      	cmp	r4, #0
 120:	d1f1      	bne.n	106 <_ZN8CFastLED4showEh+0x106>
 122:	4a14      	ldr	r2, [pc, #80]	; (174 <_ZN8CFastLED4showEh+0x174>)
 124:	6811      	ldr	r1, [r2, #0]
 126:	1c4b      	adds	r3, r1, #1
 128:	2918      	cmp	r1, #24
 12a:	6013      	str	r3, [r2, #0]
 12c:	dd12      	ble.n	154 <_ZN8CFastLED4showEh+0x154>
 12e:	4812      	ldr	r0, [pc, #72]	; (178 <_ZN8CFastLED4showEh+0x178>)
 130:	f44f 747a 	mov.w	r4, #1000	; 0x3e8
 134:	6801      	ldr	r1, [r0, #0]
 136:	fb04 f303 	mul.w	r3, r4, r3
 13a:	6805      	ldr	r5, [r0, #0]
 13c:	480f      	ldr	r0, [pc, #60]	; (17c <_ZN8CFastLED4showEh+0x17c>)
 13e:	6804      	ldr	r4, [r0, #0]
 140:	6005      	str	r5, [r0, #0]
 142:	2000      	movs	r0, #0
 144:	1b09      	subs	r1, r1, r4
 146:	6010      	str	r0, [r2, #0]
 148:	2901      	cmp	r1, #1
 14a:	bf38      	it	cc
 14c:	2101      	movcc	r1, #1
 14e:	fbb3 f3f1 	udiv	r3, r3, r1
 152:	8073      	strh	r3, [r6, #2]
 154:	b047      	add	sp, #284	; 0x11c
 156:	e8bd 8ff0 	ldmia.w	sp!, {r4, r5, r6, r7, r8, r9, sl, fp, pc}
 15a:	4620      	mov	r0, r4
 15c:	4790      	blx	r2
 15e:	6823      	ldr	r3, [r4, #0]
 160:	e77e      	b.n	60 <_ZN8CFastLED4showEh+0x60>
 162:	bf00      	nop
 164:	00000000 	.word	0x00000000
 168:	00000000 	.word	0x00000000
 16c:	00000000 	.word	0x00000000
 170:	00000000 	.word	0x00000000
 174:	00000000 	.word	0x00000000
 178:	00000000 	.word	0x00000000
 17c:	00000000 	.word	0x00000000

Disassembly of section .text._ZN8CFastLED5countEv:

00000000 <_ZN8CFastLED5countEv>:
   0:	4b05      	ldr	r3, [pc, #20]	; (18 <_ZN8CFastLED5countEv+0x18>)
   2:	681b      	ldr	r3, [r3, #0]
   4:	b12b      	cbz	r3, 12 <_ZN8CFastLED5countEv+0x12>
   6:	2000      	movs	r0, #0
   8:	689b      	ldr	r3, [r3, #8]
   a:	3001      	adds	r0, #1
   c:	2b00      	cmp	r3, #0
   e:	d1fb      	bne.n	8 <_ZN8CFastLED5countEv+0x8>
  10:	4770      	bx	lr
  12:	4618      	mov	r0, r3
  14:	4770      	bx	lr
  16:	bf00      	nop
  18:	00000000 	.word	0x00000000

Disassembly of section .text._ZN8CFastLEDixEi:

00000000 <_ZN8CFastLEDixEi>:
   0:	4b0a      	ldr	r3, [pc, #40]	; (2c <_ZN8CFastLEDixEi+0x2c>)
   2:	681b      	ldr	r3, [r3, #0]
   4:	b179      	cbz	r1, 26 <_ZN8CFastLEDixEi+0x26>
   6:	b163      	cbz	r3, 22 <_ZN8CFastLEDixEi+0x22>
   8:	3902      	subs	r1, #2
   a:	4618      	mov	r0, r3
   c:	e000      	b.n	10 <_ZN8CFastLEDixEi+0x10>
   e:	b140      	cbz	r0, 22 <_ZN8CFastLEDixEi+0x22>
  10:	1c4a      	adds	r2, r1, #1
  12:	6880      	ldr	r0, [r0, #8]
  14:	f101 31ff 	add.w	r1, r1, #4294967295	; 0xffffffff
  18:	d1f9      	bne.n	e <_ZN8CFastLEDixEi+0xe>
  1a:	2800      	cmp	r0, #0
  1c:	bf08      	it	eq
  1e:	4618      	moveq	r0, r3
  20:	4770      	bx	lr
  22:	4618      	mov	r0, r3
  24:	4770      	bx	lr
  26:	4618      	mov	r0, r3
  28:	e7f7      	b.n	1a <_ZN8CFastLEDixEi+0x1a>
  2a:	bf00      	nop
  2c:	00000000 	.word	0x00000000

Disassembly of section .text._ZN8CFastLED9showColorERK4CRGBh:

00000000 <_ZN8CFastLED9showColorERK4CRGBh>:
   0:	e92d 4ff0 	stmdb	sp!, {r4, r5, r6, r7, r8, r9, sl, fp, lr}
   4:	6843      	ldr	r3, [r0, #4]
   6:	b0c7      	sub	sp, #284	; 0x11c
   8:	4c55      	ldr	r4, [pc, #340]	; (160 <_ZN8CFastLED9showColorERK4CRGBh+0x160>)
   a:	4606      	mov	r6, r0
   c:	4689      	mov	r9, r1
   e:	4693      	mov	fp, r2
  10:	b133      	cbz	r3, 20 <_ZN8CFastLED9showColorERK4CRGBh+0x20>
  12:	f7ff fffe 	bl	0 <micros>
  16:	6822      	ldr	r2, [r4, #0]
  18:	6873      	ldr	r3, [r6, #4]
  1a:	1a80      	subs	r0, r0, r2
  1c:	4298      	cmp	r0, r3
  1e:	d3f7      	bcc.n	10 <_ZN8CFastLED9showColorERK4CRGBh+0x10>
  20:	f7ff fffe 	bl	0 <micros>
  24:	68f3      	ldr	r3, [r6, #12]
  26:	6020      	str	r0, [r4, #0]
  28:	b11b      	cbz	r3, 32 <_ZN8CFastLED9showColorERK4CRGBh+0x32>
  2a:	4658      	mov	r0, fp
  2c:	68b1      	ldr	r1, [r6, #8]
  2e:	4798      	blx	r3
  30:	4683      	mov	fp, r0
  32:	f44f 7280 	mov.w	r2, #256	; 0x100
  36:	2100      	movs	r1, #0
  38:	a806      	add	r0, sp, #24
  3a:	f7ff fffe 	bl	0 <memset>
  3e:	4b49      	ldr	r3, [pc, #292]	; (164 <_ZN8CFastLED9showColorERK4CRGBh+0x164>)
  40:	681c      	ldr	r4, [r3, #0]
  42:	2c00      	cmp	r4, #0
  44:	d06c      	beq.n	120 <_ZN8CFastLED9showColorERK4CRGBh+0x120>
  46:	f10d 0818 	add.w	r8, sp, #24
  4a:	2500      	movs	r5, #0
  4c:	46c2      	mov	sl, r8
  4e:	462f      	mov	r7, r5
  50:	e9cd 6800 	strd	r6, r8, [sp]
  54:	46d8      	mov	r8, fp
  56:	6823      	ldr	r3, [r4, #0]
  58:	4943      	ldr	r1, [pc, #268]	; (168 <_ZN8CFastLED9showColorERK4CRGBh+0x168>)
  5a:	699a      	ldr	r2, [r3, #24]
  5c:	428a      	cmp	r2, r1
  5e:	d17b      	bne.n	158 <_ZN8CFastLED9showColorERK4CRGBh+0x158>
  60:	7ca0      	ldrb	r0, [r4, #18]
  62:	9a00      	ldr	r2, [sp, #0]
  64:	3501      	adds	r5, #1
  66:	f84a 0b04 	str.w	r0, [sl], #4
  6a:	8852      	ldrh	r2, [r2, #2]
  6c:	f8ad 7010 	strh.w	r7, [sp, #16]
  70:	2a63      	cmp	r2, #99	; 0x63
  72:	f88d 7012 	strb.w	r7, [sp, #18]
  76:	6962      	ldr	r2, [r4, #20]
  78:	bf98      	it	ls
  7a:	74a7      	strbls	r7, [r4, #18]
  7c:	681e      	ldr	r6, [r3, #0]
  7e:	f1b8 0f00 	cmp.w	r8, #0
  82:	d01a      	beq.n	ba <_ZN8CFastLED9showColorERK4CRGBh+0xba>
  84:	f104 000b 	add.w	r0, r4, #11
  88:	a904      	add	r1, sp, #16
  8a:	f104 0b0e 	add.w	fp, r4, #14
  8e:	46a4      	mov	ip, r4
  90:	f810 4f01 	ldrb.w	r4, [r0, #1]!
  94:	f890 e003 	ldrb.w	lr, [r0, #3]
  98:	b154      	cbz	r4, b0 <_ZN8CFastLED9showColorERK4CRGBh+0xb0>
  9a:	f10e 0301 	add.w	r3, lr, #1
  9e:	f1be 0f00 	cmp.w	lr, #0
  a2:	d005      	beq.n	b0 <_ZN8CFastLED9showColorERK4CRGBh+0xb0>
  a4:	fb04 3303 	mla	r3, r4, r3, r3
  a8:	fb08 f303 	mul.w	r3, r8, r3
  ac:	0c1b      	lsrs	r3, r3, #16
  ae:	700b      	strb	r3, [r1, #0]
  b0:	4583      	cmp	fp, r0
  b2:	f101 0101 	add.w	r1, r1, #1
  b6:	d1eb      	bne.n	90 <_ZN8CFastLED9showColorERK4CRGBh+0x90>
  b8:	4664      	mov	r4, ip
  ba:	9b04      	ldr	r3, [sp, #16]
  bc:	4620      	mov	r0, r4
  be:	4649      	mov	r1, r9
  c0:	f8ad 3014 	strh.w	r3, [sp, #20]
  c4:	0c1b      	lsrs	r3, r3, #16
  c6:	f88d 3016 	strb.w	r3, [sp, #22]
  ca:	9b05      	ldr	r3, [sp, #20]
  cc:	f8ad 3008 	strh.w	r3, [sp, #8]
  d0:	0c1b      	lsrs	r3, r3, #16
  d2:	f88d 300a 	strb.w	r3, [sp, #10]
  d6:	9b02      	ldr	r3, [sp, #8]
  d8:	f8ad 300c 	strh.w	r3, [sp, #12]
  dc:	0c1b      	lsrs	r3, r3, #16
  de:	f88d 300e 	strb.w	r3, [sp, #14]
  e2:	9b03      	ldr	r3, [sp, #12]
  e4:	47b0      	blx	r6
  e6:	68a4      	ldr	r4, [r4, #8]
  e8:	b10c      	cbz	r4, ee <_ZN8CFastLED9showColorERK4CRGBh+0xee>
  ea:	2d3f      	cmp	r5, #63	; 0x3f
  ec:	ddb3      	ble.n	56 <_ZN8CFastLED9showColorERK4CRGBh+0x56>
  ee:	4b1d      	ldr	r3, [pc, #116]	; (164 <_ZN8CFastLED9showColorERK4CRGBh+0x164>)
  f0:	681c      	ldr	r4, [r3, #0]
  f2:	e9dd 6800 	ldrd	r6, r8, [sp]
  f6:	b19c      	cbz	r4, 120 <_ZN8CFastLED9showColorERK4CRGBh+0x120>
  f8:	2500      	movs	r5, #0
  fa:	4f1c      	ldr	r7, [pc, #112]	; (16c <_ZN8CFastLED9showColorERK4CRGBh+0x16c>)
  fc:	e004      	b.n	108 <_ZN8CFastLED9showColorERK4CRGBh+0x108>
  fe:	74a1      	strb	r1, [r4, #18]
 100:	68a4      	ldr	r4, [r4, #8]
 102:	b16c      	cbz	r4, 120 <_ZN8CFastLED9showColorERK4CRGBh+0x120>
 104:	2d3f      	cmp	r5, #63	; 0x3f
 106:	dc0b      	bgt.n	120 <_ZN8CFastLED9showColorERK4CRGBh+0x120>
 108:	6823      	ldr	r3, [r4, #0]
 10a:	3501      	adds	r5, #1
 10c:	f858 1b04 	ldr.w	r1, [r8], #4
 110:	69db      	ldr	r3, [r3, #28]
 112:	42bb      	cmp	r3, r7
 114:	d0f3      	beq.n	fe <_ZN8CFastLED9showColorERK4CRGBh+0xfe>
 116:	4620      	mov	r0, r4
 118:	4798      	blx	r3
 11a:	68a4      	ldr	r4, [r4, #8]
 11c:	2c00      	cmp	r4, #0
 11e:	d1f1      	bne.n	104 <_ZN8CFastLED9showColorERK4CRGBh+0x104>
 120:	4a13      	ldr	r2, [pc, #76]	; (170 <_ZN8CFastLED9showColorERK4CRGBh+0x170>)
 122:	6811      	ldr	r1, [r2, #0]
 124:	1c4b      	adds	r3, r1, #1
 126:	2918      	cmp	r1, #24
 128:	6013      	str	r3, [r2, #0]
 12a:	dd12      	ble.n	152 <_ZN8CFastLED9showColorERK4CRGBh+0x152>
 12c:	4811      	ldr	r0, [pc, #68]	; (174 <_ZN8CFastLED9showColorERK4CRGBh+0x174>)
 12e:	f44f 747a 	mov.w	r4, #1000	; 0x3e8
 132:	6801      	ldr	r1, [r0, #0]
 134:	fb04 f303 	mul.w	r3, r4, r3
 138:	6805      	ldr	r5, [r0, #0]
 13a:	480f      	ldr	r0, [pc, #60]	; (178 <_ZN8CFastLED9showColorERK4CRGBh+0x178>)
 13c:	6804      	ldr	r4, [r0, #0]
 13e:	6005      	str	r5, [r0, #0]
 140:	2000      	movs	r0, #0
 142:	1b09      	subs	r1, r1, r4
 144:	6010      	str	r0, [r2, #0]
 146:	2901      	cmp	r1, #1
 148:	bf38      	it	cc
 14a:	2101      	movcc	r1, #1
 14c:	fbb3 f3f1 	udiv	r3, r3, r1
 150:	8073      	strh	r3, [r6, #2]
 152:	b047      	add	sp, #284	; 0x11c
 154:	e8bd 8ff0 	ldmia.w	sp!, {r4, r5, r6, r7, r8, r9, sl, fp, pc}
 158:	4620      	mov	r0, r4
 15a:	4790      	blx	r2
 15c:	6823      	ldr	r3, [r4, #0]
 15e:	e780      	b.n	62 <_ZN8CFastLED9showColorERK4CRGBh+0x62>
 160:	00000000 	.word	0x00000000
 164:	00000000 	.word	0x00000000
 168:	00000000 	.word	0x00000000
 16c:	00000000 	.word	0x00000000
 170:	00000000 	.word	0x00000000
 174:	00000000 	.word	0x00000000
 178:	00000000 	.word	0x00000000

Disassembly of section .text._ZN8CFastLED5clearEb:

00000000 <_ZN8CFastLED5clearEb>:
   0:	b510      	push	{r4, lr}
   2:	b082      	sub	sp, #8
   4:	b979      	cbnz	r1, 26 <_ZN8CFastLED5clearEb+0x26>
   6:	4b0c      	ldr	r3, [pc, #48]	; (38 <_ZN8CFastLED5clearEb+0x38>)
   8:	681c      	ldr	r4, [r3, #0]
   a:	b154      	cbz	r4, 22 <_ZN8CFastLED5clearEb+0x22>
   c:	6860      	ldr	r0, [r4, #4]
   e:	2100      	movs	r1, #0
  10:	b120      	cbz	r0, 1c <_ZN8CFastLED5clearEb+0x1c>
  12:	6962      	ldr	r2, [r4, #20]
  14:	eb02 0242 	add.w	r2, r2, r2, lsl #1
  18:	f7ff fffe 	bl	0 <memset>
  1c:	68a4      	ldr	r4, [r4, #8]
  1e:	2c00      	cmp	r4, #0
  20:	d1f4      	bne.n	c <_ZN8CFastLED5clearEb+0xc>
  22:	b002      	add	sp, #8
  24:	bd10      	pop	{r4, pc}
  26:	2200      	movs	r2, #0
  28:	a901      	add	r1, sp, #4
  2a:	f8ad 2004 	strh.w	r2, [sp, #4]
  2e:	f88d 2006 	strb.w	r2, [sp, #6]
  32:	f7ff fffe 	bl	0 <_ZN8CFastLED5clearEb>
  36:	e7e6      	b.n	6 <_ZN8CFastLED5clearEb+0x6>
  38:	00000000 	.word	0x00000000

Disassembly of section .text._ZN8CFastLED9clearDataEv:

00000000 <_ZN8CFastLED9clearDataEv>:
   0:	4b07      	ldr	r3, [pc, #28]	; (20 <_ZN8CFastLED9clearDataEv+0x20>)
   2:	b510      	push	{r4, lr}
   4:	681c      	ldr	r4, [r3, #0]
   6:	b154      	cbz	r4, 1e <_ZN8CFastLED9clearDataEv+0x1e>
   8:	6860      	ldr	r0, [r4, #4]
   a:	2100      	movs	r1, #0
   c:	b120      	cbz	r0, 18 <_ZN8CFastLED9clearDataEv+0x18>
   e:	6962      	ldr	r2, [r4, #20]
  10:	eb02 0242 	add.w	r2, r2, r2, lsl #1
  14:	f7ff fffe 	bl	0 <memset>
  18:	68a4      	ldr	r4, [r4, #8]
  1a:	2c00      	cmp	r4, #0
  1c:	d1f4      	bne.n	8 <_ZN8CFastLED9clearDataEv+0x8>
  1e:	bd10      	pop	{r4, pc}
  20:	00000000 	.word	0x00000000

Disassembly of section .text._ZN8CFastLED5delayEm:

00000000 <_ZN8CFastLED5delayEm>:
   0:	b5f8      	push	{r3, r4, r5, r6, r7, lr}
   2:	4e07      	ldr	r6, [pc, #28]	; (20 <_ZN8CFastLED5delayEm+0x20>)
   4:	4604      	mov	r4, r0
   6:	460d      	mov	r5, r1
   8:	6837      	ldr	r7, [r6, #0]
   a:	7821      	ldrb	r1, [r4, #0]
   c:	4620      	mov	r0, r4
   e:	f7ff fffe 	bl	0 <_ZN8CFastLED5delayEm>
  12:	f7ff fffe 	bl	0 <yield>
  16:	6833      	ldr	r3, [r6, #0]
  18:	1bdb      	subs	r3, r3, r7
  1a:	42ab      	cmp	r3, r5
  1c:	d3f5      	bcc.n	a <_ZN8CFastLED5delayEm+0xa>
  1e:	bdf8      	pop	{r3, r4, r5, r6, r7, pc}
  20:	00000000 	.word	0x00000000

Disassembly of section .text._ZN8CFastLED14setTemperatureERK4CRGB:

00000000 <_ZN8CFastLED14setTemperatureERK4CRGB>:
   0:	4b0a      	ldr	r3, [pc, #40]	; (2c <_ZN8CFastLED14setTemperatureERK4CRGB+0x2c>)
   2:	681b      	ldr	r3, [r3, #0]
   4:	b183      	cbz	r3, 28 <_ZN8CFastLED14setTemperatureERK4CRGB+0x28>
   6:	b082      	sub	sp, #8
   8:	8808      	ldrh	r0, [r1, #0]
   a:	788a      	ldrb	r2, [r1, #2]
   c:	f8ad 0004 	strh.w	r0, [sp, #4]
  10:	f8bd 0004 	ldrh.w	r0, [sp, #4]
  14:	745a      	strb	r2, [r3, #17]
  16:	f8a3 000f 	strh.w	r0, [r3, #15]
  1a:	689b      	ldr	r3, [r3, #8]
  1c:	f88d 2006 	strb.w	r2, [sp, #6]
  20:	2b00      	cmp	r3, #0
  22:	d1f1      	bne.n	8 <_ZN8CFastLED14setTemperatureERK4CRGB+0x8>
  24:	b002      	add	sp, #8
  26:	4770      	bx	lr
  28:	4770      	bx	lr
  2a:	bf00      	nop
  2c:	00000000 	.word	0x00000000

Disassembly of section .text._ZN8CFastLED13setCorrectionERK4CRGB:

00000000 <_ZN8CFastLED13setCorrectionERK4CRGB>:
   0:	4b09      	ldr	r3, [pc, #36]	; (28 <_ZN8CFastLED13setCorrectionERK4CRGB+0x28>)
   2:	681b      	ldr	r3, [r3, #0]
   4:	b17b      	cbz	r3, 26 <_ZN8CFastLED13setCorrectionERK4CRGB+0x26>
   6:	b082      	sub	sp, #8
   8:	8808      	ldrh	r0, [r1, #0]
   a:	788a      	ldrb	r2, [r1, #2]
   c:	f8ad 0004 	strh.w	r0, [sp, #4]
  10:	f88d 2006 	strb.w	r2, [sp, #6]
  14:	9a01      	ldr	r2, [sp, #4]
  16:	0c10      	lsrs	r0, r2, #16
  18:	819a      	strh	r2, [r3, #12]
  1a:	7398      	strb	r0, [r3, #14]
  1c:	689b      	ldr	r3, [r3, #8]
  1e:	2b00      	cmp	r3, #0
  20:	d1f2      	bne.n	8 <_ZN8CFastLED13setCorrectionERK4CRGB+0x8>
  22:	b002      	add	sp, #8
  24:	4770      	bx	lr
  26:	4770      	bx	lr
  28:	00000000 	.word	0x00000000

Disassembly of section .text._ZN8CFastLED9setDitherEh:

00000000 <_ZN8CFastLED9setDitherEh>:
   0:	4b03      	ldr	r3, [pc, #12]	; (10 <_ZN8CFastLED9setDitherEh+0x10>)
   2:	681b      	ldr	r3, [r3, #0]
   4:	b11b      	cbz	r3, e <_ZN8CFastLED9setDitherEh+0xe>
   6:	7499      	strb	r1, [r3, #18]
   8:	689b      	ldr	r3, [r3, #8]
   a:	2b00      	cmp	r3, #0
   c:	d1fb      	bne.n	6 <_ZN8CFastLED9setDitherEh+0x6>
   e:	4770      	bx	lr
  10:	00000000 	.word	0x00000000

Disassembly of section .text._ZN8CFastLED8countFPSEi:

00000000 <_ZN8CFastLED8countFPSEi>:
   0:	b470      	push	{r4, r5, r6}
   2:	4c0d      	ldr	r4, [pc, #52]	; (38 <_ZN8CFastLED8countFPSEi+0x38>)
   4:	6822      	ldr	r2, [r4, #0]
   6:	1c53      	adds	r3, r2, #1
   8:	428a      	cmp	r2, r1
   a:	6023      	str	r3, [r4, #0]
   c:	db12      	blt.n	34 <_ZN8CFastLED8countFPSEi+0x34>
   e:	490b      	ldr	r1, [pc, #44]	; (3c <_ZN8CFastLED8countFPSEi+0x3c>)
  10:	f44f 757a 	mov.w	r5, #1000	; 0x3e8
  14:	680a      	ldr	r2, [r1, #0]
  16:	fb05 f303 	mul.w	r3, r5, r3
  1a:	680e      	ldr	r6, [r1, #0]
  1c:	4908      	ldr	r1, [pc, #32]	; (40 <_ZN8CFastLED8countFPSEi+0x40>)
  1e:	680d      	ldr	r5, [r1, #0]
  20:	600e      	str	r6, [r1, #0]
  22:	2100      	movs	r1, #0
  24:	1b52      	subs	r2, r2, r5
  26:	6021      	str	r1, [r4, #0]
  28:	2a01      	cmp	r2, #1
  2a:	bf38      	it	cc
  2c:	2201      	movcc	r2, #1
  2e:	fbb3 f3f2 	udiv	r3, r3, r2
  32:	8043      	strh	r3, [r0, #2]
  34:	bc70      	pop	{r4, r5, r6}
  36:	4770      	bx	lr
  38:	00000000 	.word	0x00000000
  3c:	00000000 	.word	0x00000000
  40:	00000000 	.word	0x00000000

Disassembly of section .text._ZN8CFastLED17setMaxRefreshRateEtb:

00000000 <_ZN8CFastLED17setMaxRefreshRateEtb>:
   0:	b14a      	cbz	r2, 16 <_ZN8CFastLED17setMaxRefreshRateEtb+0x16>
   2:	b151      	cbz	r1, 1a <_ZN8CFastLED17setMaxRefreshRateEtb+0x1a>
   4:	4a08      	ldr	r2, [pc, #32]	; (28 <_ZN8CFastLED17setMaxRefreshRateEtb+0x28>)
   6:	6843      	ldr	r3, [r0, #4]
   8:	fbb2 f2f1 	udiv	r2, r2, r1
   c:	4293      	cmp	r3, r2
   e:	bf38      	it	cc
  10:	4613      	movcc	r3, r2
  12:	6043      	str	r3, [r0, #4]
  14:	4770      	bx	lr
  16:	b909      	cbnz	r1, 1c <_ZN8CFastLED17setMaxRefreshRateEtb+0x1c>
  18:	6041      	str	r1, [r0, #4]
  1a:	4770      	bx	lr
  1c:	4b02      	ldr	r3, [pc, #8]	; (28 <_ZN8CFastLED17setMaxRefreshRateEtb+0x28>)
  1e:	fbb3 f3f1 	udiv	r3, r3, r1
  22:	6043      	str	r3, [r0, #4]
  24:	4770      	bx	lr
  26:	bf00      	nop
  28:	000f4240 	.word	0x000f4240

Disassembly of section .text.atexit:

00000000 <atexit>:
   0:	2000      	movs	r0, #0
   2:	4770      	bx	lr

Disassembly of section .text.startup._GLOBAL__sub_I_pSmartMatrix:

00000000 <_GLOBAL__sub_I_pSmartMatrix>:
   0:	4b04      	ldr	r3, [pc, #16]	; (14 <_GLOBAL__sub_I_pSmartMatrix+0x14>)
   2:	20ff      	movs	r0, #255	; 0xff
   4:	f04f 31ff 	mov.w	r1, #4294967295	; 0xffffffff
   8:	2200      	movs	r2, #0
   a:	6018      	str	r0, [r3, #0]
   c:	e9c3 1202 	strd	r1, r2, [r3, #8]
  10:	4770      	bx	lr
  12:	bf00      	nop
  14:	00000000 	.word	0x00000000
