
build/./libraries/FastLED/src/noise.cpp.o:     file format elf32-littlearm

SYMBOL TABLE:
00000000 l    df *ABS*	00000000 noise.cpp
00000000 l    d  .text	00000000 .text
00000000 l    d  .data	00000000 .data
00000000 l    d  .bss	00000000 .bss
00000000 l    d  .text._Z12inoise16_rawmmm	00000000 .text._Z12inoise16_rawmmm
00000000 l    d  .text._Z8inoise16mmm	00000000 .text._Z8inoise16mmm
00000000 l    d  .text._Z12inoise16_rawmm	00000000 .text._Z12inoise16_rawmm
00000000 l    d  .text._Z8inoise16mm	00000000 .text._Z8inoise16mm
00000000 l    d  .text._Z12inoise16_rawm	00000000 .text._Z12inoise16_rawm
00000000 l    d  .text._Z8inoise16m	00000000 .text._Z8inoise16m
00000000 l    d  .text._Z11inoise8_rawttt	00000000 .text._Z11inoise8_rawttt
00000000 l    d  .text._Z7inoise8ttt	00000000 .text._Z7inoise8ttt
00000000 l    d  .text._Z11inoise8_rawtt	00000000 .text._Z11inoise8_rawtt
00000000 l    d  .text._Z7inoise8tt	00000000 .text._Z7inoise8tt
00000000 l    d  .text._Z11inoise8_rawt	00000000 .text._Z11inoise8_rawt
00000000 l    d  .text._Z7inoise8t	00000000 .text._Z7inoise8t
00000000 l    d  .text._Z15fill_raw_noise8Phhhtit	00000000 .text._Z15fill_raw_noise8Phhhtit
00000000 l    d  .text._Z21fill_raw_noise16into8Phhhmim	00000000 .text._Z21fill_raw_noise16into8Phhhmim
00000000 l    d  .text._Z17fill_raw_2dnoise8Phiih3qfxIhLi4ELi4EEhitstst	00000000 .text._Z17fill_raw_2dnoise8Phiih3qfxIhLi4ELi4EEhitstst
00000000 l    d  .text._Z17fill_raw_2dnoise8Phiihtitit	00000000 .text._Z17fill_raw_2dnoise8Phiihtitit
00000000 l    d  .text._Z18fill_raw_2dnoise16Ptiih3qfxItLi8ELi8EEtimlmlm	00000000 .text._Z18fill_raw_2dnoise16Ptiih3qfxItLi8ELi8EEtimlmlm
00000000 l    d  .text._Z23fill_raw_2dnoise16into8Phiih3qfxIhLi4ELi4EEhimlmlm	00000000 .text._Z23fill_raw_2dnoise16into8Phiih3qfxIhLi4ELi4EEhimlmlm
00000000 l    d  .text._Z23fill_raw_2dnoise16into8Phiihmimim	00000000 .text._Z23fill_raw_2dnoise16into8Phiihmimim
00000000 l    d  .text._Z11fill_noise8P4CRGBihtihtit	00000000 .text._Z11fill_noise8P4CRGBihtihtit
00000000 l    d  .text._Z12fill_noise16P4CRGBihtihtith	00000000 .text._Z12fill_noise16P4CRGBihtihtith
00000000 l    d  .text._Z13fill_2dnoise8P4CRGBiibhtitithtitttb	00000000 .text._Z13fill_2dnoise8P4CRGBiibhtitithtitttb
00000000 l    d  .text._Z14fill_2dnoise16P4CRGBiibhmimimhtitttbt	00000000 .text._Z14fill_2dnoise16P4CRGBiibhmimimhtitttbt
00000000 l    d  .bss.nmax	00000000 .bss.nmax
00000000 l    d  .data.nmin	00000000 .data.nmin
00000000 l    d  .progmem	00000000 .progmem
00000000 l     O .progmem	00000101 _ZL1p
00000000 l    d  .comment	00000000 .comment
00000000 l    d  .ARM.attributes	00000000 .ARM.attributes
00000000 g     F .text._Z12inoise16_rawmmm	00000564 _Z12inoise16_rawmmm
00000000 g     F .text._Z8inoise16mmm	0000001a _Z8inoise16mmm
00000000 g     F .text._Z12inoise16_rawmm	0000024c _Z12inoise16_rawmm
00000000 g     F .text._Z8inoise16mm	0000001a _Z8inoise16mm
00000000 g     F .text._Z12inoise16_rawm	00000104 _Z12inoise16_rawm
00000000 g     F .text._Z8inoise16m	00000012 _Z8inoise16m
00000000 g     F .text._Z11inoise8_rawttt	00000544 _Z11inoise8_rawttt
00000000 g     F .text._Z7inoise8ttt	00000016 _Z7inoise8ttt
00000000 g     F .text._Z11inoise8_rawtt	00000234 _Z11inoise8_rawtt
00000000 g     F .text._Z7inoise8tt	00000016 _Z7inoise8tt
00000000 g     F .text._Z11inoise8_rawt	000000fc _Z11inoise8_rawt
00000000 g     F .text._Z7inoise8t	00000016 _Z7inoise8t
00000000 g     F .text._Z15fill_raw_noise8Phhhtit	00000064 _Z15fill_raw_noise8Phhhtit
00000000 g     F .text._Z21fill_raw_noise16into8Phhhmim	00000078 _Z21fill_raw_noise16into8Phhhmim
00000000 g     F .text._Z17fill_raw_2dnoise8Phiih3qfxIhLi4ELi4EEhitstst	000001d0 _Z17fill_raw_2dnoise8Phiih3qfxIhLi4ELi4EEhitstst
00000000 g     F .text._Z17fill_raw_2dnoise8Phiihtitit	0000003c _Z17fill_raw_2dnoise8Phiihtitit
00000000 g     F .text._Z18fill_raw_2dnoise16Ptiih3qfxItLi8ELi8EEtimlmlm	000001e6 _Z18fill_raw_2dnoise16Ptiih3qfxItLi8ELi8EEtimlmlm
00000000 g     F .text._Z23fill_raw_2dnoise16into8Phiih3qfxIhLi4ELi4EEhimlmlm	000001dc _Z23fill_raw_2dnoise16into8Phiih3qfxIhLi4ELi4EEhimlmlm
00000000 g     F .text._Z23fill_raw_2dnoise16into8Phiihmimim	00000032 _Z23fill_raw_2dnoise16into8Phiihmimim
00000000 g     F .text._Z11fill_noise8P4CRGBihtihtit	0000010e _Z11fill_noise8P4CRGBihtihtit
00000000         *UND*	00000000 memset
00000000         *UND*	00000000 _Z15hsv2rgb_rainbowRK4CHSVR4CRGB
00000000 g     F .text._Z12fill_noise16P4CRGBihtihtith	00000112 _Z12fill_noise16P4CRGBihtihtith
00000000 g     F .text._Z13fill_2dnoise8P4CRGBiibhtitithtitttb	000001dc _Z13fill_2dnoise8P4CRGBiibhtitithtitttb
00000000 g     F .text._Z14fill_2dnoise16P4CRGBiibhmimimhtitttbt	000001cc _Z14fill_2dnoise16P4CRGBiibhmimimhtitttbt
00000000 g     O .bss.nmax	00000004 nmax
00000000 g     O .data.nmin	00000004 nmin


Contents of section .text._Z12inoise16_rawmmm:
 0000 2de9f04f 284cc0f3 0746c1f3 0743c2f3  -..O(L...F...C..
 0010 074504eb 060ea65d 8fb0c0f3 4e0b1e44  .E.....]....N..D
 0020 9ef801e0 1ffa81fc f6b27344 1ffa82fa  ..........sD....
 0030 04eb0609 14f806e0 dbb299f8 0160ae44  .............`.D
 0040 2e445ffa 8ef7de46 f6b20297 07040396  .D_....F........
 0050 04eb0306 e35c7678 2b443544 c2f34e06  .....\vx+D5D..N.
 0060 dbb20796 0493ebb2 0593c1f3 4e031d46  ............N..F
 0070 009300f1 428280b2 0b0400fb 00004fea  ....B.........O.
 0080 10404fea 400080b2 00f14c82 89b21704  .@O.@.....L.....
 0090 01fb0111 4fea1141 4fea4101 8bb20b93  ....O..AO.A.....
 00a0 00f15382 02e000bf 00000000 92b202fb  ..S.............
 00b0 0222120c 520093b2 0a93029a a25c1107  ."..R........\..
 00c0 40f11882 ddf800c0 2f4612f0 0c0f00f0  @......./F......
 00d0 0f8202f0 0d08b8f1 0c0f0cbf 71463146  ............qF1F
 00e0 d30704d5 ccf10007 1ffa87fc 3fb29307  ............?...
 00f0 01d54942 09b20cf0 010c8bf4 00420ceb  ..IB.........B..
 0100 670c0ceb 610c0499 675c11b2 1ffa8cfa  g...a...g\......
 0110 01913907 0ffa8cfc 40f1e681 009ba946  ..9.....@......F
 0120 069317f0 0c0f00f0 dd8107f0 0d031946  ...............F
 0130 019b0c29 18bf3346 9846fb07 07d5069b  ...)..3F.F......
 0140 c3f10009 1ffa89f3 0ffa89f9 0693b907  ................
 0150 03d5c8f1 00080ffa 88f8069b 03f00101  ................
 0160 01eb6901 01eb6801 0fb289b2 674540f3  ..i...h.....gE@.
 0170 b181a1eb 0a0189b2 00fb0111 0aeb1141  ...............A
 0180 8bb200f1 010a0893 0bb20399 0c93009b  ................
 0190 615ca3f5 00400b07 87b200b2 069740f1  a\...@........@.
 01a0 96818046 11f00c0f 00f08f81 01f00d09  ...F............
 01b0 b9f10c0f 0cbff446 b446cb07 05d5c7f1  .......F.F......
 01c0 00081ffa 88f70ffa 88f88b07 03d5ccf1  ................
 01d0 000c0ffa 8cfc07f0 01070599 07eb6807  ..............h.
 01e0 07eb6c07 14f801c0 3bb21cf0 080f1ffa  ..l.....;.......
 01f0 87f90993 00f06581 06998046 1cf00c0f  ......e....F....
 0200 00f05d81 0cf00d03 019f0c2b 08bf3e46  ..]........+..>F
 0210 1cf0010f 05d0c1f1 00081ffa 88f10ffa  ................
 0220 88f81cf0 020f01d0 764236b2 01f00101  ........vB6.....
 0230 099b01eb 680101eb 66010eb2 89b29e42  ....h...f......B
 0240 40f33181 a1eb0901 89b20afb 01f109eb  @.1.............
 0250 11418bb2 09930bb2 0d930299 079e2144  .A............!D
 0260 a6f50047 4e783fb2 310740f1 19810099  ...GNx?.1.@.....
 0270 a84616f0 0c0f00f0 118106f0 0d09b9f1  .F..............
 0280 0c0f0cbf f446bc46 f30705d5 c1f10008  .....F.F........
 0290 1ffa88f1 0ffa88f8 b60703d5 ccf1000c  ................
 02a0 0ffa8cfc 049e01f0 01012644 01eb6801  ..........&D..h.
 02b0 767801eb 6c013307 1ffa81f8 09b240f1  vx..l.3.......@.
 02c0 e980ac46 16f00c0f 06d006f0 0d09019d  ...F............
 02d0 b9f10c0f 18bf3d46 f30707d5 009bc3f1  ......=F........
 02e0 000c1ffa 8cf30ffa 8cfc0093 b30701d5  ................
 02f0 6d422db2 009b03f0 010303eb 6c0303eb  mB-.........l...
 0300 65031db2 9bb28d42 40f3ba80 a3eb0803  e......B@.......
 0310 9bb20afb 03f308eb 134399b2 1bb2039d  .........C......
 0320 25446d78 2e0740f1 a980ddf8 18b00646  %Dmx..@........F
 0330 15f00c0f 00f0a080 05f00d0c bcf10c0f  ................
 0340 18bfbe46 15f0010f 04d0cbf1 00061ffa  ...F............
 0350 86fb36b2 ad0703d5 cef1000e 0ffa8efe  ..6.............
 0360 059d2c44 0bf00105 05eb6605 667805eb  ..,D......f.fx..
 0370 6e0516f0 080facb2 2db250d0 069a8446  n.......-.P....F
 0380 16f00c0f 06d006f0 0d0e0198 bef10c0f  ................
 0390 18bf3846 f70705d5 c2f1000c 1ffa8cf2  ..8F............
 03a0 0ffa8cfc b60701d5 404200b2 02f00102  ........@B......
 03b0 02eb6c02 02eb6002 10b292b2 a84252dd  ..l...`......BR.
 03c0 121b92b2 0afb02f2 04eb1242 95b214b2  ...........B....
 03d0 dde90c20 824239da 0b9edde9 0802121a  ... .B9.........
 03e0 92b206fb 02220136 00eb1242 90b212b2  .....".6...B....
 03f0 a34222da 6d1aadb2 06fb05f5 01eb1545  .B".m..........E
 0400 abb229b2 91420ddd 1b1a0a9a 9bb202fb  ..)..B..........
 0410 033300eb 134000b2 0fb0bde8 f08fddf8  .3...@..........
 0420 04c0ade7 c31a0a9a 9bb202fb 0333a0eb  .............3..
 0430 134000b2 0fb0bde8 f08f4d1b adb206fb  .@........M.....
 0440 05f5a1eb 15418bb2 09b2dbe7 dde90802  .....A..........
 0450 0b9e821a 92b206fb 02220136 a0eb1242  .........".6...B
 0460 90b212b2 c4e7a21a 92b20afb 02f2a4eb  ................
 0470 1244a5b2 24b2abe7 864663e7 764657e7  .D..$....Fc.vFW.
 0480 a8eb0303 9bb20afb 03f3a8eb 134399b2  .............C..
 0490 1bb244e7 ddf804c0 009213e7 ac46f3e6  ..D..........F..
 04a0 5946f046 e5e6a9eb 010189b2 0afb01f1  YF.F............
 04b0 a9eb1141 8bb20993 0bb20d93 cde60646  ...A...........F
 04c0 a6e61146 ddf80480 98e68446 75e65f46  ...F.......Fu._F
 04d0 f04667e6 aaeb0101 89b200fb 0111aaeb  .Fg.............
 04e0 11414de6 a84628e6 ddf80490 069218e6  .AM..F(.........
 04f0 2946f5e5 dc467746 e7e51ffa 80f80b04  )F...FwF........
 0500 4ff6ff70 6fea0808 1ffa88f8 08fb0888  O..po...........
 0510 4fea1848 4fea4808 1ffa88f8 88ea0000  O..HO.H.........
 0520 7ff5b4ad 6fea0c0c 4ff6ff73 17041ffa  ....o...O..s....
 0530 8cfc0cfb 0ccc4fea 1c414fea 410189b2  ......O..AO.A...
 0540 81ea0303 0b937ff5 b1ad6fea 0a074ff6  ..........o...O.
 0550 ff73bfb2 07fb0777 3a0c5200 92b25340  .s.....w:.R...S@
 0560 0a93aae5                             ....            
Contents of section .text._Z8inoise16mmm:
 0000 08b5fff7 feff44f6 6c234ff4 dc720344  ......D.l#O..r.D
 0010 02fb03f0 c0f30f20 08bd00bf           ....... ....    
Contents of section .text._Z12inoise16_rawmm:
 0000 2de9f04f c0f30743 8f4cc1f3 074283b0  -..O...C.L...B..
 0010 e518e35c c0f34e0e c1f34e06 13446d78  ...\..N...N..Dmx
 0020 10f4004f 7746dbb2 2a44b046 04eb0305  ...OwF..*D.F....
 0030 d2b2e35c 6d780095 04eb0205 a25c6d78  ...\mx.......\mx
 0040 01958db2 40f0e180 80b200fb 00004fea  ....@.........O.
 0050 104c0804 4fea4c0c 1ffa8cfc 00f1e880  .L..O.L.........
 0060 89b201fb 0111090c 490089b2 14f80390  ........I.......
 0070 19f0040f 00f0b280 30463b46 454619f0  ........0F;FEF..
 0080 010f02d0 4542a8b2 2db219f0 020f01d0  ....EB..-.......
 0090 5b421bb2 00f00100 14f802b0 00eb6500  [B............e.
 00a0 1bf0040f 00eb6300 8ef40043 85b20ffa  ......c....C....
 00b0 83f900b2 00f08f80 c2463246 c8461bf0  .........F2F.F..
 00c0 010f05d0 c2f1000a 1ffa8af2 0ffa8afa  ................
 00d0 1bf0020f 03d0c8f1 00080ffa 88f802f0  ................
 00e0 010202eb 6a0202eb 68020ffa 82f892b2  ....j...h.......
 00f0 804564dd 521b92b2 0cfb0222 0cf1010c  .Ed.R......"....
 0100 05eb1242 90b20ffa 82fb009a 46f40046  ...B........F..F
 0110 14f802a0 0ffa86f8 1af0040f 4dd03a46  ............M.:F
 0120 b6464746 1af0010f 04d0cef1 00071ffa  .FGF............
 0130 87fe3fb2 1af0020f 01d05242 12b2019d  ..?.......RB....
 0140 0ef0010e 645d0eeb 670e6707 0eeb620e  ....d]..g.g...b.
 0150 1ffa8ef2 0ffa8efe 03d54f46 3346c146  ..........OF3F.F
 0160 b846e507 05d5c3f1 00091ffa 89f30ffa  .F..............
 0170 89f9a407 03d5c8f1 00080ffa 88f803f0  ................
 0180 010303eb 690303eb 68031cb2 9bb27445  ....i...h.....tE
 0190 32dd9b1a 9bb20cfb 03f302eb 13439cb2  2............C..
 01a0 1ab29345 1eda241a a4b201fb 044400eb  ...E..$......D..
 01b0 144000b2 03b0bde8 f08f4246 b2e7aa1a  .@........BF....
 01c0 92b20cfb 02220cf1 010ca5eb 1245a8b2  .....".......E..
 01d0 0ffa85fb 99e71a46 ca4670e7 70464346  .......F.Fp.pFCF
 01e0 3d464ce7 041ba4b2 01fb0444 a0eb1440  =FL........D...@
 01f0 00b203b0 bde8f08f d31a9bb2 0cfb03f3  ................
 0200 a2eb1342 94b212b2 cbe71ffa 80fc6fea  ...B..........o.
 0210 0c0c1ffa 8cfc0cfb 0ccc4fea 1c404ff6  ..........O..@O.
 0220 ff7c4000 80b280ea 0c0c0804 7ff518af  .|@.............
 0230 ed434ff6 ff71adb2 05fb0555 2d0c6d00  .CO..q.....U-.m.
 0240 adb26940 12e700bf 00000000           ..i@........    
Contents of section .text._Z8inoise16mm:
 0000 08b5fff7 feff44f2 9c334ff4 f2720344  ......D..3O..r.D
 0010 02fb03f0 c0f30f20 08bd00bf           ....... ....    
Contents of section .text._Z12inoise16_rawm:
 0000 30b5c0f3 07433e4c e218e15c 03045278  0....C>L...\..Rx
 0010 655c14f8 02e0c0f3 4e029446 64d480b2  e\......N..Fd...
 0020 00fb0000 030c5b00 9bb2605d 00f00f01  ......[...`]....
 0030 082905d8 10f00c0f 51d11146 012501e0  .)......Q..F.%..
 0040 11466546 10f0010f 05d0c1f1 000c1ffa  .FeF............
 0050 8cf10ffa 8cfc8007 01d56d42 2db201f0  ..........mB-...
 0060 010114f8 0e4042f4 004201eb 6c0101eb  .....@B..B..l...
 0070 650104f0 0f05082d 88b20ffa 81fc11b2  e......-........
 0080 04d814f0 0c0f26d1 012500e0 0d4614f0  ......&..%...F..
 0090 010f02d0 51428ab2 09b2a407 01d56d42  ....QB........mB
 00a0 2db202f0 010202eb 610202eb 650291b2  -.......a...e...
 00b0 12b26245 07dd091a 89b203fb 011100eb  ..bE............
 00c0 114000b2 30bd411a 89b203fb 0111a0eb  .@..0.A.........
 00d0 114000b2 30bd0d46 01210a46 d7e76546  .@..0..F.!.F..eF
 00e0 4ff0010c 6146ade7 83b2db43 9bb203fb  O...aF.....C....
 00f0 0333190c 4ff6ff73 490089b2 4b4094e7  .3..O..sI...K@..
 0100 00000000                             ....            
Contents of section .text._Z8inoise16m:
 0000 08b5fff7 feff44f2 9c330344 580080b2  ......D..3.DX...
 0010 08bd00bf                             ....            
Contents of section .text._Z11inoise8_rawttt:
 0000 2de9f04f 030a254c 8fb0c6b2 e55ce718  -..O..%L.....\..
 0010 5ffa81f8 05eb1125 7b785ffa 82f9edb2  _......%{x_.....
 0020 03eb1123 04eb050c 675ddbb2 9cf80150  ...#....g].....P
 0030 07eb1227 c0f3460c ffb205eb 1225e646  ...'..F......%.F
 0040 0397e718 edb20495 e55c7b78 c2f34607  .........\{x..F.
 0050 05eb1225 03eb1223 0897edb2 0097dbb2  ...%...#........
 0060 05950693 c1f34603 1d460193 030600f1  ......F..F......
 0070 3e8206fb 06660f06 4fead610 00f0fe00  >....f..O.......
 0080 00f14282 08fb0888 16064fea d81808f0  ..B.......O.....
 0090 fe010d91 00f14882 02e000bf 00000000  ......H.........
 00a0 09fb0999 4fead919 09f0fe02 0c92039a  ....O...........
 00b0 a25c1107 00f11882 6146f046 12f00c0f  .\......aF.F....
 00c0 00f01082 02f00d09 009eb9f1 0c0f08bf  ................
 00d0 7646d307 05d5c1f1 00085ffa 88f14ffa  vF........_...O.
 00e0 88f89707 01d57642 76b201f0 0101acf1  ......vBv.......
 00f0 800201eb 6801d7b2 01eb6601 059e3b46  ....h.....f...;F
 0100 0797a65d 57b25ffa 81fa3207 49b20297  ...]W._...2.I...
 0110 00f1e581 1a46b946 16f00c0f 00f0dd81  .....F.F........
 0120 06f00d0b 029f009b bbf10c0f 18bf1f46  ...............F
 0130 b846f707 05d5c2f1 00095ffa 89f24ffa  .F........_...O.
 0140 89f9b607 03d5c8f1 00084ffa 88f802f0  ..........O.....
 0150 010202eb 690202eb 680256b2 d2b28e42  ....i...h.V....B
 0160 40f3b381 a2eb0a02 d2b200fb 02220aeb  @............"..
 0170 2222d1b2 019b52b2 00f1010b 0a910499  ""....R.........
 0180 0b9283f0 8002615c 56b20807 00f19a81  ......a\V.......
 0190 6046f146 11f00c0f 00f09281 01f00d0a  `F.F............
 01a0 009bbaf1 0c0f08bf 73469846 cb0705d5  ........sF.F....
 01b0 c0f10009 5ffa89f0 4ffa89f9 8f0703d5  ...._...O.......
 01c0 c8f10008 4ffa88f8 00f00100 069900eb  ....O...........
 01d0 690000eb 680014f8 018041b2 18f0080f  i...h.....A.....
 01e0 5ffa80fa 099140f0 68810799 ddf80890  _.....@.h.......
 01f0 18f00c0f 00f05f81 009b08f0 0d070298  ......_.........
 0200 0c2f08bf 03460093 18f0010f 05d0c1f1  ./...F..........
 0210 00095ffa 89f14ffa 89f918f0 020f03d0  .._...O.........
 0220 009b5f42 7bb20093 01f00101 009801eb  .._B{...........
 0230 690101eb 60010998 4fb2c9b2 874240f3  i...`...O....B@.
 0240 2e81a1eb 0a01c9b2 0bfb01f1 0aeb2121  ..............!!
 0250 c8b249b2 00900991 03990898 2144a0f1  ..I.........!D..
 0260 80074878 7fb20107 00f11681 6146f146  ..Hx........aF.F
 0270 10f00c0f 00f00e81 00f00d0a baf10c0f  ................
 0280 0cbff046 b846c307 05d5c1f1 00095ffa  ...F.F........_.
 0290 89f14ffa 89f98007 03d5c8f1 00084ffa  ..O...........O.
 02a0 88f80598 01f00101 204401eb 69014078  ........ D..i.@x
 02b0 01eb6801 03075ffa 81f949b2 00f1e880  ..h..._...I.....
 02c0 079bddf8 08800193 10f00c0f 06d000f0  ................
 02d0 0d0a029d baf10c0f 18bf3d46 c30707d5  ..........=F....
 02e0 019bc3f1 00085ffa 88f34ffa 88f80193  ......_...O.....
 02f0 830701d5 6d426db2 019b03f0 010303eb  ....mBm.........
 0300 680303eb 650358b2 dbb28842 40f3b680  h...e.X....B@...
 0310 a3eb0903 dbb20bfb 03f309eb 2323d9b2  ............##..
 0320 5bb20498 20444078 050700f1 a4807546  [... D@x......uF
 0330 10f00c0f 00f09d80 00f00d08 b8f10c0f  ................
 0340 18bfbe46 10f0010f 04d0ccf1 00055ffa  ...F.........._.
 0350 85fc6db2 800703d5 cef1000e 4ffa8efe  ..m.........O...
 0360 06980cf0 010c0444 0ceb650c 64780ceb  .......D..e.dx..
 0370 6e0c2507 5ffa8cf0 4ffa8cfc 4dd4079a  n.%._...O...M...
 0380 029d14f0 0c0f06d0 04f00d0e 029ebef1  ................
 0390 0c0f18bf 3e46e707 02d55542 eab26db2  ....>F....UB..m.
 03a0 a40701d5 764276b2 02f00102 02eb6502  ....vBv.......e.
 03b0 02eb6602 54b2d2b2 644551dd 121ad2b2  ..f.T...dEQ.....
 03c0 0bfb02f2 00eb2222 d4b250b2 099a0b9d  ......""..P.....
 03d0 aa4238dd 0a9d009a 0d9e521b d2b206fb  .B8.......R.....
 03e0 02220136 05eb2222 d5b252b2 984221dd  .".6..""..R..B!.
 03f0 641ae4b2 06fb04f4 01eb2424 e3b261b2  d.........$$..a.
 0400 91420cdd 5b1b0c9a dbb202fb 033305eb  .B..[........3..
 0410 232040b2 0fb0bde8 f08f3546 b1e7eb1a  # @.......5F....
 0420 0c9adbb2 02fb0333 a5eb2320 40b20fb0  .......3..# @...
 0430 bde8f08f 0c1be4b2 06fb04f4 a1eb2421  ..............$!
 0440 cbb249b2 dce70a9d 009a0d9e aa1ad2b2  ..I.............
 0450 06fb0222 0136a5eb 2222d5b2 52b2c5e7  ...".6..""..R...
 0460 821ad2b2 0bfb02f2 a0eb2220 c4b240b2  .........." ..@.
 0470 ace7b646 66e79446 354659e7 a9eb0303  ...Ff..F5FY.....
 0480 dbb20bfb 03f3a9eb 2323d9b2 5bb248e7  ........##..[.H.
 0490 a84619e7 a846f6e6 0199a946 e8e6aaeb  .F...F.....F....
 04a0 0101c9b2 0bfb01f1 aaeb2121 c8b249b2  ..........!!..I.
 04b0 00900991 d0e60096 a6e61146 b14697e6  ...........F.F..
 04c0 b04673e6 1046b146 64e6aaeb 0202d2b2  .Fs..F.Fd.......
 04d0 00fb0222 aaeb2222 4be6a846 29e6019a  ..."..""K..F)...
 04e0 a94619e6 2e46f4e5 0199a846 e6e5f643  .F...F.....F...C
 04f0 0f06f6b2 06fb0666 4fead610 00f0fe00  .......fO.......
 0500 80f0ff00 7ff5bead 6fea0808 16065ffa  ........o....._.
 0510 88f808fb 08884fea d81808f0 fe0888f0  ......O.........
 0520 ff010d91 7ff5bcad 6fea0909 5ffa89f9  ........o..._...
 0530 09fb0999 4fead919 09f0fe09 89f0ff02  ....O...........
 0540 0c92b4e5                             ....            
Contents of section .text._Z7inoise8ttt:
 0000 08b5fff7 feff4030 c0b24000 ff2828bf  ......@0..@..((.
 0010 ff20c0b2 08bd00bf                    . ......        
Contents of section .text._Z11inoise8_rawtt:
 0000 2de9f04f 030a8a4c 83b0c0f3 460ce25c  -..O...L....F..\
 0010 23446746 02eb1122 5b78d2b2 03eb1123  #DgF..."[x.....#
 0020 a518a65c dbb26a78 c1f34605 14f803e0  ...\..jx..F.....
 0030 0092e218 a8465378 c2b20006 0193cbb2  .....FSx........
 0040 00f1df80 02fb0222 09064fea d21202f0  ......."..O.....
 0050 fe0200f1 e38003fb 0333d909 01f0fe01  .........3......
 0060 14f80690 19f0040f 40f0b480 60464346  ........@...`FCF
 0070 3e4619f0 010f02d0 4642f0b2 76b219f0  >F......FB..v...
 0080 020f01d0 5b425bb2 00f00100 14f80ea0  ....[B[.........
 0090 acf1800e 00eb6600 1af0040f 5ffa8efb  ......f....._...
 00a0 00eb6300 4ffa8efe c6b240b2 40f08f80  ..c.O.....@.@...
 00b0 c1465b46 f0461af0 010f05d0 c3f10008  .F[F.F..........
 00c0 5ffa88f3 4ffa88f8 1af0020f 03d0c9f1  _...O...........
 00d0 00094ffa 89f903f0 010303eb 680303eb  ..O.........h...
 00e0 69034ffa 83f8dbb2 804565dd 9b1b02f1  i.O......Ee.....
 00f0 010adbb2 02fb0333 06eb2323 d8b25eb2  .......3..##..^.
 0100 009b14f8 038045f0 800365f0 7f0518f0  ......E...e.....
 0110 040f4ed1 b9462f46 18f0010f 05d0ccf1  ..N..F/F........
 0120 00095ffa 89fc4ffa 89f918f0 020f01d0  .._...O.........
 0130 7f427fb2 019a0cf0 010c14f8 02800ceb  .B..............
 0140 690c18f0 040f0ceb 670c5ffa 8cf44ffa  i.......g._...O.
 0150 8cfc03d1 2f465b46 7546be46 18f0010f  ..../F[FuF.F....
 0160 02d05d42 ebb26db2 18f0020f 03d0cef1  ..]B..m.........
 0170 000e4ffa 8efe03f0 010303eb 650303eb  ..O.........e...
 0180 6e035db2 dbb26545 32dd1b1b dbb20afb  n.]...eE2.......
 0190 03f304eb 2323dab2 5cb2b442 1edd121a  ....##..\..B....
 01a0 d2b201fb 022200eb 222040b2 03b0bde8  .....".." @.....
 01b0 f08f9c46 a946afe7 f31a02f1 010adbb2  ...F.F..........
 01c0 02fb0333 a6eb2326 f0b276b2 98e72b46  ...3..#&..v...+F
 01d0 f14670e7 28463b46 46464ae7 821ad2b2  .Fp.(F;FFFJ.....
 01e0 01fb0222 a0eb2220 40b203b0 bde8f08f  ...".." @.......
 01f0 e31adbb2 0afb03f3 a4eb2324 e2b264b2  ..........#$..d.
 0200 cbe7d243 0906d2b2 02fb0222 4fead212  ...C......."O...
 0210 02f0fe02 82f0ff02 7ff51daf db43dbb2  .............C..
 0220 03fb0333 d90901f0 fe0181f0 ff0117e7  ...3............
 0230 00000000                             ....            
Contents of section .text._Z7inoise8tt:
 0000 08b5fff7 feff4030 c0b24000 ff2828bf  ......@0..@..((.
 0010 ff20c0b2 08bd00bf                    . ......        
Contents of section .text._Z11inoise8_rawt:
 0000 30b5030a 3c4cc0f3 460ce218 e15cc3b2  0...<L..F....\..
 0010 5278655c 614614f8 02e00206 61d403fb  Rxe\aF......a...
 0020 0333da09 02f0fe02 605d0507 04d44307  .3......`]....C.
 0030 53d50123 1d4601e0 63460d46 10f0010f  S..#.F..cF.F....
 0040 02d05d42 ebb26db2 800701d5 494249b2  ..]B..m.....IBI.
 0050 03f00103 14f80e40 03eb6503 250703eb  .......@..e.%...
 0060 6103d8b2 59b24cf0 80036cf0 7f0c04d4  a...Y.L...l.....
 0070 65072ed5 01231d46 00e06546 14f0010f  e....#.F..eF....
 0080 02d05d42 ebb26db2 a40703d5 ccf1000c  ..]B..m.........
 0090 4ffa8cfc 03f00103 03eb6503 03eb6c03  O.........e...l.
 00a0 5ffa83fc 5bb28b42 09ddaceb 000c5ffa  _...[..B......_.
 00b0 8cfc02fb 0ccc00eb 2c2040b2 30bda0eb  ........, @.0...
 00c0 0c0c5ffa 8cfc02fb 0ccca0eb 2c2040b2  .._........., @.
 00d0 30bd6546 4ff0010c d0e70d46 63460121  0.eFO......FcF.!
 00e0 ace7db43 dbb203fb 0333da09 02f0fe02  ...C.....3......
 00f0 82f0ff02 98e700bf 00000000           ............    
Contents of section .text._Z7inoise8t:
 0000 08b5fff7 feff4030 c0b24000 ff2828bf  ......@0..@..((.
 0010 ff20c0b2 08bd00bf                    . ......        
Contents of section .text._Z15fill_raw_noise8Phhhtit:
 0000 2de9f04f 83b0bdf8 34a00c9e cde90010  -..O....4.......
 0010 2ab39846 91460025 0f18009b c346c3b1  *..F.F.%.....F..
 0020 019c1ffa 8bf05146 fff7feff 00f14002  ......QF......@.
 0030 94f800c0 b344d2b2 5200ff2a 28bfff22  .....D..R..*(.."
 0040 2a416244 ff2a28bf ff2204f8 012bbc42  *AbD.*(.."...+.B
 0050 e7d10135 4fea4808 76004d45 ddd103b0  ...5O.H.v.ME....
 0060 bde8f08f                             ....            
Contents of section .text._Z21fill_raw_noise16into8Phhhmim:
 0000 2de9f04f 85b0dde9 0e5b0390 0292cde9  -..O.....[......
 0010 003172b3 002401eb 000944f2 9c384ff4  .1r..$....D..8O.
 0020 f277da46 dde90063 dbb1ddf8 0cb03046  .w.F...c......0F
 0030 5146fff7 feff00eb 08039bf8 00202e44  QF........... .D
 0040 07fb03f3 c3f30f23 234103eb 02234ff6  .......##A...#O.
 0050 ff729342 28bf1346 1b0a0bf8 013bd945  .r.B(..F.....;.E
 0060 e5d1009b 01346d00 5b000093 029b9c42  .....4m.[......B
 0070 d8d105b0 bde8f08f                    ........        
Contents of section .text._Z17fill_raw_2dnoise8Phiih3qfxIhLi4ELi4EEhitstst:
 0000 2de9f04f 2ded028b 93b0012b bdf88450  -..O-......+...P
 0010 9df87840 0f95bdf8 94509df8 7cb0bdf9  ..x@.....P..|...
 0020 888008ee 105abdf8 8c90bdf9 90c01190  .....Z..........
 0030 0c910e92 00f29280 1ffa88f8 00241ffa  .............$..
 0040 8cfa4ff0 ff0b209b 13fb08f8 13fb0afa  ..O... .........
 0050 1ffa88f3 0a931ffa 8af31093 0e9b002b  ...............+
 0060 77dd0bf1 01030134 0c9e0b93 00230d93  w......4.....#..
 0070 0993002e 60dd0d9a 0025119b 20991344  ....`....%.. ..D
 0080 099a0f9f 02eb0108 0e9a9a46 0c939045  ...........F...E
 0090 a8bf9046 0fe09af8 003004fb 03f300eb  ...F.....0......
 00a0 23238af8 00300a9b 01350af1 010a1f44  ##...0...5.....D
 00b0 ae42bfb2 40d018ee 102a4946 3846fff7  .B..@....*IF8F..
 00c0 feff00f1 4003dbb2 5b00ff2b 28bfff23  ....@...[..+(..#
 00d0 d8b21b06 0b9b4cbf 7f38c0f1 7f00c0b2  ......L..8......
 00e0 4000c0b2 03fb00f0 209b012b c0f30720  @....... ..+... 
 00f0 d1d0099b 9845d6dd 209bddf8 24c003eb  .....E.. ...$...
 0100 050e0c9b b645a8bf b64603eb 0e01a5eb  .....E...F......
 0110 0e0b7545 0ada0beb 01021378 04fb03f3  ..uE.......x....
 0120 00eb2323 02f8013b 8a42f6d1 0cf1010c  ..##...;.B......
 0130 3144c445 edd1b6e7 109b0d9a 9944099b  1D.E.........D..
 0140 32440133 1ffa89f9 0d920e9a 09939a42  2D.3...........B
 0150 8fd113b0 bdec028b bde8f08f 209e1ffa  ............ ...
 0160 8cfa0795 2509771c 8df80040 04f00f04  ....%.w....@....
 0170 0f9e15fb 0cfe0297 0cfb04f7 013b05fb  .............;..
 0180 09fc07eb 2e17cdf8 04b0dbb2 3fb20697  ............?...
 0190 19fb04f7 07eb2c17 08fb04fc 16fb04f4  ......,.........
 01a0 bfb20597 15fb08f7 06fb05f5 1ffa88f8  ................
 01b0 0ceb271c 04eb1514 0ffa8cfc a4b2cdf8  ..'.............
 01c0 10c00394 6fea0b04 fff7feff e4b23ae7  ....o.........:.
Contents of section .text._Z17fill_raw_2dnoise8Phiihtitit:
 0000 10b588b0 4ff0010c bdf82840 03948024  ....O.....(@...$
 0010 cde9014c bdf83040 4ff0020c 0594bdf9  ...L..0@O.......
 0020 2c408df8 00c00494 bdf83840 0794bdf9  ,@........8@....
 0030 34400694 fff7feff 08b010bd           4@..........    
Contents of section .text._Z18fill_raw_2dnoise16Ptiih3qfxItLi8ELi8EEtimlmlm:
 0000 2de9f04f 012b97b0 bdf88040 bdf88470  -..O.+.....@...p
 0010 ddf89090 ddf898a0 0f900991 119200f2  ................
 0020 b2800023 4ff6ff77 229a02fb 09f20a92  ...#O..w".......
 0030 229a02fb 0af21392 119a002a 40f39680  "..........*@...
 0040 7a1c2299 5f1c099b 0b920022 01fb03f1  z."._......"....
 0050 5e00229b 0e921092 5a001491 1592229a  ^.".....Z.....".
 0060 12939a1a 0c92099a 002a6cdd 119d0024  .........*l....$
 0070 ddf88c80 9d42dde9 0f21a8bf 1d4602eb  .....B...!...F..
 0080 41020d92 11e00d9a 04f1010b 32f81430  A...........2..0
 0090 da4607fb 03f301eb 134322f8 14300a9b  .F.......C"..0..
 00a0 54469844 099b5b45 4ddd2599 4046279a  TF.D..[EM.%.@F'.
 00b0 fff7feff 00f59440 4ff4dc73 6c3003fb  .......@O..sl0..
 00c0 00f3c3f3 0f211b02 53d4c1f5 ff417f31  .....!..S....A.1
 00d0 89b24900 0b9b89b2 03fb01f1 229b012b  ..I........."..+
 00e0 4fea1141 cfd00c9b 9d4247dd 229bddf8  O..A.....BG."...
 00f0 30c004eb 030a099b 5345d346 a8bf5346  0.......SE.F..SF
 0100 9e460e9b a4eb0e09 03eb0e00 0f9b4fea  .F............O.
 0110 490903eb 40007445 0ada09eb 00021388  I...@.tE........
 0120 07fb03f3 01eb1343 22f8023b 8242f6d1  .......C"..;.B..
 0130 0cf1010c 3044ac45 edd10a9b 54469844  ....0D.E....TF.D
 0140 099b5b45 b1dc259b 139a1499 1344159a  ..[E..%......D..
 0150 25930c9b 1344109a 0a441092 0e9a0a44  %....D...D.....D
 0160 0e92dde9 11218a42 3ff779af 17b0bde8  .....!.B?.y.....
 0170 f08fa1f5 ff417f39 89b2aae7 229b04eb  .....A.9...."...
 0180 030ad346 8be7279d 013badf8 00400795  ...F..'..;...@..
 0190 dbb2229d cde90175 e5b2c4f3 072405fb  .."....u.....$..
 01a0 0af604fb 0afc04fb 09fe06eb 2c260696  ............,&..
 01b0 259e04fb 06fc05fb 06f606eb 1c2605fb  %............&..
 01c0 09fc0596 239e06fb 04f40ceb 2e260496  ....#........&..
 01d0 239e06fb 05f505eb 14240394 fff7feff  #........$......
 01e0 fb439bb2 20e700bf                    .C.. ...        
Contents of section .text._Z23fill_raw_2dnoise16into8Phiih3qfxIhLi4ELi4EEhimlmlm:
 0000 2de9f04f 012b95b0 0f469df8 78409df8  -..O.+...F..x@..
 0010 7c50ddf8 8880ddf8 90a01090 0e9200f2  |P..............
 0020 a8800023 ff25209a 08fb02f2 0892209a  ...#.% ....... .
 0030 0afb02f2 11920e9a 002a40f3 8d805e1c  .........*@...^.
 0040 209b6a1c 07fb03f3 09920022 1293109b   .j........"....
 0050 0d920c93 209b5a00 1392209a 002f0f93  .... .Z... ../..
 0060 a3eb0202 0a9265dd 0e9d0024 109a0d99  ......e....$....
 0070 9d42ddf8 84800a44 a8bf1d46 0b9211e0  .B.....D...F....
 0080 0b9a04f1 010b135d da4606fb 03f301eb  .......].F......
 0090 2321ff29 28bfff21 1155089b 5f455446  #!.)(..!.U.._ETF
 00a0 984447dd 23994046 259afff7 feff00f5  .DG.#.@F%.......
 00b0 94404ff4 dc736c30 03fb00f3 c3f30f21  .@O..sl0.......!
 00c0 1b024cd4 c1f5ff41 7f3189b2 099bc1f3  ..L....A.1......
 00d0 c71103fb 01f1209b 012b4fea 2121cfd0  ...... ..+O.!!..
 00e0 0a9b9d42 40dd209b be46c9b2 ddf828c0  ...B@. ..F....(.
 00f0 03eb040a 0c9b5745 d346a8bf d64603eb  ......WE.F...F..
 0100 0e00a4eb 0e097445 0ada09eb 00021378  ......tE.......x
 0110 06fb03f3 01eb2323 02f8013b 8242f6d1  ......##...;.B..
 0120 0cf1010c 3844ac45 edd1089b 5f455446  ....8D.E...._ETF
 0130 9844b7dc 239b119a 12991344 139a2393  .D..#......D..#.
 0140 0a9b1344 0d9a0a44 0d920c9a 0a440c92  ...D...D.....D..
 0150 dde90e21 8a4280dc 15b0bde8 f08fa1f5  ...!.B..........
 0160 ff417f39 89b2b1e7 209b03eb 040ad346  .A.9.... ......F
 0170 93e7259e 04f00f0e 8df80040 24090796  ..%........@$...
 0180 013b209e 0efb0af9 dbb20195 06f1010c  .; .............
 0190 239ecdf8 08c004fb 0afc09eb 2c1c0efb  #...........,...
 01a0 06f9cdf8 18c004fb 06fc219e 09eb1c1c  ..........!.....
 01b0 04fb08f9 06fb04f4 cdf814c0 0efb08fc  ................
 01c0 0ceb291c cdf810c0 0efb06fc 0ceb1414  ..).............
 01d0 0394fff7 feffeb43 dbb224e7           .......C..$.    
Contents of section .text._Z23fill_raw_2dnoise16into8Phiihmimim:
 0000 10b588b0 4ff0010c 0a9c0394 ab24cde9  ....O........$..
 0010 014c0b9c 4ff0020c 04940c9c 8df800c0  .L..O...........
 0020 05940d9c 06940e9c 0794fff7 feff08b0  ................
 0030 10bd00bf                             ....            
Contents of section .text._Z11fill_noise8P4CRGBihtihtit:
 0000 2de9f04f 2ded068b 89b009ee 103a02af  -..O-........:..
 0010 97f85c30 09ee903a b7f86030 0aee103a  ..\0...:..`0...:
 0020 b7f86830 3b600b1e 7b606add 002308ee  ..h0;`..{`j..#..
 0030 902a4ff0 ff08b860 fb606b46 fa680021  .*O....`.`kF.h.!
 0040 08ee103a 7b68a3eb 02094d46 ff2da8bf  ...:{h....MF.-..
 0050 ff25eb1d 2a465ffa 85fb23f0 0703adeb  .%..*F_...#.....
 0060 030d0df1 080aadeb 030d02ae 5046fff7  ............PF..
 0070 feff2a46 00213046 fff7feff 3c6818ee  ..*F.!0F....<h..
 0080 902a5946 01945046 bb6d0093 19ee103a  .*YF..PF.m.....:
 0090 fff7feff 01947b6e 594619ee 902a3046  ......{nYF...*0F
 00a0 00931aee 103afff7 feffb9f1 000f1bdd  .....:..........
 00b0 0af1ff3a 0df10704 d7f808b0 a1461af8  ...:.........F..
 00c0 013f5946 07f11400 09f10209 bb7514f8  .?YF.........u..
 00d0 013f0bf1 030ba9eb 060987f8 15803b75  .?............;u
 00e0 fff7feff 4d45e9dc fb68ff33 fb60ba68  ....ME...h.3.`.h
 00f0 02f2fd22 ba6018ee 102a9546 7a689a42  ...".`...*.Fzh.B
 0100 9bdc1c37 bd46bdec 068bbde8 f08f00bf  ...7.F..........
Contents of section .text._Z12fill_noise16P4CRGBihtihtith:
 0000 2de9f04f 2ded068b 89b009ee 103a02af  -..O-........:..
 0010 97f85c30 97f86c80 09ee903a b7f86030  ..\0..l....:..`0
 0020 0aee103a b7f86830 3b600b1e 7b606add  ...:..h0;`..{`j.
 0030 002308ee 902ab860 fb607b68 0021fa68  .#...*.`.`{h.!.h
 0040 a3eb0209 6b464d46 08ee103a ff2da8bf  ....kFMF...:.-..
 0050 ff25eb1d 2a465ffa 85fb23f0 0703adeb  .%..*F_...#.....
 0060 030d0df1 080aadeb 030d02ae 5046fff7  ............PF..
 0070 feff2a46 00213046 fff7feff 3c6818ee  ..*F.!0F....<h..
 0080 902a5946 01945046 bb6d0093 19ee103a  .*YF..PF.m.....:
 0090 fff7feff 01947b6e 594619ee 902a3046  ......{nYF...*0F
 00a0 00931aee 103afff7 feffb9f1 000f1ddd  .....:..........
 00b0 0af1ff3a 0df10704 d7f808b0 4ff0ff33  ...:........O..3
 00c0 a1465946 07f11400 7b7509f1 020914f8  .FYF....{u......
 00d0 013f0bf1 030ba9eb 06094344 3b751af8  .?........CD;u..
 00e0 013fbb75 fff7feff 4d45e7dc fb68ff33  .?.u....ME...h.3
 00f0 fb60ba68 02f2fd22 ba6018ee 102a9546  .`.h...".`...*.F
 0100 7a689a42 99dc1c37 bd46bdec 068bbde8  zh.B...7.F......
 0110 f08f00bf                             ....            
Contents of section .text._Z13fill_2dnoise8P4CRGBiibhtitithtitttb:
 0000 2de9f04f 97b00d46 08afb7f8 64407860  -..O...F....d@x`
 0010 7c6201fb 02f4b7f8 88c0b7f8 8460e01d  |b...........`..
 0020 c7f818c0 b7f88cc0 20f00700 fb62fe61  ........ ....b.a
 0030 adeb000d b7f86c30 c7f80cc0 0df1200b  ......l0...... .
 0040 adeb000d b7f87c00 97f890c0 08ae7961  ......|.......ya
 0050 00213a61 22463862 584697f8 6080b7f8  .!:a"F8bXF..`...
 0060 7490bb60 c7f828c0 97f878a0 fff7feff  t..`..(...x.....
 0070 22460021 3046fff7 feff4ff0 800cbb68  "F.!0F....O....h
 0080 5846cdf8 04c0d7f8 70c0796a 0ffa8cf2  XF......p.yj....
 0090 d7f868c0 cdf81c90 4ff00109 05934346  ..h.....O.....CF
 00a0 06924ff0 02080ffa 8cf20391 cdf80890  ..O.............
 00b0 29460492 8df80080 3a69fff7 fefff968  )F......:i.....h
 00c0 fb69386a 0791d7f8 80100593 0ab2b7f9  .i8j............
 00d0 18302946 8df80080 06935346 0492cde9  .0)F......SF....
 00e0 0290d7f8 10908020 4a460190 3046fff7  ....... JF..0F..
 00f0 feff4b46 002b6ddd 331905f1 ff380026  ..KF.+m.3....8.&
 0100 7d68c7e9 06b33e62 7b69002b 54dd3b6a  }h....>b{i.+T.;j
 0110 444603f0 0103d7e9 06ba7b62 22e009eb  DF........{b"...
 0120 060397f8 312097f8 32e0013c 03eb4303  ....1 ..2..<..C.
 0130 4fea6202 05eb0300 e95c4fea 6e0e90f8  O.b......\O.n...
 0140 01c04fea 610102eb 5c0290f8 02c00eeb  ..O.a...\.......
 0150 5c0c97f8 30e001eb 5e01e954 427080f8  \...0...^..TBp..
 0160 02c029d3 1af8011d 4ff0ff33 1bf8012b  ..).....O..3...+
 0170 07f13400 87f83410 07f13001 87f83530  ..4...4...0...50
 0180 a8eb0409 87f83620 fff7feff fb6a1bb1  ......6 .....j..
 0190 7b6a002b 18bfa146 bb6a002b bfd109eb  {j.+...F.j.+....
 01a0 0603398e 013c03eb 430305eb 0302e952  ..9..<..C......R
 01b0 97f83230 9370d5d2 7a69f969 3b6a1644  ..20.p..zi.i;j.D
 01c0 891a0133 f961b969 3b621144 3a699a42  ...3.a.i;b.D:i.B
 01d0 b96199d1 3c37bd46 bde8f08f           .a..<7.F....    
Contents of section .text._Z14fill_2dnoise16P4CRGBiibhmimimhtitttbt:
 0000 2de9f04f 95b001fb 02fa0546 08afb7f8  -..O.......F....
 0010 7cc07b62 0af10703 c7f818c0 23f00703  |.{b........#...
 0020 b7f880c0 fe6eadeb 030dc7f8 14c0b7f8  .....n..........
 0030 84c00df1 200badeb 030dc7f8 10c0b7f8  .... ...........
 0040 8cc008ac b7f87430 5846c7f8 0cc097f8  ......t0XF......
 0050 88c07a60 5246b960 0021c7f8 20c097f8  ..z`RF.`.!.. ...
 0060 589097f8 7080fb61 fff7feff 52460021  X...p..a....RF.!
 0070 2046fff7 feff0796 be6e4b46 ab224ff0   F.......nKF."O.
 0080 02090696 58467e6e 8df80090 05963e6e  ....XF~n......>n
 0090 0496fe6d 03960126 cde90126 d7e90121  ...m...&...&...!
 00a0 fff7feff b869fb69 0590b86f 396902b2  .....i.i...o9i..
 00b0 8df80090 07912046 04928022 cde90263  ...... F..."...c
 00c0 b7f91430 be680693 4346d7f8 04803146  ...0.h..CF....1F
 00d0 01924246 fff7feff 4246fb68 002a71dd  ..BF....BF.h.*q.
 00e0 1b0a06f1 ff3904eb 0a020026 dbb27e61  .....9.....&..~a
 00f0 fb61c7e9 03b2bb68 002b55dd 7b694c46  .a.....h.+U.{iLF
 0100 03f00103 d7e903ba bb6122e0 08eb0603  .........a".....
 0110 97f82920 97f82ae0 013c03eb 43034fea  ..) ..*..<..C.O.
 0120 620205eb 0300e95c 4fea6e0e 90f801c0  b......\O.n.....
 0130 4fea6101 02eb5c02 90f802c0 0eeb5c0c  O.a...\.......\.
 0140 97f828e0 01eb5e01 e9544270 80f802c0  ..(...^..TBp....
 0150 2ad36ff0 3b031af8 012d07f1 280107f1  *.o.;....-..(...
 0160 2c0087f8 2d30a9eb 0408fb69 1a4487f8  ,...-0.....i.D..
 0170 2c201bf8 012b87f8 2e20fff7 feff7b6a  , ...+... ....{j
 0180 1bb1bb69 002b18bf a0463b6a 002bbdd1  ...i.+...F;j.+..
 0190 08eb0603 3a8d013c 03eb4303 ea522b44  ....:..<..C..R+D
 01a0 97f82a20 9a70d4d2 ba683969 7b691644  ..* .p...h9i{i.D
 01b0 891a0133 3961f968 7b611144 7a689a42  ...39a.h{a.Dzh.B
 01c0 f96098d1 3437bd46 bde8f08f           .`..47.F....    
Contents of section .data.nmin:
 0000 c68aa900                             ....            
Contents of section .progmem:
 0000 97a0895b 5a0f830d c95f6035 c2e907e1  ...[Z...._`5....
 0010 8c24671e 458e0863 25f0150a 17be0694  .$g.E..c%.......
 0020 f778ea4b 001ac53e 5efcdbcb 75230b20  .x.K...>^...u#. 
 0030 39b12158 ed953857 ae147d88 aba844af  9.!X..8W..}...D.
 0040 4aa54786 8b301ba6 4d929ee7 536fe57a  J.G..0..M...So.z
 0050 3cd385e6 dc695c29 372ef528 f4668f36  <....i\)7..(.f.6
 0060 41193fa1 01d85049 d14c84bb d05912a9  A.?...PI.L...Y..
 0070 c8c48782 74bc9f56 a4646dc6 adba0340  ....t..V.dm....@
 0080 34d9e2fa 7c7b05ca 2693767e ff5255d4  4...|{..&.v~.RU.
 0090 cfce3be3 2f103a11 b6bd1c2a dfb7aad5  ..;./.:....*....
 00a0 77f89802 2c9aa346 dd99659b a72bac09  w...,..F..e..+..
 00b0 811627fd 13626c6e 4f71e0e8 b2b97068  ..'..blnOq....ph
 00c0 daf661e4 fb22f2c1 eed2900c bfb3a2f1  ..a.."..........
 00d0 513391eb f90eef6b 31c0d61f b5c76a9d  Q3.....k1.....j.
 00e0 b854ccb0 7379322d 7f0496fe 8aeccd5d  .T..sy2-.......]
 00f0 de72431d 1848f38d 80c34e42 d73d9cb4  .rC..H....NB.=..
 0100 97                                   .               
Contents of section .comment:
 0000 00474343 3a202841 726d2047 4e552054  .GCC: (Arm GNU T
 0010 6f6f6c63 6861696e 2031312e 332e5265  oolchain 11.3.Re
 0020 6c312920 31312e33 2e312032 30323230  l1) 11.3.1 20220
 0030 37313200                             712.            
Contents of section .ARM.attributes:
 0000 41310000 00616561 62690001 27000000  A1...aeabi..'...
 0010 0537452d 4d00060d 074d0902 0a081204  .7E-M....M......
 0020 14011501 17031801 19011a01 1c011e02  ................
 0030 2201                                 ".              

Disassembly of section .text._Z12inoise16_rawmmm:

00000000 <_Z12inoise16_rawmmm>:
   0:	e92d 4ff0 	stmdb	sp!, {r4, r5, r6, r7, r8, r9, sl, fp, lr}
   4:	4c28      	ldr	r4, [pc, #160]	; (a8 <_Z12inoise16_rawmmm+0xa8>)
   6:	f3c0 4607 	ubfx	r6, r0, #16, #8
   a:	f3c1 4307 	ubfx	r3, r1, #16, #8
   e:	f3c2 4507 	ubfx	r5, r2, #16, #8
  12:	eb04 0e06 	add.w	lr, r4, r6
  16:	5da6      	ldrb	r6, [r4, r6]
  18:	b08f      	sub	sp, #60	; 0x3c
  1a:	f3c0 0b4e 	ubfx	fp, r0, #1, #15
  1e:	441e      	add	r6, r3
  20:	f89e e001 	ldrb.w	lr, [lr, #1]
  24:	fa1f fc81 	uxth.w	ip, r1
  28:	b2f6      	uxtb	r6, r6
  2a:	4473      	add	r3, lr
  2c:	fa1f fa82 	uxth.w	sl, r2
  30:	eb04 0906 	add.w	r9, r4, r6
  34:	f814 e006 	ldrb.w	lr, [r4, r6]
  38:	b2db      	uxtb	r3, r3
  3a:	f899 6001 	ldrb.w	r6, [r9, #1]
  3e:	44ae      	add	lr, r5
  40:	442e      	add	r6, r5
  42:	fa5f f78e 	uxtb.w	r7, lr
  46:	46de      	mov	lr, fp
  48:	b2f6      	uxtb	r6, r6
  4a:	9702      	str	r7, [sp, #8]
  4c:	0407      	lsls	r7, r0, #16
  4e:	9603      	str	r6, [sp, #12]
  50:	eb04 0603 	add.w	r6, r4, r3
  54:	5ce3      	ldrb	r3, [r4, r3]
  56:	7876      	ldrb	r6, [r6, #1]
  58:	442b      	add	r3, r5
  5a:	4435      	add	r5, r6
  5c:	f3c2 064e 	ubfx	r6, r2, #1, #15
  60:	b2db      	uxtb	r3, r3
  62:	9607      	str	r6, [sp, #28]
  64:	9304      	str	r3, [sp, #16]
  66:	b2eb      	uxtb	r3, r5
  68:	9305      	str	r3, [sp, #20]
  6a:	f3c1 034e 	ubfx	r3, r1, #1, #15
  6e:	461d      	mov	r5, r3
  70:	9300      	str	r3, [sp, #0]
  72:	f100 8242 	bmi.w	4fa <_Z12inoise16_rawmmm+0x4fa>
  76:	b280      	uxth	r0, r0
  78:	040b      	lsls	r3, r1, #16
  7a:	fb00 0000 	mla	r0, r0, r0, r0
  7e:	ea4f 4010 	mov.w	r0, r0, lsr #16
  82:	ea4f 0040 	mov.w	r0, r0, lsl #1
  86:	b280      	uxth	r0, r0
  88:	f100 824c 	bmi.w	524 <_Z12inoise16_rawmmm+0x524>
  8c:	b289      	uxth	r1, r1
  8e:	0417      	lsls	r7, r2, #16
  90:	fb01 1101 	mla	r1, r1, r1, r1
  94:	ea4f 4111 	mov.w	r1, r1, lsr #16
  98:	ea4f 0141 	mov.w	r1, r1, lsl #1
  9c:	b28b      	uxth	r3, r1
  9e:	930b      	str	r3, [sp, #44]	; 0x2c
  a0:	f100 8253 	bmi.w	54a <_Z12inoise16_rawmmm+0x54a>
  a4:	e002      	b.n	ac <_Z12inoise16_rawmmm+0xac>
  a6:	bf00      	nop
  a8:	00000000 	.word	0x00000000
  ac:	b292      	uxth	r2, r2
  ae:	fb02 2202 	mla	r2, r2, r2, r2
  b2:	0c12      	lsrs	r2, r2, #16
  b4:	0052      	lsls	r2, r2, #1
  b6:	b293      	uxth	r3, r2
  b8:	930a      	str	r3, [sp, #40]	; 0x28
  ba:	9a02      	ldr	r2, [sp, #8]
  bc:	5ca2      	ldrb	r2, [r4, r2]
  be:	0711      	lsls	r1, r2, #28
  c0:	f140 8218 	bpl.w	4f4 <_Z12inoise16_rawmmm+0x4f4>
  c4:	f8dd c000 	ldr.w	ip, [sp]
  c8:	462f      	mov	r7, r5
  ca:	f012 0f0c 	tst.w	r2, #12
  ce:	f000 820f 	beq.w	4f0 <_Z12inoise16_rawmmm+0x4f0>
  d2:	f002 080d 	and.w	r8, r2, #13
  d6:	f1b8 0f0c 	cmp.w	r8, #12
  da:	bf0c      	ite	eq
  dc:	4671      	moveq	r1, lr
  de:	4631      	movne	r1, r6
  e0:	07d3      	lsls	r3, r2, #31
  e2:	d504      	bpl.n	ee <_Z12inoise16_rawmmm+0xee>
  e4:	f1cc 0700 	rsb	r7, ip, #0
  e8:	fa1f fc87 	uxth.w	ip, r7
  ec:	b23f      	sxth	r7, r7
  ee:	0793      	lsls	r3, r2, #30
  f0:	d501      	bpl.n	f6 <_Z12inoise16_rawmmm+0xf6>
  f2:	4249      	negs	r1, r1
  f4:	b209      	sxth	r1, r1
  f6:	f00c 0c01 	and.w	ip, ip, #1
  fa:	f48b 4200 	eor.w	r2, fp, #32768	; 0x8000
  fe:	eb0c 0c67 	add.w	ip, ip, r7, asr #1
 102:	eb0c 0c61 	add.w	ip, ip, r1, asr #1
 106:	9904      	ldr	r1, [sp, #16]
 108:	5c67      	ldrb	r7, [r4, r1]
 10a:	b211      	sxth	r1, r2
 10c:	fa1f fa8c 	uxth.w	sl, ip
 110:	9101      	str	r1, [sp, #4]
 112:	0739      	lsls	r1, r7, #28
 114:	fa0f fc8c 	sxth.w	ip, ip
 118:	f140 81e6 	bpl.w	4e8 <_Z12inoise16_rawmmm+0x4e8>
 11c:	9b00      	ldr	r3, [sp, #0]
 11e:	46a9      	mov	r9, r5
 120:	9306      	str	r3, [sp, #24]
 122:	f017 0f0c 	tst.w	r7, #12
 126:	f000 81dd 	beq.w	4e4 <_Z12inoise16_rawmmm+0x4e4>
 12a:	f007 030d 	and.w	r3, r7, #13
 12e:	4619      	mov	r1, r3
 130:	9b01      	ldr	r3, [sp, #4]
 132:	290c      	cmp	r1, #12
 134:	bf18      	it	ne
 136:	4633      	movne	r3, r6
 138:	4698      	mov	r8, r3
 13a:	07fb      	lsls	r3, r7, #31
 13c:	d507      	bpl.n	14e <_Z12inoise16_rawmmm+0x14e>
 13e:	9b06      	ldr	r3, [sp, #24]
 140:	f1c3 0900 	rsb	r9, r3, #0
 144:	fa1f f389 	uxth.w	r3, r9
 148:	fa0f f989 	sxth.w	r9, r9
 14c:	9306      	str	r3, [sp, #24]
 14e:	07b9      	lsls	r1, r7, #30
 150:	d503      	bpl.n	15a <_Z12inoise16_rawmmm+0x15a>
 152:	f1c8 0800 	rsb	r8, r8, #0
 156:	fa0f f888 	sxth.w	r8, r8
 15a:	9b06      	ldr	r3, [sp, #24]
 15c:	f003 0101 	and.w	r1, r3, #1
 160:	eb01 0169 	add.w	r1, r1, r9, asr #1
 164:	eb01 0168 	add.w	r1, r1, r8, asr #1
 168:	b20f      	sxth	r7, r1
 16a:	b289      	uxth	r1, r1
 16c:	4567      	cmp	r7, ip
 16e:	f340 81b1 	ble.w	4d4 <_Z12inoise16_rawmmm+0x4d4>
 172:	eba1 010a 	sub.w	r1, r1, sl
 176:	b289      	uxth	r1, r1
 178:	fb00 1101 	mla	r1, r0, r1, r1
 17c:	eb0a 4111 	add.w	r1, sl, r1, lsr #16
 180:	b28b      	uxth	r3, r1
 182:	f100 0a01 	add.w	sl, r0, #1
 186:	9308      	str	r3, [sp, #32]
 188:	b20b      	sxth	r3, r1
 18a:	9903      	ldr	r1, [sp, #12]
 18c:	930c      	str	r3, [sp, #48]	; 0x30
 18e:	9b00      	ldr	r3, [sp, #0]
 190:	5c61      	ldrb	r1, [r4, r1]
 192:	f5a3 4000 	sub.w	r0, r3, #32768	; 0x8000
 196:	070b      	lsls	r3, r1, #28
 198:	b287      	uxth	r7, r0
 19a:	b200      	sxth	r0, r0
 19c:	9706      	str	r7, [sp, #24]
 19e:	f140 8196 	bpl.w	4ce <_Z12inoise16_rawmmm+0x4ce>
 1a2:	4680      	mov	r8, r0
 1a4:	f011 0f0c 	tst.w	r1, #12
 1a8:	f000 818f 	beq.w	4ca <_Z12inoise16_rawmmm+0x4ca>
 1ac:	f001 090d 	and.w	r9, r1, #13
 1b0:	f1b9 0f0c 	cmp.w	r9, #12
 1b4:	bf0c      	ite	eq
 1b6:	46f4      	moveq	ip, lr
 1b8:	46b4      	movne	ip, r6
 1ba:	07cb      	lsls	r3, r1, #31
 1bc:	d505      	bpl.n	1ca <_Z12inoise16_rawmmm+0x1ca>
 1be:	f1c7 0800 	rsb	r8, r7, #0
 1c2:	fa1f f788 	uxth.w	r7, r8
 1c6:	fa0f f888 	sxth.w	r8, r8
 1ca:	078b      	lsls	r3, r1, #30
 1cc:	d503      	bpl.n	1d6 <_Z12inoise16_rawmmm+0x1d6>
 1ce:	f1cc 0c00 	rsb	ip, ip, #0
 1d2:	fa0f fc8c 	sxth.w	ip, ip
 1d6:	f007 0701 	and.w	r7, r7, #1
 1da:	9905      	ldr	r1, [sp, #20]
 1dc:	eb07 0768 	add.w	r7, r7, r8, asr #1
 1e0:	eb07 076c 	add.w	r7, r7, ip, asr #1
 1e4:	f814 c001 	ldrb.w	ip, [r4, r1]
 1e8:	b23b      	sxth	r3, r7
 1ea:	f01c 0f08 	tst.w	ip, #8
 1ee:	fa1f f987 	uxth.w	r9, r7
 1f2:	9309      	str	r3, [sp, #36]	; 0x24
 1f4:	f000 8165 	beq.w	4c2 <_Z12inoise16_rawmmm+0x4c2>
 1f8:	9906      	ldr	r1, [sp, #24]
 1fa:	4680      	mov	r8, r0
 1fc:	f01c 0f0c 	tst.w	ip, #12
 200:	f000 815d 	beq.w	4be <_Z12inoise16_rawmmm+0x4be>
 204:	f00c 030d 	and.w	r3, ip, #13
 208:	9f01      	ldr	r7, [sp, #4]
 20a:	2b0c      	cmp	r3, #12
 20c:	bf08      	it	eq
 20e:	463e      	moveq	r6, r7
 210:	f01c 0f01 	tst.w	ip, #1
 214:	d005      	beq.n	222 <_Z12inoise16_rawmmm+0x222>
 216:	f1c1 0800 	rsb	r8, r1, #0
 21a:	fa1f f188 	uxth.w	r1, r8
 21e:	fa0f f888 	sxth.w	r8, r8
 222:	f01c 0f02 	tst.w	ip, #2
 226:	d001      	beq.n	22c <_Z12inoise16_rawmmm+0x22c>
 228:	4276      	negs	r6, r6
 22a:	b236      	sxth	r6, r6
 22c:	f001 0101 	and.w	r1, r1, #1
 230:	9b09      	ldr	r3, [sp, #36]	; 0x24
 232:	eb01 0168 	add.w	r1, r1, r8, asr #1
 236:	eb01 0166 	add.w	r1, r1, r6, asr #1
 23a:	b20e      	sxth	r6, r1
 23c:	b289      	uxth	r1, r1
 23e:	429e      	cmp	r6, r3
 240:	f340 8131 	ble.w	4a6 <_Z12inoise16_rawmmm+0x4a6>
 244:	eba1 0109 	sub.w	r1, r1, r9
 248:	b289      	uxth	r1, r1
 24a:	fb0a f101 	mul.w	r1, sl, r1
 24e:	eb09 4111 	add.w	r1, r9, r1, lsr #16
 252:	b28b      	uxth	r3, r1
 254:	9309      	str	r3, [sp, #36]	; 0x24
 256:	b20b      	sxth	r3, r1
 258:	930d      	str	r3, [sp, #52]	; 0x34
 25a:	9902      	ldr	r1, [sp, #8]
 25c:	9e07      	ldr	r6, [sp, #28]
 25e:	4421      	add	r1, r4
 260:	f5a6 4700 	sub.w	r7, r6, #32768	; 0x8000
 264:	784e      	ldrb	r6, [r1, #1]
 266:	b23f      	sxth	r7, r7
 268:	0731      	lsls	r1, r6, #28
 26a:	f140 8119 	bpl.w	4a0 <_Z12inoise16_rawmmm+0x4a0>
 26e:	9900      	ldr	r1, [sp, #0]
 270:	46a8      	mov	r8, r5
 272:	f016 0f0c 	tst.w	r6, #12
 276:	f000 8111 	beq.w	49c <_Z12inoise16_rawmmm+0x49c>
 27a:	f006 090d 	and.w	r9, r6, #13
 27e:	f1b9 0f0c 	cmp.w	r9, #12
 282:	bf0c      	ite	eq
 284:	46f4      	moveq	ip, lr
 286:	46bc      	movne	ip, r7
 288:	07f3      	lsls	r3, r6, #31
 28a:	d505      	bpl.n	298 <_Z12inoise16_rawmmm+0x298>
 28c:	f1c1 0800 	rsb	r8, r1, #0
 290:	fa1f f188 	uxth.w	r1, r8
 294:	fa0f f888 	sxth.w	r8, r8
 298:	07b6      	lsls	r6, r6, #30
 29a:	d503      	bpl.n	2a4 <_Z12inoise16_rawmmm+0x2a4>
 29c:	f1cc 0c00 	rsb	ip, ip, #0
 2a0:	fa0f fc8c 	sxth.w	ip, ip
 2a4:	9e04      	ldr	r6, [sp, #16]
 2a6:	f001 0101 	and.w	r1, r1, #1
 2aa:	4426      	add	r6, r4
 2ac:	eb01 0168 	add.w	r1, r1, r8, asr #1
 2b0:	7876      	ldrb	r6, [r6, #1]
 2b2:	eb01 016c 	add.w	r1, r1, ip, asr #1
 2b6:	0733      	lsls	r3, r6, #28
 2b8:	fa1f f881 	uxth.w	r8, r1
 2bc:	b209      	sxth	r1, r1
 2be:	f140 80e9 	bpl.w	494 <_Z12inoise16_rawmmm+0x494>
 2c2:	46ac      	mov	ip, r5
 2c4:	f016 0f0c 	tst.w	r6, #12
 2c8:	d006      	beq.n	2d8 <_Z12inoise16_rawmmm+0x2d8>
 2ca:	f006 090d 	and.w	r9, r6, #13
 2ce:	9d01      	ldr	r5, [sp, #4]
 2d0:	f1b9 0f0c 	cmp.w	r9, #12
 2d4:	bf18      	it	ne
 2d6:	463d      	movne	r5, r7
 2d8:	07f3      	lsls	r3, r6, #31
 2da:	d507      	bpl.n	2ec <_Z12inoise16_rawmmm+0x2ec>
 2dc:	9b00      	ldr	r3, [sp, #0]
 2de:	f1c3 0c00 	rsb	ip, r3, #0
 2e2:	fa1f f38c 	uxth.w	r3, ip
 2e6:	fa0f fc8c 	sxth.w	ip, ip
 2ea:	9300      	str	r3, [sp, #0]
 2ec:	07b3      	lsls	r3, r6, #30
 2ee:	d501      	bpl.n	2f4 <_Z12inoise16_rawmmm+0x2f4>
 2f0:	426d      	negs	r5, r5
 2f2:	b22d      	sxth	r5, r5
 2f4:	9b00      	ldr	r3, [sp, #0]
 2f6:	f003 0301 	and.w	r3, r3, #1
 2fa:	eb03 036c 	add.w	r3, r3, ip, asr #1
 2fe:	eb03 0365 	add.w	r3, r3, r5, asr #1
 302:	b21d      	sxth	r5, r3
 304:	b29b      	uxth	r3, r3
 306:	428d      	cmp	r5, r1
 308:	f340 80ba 	ble.w	480 <_Z12inoise16_rawmmm+0x480>
 30c:	eba3 0308 	sub.w	r3, r3, r8
 310:	b29b      	uxth	r3, r3
 312:	fb0a f303 	mul.w	r3, sl, r3
 316:	eb08 4313 	add.w	r3, r8, r3, lsr #16
 31a:	b299      	uxth	r1, r3
 31c:	b21b      	sxth	r3, r3
 31e:	9d03      	ldr	r5, [sp, #12]
 320:	4425      	add	r5, r4
 322:	786d      	ldrb	r5, [r5, #1]
 324:	072e      	lsls	r6, r5, #28
 326:	f140 80a9 	bpl.w	47c <_Z12inoise16_rawmmm+0x47c>
 32a:	f8dd b018 	ldr.w	fp, [sp, #24]
 32e:	4606      	mov	r6, r0
 330:	f015 0f0c 	tst.w	r5, #12
 334:	f000 80a0 	beq.w	478 <_Z12inoise16_rawmmm+0x478>
 338:	f005 0c0d 	and.w	ip, r5, #13
 33c:	f1bc 0f0c 	cmp.w	ip, #12
 340:	bf18      	it	ne
 342:	46be      	movne	lr, r7
 344:	f015 0f01 	tst.w	r5, #1
 348:	d004      	beq.n	354 <_Z12inoise16_rawmmm+0x354>
 34a:	f1cb 0600 	rsb	r6, fp, #0
 34e:	fa1f fb86 	uxth.w	fp, r6
 352:	b236      	sxth	r6, r6
 354:	07ad      	lsls	r5, r5, #30
 356:	d503      	bpl.n	360 <_Z12inoise16_rawmmm+0x360>
 358:	f1ce 0e00 	rsb	lr, lr, #0
 35c:	fa0f fe8e 	sxth.w	lr, lr
 360:	9d05      	ldr	r5, [sp, #20]
 362:	442c      	add	r4, r5
 364:	f00b 0501 	and.w	r5, fp, #1
 368:	eb05 0566 	add.w	r5, r5, r6, asr #1
 36c:	7866      	ldrb	r6, [r4, #1]
 36e:	eb05 056e 	add.w	r5, r5, lr, asr #1
 372:	f016 0f08 	tst.w	r6, #8
 376:	b2ac      	uxth	r4, r5
 378:	b22d      	sxth	r5, r5
 37a:	d050      	beq.n	41e <_Z12inoise16_rawmmm+0x41e>
 37c:	9a06      	ldr	r2, [sp, #24]
 37e:	4684      	mov	ip, r0
 380:	f016 0f0c 	tst.w	r6, #12
 384:	d006      	beq.n	394 <_Z12inoise16_rawmmm+0x394>
 386:	f006 0e0d 	and.w	lr, r6, #13
 38a:	9801      	ldr	r0, [sp, #4]
 38c:	f1be 0f0c 	cmp.w	lr, #12
 390:	bf18      	it	ne
 392:	4638      	movne	r0, r7
 394:	07f7      	lsls	r7, r6, #31
 396:	d505      	bpl.n	3a4 <_Z12inoise16_rawmmm+0x3a4>
 398:	f1c2 0c00 	rsb	ip, r2, #0
 39c:	fa1f f28c 	uxth.w	r2, ip
 3a0:	fa0f fc8c 	sxth.w	ip, ip
 3a4:	07b6      	lsls	r6, r6, #30
 3a6:	d501      	bpl.n	3ac <_Z12inoise16_rawmmm+0x3ac>
 3a8:	4240      	negs	r0, r0
 3aa:	b200      	sxth	r0, r0
 3ac:	f002 0201 	and.w	r2, r2, #1
 3b0:	eb02 026c 	add.w	r2, r2, ip, asr #1
 3b4:	eb02 0260 	add.w	r2, r2, r0, asr #1
 3b8:	b210      	sxth	r0, r2
 3ba:	b292      	uxth	r2, r2
 3bc:	42a8      	cmp	r0, r5
 3be:	dd52      	ble.n	466 <_Z12inoise16_rawmmm+0x466>
 3c0:	1b12      	subs	r2, r2, r4
 3c2:	b292      	uxth	r2, r2
 3c4:	fb0a f202 	mul.w	r2, sl, r2
 3c8:	eb04 4212 	add.w	r2, r4, r2, lsr #16
 3cc:	b295      	uxth	r5, r2
 3ce:	b214      	sxth	r4, r2
 3d0:	e9dd 200c 	ldrd	r2, r0, [sp, #48]	; 0x30
 3d4:	4282      	cmp	r2, r0
 3d6:	da39      	bge.n	44c <_Z12inoise16_rawmmm+0x44c>
 3d8:	9e0b      	ldr	r6, [sp, #44]	; 0x2c
 3da:	e9dd 0208 	ldrd	r0, r2, [sp, #32]
 3de:	1a12      	subs	r2, r2, r0
 3e0:	b292      	uxth	r2, r2
 3e2:	fb06 2202 	mla	r2, r6, r2, r2
 3e6:	3601      	adds	r6, #1
 3e8:	eb00 4212 	add.w	r2, r0, r2, lsr #16
 3ec:	b290      	uxth	r0, r2
 3ee:	b212      	sxth	r2, r2
 3f0:	42a3      	cmp	r3, r4
 3f2:	da22      	bge.n	43a <_Z12inoise16_rawmmm+0x43a>
 3f4:	1a6d      	subs	r5, r5, r1
 3f6:	b2ad      	uxth	r5, r5
 3f8:	fb06 f505 	mul.w	r5, r6, r5
 3fc:	eb01 4515 	add.w	r5, r1, r5, lsr #16
 400:	b2ab      	uxth	r3, r5
 402:	b229      	sxth	r1, r5
 404:	4291      	cmp	r1, r2
 406:	dd0d      	ble.n	424 <_Z12inoise16_rawmmm+0x424>
 408:	1a1b      	subs	r3, r3, r0
 40a:	9a0a      	ldr	r2, [sp, #40]	; 0x28
 40c:	b29b      	uxth	r3, r3
 40e:	fb02 3303 	mla	r3, r2, r3, r3
 412:	eb00 4013 	add.w	r0, r0, r3, lsr #16
 416:	b200      	sxth	r0, r0
 418:	b00f      	add	sp, #60	; 0x3c
 41a:	e8bd 8ff0 	ldmia.w	sp!, {r4, r5, r6, r7, r8, r9, sl, fp, pc}
 41e:	f8dd c004 	ldr.w	ip, [sp, #4]
 422:	e7ad      	b.n	380 <_Z12inoise16_rawmmm+0x380>
 424:	1ac3      	subs	r3, r0, r3
 426:	9a0a      	ldr	r2, [sp, #40]	; 0x28
 428:	b29b      	uxth	r3, r3
 42a:	fb02 3303 	mla	r3, r2, r3, r3
 42e:	eba0 4013 	sub.w	r0, r0, r3, lsr #16
 432:	b200      	sxth	r0, r0
 434:	b00f      	add	sp, #60	; 0x3c
 436:	e8bd 8ff0 	ldmia.w	sp!, {r4, r5, r6, r7, r8, r9, sl, fp, pc}
 43a:	1b4d      	subs	r5, r1, r5
 43c:	b2ad      	uxth	r5, r5
 43e:	fb06 f505 	mul.w	r5, r6, r5
 442:	eba1 4115 	sub.w	r1, r1, r5, lsr #16
 446:	b28b      	uxth	r3, r1
 448:	b209      	sxth	r1, r1
 44a:	e7db      	b.n	404 <_Z12inoise16_rawmmm+0x404>
 44c:	e9dd 0208 	ldrd	r0, r2, [sp, #32]
 450:	9e0b      	ldr	r6, [sp, #44]	; 0x2c
 452:	1a82      	subs	r2, r0, r2
 454:	b292      	uxth	r2, r2
 456:	fb06 2202 	mla	r2, r6, r2, r2
 45a:	3601      	adds	r6, #1
 45c:	eba0 4212 	sub.w	r2, r0, r2, lsr #16
 460:	b290      	uxth	r0, r2
 462:	b212      	sxth	r2, r2
 464:	e7c4      	b.n	3f0 <_Z12inoise16_rawmmm+0x3f0>
 466:	1aa2      	subs	r2, r4, r2
 468:	b292      	uxth	r2, r2
 46a:	fb0a f202 	mul.w	r2, sl, r2
 46e:	eba4 4412 	sub.w	r4, r4, r2, lsr #16
 472:	b2a5      	uxth	r5, r4
 474:	b224      	sxth	r4, r4
 476:	e7ab      	b.n	3d0 <_Z12inoise16_rawmmm+0x3d0>
 478:	4686      	mov	lr, r0
 47a:	e763      	b.n	344 <_Z12inoise16_rawmmm+0x344>
 47c:	4676      	mov	r6, lr
 47e:	e757      	b.n	330 <_Z12inoise16_rawmmm+0x330>
 480:	eba8 0303 	sub.w	r3, r8, r3
 484:	b29b      	uxth	r3, r3
 486:	fb0a f303 	mul.w	r3, sl, r3
 48a:	eba8 4313 	sub.w	r3, r8, r3, lsr #16
 48e:	b299      	uxth	r1, r3
 490:	b21b      	sxth	r3, r3
 492:	e744      	b.n	31e <_Z12inoise16_rawmmm+0x31e>
 494:	f8dd c004 	ldr.w	ip, [sp, #4]
 498:	9200      	str	r2, [sp, #0]
 49a:	e713      	b.n	2c4 <_Z12inoise16_rawmmm+0x2c4>
 49c:	46ac      	mov	ip, r5
 49e:	e6f3      	b.n	288 <_Z12inoise16_rawmmm+0x288>
 4a0:	4659      	mov	r1, fp
 4a2:	46f0      	mov	r8, lr
 4a4:	e6e5      	b.n	272 <_Z12inoise16_rawmmm+0x272>
 4a6:	eba9 0101 	sub.w	r1, r9, r1
 4aa:	b289      	uxth	r1, r1
 4ac:	fb0a f101 	mul.w	r1, sl, r1
 4b0:	eba9 4111 	sub.w	r1, r9, r1, lsr #16
 4b4:	b28b      	uxth	r3, r1
 4b6:	9309      	str	r3, [sp, #36]	; 0x24
 4b8:	b20b      	sxth	r3, r1
 4ba:	930d      	str	r3, [sp, #52]	; 0x34
 4bc:	e6cd      	b.n	25a <_Z12inoise16_rawmmm+0x25a>
 4be:	4606      	mov	r6, r0
 4c0:	e6a6      	b.n	210 <_Z12inoise16_rawmmm+0x210>
 4c2:	4611      	mov	r1, r2
 4c4:	f8dd 8004 	ldr.w	r8, [sp, #4]
 4c8:	e698      	b.n	1fc <_Z12inoise16_rawmmm+0x1fc>
 4ca:	4684      	mov	ip, r0
 4cc:	e675      	b.n	1ba <_Z12inoise16_rawmmm+0x1ba>
 4ce:	465f      	mov	r7, fp
 4d0:	46f0      	mov	r8, lr
 4d2:	e667      	b.n	1a4 <_Z12inoise16_rawmmm+0x1a4>
 4d4:	ebaa 0101 	sub.w	r1, sl, r1
 4d8:	b289      	uxth	r1, r1
 4da:	fb00 1101 	mla	r1, r0, r1, r1
 4de:	ebaa 4111 	sub.w	r1, sl, r1, lsr #16
 4e2:	e64d      	b.n	180 <_Z12inoise16_rawmmm+0x180>
 4e4:	46a8      	mov	r8, r5
 4e6:	e628      	b.n	13a <_Z12inoise16_rawmmm+0x13a>
 4e8:	f8dd 9004 	ldr.w	r9, [sp, #4]
 4ec:	9206      	str	r2, [sp, #24]
 4ee:	e618      	b.n	122 <_Z12inoise16_rawmmm+0x122>
 4f0:	4629      	mov	r1, r5
 4f2:	e5f5      	b.n	e0 <_Z12inoise16_rawmmm+0xe0>
 4f4:	46dc      	mov	ip, fp
 4f6:	4677      	mov	r7, lr
 4f8:	e5e7      	b.n	ca <_Z12inoise16_rawmmm+0xca>
 4fa:	fa1f f880 	uxth.w	r8, r0
 4fe:	040b      	lsls	r3, r1, #16
 500:	f64f 70ff 	movw	r0, #65535	; 0xffff
 504:	ea6f 0808 	mvn.w	r8, r8
 508:	fa1f f888 	uxth.w	r8, r8
 50c:	fb08 8808 	mla	r8, r8, r8, r8
 510:	ea4f 4818 	mov.w	r8, r8, lsr #16
 514:	ea4f 0848 	mov.w	r8, r8, lsl #1
 518:	fa1f f888 	uxth.w	r8, r8
 51c:	ea88 0000 	eor.w	r0, r8, r0
 520:	f57f adb4 	bpl.w	8c <_Z12inoise16_rawmmm+0x8c>
 524:	ea6f 0c0c 	mvn.w	ip, ip
 528:	f64f 73ff 	movw	r3, #65535	; 0xffff
 52c:	0417      	lsls	r7, r2, #16
 52e:	fa1f fc8c 	uxth.w	ip, ip
 532:	fb0c cc0c 	mla	ip, ip, ip, ip
 536:	ea4f 411c 	mov.w	r1, ip, lsr #16
 53a:	ea4f 0141 	mov.w	r1, r1, lsl #1
 53e:	b289      	uxth	r1, r1
 540:	ea81 0303 	eor.w	r3, r1, r3
 544:	930b      	str	r3, [sp, #44]	; 0x2c
 546:	f57f adb1 	bpl.w	ac <_Z12inoise16_rawmmm+0xac>
 54a:	ea6f 070a 	mvn.w	r7, sl
 54e:	f64f 73ff 	movw	r3, #65535	; 0xffff
 552:	b2bf      	uxth	r7, r7
 554:	fb07 7707 	mla	r7, r7, r7, r7
 558:	0c3a      	lsrs	r2, r7, #16
 55a:	0052      	lsls	r2, r2, #1
 55c:	b292      	uxth	r2, r2
 55e:	4053      	eors	r3, r2
 560:	930a      	str	r3, [sp, #40]	; 0x28
 562:	e5aa      	b.n	ba <_Z12inoise16_rawmmm+0xba>

Disassembly of section .text._Z8inoise16mmm:

00000000 <_Z8inoise16mmm>:
   0:	b508      	push	{r3, lr}
   2:	f7ff fffe 	bl	0 <_Z8inoise16mmm>
   6:	f644 236c 	movw	r3, #19052	; 0x4a6c
   a:	f44f 72dc 	mov.w	r2, #440	; 0x1b8
   e:	4403      	add	r3, r0
  10:	fb02 f003 	mul.w	r0, r2, r3
  14:	f3c0 200f 	ubfx	r0, r0, #8, #16
  18:	bd08      	pop	{r3, pc}
  1a:	bf00      	nop

Disassembly of section .text._Z12inoise16_rawmm:

00000000 <_Z12inoise16_rawmm>:
   0:	e92d 4ff0 	stmdb	sp!, {r4, r5, r6, r7, r8, r9, sl, fp, lr}
   4:	f3c0 4307 	ubfx	r3, r0, #16, #8
   8:	4c8f      	ldr	r4, [pc, #572]	; (248 <_Z12inoise16_rawmm+0x248>)
   a:	f3c1 4207 	ubfx	r2, r1, #16, #8
   e:	b083      	sub	sp, #12
  10:	18e5      	adds	r5, r4, r3
  12:	5ce3      	ldrb	r3, [r4, r3]
  14:	f3c0 0e4e 	ubfx	lr, r0, #1, #15
  18:	f3c1 064e 	ubfx	r6, r1, #1, #15
  1c:	4413      	add	r3, r2
  1e:	786d      	ldrb	r5, [r5, #1]
  20:	f410 4f00 	tst.w	r0, #32768	; 0x8000
  24:	4677      	mov	r7, lr
  26:	b2db      	uxtb	r3, r3
  28:	442a      	add	r2, r5
  2a:	46b0      	mov	r8, r6
  2c:	eb04 0503 	add.w	r5, r4, r3
  30:	b2d2      	uxtb	r2, r2
  32:	5ce3      	ldrb	r3, [r4, r3]
  34:	786d      	ldrb	r5, [r5, #1]
  36:	9500      	str	r5, [sp, #0]
  38:	eb04 0502 	add.w	r5, r4, r2
  3c:	5ca2      	ldrb	r2, [r4, r2]
  3e:	786d      	ldrb	r5, [r5, #1]
  40:	9501      	str	r5, [sp, #4]
  42:	b28d      	uxth	r5, r1
  44:	f040 80e1 	bne.w	20a <_Z12inoise16_rawmm+0x20a>
  48:	b280      	uxth	r0, r0
  4a:	fb00 0000 	mla	r0, r0, r0, r0
  4e:	ea4f 4c10 	mov.w	ip, r0, lsr #16
  52:	0408      	lsls	r0, r1, #16
  54:	ea4f 0c4c 	mov.w	ip, ip, lsl #1
  58:	fa1f fc8c 	uxth.w	ip, ip
  5c:	f100 80e8 	bmi.w	230 <_Z12inoise16_rawmm+0x230>
  60:	b289      	uxth	r1, r1
  62:	fb01 1101 	mla	r1, r1, r1, r1
  66:	0c09      	lsrs	r1, r1, #16
  68:	0049      	lsls	r1, r1, #1
  6a:	b289      	uxth	r1, r1
  6c:	f814 9003 	ldrb.w	r9, [r4, r3]
  70:	f019 0f04 	tst.w	r9, #4
  74:	f000 80b2 	beq.w	1dc <_Z12inoise16_rawmm+0x1dc>
  78:	4630      	mov	r0, r6
  7a:	463b      	mov	r3, r7
  7c:	4645      	mov	r5, r8
  7e:	f019 0f01 	tst.w	r9, #1
  82:	d002      	beq.n	8a <_Z12inoise16_rawmm+0x8a>
  84:	4245      	negs	r5, r0
  86:	b2a8      	uxth	r0, r5
  88:	b22d      	sxth	r5, r5
  8a:	f019 0f02 	tst.w	r9, #2
  8e:	d001      	beq.n	94 <_Z12inoise16_rawmm+0x94>
  90:	425b      	negs	r3, r3
  92:	b21b      	sxth	r3, r3
  94:	f000 0001 	and.w	r0, r0, #1
  98:	f814 b002 	ldrb.w	fp, [r4, r2]
  9c:	eb00 0065 	add.w	r0, r0, r5, asr #1
  a0:	f01b 0f04 	tst.w	fp, #4
  a4:	eb00 0063 	add.w	r0, r0, r3, asr #1
  a8:	f48e 4300 	eor.w	r3, lr, #32768	; 0x8000
  ac:	b285      	uxth	r5, r0
  ae:	fa0f f983 	sxth.w	r9, r3
  b2:	b200      	sxth	r0, r0
  b4:	f000 808f 	beq.w	1d6 <_Z12inoise16_rawmm+0x1d6>
  b8:	46c2      	mov	sl, r8
  ba:	4632      	mov	r2, r6
  bc:	46c8      	mov	r8, r9
  be:	f01b 0f01 	tst.w	fp, #1
  c2:	d005      	beq.n	d0 <_Z12inoise16_rawmm+0xd0>
  c4:	f1c2 0a00 	rsb	sl, r2, #0
  c8:	fa1f f28a 	uxth.w	r2, sl
  cc:	fa0f fa8a 	sxth.w	sl, sl
  d0:	f01b 0f02 	tst.w	fp, #2
  d4:	d003      	beq.n	de <_Z12inoise16_rawmm+0xde>
  d6:	f1c8 0800 	rsb	r8, r8, #0
  da:	fa0f f888 	sxth.w	r8, r8
  de:	f002 0201 	and.w	r2, r2, #1
  e2:	eb02 026a 	add.w	r2, r2, sl, asr #1
  e6:	eb02 0268 	add.w	r2, r2, r8, asr #1
  ea:	fa0f f882 	sxth.w	r8, r2
  ee:	b292      	uxth	r2, r2
  f0:	4580      	cmp	r8, r0
  f2:	dd64      	ble.n	1be <_Z12inoise16_rawmm+0x1be>
  f4:	1b52      	subs	r2, r2, r5
  f6:	b292      	uxth	r2, r2
  f8:	fb0c 2202 	mla	r2, ip, r2, r2
  fc:	f10c 0c01 	add.w	ip, ip, #1
 100:	eb05 4212 	add.w	r2, r5, r2, lsr #16
 104:	b290      	uxth	r0, r2
 106:	fa0f fb82 	sxth.w	fp, r2
 10a:	9a00      	ldr	r2, [sp, #0]
 10c:	f446 4600 	orr.w	r6, r6, #32768	; 0x8000
 110:	f814 a002 	ldrb.w	sl, [r4, r2]
 114:	fa0f f886 	sxth.w	r8, r6
 118:	f01a 0f04 	tst.w	sl, #4
 11c:	d04d      	beq.n	1ba <_Z12inoise16_rawmm+0x1ba>
 11e:	463a      	mov	r2, r7
 120:	46b6      	mov	lr, r6
 122:	4647      	mov	r7, r8
 124:	f01a 0f01 	tst.w	sl, #1
 128:	d004      	beq.n	134 <_Z12inoise16_rawmm+0x134>
 12a:	f1ce 0700 	rsb	r7, lr, #0
 12e:	fa1f fe87 	uxth.w	lr, r7
 132:	b23f      	sxth	r7, r7
 134:	f01a 0f02 	tst.w	sl, #2
 138:	d001      	beq.n	13e <_Z12inoise16_rawmm+0x13e>
 13a:	4252      	negs	r2, r2
 13c:	b212      	sxth	r2, r2
 13e:	9d01      	ldr	r5, [sp, #4]
 140:	f00e 0e01 	and.w	lr, lr, #1
 144:	5d64      	ldrb	r4, [r4, r5]
 146:	eb0e 0e67 	add.w	lr, lr, r7, asr #1
 14a:	0767      	lsls	r7, r4, #29
 14c:	eb0e 0e62 	add.w	lr, lr, r2, asr #1
 150:	fa1f f28e 	uxth.w	r2, lr
 154:	fa0f fe8e 	sxth.w	lr, lr
 158:	d503      	bpl.n	162 <_Z12inoise16_rawmm+0x162>
 15a:	464f      	mov	r7, r9
 15c:	4633      	mov	r3, r6
 15e:	46c1      	mov	r9, r8
 160:	46b8      	mov	r8, r7
 162:	07e5      	lsls	r5, r4, #31
 164:	d505      	bpl.n	172 <_Z12inoise16_rawmm+0x172>
 166:	f1c3 0900 	rsb	r9, r3, #0
 16a:	fa1f f389 	uxth.w	r3, r9
 16e:	fa0f f989 	sxth.w	r9, r9
 172:	07a4      	lsls	r4, r4, #30
 174:	d503      	bpl.n	17e <_Z12inoise16_rawmm+0x17e>
 176:	f1c8 0800 	rsb	r8, r8, #0
 17a:	fa0f f888 	sxth.w	r8, r8
 17e:	f003 0301 	and.w	r3, r3, #1
 182:	eb03 0369 	add.w	r3, r3, r9, asr #1
 186:	eb03 0368 	add.w	r3, r3, r8, asr #1
 18a:	b21c      	sxth	r4, r3
 18c:	b29b      	uxth	r3, r3
 18e:	4574      	cmp	r4, lr
 190:	dd32      	ble.n	1f8 <_Z12inoise16_rawmm+0x1f8>
 192:	1a9b      	subs	r3, r3, r2
 194:	b29b      	uxth	r3, r3
 196:	fb0c f303 	mul.w	r3, ip, r3
 19a:	eb02 4313 	add.w	r3, r2, r3, lsr #16
 19e:	b29c      	uxth	r4, r3
 1a0:	b21a      	sxth	r2, r3
 1a2:	4593      	cmp	fp, r2
 1a4:	da1e      	bge.n	1e4 <_Z12inoise16_rawmm+0x1e4>
 1a6:	1a24      	subs	r4, r4, r0
 1a8:	b2a4      	uxth	r4, r4
 1aa:	fb01 4404 	mla	r4, r1, r4, r4
 1ae:	eb00 4014 	add.w	r0, r0, r4, lsr #16
 1b2:	b200      	sxth	r0, r0
 1b4:	b003      	add	sp, #12
 1b6:	e8bd 8ff0 	ldmia.w	sp!, {r4, r5, r6, r7, r8, r9, sl, fp, pc}
 1ba:	4642      	mov	r2, r8
 1bc:	e7b2      	b.n	124 <_Z12inoise16_rawmm+0x124>
 1be:	1aaa      	subs	r2, r5, r2
 1c0:	b292      	uxth	r2, r2
 1c2:	fb0c 2202 	mla	r2, ip, r2, r2
 1c6:	f10c 0c01 	add.w	ip, ip, #1
 1ca:	eba5 4512 	sub.w	r5, r5, r2, lsr #16
 1ce:	b2a8      	uxth	r0, r5
 1d0:	fa0f fb85 	sxth.w	fp, r5
 1d4:	e799      	b.n	10a <_Z12inoise16_rawmm+0x10a>
 1d6:	461a      	mov	r2, r3
 1d8:	46ca      	mov	sl, r9
 1da:	e770      	b.n	be <_Z12inoise16_rawmm+0xbe>
 1dc:	4670      	mov	r0, lr
 1de:	4643      	mov	r3, r8
 1e0:	463d      	mov	r5, r7
 1e2:	e74c      	b.n	7e <_Z12inoise16_rawmm+0x7e>
 1e4:	1b04      	subs	r4, r0, r4
 1e6:	b2a4      	uxth	r4, r4
 1e8:	fb01 4404 	mla	r4, r1, r4, r4
 1ec:	eba0 4014 	sub.w	r0, r0, r4, lsr #16
 1f0:	b200      	sxth	r0, r0
 1f2:	b003      	add	sp, #12
 1f4:	e8bd 8ff0 	ldmia.w	sp!, {r4, r5, r6, r7, r8, r9, sl, fp, pc}
 1f8:	1ad3      	subs	r3, r2, r3
 1fa:	b29b      	uxth	r3, r3
 1fc:	fb0c f303 	mul.w	r3, ip, r3
 200:	eba2 4213 	sub.w	r2, r2, r3, lsr #16
 204:	b294      	uxth	r4, r2
 206:	b212      	sxth	r2, r2
 208:	e7cb      	b.n	1a2 <_Z12inoise16_rawmm+0x1a2>
 20a:	fa1f fc80 	uxth.w	ip, r0
 20e:	ea6f 0c0c 	mvn.w	ip, ip
 212:	fa1f fc8c 	uxth.w	ip, ip
 216:	fb0c cc0c 	mla	ip, ip, ip, ip
 21a:	ea4f 401c 	mov.w	r0, ip, lsr #16
 21e:	f64f 7cff 	movw	ip, #65535	; 0xffff
 222:	0040      	lsls	r0, r0, #1
 224:	b280      	uxth	r0, r0
 226:	ea80 0c0c 	eor.w	ip, r0, ip
 22a:	0408      	lsls	r0, r1, #16
 22c:	f57f af18 	bpl.w	60 <_Z12inoise16_rawmm+0x60>
 230:	43ed      	mvns	r5, r5
 232:	f64f 71ff 	movw	r1, #65535	; 0xffff
 236:	b2ad      	uxth	r5, r5
 238:	fb05 5505 	mla	r5, r5, r5, r5
 23c:	0c2d      	lsrs	r5, r5, #16
 23e:	006d      	lsls	r5, r5, #1
 240:	b2ad      	uxth	r5, r5
 242:	4069      	eors	r1, r5
 244:	e712      	b.n	6c <_Z12inoise16_rawmm+0x6c>
 246:	bf00      	nop
 248:	00000000 	.word	0x00000000

Disassembly of section .text._Z8inoise16mm:

00000000 <_Z8inoise16mm>:
   0:	b508      	push	{r3, lr}
   2:	f7ff fffe 	bl	0 <_Z8inoise16mm>
   6:	f244 339c 	movw	r3, #17308	; 0x439c
   a:	f44f 72f2 	mov.w	r2, #484	; 0x1e4
   e:	4403      	add	r3, r0
  10:	fb02 f003 	mul.w	r0, r2, r3
  14:	f3c0 200f 	ubfx	r0, r0, #8, #16
  18:	bd08      	pop	{r3, pc}
  1a:	bf00      	nop

Disassembly of section .text._Z12inoise16_rawm:

00000000 <_Z12inoise16_rawm>:
   0:	b530      	push	{r4, r5, lr}
   2:	f3c0 4307 	ubfx	r3, r0, #16, #8
   6:	4c3e      	ldr	r4, [pc, #248]	; (100 <_Z12inoise16_rawm+0x100>)
   8:	18e2      	adds	r2, r4, r3
   a:	5ce1      	ldrb	r1, [r4, r3]
   c:	0403      	lsls	r3, r0, #16
   e:	7852      	ldrb	r2, [r2, #1]
  10:	5c65      	ldrb	r5, [r4, r1]
  12:	f814 e002 	ldrb.w	lr, [r4, r2]
  16:	f3c0 024e 	ubfx	r2, r0, #1, #15
  1a:	4694      	mov	ip, r2
  1c:	d464      	bmi.n	e8 <_Z12inoise16_rawm+0xe8>
  1e:	b280      	uxth	r0, r0
  20:	fb00 0000 	mla	r0, r0, r0, r0
  24:	0c03      	lsrs	r3, r0, #16
  26:	005b      	lsls	r3, r3, #1
  28:	b29b      	uxth	r3, r3
  2a:	5d60      	ldrb	r0, [r4, r5]
  2c:	f000 010f 	and.w	r1, r0, #15
  30:	2908      	cmp	r1, #8
  32:	d805      	bhi.n	40 <_Z12inoise16_rawm+0x40>
  34:	f010 0f0c 	tst.w	r0, #12
  38:	d151      	bne.n	de <_Z12inoise16_rawm+0xde>
  3a:	4611      	mov	r1, r2
  3c:	2501      	movs	r5, #1
  3e:	e001      	b.n	44 <_Z12inoise16_rawm+0x44>
  40:	4611      	mov	r1, r2
  42:	4665      	mov	r5, ip
  44:	f010 0f01 	tst.w	r0, #1
  48:	d005      	beq.n	56 <_Z12inoise16_rawm+0x56>
  4a:	f1c1 0c00 	rsb	ip, r1, #0
  4e:	fa1f f18c 	uxth.w	r1, ip
  52:	fa0f fc8c 	sxth.w	ip, ip
  56:	0780      	lsls	r0, r0, #30
  58:	d501      	bpl.n	5e <_Z12inoise16_rawm+0x5e>
  5a:	426d      	negs	r5, r5
  5c:	b22d      	sxth	r5, r5
  5e:	f001 0101 	and.w	r1, r1, #1
  62:	f814 400e 	ldrb.w	r4, [r4, lr]
  66:	f442 4200 	orr.w	r2, r2, #32768	; 0x8000
  6a:	eb01 016c 	add.w	r1, r1, ip, asr #1
  6e:	eb01 0165 	add.w	r1, r1, r5, asr #1
  72:	f004 050f 	and.w	r5, r4, #15
  76:	2d08      	cmp	r5, #8
  78:	b288      	uxth	r0, r1
  7a:	fa0f fc81 	sxth.w	ip, r1
  7e:	b211      	sxth	r1, r2
  80:	d804      	bhi.n	8c <_Z12inoise16_rawm+0x8c>
  82:	f014 0f0c 	tst.w	r4, #12
  86:	d126      	bne.n	d6 <_Z12inoise16_rawm+0xd6>
  88:	2501      	movs	r5, #1
  8a:	e000      	b.n	8e <_Z12inoise16_rawm+0x8e>
  8c:	460d      	mov	r5, r1
  8e:	f014 0f01 	tst.w	r4, #1
  92:	d002      	beq.n	9a <_Z12inoise16_rawm+0x9a>
  94:	4251      	negs	r1, r2
  96:	b28a      	uxth	r2, r1
  98:	b209      	sxth	r1, r1
  9a:	07a4      	lsls	r4, r4, #30
  9c:	d501      	bpl.n	a2 <_Z12inoise16_rawm+0xa2>
  9e:	426d      	negs	r5, r5
  a0:	b22d      	sxth	r5, r5
  a2:	f002 0201 	and.w	r2, r2, #1
  a6:	eb02 0261 	add.w	r2, r2, r1, asr #1
  aa:	eb02 0265 	add.w	r2, r2, r5, asr #1
  ae:	b291      	uxth	r1, r2
  b0:	b212      	sxth	r2, r2
  b2:	4562      	cmp	r2, ip
  b4:	dd07      	ble.n	c6 <_Z12inoise16_rawm+0xc6>
  b6:	1a09      	subs	r1, r1, r0
  b8:	b289      	uxth	r1, r1
  ba:	fb03 1101 	mla	r1, r3, r1, r1
  be:	eb00 4011 	add.w	r0, r0, r1, lsr #16
  c2:	b200      	sxth	r0, r0
  c4:	bd30      	pop	{r4, r5, pc}
  c6:	1a41      	subs	r1, r0, r1
  c8:	b289      	uxth	r1, r1
  ca:	fb03 1101 	mla	r1, r3, r1, r1
  ce:	eba0 4011 	sub.w	r0, r0, r1, lsr #16
  d2:	b200      	sxth	r0, r0
  d4:	bd30      	pop	{r4, r5, pc}
  d6:	460d      	mov	r5, r1
  d8:	2101      	movs	r1, #1
  da:	460a      	mov	r2, r1
  dc:	e7d7      	b.n	8e <_Z12inoise16_rawm+0x8e>
  de:	4665      	mov	r5, ip
  e0:	f04f 0c01 	mov.w	ip, #1
  e4:	4661      	mov	r1, ip
  e6:	e7ad      	b.n	44 <_Z12inoise16_rawm+0x44>
  e8:	b283      	uxth	r3, r0
  ea:	43db      	mvns	r3, r3
  ec:	b29b      	uxth	r3, r3
  ee:	fb03 3303 	mla	r3, r3, r3, r3
  f2:	0c19      	lsrs	r1, r3, #16
  f4:	f64f 73ff 	movw	r3, #65535	; 0xffff
  f8:	0049      	lsls	r1, r1, #1
  fa:	b289      	uxth	r1, r1
  fc:	404b      	eors	r3, r1
  fe:	e794      	b.n	2a <_Z12inoise16_rawm+0x2a>
 100:	00000000 	.word	0x00000000

Disassembly of section .text._Z8inoise16m:

00000000 <_Z8inoise16m>:
   0:	b508      	push	{r3, lr}
   2:	f7ff fffe 	bl	0 <_Z8inoise16m>
   6:	f244 339c 	movw	r3, #17308	; 0x439c
   a:	4403      	add	r3, r0
   c:	0058      	lsls	r0, r3, #1
   e:	b280      	uxth	r0, r0
  10:	bd08      	pop	{r3, pc}
  12:	bf00      	nop

Disassembly of section .text._Z11inoise8_rawttt:

00000000 <_Z11inoise8_rawttt>:
   0:	e92d 4ff0 	stmdb	sp!, {r4, r5, r6, r7, r8, r9, sl, fp, lr}
   4:	0a03      	lsrs	r3, r0, #8
   6:	4c25      	ldr	r4, [pc, #148]	; (9c <_Z11inoise8_rawttt+0x9c>)
   8:	b08f      	sub	sp, #60	; 0x3c
   a:	b2c6      	uxtb	r6, r0
   c:	5ce5      	ldrb	r5, [r4, r3]
   e:	18e7      	adds	r7, r4, r3
  10:	fa5f f881 	uxtb.w	r8, r1
  14:	eb05 2511 	add.w	r5, r5, r1, lsr #8
  18:	787b      	ldrb	r3, [r7, #1]
  1a:	fa5f f982 	uxtb.w	r9, r2
  1e:	b2ed      	uxtb	r5, r5
  20:	eb03 2311 	add.w	r3, r3, r1, lsr #8
  24:	eb04 0c05 	add.w	ip, r4, r5
  28:	5d67      	ldrb	r7, [r4, r5]
  2a:	b2db      	uxtb	r3, r3
  2c:	f89c 5001 	ldrb.w	r5, [ip, #1]
  30:	eb07 2712 	add.w	r7, r7, r2, lsr #8
  34:	f3c0 0c46 	ubfx	ip, r0, #1, #7
  38:	b2ff      	uxtb	r7, r7
  3a:	eb05 2512 	add.w	r5, r5, r2, lsr #8
  3e:	46e6      	mov	lr, ip
  40:	9703      	str	r7, [sp, #12]
  42:	18e7      	adds	r7, r4, r3
  44:	b2ed      	uxtb	r5, r5
  46:	9504      	str	r5, [sp, #16]
  48:	5ce5      	ldrb	r5, [r4, r3]
  4a:	787b      	ldrb	r3, [r7, #1]
  4c:	f3c2 0746 	ubfx	r7, r2, #1, #7
  50:	eb05 2512 	add.w	r5, r5, r2, lsr #8
  54:	eb03 2312 	add.w	r3, r3, r2, lsr #8
  58:	9708      	str	r7, [sp, #32]
  5a:	b2ed      	uxtb	r5, r5
  5c:	9700      	str	r7, [sp, #0]
  5e:	b2db      	uxtb	r3, r3
  60:	9505      	str	r5, [sp, #20]
  62:	9306      	str	r3, [sp, #24]
  64:	f3c1 0346 	ubfx	r3, r1, #1, #7
  68:	461d      	mov	r5, r3
  6a:	9301      	str	r3, [sp, #4]
  6c:	0603      	lsls	r3, r0, #24
  6e:	f100 823e 	bmi.w	4ee <_Z11inoise8_rawttt+0x4ee>
  72:	fb06 6606 	mla	r6, r6, r6, r6
  76:	060f      	lsls	r7, r1, #24
  78:	ea4f 10d6 	mov.w	r0, r6, lsr #7
  7c:	f000 00fe 	and.w	r0, r0, #254	; 0xfe
  80:	f100 8242 	bmi.w	508 <_Z11inoise8_rawttt+0x508>
  84:	fb08 8808 	mla	r8, r8, r8, r8
  88:	0616      	lsls	r6, r2, #24
  8a:	ea4f 18d8 	mov.w	r8, r8, lsr #7
  8e:	f008 01fe 	and.w	r1, r8, #254	; 0xfe
  92:	910d      	str	r1, [sp, #52]	; 0x34
  94:	f100 8248 	bmi.w	528 <_Z11inoise8_rawttt+0x528>
  98:	e002      	b.n	a0 <_Z11inoise8_rawttt+0xa0>
  9a:	bf00      	nop
  9c:	00000000 	.word	0x00000000
  a0:	fb09 9909 	mla	r9, r9, r9, r9
  a4:	ea4f 19d9 	mov.w	r9, r9, lsr #7
  a8:	f009 02fe 	and.w	r2, r9, #254	; 0xfe
  ac:	920c      	str	r2, [sp, #48]	; 0x30
  ae:	9a03      	ldr	r2, [sp, #12]
  b0:	5ca2      	ldrb	r2, [r4, r2]
  b2:	0711      	lsls	r1, r2, #28
  b4:	f100 8218 	bmi.w	4e8 <_Z11inoise8_rawttt+0x4e8>
  b8:	4661      	mov	r1, ip
  ba:	46f0      	mov	r8, lr
  bc:	f012 0f0c 	tst.w	r2, #12
  c0:	f000 8210 	beq.w	4e4 <_Z11inoise8_rawttt+0x4e4>
  c4:	f002 090d 	and.w	r9, r2, #13
  c8:	9e00      	ldr	r6, [sp, #0]
  ca:	f1b9 0f0c 	cmp.w	r9, #12
  ce:	bf08      	it	eq
  d0:	4676      	moveq	r6, lr
  d2:	07d3      	lsls	r3, r2, #31
  d4:	d505      	bpl.n	e2 <_Z11inoise8_rawttt+0xe2>
  d6:	f1c1 0800 	rsb	r8, r1, #0
  da:	fa5f f188 	uxtb.w	r1, r8
  de:	fa4f f888 	sxtb.w	r8, r8
  e2:	0797      	lsls	r7, r2, #30
  e4:	d501      	bpl.n	ea <_Z11inoise8_rawttt+0xea>
  e6:	4276      	negs	r6, r6
  e8:	b276      	sxtb	r6, r6
  ea:	f001 0101 	and.w	r1, r1, #1
  ee:	f1ac 0280 	sub.w	r2, ip, #128	; 0x80
  f2:	eb01 0168 	add.w	r1, r1, r8, asr #1
  f6:	b2d7      	uxtb	r7, r2
  f8:	eb01 0166 	add.w	r1, r1, r6, asr #1
  fc:	9e05      	ldr	r6, [sp, #20]
  fe:	463b      	mov	r3, r7
 100:	9707      	str	r7, [sp, #28]
 102:	5da6      	ldrb	r6, [r4, r6]
 104:	b257      	sxtb	r7, r2
 106:	fa5f fa81 	uxtb.w	sl, r1
 10a:	0732      	lsls	r2, r6, #28
 10c:	b249      	sxtb	r1, r1
 10e:	9702      	str	r7, [sp, #8]
 110:	f100 81e5 	bmi.w	4de <_Z11inoise8_rawttt+0x4de>
 114:	461a      	mov	r2, r3
 116:	46b9      	mov	r9, r7
 118:	f016 0f0c 	tst.w	r6, #12
 11c:	f000 81dd 	beq.w	4da <_Z11inoise8_rawttt+0x4da>
 120:	f006 0b0d 	and.w	fp, r6, #13
 124:	9f02      	ldr	r7, [sp, #8]
 126:	9b00      	ldr	r3, [sp, #0]
 128:	f1bb 0f0c 	cmp.w	fp, #12
 12c:	bf18      	it	ne
 12e:	461f      	movne	r7, r3
 130:	46b8      	mov	r8, r7
 132:	07f7      	lsls	r7, r6, #31
 134:	d505      	bpl.n	142 <_Z11inoise8_rawttt+0x142>
 136:	f1c2 0900 	rsb	r9, r2, #0
 13a:	fa5f f289 	uxtb.w	r2, r9
 13e:	fa4f f989 	sxtb.w	r9, r9
 142:	07b6      	lsls	r6, r6, #30
 144:	d503      	bpl.n	14e <_Z11inoise8_rawttt+0x14e>
 146:	f1c8 0800 	rsb	r8, r8, #0
 14a:	fa4f f888 	sxtb.w	r8, r8
 14e:	f002 0201 	and.w	r2, r2, #1
 152:	eb02 0269 	add.w	r2, r2, r9, asr #1
 156:	eb02 0268 	add.w	r2, r2, r8, asr #1
 15a:	b256      	sxtb	r6, r2
 15c:	b2d2      	uxtb	r2, r2
 15e:	428e      	cmp	r6, r1
 160:	f340 81b3 	ble.w	4ca <_Z11inoise8_rawttt+0x4ca>
 164:	eba2 020a 	sub.w	r2, r2, sl
 168:	b2d2      	uxtb	r2, r2
 16a:	fb00 2202 	mla	r2, r0, r2, r2
 16e:	eb0a 2222 	add.w	r2, sl, r2, asr #8
 172:	b2d1      	uxtb	r1, r2
 174:	9b01      	ldr	r3, [sp, #4]
 176:	b252      	sxtb	r2, r2
 178:	f100 0b01 	add.w	fp, r0, #1
 17c:	910a      	str	r1, [sp, #40]	; 0x28
 17e:	9904      	ldr	r1, [sp, #16]
 180:	920b      	str	r2, [sp, #44]	; 0x2c
 182:	f083 0280 	eor.w	r2, r3, #128	; 0x80
 186:	5c61      	ldrb	r1, [r4, r1]
 188:	b256      	sxtb	r6, r2
 18a:	0708      	lsls	r0, r1, #28
 18c:	f100 819a 	bmi.w	4c4 <_Z11inoise8_rawttt+0x4c4>
 190:	4660      	mov	r0, ip
 192:	46f1      	mov	r9, lr
 194:	f011 0f0c 	tst.w	r1, #12
 198:	f000 8192 	beq.w	4c0 <_Z11inoise8_rawttt+0x4c0>
 19c:	f001 0a0d 	and.w	sl, r1, #13
 1a0:	9b00      	ldr	r3, [sp, #0]
 1a2:	f1ba 0f0c 	cmp.w	sl, #12
 1a6:	bf08      	it	eq
 1a8:	4673      	moveq	r3, lr
 1aa:	4698      	mov	r8, r3
 1ac:	07cb      	lsls	r3, r1, #31
 1ae:	d505      	bpl.n	1bc <_Z11inoise8_rawttt+0x1bc>
 1b0:	f1c0 0900 	rsb	r9, r0, #0
 1b4:	fa5f f089 	uxtb.w	r0, r9
 1b8:	fa4f f989 	sxtb.w	r9, r9
 1bc:	078f      	lsls	r7, r1, #30
 1be:	d503      	bpl.n	1c8 <_Z11inoise8_rawttt+0x1c8>
 1c0:	f1c8 0800 	rsb	r8, r8, #0
 1c4:	fa4f f888 	sxtb.w	r8, r8
 1c8:	f000 0001 	and.w	r0, r0, #1
 1cc:	9906      	ldr	r1, [sp, #24]
 1ce:	eb00 0069 	add.w	r0, r0, r9, asr #1
 1d2:	eb00 0068 	add.w	r0, r0, r8, asr #1
 1d6:	f814 8001 	ldrb.w	r8, [r4, r1]
 1da:	b241      	sxtb	r1, r0
 1dc:	f018 0f08 	tst.w	r8, #8
 1e0:	fa5f fa80 	uxtb.w	sl, r0
 1e4:	9109      	str	r1, [sp, #36]	; 0x24
 1e6:	f040 8168 	bne.w	4ba <_Z11inoise8_rawttt+0x4ba>
 1ea:	9907      	ldr	r1, [sp, #28]
 1ec:	f8dd 9008 	ldr.w	r9, [sp, #8]
 1f0:	f018 0f0c 	tst.w	r8, #12
 1f4:	f000 815f 	beq.w	4b6 <_Z11inoise8_rawttt+0x4b6>
 1f8:	9b00      	ldr	r3, [sp, #0]
 1fa:	f008 070d 	and.w	r7, r8, #13
 1fe:	9802      	ldr	r0, [sp, #8]
 200:	2f0c      	cmp	r7, #12
 202:	bf08      	it	eq
 204:	4603      	moveq	r3, r0
 206:	9300      	str	r3, [sp, #0]
 208:	f018 0f01 	tst.w	r8, #1
 20c:	d005      	beq.n	21a <_Z11inoise8_rawttt+0x21a>
 20e:	f1c1 0900 	rsb	r9, r1, #0
 212:	fa5f f189 	uxtb.w	r1, r9
 216:	fa4f f989 	sxtb.w	r9, r9
 21a:	f018 0f02 	tst.w	r8, #2
 21e:	d003      	beq.n	228 <_Z11inoise8_rawttt+0x228>
 220:	9b00      	ldr	r3, [sp, #0]
 222:	425f      	negs	r7, r3
 224:	b27b      	sxtb	r3, r7
 226:	9300      	str	r3, [sp, #0]
 228:	f001 0101 	and.w	r1, r1, #1
 22c:	9800      	ldr	r0, [sp, #0]
 22e:	eb01 0169 	add.w	r1, r1, r9, asr #1
 232:	eb01 0160 	add.w	r1, r1, r0, asr #1
 236:	9809      	ldr	r0, [sp, #36]	; 0x24
 238:	b24f      	sxtb	r7, r1
 23a:	b2c9      	uxtb	r1, r1
 23c:	4287      	cmp	r7, r0
 23e:	f340 812e 	ble.w	49e <_Z11inoise8_rawttt+0x49e>
 242:	eba1 010a 	sub.w	r1, r1, sl
 246:	b2c9      	uxtb	r1, r1
 248:	fb0b f101 	mul.w	r1, fp, r1
 24c:	eb0a 2121 	add.w	r1, sl, r1, asr #8
 250:	b2c8      	uxtb	r0, r1
 252:	b249      	sxtb	r1, r1
 254:	9000      	str	r0, [sp, #0]
 256:	9109      	str	r1, [sp, #36]	; 0x24
 258:	9903      	ldr	r1, [sp, #12]
 25a:	9808      	ldr	r0, [sp, #32]
 25c:	4421      	add	r1, r4
 25e:	f1a0 0780 	sub.w	r7, r0, #128	; 0x80
 262:	7848      	ldrb	r0, [r1, #1]
 264:	b27f      	sxtb	r7, r7
 266:	0701      	lsls	r1, r0, #28
 268:	f100 8116 	bmi.w	498 <_Z11inoise8_rawttt+0x498>
 26c:	4661      	mov	r1, ip
 26e:	46f1      	mov	r9, lr
 270:	f010 0f0c 	tst.w	r0, #12
 274:	f000 810e 	beq.w	494 <_Z11inoise8_rawttt+0x494>
 278:	f000 0a0d 	and.w	sl, r0, #13
 27c:	f1ba 0f0c 	cmp.w	sl, #12
 280:	bf0c      	ite	eq
 282:	46f0      	moveq	r8, lr
 284:	46b8      	movne	r8, r7
 286:	07c3      	lsls	r3, r0, #31
 288:	d505      	bpl.n	296 <_Z11inoise8_rawttt+0x296>
 28a:	f1c1 0900 	rsb	r9, r1, #0
 28e:	fa5f f189 	uxtb.w	r1, r9
 292:	fa4f f989 	sxtb.w	r9, r9
 296:	0780      	lsls	r0, r0, #30
 298:	d503      	bpl.n	2a2 <_Z11inoise8_rawttt+0x2a2>
 29a:	f1c8 0800 	rsb	r8, r8, #0
 29e:	fa4f f888 	sxtb.w	r8, r8
 2a2:	9805      	ldr	r0, [sp, #20]
 2a4:	f001 0101 	and.w	r1, r1, #1
 2a8:	4420      	add	r0, r4
 2aa:	eb01 0169 	add.w	r1, r1, r9, asr #1
 2ae:	7840      	ldrb	r0, [r0, #1]
 2b0:	eb01 0168 	add.w	r1, r1, r8, asr #1
 2b4:	0703      	lsls	r3, r0, #28
 2b6:	fa5f f981 	uxtb.w	r9, r1
 2ba:	b249      	sxtb	r1, r1
 2bc:	f100 80e8 	bmi.w	490 <_Z11inoise8_rawttt+0x490>
 2c0:	9b07      	ldr	r3, [sp, #28]
 2c2:	f8dd 8008 	ldr.w	r8, [sp, #8]
 2c6:	9301      	str	r3, [sp, #4]
 2c8:	f010 0f0c 	tst.w	r0, #12
 2cc:	d006      	beq.n	2dc <_Z11inoise8_rawttt+0x2dc>
 2ce:	f000 0a0d 	and.w	sl, r0, #13
 2d2:	9d02      	ldr	r5, [sp, #8]
 2d4:	f1ba 0f0c 	cmp.w	sl, #12
 2d8:	bf18      	it	ne
 2da:	463d      	movne	r5, r7
 2dc:	07c3      	lsls	r3, r0, #31
 2de:	d507      	bpl.n	2f0 <_Z11inoise8_rawttt+0x2f0>
 2e0:	9b01      	ldr	r3, [sp, #4]
 2e2:	f1c3 0800 	rsb	r8, r3, #0
 2e6:	fa5f f388 	uxtb.w	r3, r8
 2ea:	fa4f f888 	sxtb.w	r8, r8
 2ee:	9301      	str	r3, [sp, #4]
 2f0:	0783      	lsls	r3, r0, #30
 2f2:	d501      	bpl.n	2f8 <_Z11inoise8_rawttt+0x2f8>
 2f4:	426d      	negs	r5, r5
 2f6:	b26d      	sxtb	r5, r5
 2f8:	9b01      	ldr	r3, [sp, #4]
 2fa:	f003 0301 	and.w	r3, r3, #1
 2fe:	eb03 0368 	add.w	r3, r3, r8, asr #1
 302:	eb03 0365 	add.w	r3, r3, r5, asr #1
 306:	b258      	sxtb	r0, r3
 308:	b2db      	uxtb	r3, r3
 30a:	4288      	cmp	r0, r1
 30c:	f340 80b6 	ble.w	47c <_Z11inoise8_rawttt+0x47c>
 310:	eba3 0309 	sub.w	r3, r3, r9
 314:	b2db      	uxtb	r3, r3
 316:	fb0b f303 	mul.w	r3, fp, r3
 31a:	eb09 2323 	add.w	r3, r9, r3, asr #8
 31e:	b2d9      	uxtb	r1, r3
 320:	b25b      	sxtb	r3, r3
 322:	9804      	ldr	r0, [sp, #16]
 324:	4420      	add	r0, r4
 326:	7840      	ldrb	r0, [r0, #1]
 328:	0705      	lsls	r5, r0, #28
 32a:	f100 80a4 	bmi.w	476 <_Z11inoise8_rawttt+0x476>
 32e:	4675      	mov	r5, lr
 330:	f010 0f0c 	tst.w	r0, #12
 334:	f000 809d 	beq.w	472 <_Z11inoise8_rawttt+0x472>
 338:	f000 080d 	and.w	r8, r0, #13
 33c:	f1b8 0f0c 	cmp.w	r8, #12
 340:	bf18      	it	ne
 342:	46be      	movne	lr, r7
 344:	f010 0f01 	tst.w	r0, #1
 348:	d004      	beq.n	354 <_Z11inoise8_rawttt+0x354>
 34a:	f1cc 0500 	rsb	r5, ip, #0
 34e:	fa5f fc85 	uxtb.w	ip, r5
 352:	b26d      	sxtb	r5, r5
 354:	0780      	lsls	r0, r0, #30
 356:	d503      	bpl.n	360 <_Z11inoise8_rawttt+0x360>
 358:	f1ce 0e00 	rsb	lr, lr, #0
 35c:	fa4f fe8e 	sxtb.w	lr, lr
 360:	9806      	ldr	r0, [sp, #24]
 362:	f00c 0c01 	and.w	ip, ip, #1
 366:	4404      	add	r4, r0
 368:	eb0c 0c65 	add.w	ip, ip, r5, asr #1
 36c:	7864      	ldrb	r4, [r4, #1]
 36e:	eb0c 0c6e 	add.w	ip, ip, lr, asr #1
 372:	0725      	lsls	r5, r4, #28
 374:	fa5f f08c 	uxtb.w	r0, ip
 378:	fa4f fc8c 	sxtb.w	ip, ip
 37c:	d44d      	bmi.n	41a <_Z11inoise8_rawttt+0x41a>
 37e:	9a07      	ldr	r2, [sp, #28]
 380:	9d02      	ldr	r5, [sp, #8]
 382:	f014 0f0c 	tst.w	r4, #12
 386:	d006      	beq.n	396 <_Z11inoise8_rawttt+0x396>
 388:	f004 0e0d 	and.w	lr, r4, #13
 38c:	9e02      	ldr	r6, [sp, #8]
 38e:	f1be 0f0c 	cmp.w	lr, #12
 392:	bf18      	it	ne
 394:	463e      	movne	r6, r7
 396:	07e7      	lsls	r7, r4, #31
 398:	d502      	bpl.n	3a0 <_Z11inoise8_rawttt+0x3a0>
 39a:	4255      	negs	r5, r2
 39c:	b2ea      	uxtb	r2, r5
 39e:	b26d      	sxtb	r5, r5
 3a0:	07a4      	lsls	r4, r4, #30
 3a2:	d501      	bpl.n	3a8 <_Z11inoise8_rawttt+0x3a8>
 3a4:	4276      	negs	r6, r6
 3a6:	b276      	sxtb	r6, r6
 3a8:	f002 0201 	and.w	r2, r2, #1
 3ac:	eb02 0265 	add.w	r2, r2, r5, asr #1
 3b0:	eb02 0266 	add.w	r2, r2, r6, asr #1
 3b4:	b254      	sxtb	r4, r2
 3b6:	b2d2      	uxtb	r2, r2
 3b8:	4564      	cmp	r4, ip
 3ba:	dd51      	ble.n	460 <_Z11inoise8_rawttt+0x460>
 3bc:	1a12      	subs	r2, r2, r0
 3be:	b2d2      	uxtb	r2, r2
 3c0:	fb0b f202 	mul.w	r2, fp, r2
 3c4:	eb00 2222 	add.w	r2, r0, r2, asr #8
 3c8:	b2d4      	uxtb	r4, r2
 3ca:	b250      	sxtb	r0, r2
 3cc:	9a09      	ldr	r2, [sp, #36]	; 0x24
 3ce:	9d0b      	ldr	r5, [sp, #44]	; 0x2c
 3d0:	42aa      	cmp	r2, r5
 3d2:	dd38      	ble.n	446 <_Z11inoise8_rawttt+0x446>
 3d4:	9d0a      	ldr	r5, [sp, #40]	; 0x28
 3d6:	9a00      	ldr	r2, [sp, #0]
 3d8:	9e0d      	ldr	r6, [sp, #52]	; 0x34
 3da:	1b52      	subs	r2, r2, r5
 3dc:	b2d2      	uxtb	r2, r2
 3de:	fb06 2202 	mla	r2, r6, r2, r2
 3e2:	3601      	adds	r6, #1
 3e4:	eb05 2222 	add.w	r2, r5, r2, asr #8
 3e8:	b2d5      	uxtb	r5, r2
 3ea:	b252      	sxtb	r2, r2
 3ec:	4298      	cmp	r0, r3
 3ee:	dd21      	ble.n	434 <_Z11inoise8_rawttt+0x434>
 3f0:	1a64      	subs	r4, r4, r1
 3f2:	b2e4      	uxtb	r4, r4
 3f4:	fb06 f404 	mul.w	r4, r6, r4
 3f8:	eb01 2424 	add.w	r4, r1, r4, asr #8
 3fc:	b2e3      	uxtb	r3, r4
 3fe:	b261      	sxtb	r1, r4
 400:	4291      	cmp	r1, r2
 402:	dd0c      	ble.n	41e <_Z11inoise8_rawttt+0x41e>
 404:	1b5b      	subs	r3, r3, r5
 406:	9a0c      	ldr	r2, [sp, #48]	; 0x30
 408:	b2db      	uxtb	r3, r3
 40a:	fb02 3303 	mla	r3, r2, r3, r3
 40e:	eb05 2023 	add.w	r0, r5, r3, asr #8
 412:	b240      	sxtb	r0, r0
 414:	b00f      	add	sp, #60	; 0x3c
 416:	e8bd 8ff0 	ldmia.w	sp!, {r4, r5, r6, r7, r8, r9, sl, fp, pc}
 41a:	4635      	mov	r5, r6
 41c:	e7b1      	b.n	382 <_Z11inoise8_rawttt+0x382>
 41e:	1aeb      	subs	r3, r5, r3
 420:	9a0c      	ldr	r2, [sp, #48]	; 0x30
 422:	b2db      	uxtb	r3, r3
 424:	fb02 3303 	mla	r3, r2, r3, r3
 428:	eba5 2023 	sub.w	r0, r5, r3, asr #8
 42c:	b240      	sxtb	r0, r0
 42e:	b00f      	add	sp, #60	; 0x3c
 430:	e8bd 8ff0 	ldmia.w	sp!, {r4, r5, r6, r7, r8, r9, sl, fp, pc}
 434:	1b0c      	subs	r4, r1, r4
 436:	b2e4      	uxtb	r4, r4
 438:	fb06 f404 	mul.w	r4, r6, r4
 43c:	eba1 2124 	sub.w	r1, r1, r4, asr #8
 440:	b2cb      	uxtb	r3, r1
 442:	b249      	sxtb	r1, r1
 444:	e7dc      	b.n	400 <_Z11inoise8_rawttt+0x400>
 446:	9d0a      	ldr	r5, [sp, #40]	; 0x28
 448:	9a00      	ldr	r2, [sp, #0]
 44a:	9e0d      	ldr	r6, [sp, #52]	; 0x34
 44c:	1aaa      	subs	r2, r5, r2
 44e:	b2d2      	uxtb	r2, r2
 450:	fb06 2202 	mla	r2, r6, r2, r2
 454:	3601      	adds	r6, #1
 456:	eba5 2222 	sub.w	r2, r5, r2, asr #8
 45a:	b2d5      	uxtb	r5, r2
 45c:	b252      	sxtb	r2, r2
 45e:	e7c5      	b.n	3ec <_Z11inoise8_rawttt+0x3ec>
 460:	1a82      	subs	r2, r0, r2
 462:	b2d2      	uxtb	r2, r2
 464:	fb0b f202 	mul.w	r2, fp, r2
 468:	eba0 2022 	sub.w	r0, r0, r2, asr #8
 46c:	b2c4      	uxtb	r4, r0
 46e:	b240      	sxtb	r0, r0
 470:	e7ac      	b.n	3cc <_Z11inoise8_rawttt+0x3cc>
 472:	46b6      	mov	lr, r6
 474:	e766      	b.n	344 <_Z11inoise8_rawttt+0x344>
 476:	4694      	mov	ip, r2
 478:	4635      	mov	r5, r6
 47a:	e759      	b.n	330 <_Z11inoise8_rawttt+0x330>
 47c:	eba9 0303 	sub.w	r3, r9, r3
 480:	b2db      	uxtb	r3, r3
 482:	fb0b f303 	mul.w	r3, fp, r3
 486:	eba9 2323 	sub.w	r3, r9, r3, asr #8
 48a:	b2d9      	uxtb	r1, r3
 48c:	b25b      	sxtb	r3, r3
 48e:	e748      	b.n	322 <_Z11inoise8_rawttt+0x322>
 490:	46a8      	mov	r8, r5
 492:	e719      	b.n	2c8 <_Z11inoise8_rawttt+0x2c8>
 494:	46a8      	mov	r8, r5
 496:	e6f6      	b.n	286 <_Z11inoise8_rawttt+0x286>
 498:	9901      	ldr	r1, [sp, #4]
 49a:	46a9      	mov	r9, r5
 49c:	e6e8      	b.n	270 <_Z11inoise8_rawttt+0x270>
 49e:	ebaa 0101 	sub.w	r1, sl, r1
 4a2:	b2c9      	uxtb	r1, r1
 4a4:	fb0b f101 	mul.w	r1, fp, r1
 4a8:	ebaa 2121 	sub.w	r1, sl, r1, asr #8
 4ac:	b2c8      	uxtb	r0, r1
 4ae:	b249      	sxtb	r1, r1
 4b0:	9000      	str	r0, [sp, #0]
 4b2:	9109      	str	r1, [sp, #36]	; 0x24
 4b4:	e6d0      	b.n	258 <_Z11inoise8_rawttt+0x258>
 4b6:	9600      	str	r6, [sp, #0]
 4b8:	e6a6      	b.n	208 <_Z11inoise8_rawttt+0x208>
 4ba:	4611      	mov	r1, r2
 4bc:	46b1      	mov	r9, r6
 4be:	e697      	b.n	1f0 <_Z11inoise8_rawttt+0x1f0>
 4c0:	46b0      	mov	r8, r6
 4c2:	e673      	b.n	1ac <_Z11inoise8_rawttt+0x1ac>
 4c4:	4610      	mov	r0, r2
 4c6:	46b1      	mov	r9, r6
 4c8:	e664      	b.n	194 <_Z11inoise8_rawttt+0x194>
 4ca:	ebaa 0202 	sub.w	r2, sl, r2
 4ce:	b2d2      	uxtb	r2, r2
 4d0:	fb00 2202 	mla	r2, r0, r2, r2
 4d4:	ebaa 2222 	sub.w	r2, sl, r2, asr #8
 4d8:	e64b      	b.n	172 <_Z11inoise8_rawttt+0x172>
 4da:	46a8      	mov	r8, r5
 4dc:	e629      	b.n	132 <_Z11inoise8_rawttt+0x132>
 4de:	9a01      	ldr	r2, [sp, #4]
 4e0:	46a9      	mov	r9, r5
 4e2:	e619      	b.n	118 <_Z11inoise8_rawttt+0x118>
 4e4:	462e      	mov	r6, r5
 4e6:	e5f4      	b.n	d2 <_Z11inoise8_rawttt+0xd2>
 4e8:	9901      	ldr	r1, [sp, #4]
 4ea:	46a8      	mov	r8, r5
 4ec:	e5e6      	b.n	bc <_Z11inoise8_rawttt+0xbc>
 4ee:	43f6      	mvns	r6, r6
 4f0:	060f      	lsls	r7, r1, #24
 4f2:	b2f6      	uxtb	r6, r6
 4f4:	fb06 6606 	mla	r6, r6, r6, r6
 4f8:	ea4f 10d6 	mov.w	r0, r6, lsr #7
 4fc:	f000 00fe 	and.w	r0, r0, #254	; 0xfe
 500:	f080 00ff 	eor.w	r0, r0, #255	; 0xff
 504:	f57f adbe 	bpl.w	84 <_Z11inoise8_rawttt+0x84>
 508:	ea6f 0808 	mvn.w	r8, r8
 50c:	0616      	lsls	r6, r2, #24
 50e:	fa5f f888 	uxtb.w	r8, r8
 512:	fb08 8808 	mla	r8, r8, r8, r8
 516:	ea4f 18d8 	mov.w	r8, r8, lsr #7
 51a:	f008 08fe 	and.w	r8, r8, #254	; 0xfe
 51e:	f088 01ff 	eor.w	r1, r8, #255	; 0xff
 522:	910d      	str	r1, [sp, #52]	; 0x34
 524:	f57f adbc 	bpl.w	a0 <_Z11inoise8_rawttt+0xa0>
 528:	ea6f 0909 	mvn.w	r9, r9
 52c:	fa5f f989 	uxtb.w	r9, r9
 530:	fb09 9909 	mla	r9, r9, r9, r9
 534:	ea4f 19d9 	mov.w	r9, r9, lsr #7
 538:	f009 09fe 	and.w	r9, r9, #254	; 0xfe
 53c:	f089 02ff 	eor.w	r2, r9, #255	; 0xff
 540:	920c      	str	r2, [sp, #48]	; 0x30
 542:	e5b4      	b.n	ae <_Z11inoise8_rawttt+0xae>

Disassembly of section .text._Z7inoise8ttt:

00000000 <_Z7inoise8ttt>:
   0:	b508      	push	{r3, lr}
   2:	f7ff fffe 	bl	0 <_Z7inoise8ttt>
   6:	3040      	adds	r0, #64	; 0x40
   8:	b2c0      	uxtb	r0, r0
   a:	0040      	lsls	r0, r0, #1
   c:	28ff      	cmp	r0, #255	; 0xff
   e:	bf28      	it	cs
  10:	20ff      	movcs	r0, #255	; 0xff
  12:	b2c0      	uxtb	r0, r0
  14:	bd08      	pop	{r3, pc}
  16:	bf00      	nop

Disassembly of section .text._Z11inoise8_rawtt:

00000000 <_Z11inoise8_rawtt>:
   0:	e92d 4ff0 	stmdb	sp!, {r4, r5, r6, r7, r8, r9, sl, fp, lr}
   4:	0a03      	lsrs	r3, r0, #8
   6:	4c8a      	ldr	r4, [pc, #552]	; (230 <_Z11inoise8_rawtt+0x230>)
   8:	b083      	sub	sp, #12
   a:	f3c0 0c46 	ubfx	ip, r0, #1, #7
   e:	5ce2      	ldrb	r2, [r4, r3]
  10:	4423      	add	r3, r4
  12:	4667      	mov	r7, ip
  14:	eb02 2211 	add.w	r2, r2, r1, lsr #8
  18:	785b      	ldrb	r3, [r3, #1]
  1a:	b2d2      	uxtb	r2, r2
  1c:	eb03 2311 	add.w	r3, r3, r1, lsr #8
  20:	18a5      	adds	r5, r4, r2
  22:	5ca6      	ldrb	r6, [r4, r2]
  24:	b2db      	uxtb	r3, r3
  26:	786a      	ldrb	r2, [r5, #1]
  28:	f3c1 0546 	ubfx	r5, r1, #1, #7
  2c:	f814 e003 	ldrb.w	lr, [r4, r3]
  30:	9200      	str	r2, [sp, #0]
  32:	18e2      	adds	r2, r4, r3
  34:	46a8      	mov	r8, r5
  36:	7853      	ldrb	r3, [r2, #1]
  38:	b2c2      	uxtb	r2, r0
  3a:	0600      	lsls	r0, r0, #24
  3c:	9301      	str	r3, [sp, #4]
  3e:	b2cb      	uxtb	r3, r1
  40:	f100 80df 	bmi.w	202 <_Z11inoise8_rawtt+0x202>
  44:	fb02 2202 	mla	r2, r2, r2, r2
  48:	0609      	lsls	r1, r1, #24
  4a:	ea4f 12d2 	mov.w	r2, r2, lsr #7
  4e:	f002 02fe 	and.w	r2, r2, #254	; 0xfe
  52:	f100 80e3 	bmi.w	21c <_Z11inoise8_rawtt+0x21c>
  56:	fb03 3303 	mla	r3, r3, r3, r3
  5a:	09d9      	lsrs	r1, r3, #7
  5c:	f001 01fe 	and.w	r1, r1, #254	; 0xfe
  60:	f814 9006 	ldrb.w	r9, [r4, r6]
  64:	f019 0f04 	tst.w	r9, #4
  68:	f040 80b4 	bne.w	1d4 <_Z11inoise8_rawtt+0x1d4>
  6c:	4660      	mov	r0, ip
  6e:	4643      	mov	r3, r8
  70:	463e      	mov	r6, r7
  72:	f019 0f01 	tst.w	r9, #1
  76:	d002      	beq.n	7e <_Z11inoise8_rawtt+0x7e>
  78:	4246      	negs	r6, r0
  7a:	b2f0      	uxtb	r0, r6
  7c:	b276      	sxtb	r6, r6
  7e:	f019 0f02 	tst.w	r9, #2
  82:	d001      	beq.n	88 <_Z11inoise8_rawtt+0x88>
  84:	425b      	negs	r3, r3
  86:	b25b      	sxtb	r3, r3
  88:	f000 0001 	and.w	r0, r0, #1
  8c:	f814 a00e 	ldrb.w	sl, [r4, lr]
  90:	f1ac 0e80 	sub.w	lr, ip, #128	; 0x80
  94:	eb00 0066 	add.w	r0, r0, r6, asr #1
  98:	f01a 0f04 	tst.w	sl, #4
  9c:	fa5f fb8e 	uxtb.w	fp, lr
  a0:	eb00 0063 	add.w	r0, r0, r3, asr #1
  a4:	fa4f fe8e 	sxtb.w	lr, lr
  a8:	b2c6      	uxtb	r6, r0
  aa:	b240      	sxtb	r0, r0
  ac:	f040 808f 	bne.w	1ce <_Z11inoise8_rawtt+0x1ce>
  b0:	46c1      	mov	r9, r8
  b2:	465b      	mov	r3, fp
  b4:	46f0      	mov	r8, lr
  b6:	f01a 0f01 	tst.w	sl, #1
  ba:	d005      	beq.n	c8 <_Z11inoise8_rawtt+0xc8>
  bc:	f1c3 0800 	rsb	r8, r3, #0
  c0:	fa5f f388 	uxtb.w	r3, r8
  c4:	fa4f f888 	sxtb.w	r8, r8
  c8:	f01a 0f02 	tst.w	sl, #2
  cc:	d003      	beq.n	d6 <_Z11inoise8_rawtt+0xd6>
  ce:	f1c9 0900 	rsb	r9, r9, #0
  d2:	fa4f f989 	sxtb.w	r9, r9
  d6:	f003 0301 	and.w	r3, r3, #1
  da:	eb03 0368 	add.w	r3, r3, r8, asr #1
  de:	eb03 0369 	add.w	r3, r3, r9, asr #1
  e2:	fa4f f883 	sxtb.w	r8, r3
  e6:	b2db      	uxtb	r3, r3
  e8:	4580      	cmp	r8, r0
  ea:	dd65      	ble.n	1b8 <_Z11inoise8_rawtt+0x1b8>
  ec:	1b9b      	subs	r3, r3, r6
  ee:	f102 0a01 	add.w	sl, r2, #1
  f2:	b2db      	uxtb	r3, r3
  f4:	fb02 3303 	mla	r3, r2, r3, r3
  f8:	eb06 2323 	add.w	r3, r6, r3, asr #8
  fc:	b2d8      	uxtb	r0, r3
  fe:	b25e      	sxtb	r6, r3
 100:	9b00      	ldr	r3, [sp, #0]
 102:	f814 8003 	ldrb.w	r8, [r4, r3]
 106:	f045 0380 	orr.w	r3, r5, #128	; 0x80
 10a:	f065 057f 	orn	r5, r5, #127	; 0x7f
 10e:	f018 0f04 	tst.w	r8, #4
 112:	d14e      	bne.n	1b2 <_Z11inoise8_rawtt+0x1b2>
 114:	46b9      	mov	r9, r7
 116:	462f      	mov	r7, r5
 118:	f018 0f01 	tst.w	r8, #1
 11c:	d005      	beq.n	12a <_Z11inoise8_rawtt+0x12a>
 11e:	f1cc 0900 	rsb	r9, ip, #0
 122:	fa5f fc89 	uxtb.w	ip, r9
 126:	fa4f f989 	sxtb.w	r9, r9
 12a:	f018 0f02 	tst.w	r8, #2
 12e:	d001      	beq.n	134 <_Z11inoise8_rawtt+0x134>
 130:	427f      	negs	r7, r7
 132:	b27f      	sxtb	r7, r7
 134:	9a01      	ldr	r2, [sp, #4]
 136:	f00c 0c01 	and.w	ip, ip, #1
 13a:	f814 8002 	ldrb.w	r8, [r4, r2]
 13e:	eb0c 0c69 	add.w	ip, ip, r9, asr #1
 142:	f018 0f04 	tst.w	r8, #4
 146:	eb0c 0c67 	add.w	ip, ip, r7, asr #1
 14a:	fa5f f48c 	uxtb.w	r4, ip
 14e:	fa4f fc8c 	sxtb.w	ip, ip
 152:	d103      	bne.n	15c <_Z11inoise8_rawtt+0x15c>
 154:	462f      	mov	r7, r5
 156:	465b      	mov	r3, fp
 158:	4675      	mov	r5, lr
 15a:	46be      	mov	lr, r7
 15c:	f018 0f01 	tst.w	r8, #1
 160:	d002      	beq.n	168 <_Z11inoise8_rawtt+0x168>
 162:	425d      	negs	r5, r3
 164:	b2eb      	uxtb	r3, r5
 166:	b26d      	sxtb	r5, r5
 168:	f018 0f02 	tst.w	r8, #2
 16c:	d003      	beq.n	176 <_Z11inoise8_rawtt+0x176>
 16e:	f1ce 0e00 	rsb	lr, lr, #0
 172:	fa4f fe8e 	sxtb.w	lr, lr
 176:	f003 0301 	and.w	r3, r3, #1
 17a:	eb03 0365 	add.w	r3, r3, r5, asr #1
 17e:	eb03 036e 	add.w	r3, r3, lr, asr #1
 182:	b25d      	sxtb	r5, r3
 184:	b2db      	uxtb	r3, r3
 186:	4565      	cmp	r5, ip
 188:	dd32      	ble.n	1f0 <_Z11inoise8_rawtt+0x1f0>
 18a:	1b1b      	subs	r3, r3, r4
 18c:	b2db      	uxtb	r3, r3
 18e:	fb0a f303 	mul.w	r3, sl, r3
 192:	eb04 2323 	add.w	r3, r4, r3, asr #8
 196:	b2da      	uxtb	r2, r3
 198:	b25c      	sxtb	r4, r3
 19a:	42b4      	cmp	r4, r6
 19c:	dd1e      	ble.n	1dc <_Z11inoise8_rawtt+0x1dc>
 19e:	1a12      	subs	r2, r2, r0
 1a0:	b2d2      	uxtb	r2, r2
 1a2:	fb01 2202 	mla	r2, r1, r2, r2
 1a6:	eb00 2022 	add.w	r0, r0, r2, asr #8
 1aa:	b240      	sxtb	r0, r0
 1ac:	b003      	add	sp, #12
 1ae:	e8bd 8ff0 	ldmia.w	sp!, {r4, r5, r6, r7, r8, r9, sl, fp, pc}
 1b2:	469c      	mov	ip, r3
 1b4:	46a9      	mov	r9, r5
 1b6:	e7af      	b.n	118 <_Z11inoise8_rawtt+0x118>
 1b8:	1af3      	subs	r3, r6, r3
 1ba:	f102 0a01 	add.w	sl, r2, #1
 1be:	b2db      	uxtb	r3, r3
 1c0:	fb02 3303 	mla	r3, r2, r3, r3
 1c4:	eba6 2623 	sub.w	r6, r6, r3, asr #8
 1c8:	b2f0      	uxtb	r0, r6
 1ca:	b276      	sxtb	r6, r6
 1cc:	e798      	b.n	100 <_Z11inoise8_rawtt+0x100>
 1ce:	462b      	mov	r3, r5
 1d0:	46f1      	mov	r9, lr
 1d2:	e770      	b.n	b6 <_Z11inoise8_rawtt+0xb6>
 1d4:	4628      	mov	r0, r5
 1d6:	463b      	mov	r3, r7
 1d8:	4646      	mov	r6, r8
 1da:	e74a      	b.n	72 <_Z11inoise8_rawtt+0x72>
 1dc:	1a82      	subs	r2, r0, r2
 1de:	b2d2      	uxtb	r2, r2
 1e0:	fb01 2202 	mla	r2, r1, r2, r2
 1e4:	eba0 2022 	sub.w	r0, r0, r2, asr #8
 1e8:	b240      	sxtb	r0, r0
 1ea:	b003      	add	sp, #12
 1ec:	e8bd 8ff0 	ldmia.w	sp!, {r4, r5, r6, r7, r8, r9, sl, fp, pc}
 1f0:	1ae3      	subs	r3, r4, r3
 1f2:	b2db      	uxtb	r3, r3
 1f4:	fb0a f303 	mul.w	r3, sl, r3
 1f8:	eba4 2423 	sub.w	r4, r4, r3, asr #8
 1fc:	b2e2      	uxtb	r2, r4
 1fe:	b264      	sxtb	r4, r4
 200:	e7cb      	b.n	19a <_Z11inoise8_rawtt+0x19a>
 202:	43d2      	mvns	r2, r2
 204:	0609      	lsls	r1, r1, #24
 206:	b2d2      	uxtb	r2, r2
 208:	fb02 2202 	mla	r2, r2, r2, r2
 20c:	ea4f 12d2 	mov.w	r2, r2, lsr #7
 210:	f002 02fe 	and.w	r2, r2, #254	; 0xfe
 214:	f082 02ff 	eor.w	r2, r2, #255	; 0xff
 218:	f57f af1d 	bpl.w	56 <_Z11inoise8_rawtt+0x56>
 21c:	43db      	mvns	r3, r3
 21e:	b2db      	uxtb	r3, r3
 220:	fb03 3303 	mla	r3, r3, r3, r3
 224:	09d9      	lsrs	r1, r3, #7
 226:	f001 01fe 	and.w	r1, r1, #254	; 0xfe
 22a:	f081 01ff 	eor.w	r1, r1, #255	; 0xff
 22e:	e717      	b.n	60 <_Z11inoise8_rawtt+0x60>
 230:	00000000 	.word	0x00000000

Disassembly of section .text._Z7inoise8tt:

00000000 <_Z7inoise8tt>:
   0:	b508      	push	{r3, lr}
   2:	f7ff fffe 	bl	0 <_Z7inoise8tt>
   6:	3040      	adds	r0, #64	; 0x40
   8:	b2c0      	uxtb	r0, r0
   a:	0040      	lsls	r0, r0, #1
   c:	28ff      	cmp	r0, #255	; 0xff
   e:	bf28      	it	cs
  10:	20ff      	movcs	r0, #255	; 0xff
  12:	b2c0      	uxtb	r0, r0
  14:	bd08      	pop	{r3, pc}
  16:	bf00      	nop

Disassembly of section .text._Z11inoise8_rawt:

00000000 <_Z11inoise8_rawt>:
   0:	b530      	push	{r4, r5, lr}
   2:	0a03      	lsrs	r3, r0, #8
   4:	4c3c      	ldr	r4, [pc, #240]	; (f8 <_Z11inoise8_rawt+0xf8>)
   6:	f3c0 0c46 	ubfx	ip, r0, #1, #7
   a:	18e2      	adds	r2, r4, r3
   c:	5ce1      	ldrb	r1, [r4, r3]
   e:	b2c3      	uxtb	r3, r0
  10:	7852      	ldrb	r2, [r2, #1]
  12:	5c65      	ldrb	r5, [r4, r1]
  14:	4661      	mov	r1, ip
  16:	f814 e002 	ldrb.w	lr, [r4, r2]
  1a:	0602      	lsls	r2, r0, #24
  1c:	d461      	bmi.n	e2 <_Z11inoise8_rawt+0xe2>
  1e:	fb03 3303 	mla	r3, r3, r3, r3
  22:	09da      	lsrs	r2, r3, #7
  24:	f002 02fe 	and.w	r2, r2, #254	; 0xfe
  28:	5d60      	ldrb	r0, [r4, r5]
  2a:	0705      	lsls	r5, r0, #28
  2c:	d404      	bmi.n	38 <_Z11inoise8_rawt+0x38>
  2e:	0743      	lsls	r3, r0, #29
  30:	d553      	bpl.n	da <_Z11inoise8_rawt+0xda>
  32:	2301      	movs	r3, #1
  34:	461d      	mov	r5, r3
  36:	e001      	b.n	3c <_Z11inoise8_rawt+0x3c>
  38:	4663      	mov	r3, ip
  3a:	460d      	mov	r5, r1
  3c:	f010 0f01 	tst.w	r0, #1
  40:	d002      	beq.n	48 <_Z11inoise8_rawt+0x48>
  42:	425d      	negs	r5, r3
  44:	b2eb      	uxtb	r3, r5
  46:	b26d      	sxtb	r5, r5
  48:	0780      	lsls	r0, r0, #30
  4a:	d501      	bpl.n	50 <_Z11inoise8_rawt+0x50>
  4c:	4249      	negs	r1, r1
  4e:	b249      	sxtb	r1, r1
  50:	f003 0301 	and.w	r3, r3, #1
  54:	f814 400e 	ldrb.w	r4, [r4, lr]
  58:	eb03 0365 	add.w	r3, r3, r5, asr #1
  5c:	0725      	lsls	r5, r4, #28
  5e:	eb03 0361 	add.w	r3, r3, r1, asr #1
  62:	b2d8      	uxtb	r0, r3
  64:	b259      	sxtb	r1, r3
  66:	f04c 0380 	orr.w	r3, ip, #128	; 0x80
  6a:	f06c 0c7f 	orn	ip, ip, #127	; 0x7f
  6e:	d404      	bmi.n	7a <_Z11inoise8_rawt+0x7a>
  70:	0765      	lsls	r5, r4, #29
  72:	d52e      	bpl.n	d2 <_Z11inoise8_rawt+0xd2>
  74:	2301      	movs	r3, #1
  76:	461d      	mov	r5, r3
  78:	e000      	b.n	7c <_Z11inoise8_rawt+0x7c>
  7a:	4665      	mov	r5, ip
  7c:	f014 0f01 	tst.w	r4, #1
  80:	d002      	beq.n	88 <_Z11inoise8_rawt+0x88>
  82:	425d      	negs	r5, r3
  84:	b2eb      	uxtb	r3, r5
  86:	b26d      	sxtb	r5, r5
  88:	07a4      	lsls	r4, r4, #30
  8a:	d503      	bpl.n	94 <_Z11inoise8_rawt+0x94>
  8c:	f1cc 0c00 	rsb	ip, ip, #0
  90:	fa4f fc8c 	sxtb.w	ip, ip
  94:	f003 0301 	and.w	r3, r3, #1
  98:	eb03 0365 	add.w	r3, r3, r5, asr #1
  9c:	eb03 036c 	add.w	r3, r3, ip, asr #1
  a0:	fa5f fc83 	uxtb.w	ip, r3
  a4:	b25b      	sxtb	r3, r3
  a6:	428b      	cmp	r3, r1
  a8:	dd09      	ble.n	be <_Z11inoise8_rawt+0xbe>
  aa:	ebac 0c00 	sub.w	ip, ip, r0
  ae:	fa5f fc8c 	uxtb.w	ip, ip
  b2:	fb02 cc0c 	mla	ip, r2, ip, ip
  b6:	eb00 202c 	add.w	r0, r0, ip, asr #8
  ba:	b240      	sxtb	r0, r0
  bc:	bd30      	pop	{r4, r5, pc}
  be:	eba0 0c0c 	sub.w	ip, r0, ip
  c2:	fa5f fc8c 	uxtb.w	ip, ip
  c6:	fb02 cc0c 	mla	ip, r2, ip, ip
  ca:	eba0 202c 	sub.w	r0, r0, ip, asr #8
  ce:	b240      	sxtb	r0, r0
  d0:	bd30      	pop	{r4, r5, pc}
  d2:	4665      	mov	r5, ip
  d4:	f04f 0c01 	mov.w	ip, #1
  d8:	e7d0      	b.n	7c <_Z11inoise8_rawt+0x7c>
  da:	460d      	mov	r5, r1
  dc:	4663      	mov	r3, ip
  de:	2101      	movs	r1, #1
  e0:	e7ac      	b.n	3c <_Z11inoise8_rawt+0x3c>
  e2:	43db      	mvns	r3, r3
  e4:	b2db      	uxtb	r3, r3
  e6:	fb03 3303 	mla	r3, r3, r3, r3
  ea:	09da      	lsrs	r2, r3, #7
  ec:	f002 02fe 	and.w	r2, r2, #254	; 0xfe
  f0:	f082 02ff 	eor.w	r2, r2, #255	; 0xff
  f4:	e798      	b.n	28 <_Z11inoise8_rawt+0x28>
  f6:	bf00      	nop
  f8:	00000000 	.word	0x00000000

Disassembly of section .text._Z7inoise8t:

00000000 <_Z7inoise8t>:
   0:	b508      	push	{r3, lr}
   2:	f7ff fffe 	bl	0 <_Z7inoise8t>
   6:	3040      	adds	r0, #64	; 0x40
   8:	b2c0      	uxtb	r0, r0
   a:	0040      	lsls	r0, r0, #1
   c:	28ff      	cmp	r0, #255	; 0xff
   e:	bf28      	it	cs
  10:	20ff      	movcs	r0, #255	; 0xff
  12:	b2c0      	uxtb	r0, r0
  14:	bd08      	pop	{r3, pc}
  16:	bf00      	nop

Disassembly of section .text._Z15fill_raw_noise8Phhhtit:

00000000 <_Z15fill_raw_noise8Phhhtit>:
   0:	e92d 4ff0 	stmdb	sp!, {r4, r5, r6, r7, r8, r9, sl, fp, lr}
   4:	b083      	sub	sp, #12
   6:	f8bd a034 	ldrh.w	sl, [sp, #52]	; 0x34
   a:	9e0c      	ldr	r6, [sp, #48]	; 0x30
   c:	e9cd 1000 	strd	r1, r0, [sp]
  10:	b32a      	cbz	r2, 5e <_Z15fill_raw_noise8Phhhtit+0x5e>
  12:	4698      	mov	r8, r3
  14:	4691      	mov	r9, r2
  16:	2500      	movs	r5, #0
  18:	180f      	adds	r7, r1, r0
  1a:	9b00      	ldr	r3, [sp, #0]
  1c:	46c3      	mov	fp, r8
  1e:	b1c3      	cbz	r3, 52 <_Z15fill_raw_noise8Phhhtit+0x52>
  20:	9c01      	ldr	r4, [sp, #4]
  22:	fa1f f08b 	uxth.w	r0, fp
  26:	4651      	mov	r1, sl
  28:	f7ff fffe 	bl	0 <_Z15fill_raw_noise8Phhhtit>
  2c:	f100 0240 	add.w	r2, r0, #64	; 0x40
  30:	f894 c000 	ldrb.w	ip, [r4]
  34:	44b3      	add	fp, r6
  36:	b2d2      	uxtb	r2, r2
  38:	0052      	lsls	r2, r2, #1
  3a:	2aff      	cmp	r2, #255	; 0xff
  3c:	bf28      	it	cs
  3e:	22ff      	movcs	r2, #255	; 0xff
  40:	412a      	asrs	r2, r5
  42:	4462      	add	r2, ip
  44:	2aff      	cmp	r2, #255	; 0xff
  46:	bf28      	it	cs
  48:	22ff      	movcs	r2, #255	; 0xff
  4a:	f804 2b01 	strb.w	r2, [r4], #1
  4e:	42bc      	cmp	r4, r7
  50:	d1e7      	bne.n	22 <_Z15fill_raw_noise8Phhhtit+0x22>
  52:	3501      	adds	r5, #1
  54:	ea4f 0848 	mov.w	r8, r8, lsl #1
  58:	0076      	lsls	r6, r6, #1
  5a:	454d      	cmp	r5, r9
  5c:	d1dd      	bne.n	1a <_Z15fill_raw_noise8Phhhtit+0x1a>
  5e:	b003      	add	sp, #12
  60:	e8bd 8ff0 	ldmia.w	sp!, {r4, r5, r6, r7, r8, r9, sl, fp, pc}

Disassembly of section .text._Z21fill_raw_noise16into8Phhhmim:

00000000 <_Z21fill_raw_noise16into8Phhhmim>:
   0:	e92d 4ff0 	stmdb	sp!, {r4, r5, r6, r7, r8, r9, sl, fp, lr}
   4:	b085      	sub	sp, #20
   6:	e9dd 5b0e 	ldrd	r5, fp, [sp, #56]	; 0x38
   a:	9003      	str	r0, [sp, #12]
   c:	9202      	str	r2, [sp, #8]
   e:	e9cd 3100 	strd	r3, r1, [sp]
  12:	b372      	cbz	r2, 72 <_Z21fill_raw_noise16into8Phhhmim+0x72>
  14:	2400      	movs	r4, #0
  16:	eb01 0900 	add.w	r9, r1, r0
  1a:	f244 389c 	movw	r8, #17308	; 0x439c
  1e:	f44f 77f2 	mov.w	r7, #484	; 0x1e4
  22:	46da      	mov	sl, fp
  24:	e9dd 6300 	ldrd	r6, r3, [sp]
  28:	b1db      	cbz	r3, 62 <_Z21fill_raw_noise16into8Phhhmim+0x62>
  2a:	f8dd b00c 	ldr.w	fp, [sp, #12]
  2e:	4630      	mov	r0, r6
  30:	4651      	mov	r1, sl
  32:	f7ff fffe 	bl	0 <_Z21fill_raw_noise16into8Phhhmim>
  36:	eb00 0308 	add.w	r3, r0, r8
  3a:	f89b 2000 	ldrb.w	r2, [fp]
  3e:	442e      	add	r6, r5
  40:	fb07 f303 	mul.w	r3, r7, r3
  44:	f3c3 230f 	ubfx	r3, r3, #8, #16
  48:	4123      	asrs	r3, r4
  4a:	eb03 2302 	add.w	r3, r3, r2, lsl #8
  4e:	f64f 72ff 	movw	r2, #65535	; 0xffff
  52:	4293      	cmp	r3, r2
  54:	bf28      	it	cs
  56:	4613      	movcs	r3, r2
  58:	0a1b      	lsrs	r3, r3, #8
  5a:	f80b 3b01 	strb.w	r3, [fp], #1
  5e:	45d9      	cmp	r9, fp
  60:	d1e5      	bne.n	2e <_Z21fill_raw_noise16into8Phhhmim+0x2e>
  62:	9b00      	ldr	r3, [sp, #0]
  64:	3401      	adds	r4, #1
  66:	006d      	lsls	r5, r5, #1
  68:	005b      	lsls	r3, r3, #1
  6a:	9300      	str	r3, [sp, #0]
  6c:	9b02      	ldr	r3, [sp, #8]
  6e:	429c      	cmp	r4, r3
  70:	d1d8      	bne.n	24 <_Z21fill_raw_noise16into8Phhhmim+0x24>
  72:	b005      	add	sp, #20
  74:	e8bd 8ff0 	ldmia.w	sp!, {r4, r5, r6, r7, r8, r9, sl, fp, pc}

Disassembly of section .text._Z17fill_raw_2dnoise8Phiih3qfxIhLi4ELi4EEhitstst:

00000000 <_Z17fill_raw_2dnoise8Phiih3qfxIhLi4ELi4EEhitstst>:
   0:	e92d 4ff0 	stmdb	sp!, {r4, r5, r6, r7, r8, r9, sl, fp, lr}
   4:	ed2d 8b02 	vpush	{d8}
   8:	b093      	sub	sp, #76	; 0x4c
   a:	2b01      	cmp	r3, #1
   c:	f8bd 5084 	ldrh.w	r5, [sp, #132]	; 0x84
  10:	f89d 4078 	ldrb.w	r4, [sp, #120]	; 0x78
  14:	950f      	str	r5, [sp, #60]	; 0x3c
  16:	f8bd 5094 	ldrh.w	r5, [sp, #148]	; 0x94
  1a:	f89d b07c 	ldrb.w	fp, [sp, #124]	; 0x7c
  1e:	f9bd 8088 	ldrsh.w	r8, [sp, #136]	; 0x88
  22:	ee08 5a10 	vmov	s16, r5
  26:	f8bd 908c 	ldrh.w	r9, [sp, #140]	; 0x8c
  2a:	f9bd c090 	ldrsh.w	ip, [sp, #144]	; 0x90
  2e:	9011      	str	r0, [sp, #68]	; 0x44
  30:	910c      	str	r1, [sp, #48]	; 0x30
  32:	920e      	str	r2, [sp, #56]	; 0x38
  34:	f200 8092 	bhi.w	15c <_Z17fill_raw_2dnoise8Phiih3qfxIhLi4ELi4EEhitstst+0x15c>
  38:	fa1f f888 	uxth.w	r8, r8
  3c:	2400      	movs	r4, #0
  3e:	fa1f fa8c 	uxth.w	sl, ip
  42:	f04f 0bff 	mov.w	fp, #255	; 0xff
  46:	9b20      	ldr	r3, [sp, #128]	; 0x80
  48:	fb13 f808 	smulbb	r8, r3, r8
  4c:	fb13 fa0a 	smulbb	sl, r3, sl
  50:	fa1f f388 	uxth.w	r3, r8
  54:	930a      	str	r3, [sp, #40]	; 0x28
  56:	fa1f f38a 	uxth.w	r3, sl
  5a:	9310      	str	r3, [sp, #64]	; 0x40
  5c:	9b0e      	ldr	r3, [sp, #56]	; 0x38
  5e:	2b00      	cmp	r3, #0
  60:	dd77      	ble.n	152 <_Z17fill_raw_2dnoise8Phiih3qfxIhLi4ELi4EEhitstst+0x152>
  62:	f10b 0301 	add.w	r3, fp, #1
  66:	3401      	adds	r4, #1
  68:	9e0c      	ldr	r6, [sp, #48]	; 0x30
  6a:	930b      	str	r3, [sp, #44]	; 0x2c
  6c:	2300      	movs	r3, #0
  6e:	930d      	str	r3, [sp, #52]	; 0x34
  70:	9309      	str	r3, [sp, #36]	; 0x24
  72:	2e00      	cmp	r6, #0
  74:	dd60      	ble.n	138 <_Z17fill_raw_2dnoise8Phiih3qfxIhLi4ELi4EEhitstst+0x138>
  76:	9a0d      	ldr	r2, [sp, #52]	; 0x34
  78:	2500      	movs	r5, #0
  7a:	9b11      	ldr	r3, [sp, #68]	; 0x44
  7c:	9920      	ldr	r1, [sp, #128]	; 0x80
  7e:	4413      	add	r3, r2
  80:	9a09      	ldr	r2, [sp, #36]	; 0x24
  82:	9f0f      	ldr	r7, [sp, #60]	; 0x3c
  84:	eb02 0801 	add.w	r8, r2, r1
  88:	9a0e      	ldr	r2, [sp, #56]	; 0x38
  8a:	469a      	mov	sl, r3
  8c:	930c      	str	r3, [sp, #48]	; 0x30
  8e:	4590      	cmp	r8, r2
  90:	bfa8      	it	ge
  92:	4690      	movge	r8, r2
  94:	e00f      	b.n	b6 <_Z17fill_raw_2dnoise8Phiih3qfxIhLi4ELi4EEhitstst+0xb6>
  96:	f89a 3000 	ldrb.w	r3, [sl]
  9a:	fb04 f303 	mul.w	r3, r4, r3
  9e:	eb00 2323 	add.w	r3, r0, r3, asr #8
  a2:	f88a 3000 	strb.w	r3, [sl]
  a6:	9b0a      	ldr	r3, [sp, #40]	; 0x28
  a8:	3501      	adds	r5, #1
  aa:	f10a 0a01 	add.w	sl, sl, #1
  ae:	441f      	add	r7, r3
  b0:	42ae      	cmp	r6, r5
  b2:	b2bf      	uxth	r7, r7
  b4:	d040      	beq.n	138 <_Z17fill_raw_2dnoise8Phiih3qfxIhLi4ELi4EEhitstst+0x138>
  b6:	ee18 2a10 	vmov	r2, s16
  ba:	4649      	mov	r1, r9
  bc:	4638      	mov	r0, r7
  be:	f7ff fffe 	bl	0 <_Z17fill_raw_2dnoise8Phiih3qfxIhLi4ELi4EEhitstst>
  c2:	f100 0340 	add.w	r3, r0, #64	; 0x40
  c6:	b2db      	uxtb	r3, r3
  c8:	005b      	lsls	r3, r3, #1
  ca:	2bff      	cmp	r3, #255	; 0xff
  cc:	bf28      	it	cs
  ce:	23ff      	movcs	r3, #255	; 0xff
  d0:	b2d8      	uxtb	r0, r3
  d2:	061b      	lsls	r3, r3, #24
  d4:	9b0b      	ldr	r3, [sp, #44]	; 0x2c
  d6:	bf4c      	ite	mi
  d8:	387f      	submi	r0, #127	; 0x7f
  da:	f1c0 007f 	rsbpl	r0, r0, #127	; 0x7f
  de:	b2c0      	uxtb	r0, r0
  e0:	0040      	lsls	r0, r0, #1
  e2:	b2c0      	uxtb	r0, r0
  e4:	fb03 f000 	mul.w	r0, r3, r0
  e8:	9b20      	ldr	r3, [sp, #128]	; 0x80
  ea:	2b01      	cmp	r3, #1
  ec:	f3c0 2007 	ubfx	r0, r0, #8, #8
  f0:	d0d1      	beq.n	96 <_Z17fill_raw_2dnoise8Phiih3qfxIhLi4ELi4EEhitstst+0x96>
  f2:	9b09      	ldr	r3, [sp, #36]	; 0x24
  f4:	4598      	cmp	r8, r3
  f6:	ddd6      	ble.n	a6 <_Z17fill_raw_2dnoise8Phiih3qfxIhLi4ELi4EEhitstst+0xa6>
  f8:	9b20      	ldr	r3, [sp, #128]	; 0x80
  fa:	f8dd c024 	ldr.w	ip, [sp, #36]	; 0x24
  fe:	eb03 0e05 	add.w	lr, r3, r5
 102:	9b0c      	ldr	r3, [sp, #48]	; 0x30
 104:	45b6      	cmp	lr, r6
 106:	bfa8      	it	ge
 108:	46b6      	movge	lr, r6
 10a:	eb03 010e 	add.w	r1, r3, lr
 10e:	eba5 0b0e 	sub.w	fp, r5, lr
 112:	4575      	cmp	r5, lr
 114:	da0a      	bge.n	12c <_Z17fill_raw_2dnoise8Phiih3qfxIhLi4ELi4EEhitstst+0x12c>
 116:	eb0b 0201 	add.w	r2, fp, r1
 11a:	7813      	ldrb	r3, [r2, #0]
 11c:	fb04 f303 	mul.w	r3, r4, r3
 120:	eb00 2323 	add.w	r3, r0, r3, asr #8
 124:	f802 3b01 	strb.w	r3, [r2], #1
 128:	428a      	cmp	r2, r1
 12a:	d1f6      	bne.n	11a <_Z17fill_raw_2dnoise8Phiih3qfxIhLi4ELi4EEhitstst+0x11a>
 12c:	f10c 0c01 	add.w	ip, ip, #1
 130:	4431      	add	r1, r6
 132:	45c4      	cmp	ip, r8
 134:	d1ed      	bne.n	112 <_Z17fill_raw_2dnoise8Phiih3qfxIhLi4ELi4EEhitstst+0x112>
 136:	e7b6      	b.n	a6 <_Z17fill_raw_2dnoise8Phiih3qfxIhLi4ELi4EEhitstst+0xa6>
 138:	9b10      	ldr	r3, [sp, #64]	; 0x40
 13a:	9a0d      	ldr	r2, [sp, #52]	; 0x34
 13c:	4499      	add	r9, r3
 13e:	9b09      	ldr	r3, [sp, #36]	; 0x24
 140:	4432      	add	r2, r6
 142:	3301      	adds	r3, #1
 144:	fa1f f989 	uxth.w	r9, r9
 148:	920d      	str	r2, [sp, #52]	; 0x34
 14a:	9a0e      	ldr	r2, [sp, #56]	; 0x38
 14c:	9309      	str	r3, [sp, #36]	; 0x24
 14e:	429a      	cmp	r2, r3
 150:	d18f      	bne.n	72 <_Z17fill_raw_2dnoise8Phiih3qfxIhLi4ELi4EEhitstst+0x72>
 152:	b013      	add	sp, #76	; 0x4c
 154:	ecbd 8b02 	vpop	{d8}
 158:	e8bd 8ff0 	ldmia.w	sp!, {r4, r5, r6, r7, r8, r9, sl, fp, pc}
 15c:	9e20      	ldr	r6, [sp, #128]	; 0x80
 15e:	fa1f fa8c 	uxth.w	sl, ip
 162:	9507      	str	r5, [sp, #28]
 164:	0925      	lsrs	r5, r4, #4
 166:	1c77      	adds	r7, r6, #1
 168:	f88d 4000 	strb.w	r4, [sp]
 16c:	f004 040f 	and.w	r4, r4, #15
 170:	9e0f      	ldr	r6, [sp, #60]	; 0x3c
 172:	fb15 fe0c 	smulbb	lr, r5, ip
 176:	9702      	str	r7, [sp, #8]
 178:	fb0c f704 	mul.w	r7, ip, r4
 17c:	3b01      	subs	r3, #1
 17e:	fb05 fc09 	mul.w	ip, r5, r9
 182:	eb07 172e 	add.w	r7, r7, lr, asr #4
 186:	f8cd b004 	str.w	fp, [sp, #4]
 18a:	b2db      	uxtb	r3, r3
 18c:	b23f      	sxth	r7, r7
 18e:	9706      	str	r7, [sp, #24]
 190:	fb19 f704 	smulbb	r7, r9, r4
 194:	eb07 172c 	add.w	r7, r7, ip, asr #4
 198:	fb08 fc04 	mul.w	ip, r8, r4
 19c:	fb16 f404 	smulbb	r4, r6, r4
 1a0:	b2bf      	uxth	r7, r7
 1a2:	9705      	str	r7, [sp, #20]
 1a4:	fb15 f708 	smulbb	r7, r5, r8
 1a8:	fb06 f505 	mul.w	r5, r6, r5
 1ac:	fa1f f888 	uxth.w	r8, r8
 1b0:	eb0c 1c27 	add.w	ip, ip, r7, asr #4
 1b4:	eb04 1415 	add.w	r4, r4, r5, lsr #4
 1b8:	fa0f fc8c 	sxth.w	ip, ip
 1bc:	b2a4      	uxth	r4, r4
 1be:	f8cd c010 	str.w	ip, [sp, #16]
 1c2:	9403      	str	r4, [sp, #12]
 1c4:	ea6f 040b 	mvn.w	r4, fp
 1c8:	f7ff fffe 	bl	0 <_Z17fill_raw_2dnoise8Phiih3qfxIhLi4ELi4EEhitstst>
 1cc:	b2e4      	uxtb	r4, r4
 1ce:	e73a      	b.n	46 <_Z17fill_raw_2dnoise8Phiih3qfxIhLi4ELi4EEhitstst+0x46>

Disassembly of section .text._Z17fill_raw_2dnoise8Phiihtitit:

00000000 <_Z17fill_raw_2dnoise8Phiihtitit>:
   0:	b510      	push	{r4, lr}
   2:	b088      	sub	sp, #32
   4:	f04f 0c01 	mov.w	ip, #1
   8:	f8bd 4028 	ldrh.w	r4, [sp, #40]	; 0x28
   c:	9403      	str	r4, [sp, #12]
   e:	2480      	movs	r4, #128	; 0x80
  10:	e9cd 4c01 	strd	r4, ip, [sp, #4]
  14:	f8bd 4030 	ldrh.w	r4, [sp, #48]	; 0x30
  18:	f04f 0c02 	mov.w	ip, #2
  1c:	9405      	str	r4, [sp, #20]
  1e:	f9bd 402c 	ldrsh.w	r4, [sp, #44]	; 0x2c
  22:	f88d c000 	strb.w	ip, [sp]
  26:	9404      	str	r4, [sp, #16]
  28:	f8bd 4038 	ldrh.w	r4, [sp, #56]	; 0x38
  2c:	9407      	str	r4, [sp, #28]
  2e:	f9bd 4034 	ldrsh.w	r4, [sp, #52]	; 0x34
  32:	9406      	str	r4, [sp, #24]
  34:	f7ff fffe 	bl	0 <_Z17fill_raw_2dnoise8Phiihtitit>
  38:	b008      	add	sp, #32
  3a:	bd10      	pop	{r4, pc}

Disassembly of section .text._Z18fill_raw_2dnoise16Ptiih3qfxItLi8ELi8EEtimlmlm:

00000000 <_Z18fill_raw_2dnoise16Ptiih3qfxItLi8ELi8EEtimlmlm>:
   0:	e92d 4ff0 	stmdb	sp!, {r4, r5, r6, r7, r8, r9, sl, fp, lr}
   4:	2b01      	cmp	r3, #1
   6:	b097      	sub	sp, #92	; 0x5c
   8:	f8bd 4080 	ldrh.w	r4, [sp, #128]	; 0x80
   c:	f8bd 7084 	ldrh.w	r7, [sp, #132]	; 0x84
  10:	f8dd 9090 	ldr.w	r9, [sp, #144]	; 0x90
  14:	f8dd a098 	ldr.w	sl, [sp, #152]	; 0x98
  18:	900f      	str	r0, [sp, #60]	; 0x3c
  1a:	9109      	str	r1, [sp, #36]	; 0x24
  1c:	9211      	str	r2, [sp, #68]	; 0x44
  1e:	f200 80b2 	bhi.w	186 <_Z18fill_raw_2dnoise16Ptiih3qfxItLi8ELi8EEtimlmlm+0x186>
  22:	2300      	movs	r3, #0
  24:	f64f 77ff 	movw	r7, #65535	; 0xffff
  28:	9a22      	ldr	r2, [sp, #136]	; 0x88
  2a:	fb02 f209 	mul.w	r2, r2, r9
  2e:	920a      	str	r2, [sp, #40]	; 0x28
  30:	9a22      	ldr	r2, [sp, #136]	; 0x88
  32:	fb02 f20a 	mul.w	r2, r2, sl
  36:	9213      	str	r2, [sp, #76]	; 0x4c
  38:	9a11      	ldr	r2, [sp, #68]	; 0x44
  3a:	2a00      	cmp	r2, #0
  3c:	f340 8096 	ble.w	16c <_Z18fill_raw_2dnoise16Ptiih3qfxItLi8ELi8EEtimlmlm+0x16c>
  40:	1c7a      	adds	r2, r7, #1
  42:	9922      	ldr	r1, [sp, #136]	; 0x88
  44:	1c5f      	adds	r7, r3, #1
  46:	9b09      	ldr	r3, [sp, #36]	; 0x24
  48:	920b      	str	r2, [sp, #44]	; 0x2c
  4a:	2200      	movs	r2, #0
  4c:	fb01 f103 	mul.w	r1, r1, r3
  50:	005e      	lsls	r6, r3, #1
  52:	9b22      	ldr	r3, [sp, #136]	; 0x88
  54:	920e      	str	r2, [sp, #56]	; 0x38
  56:	9210      	str	r2, [sp, #64]	; 0x40
  58:	005a      	lsls	r2, r3, #1
  5a:	9114      	str	r1, [sp, #80]	; 0x50
  5c:	9215      	str	r2, [sp, #84]	; 0x54
  5e:	9a22      	ldr	r2, [sp, #136]	; 0x88
  60:	9312      	str	r3, [sp, #72]	; 0x48
  62:	1a9a      	subs	r2, r3, r2
  64:	920c      	str	r2, [sp, #48]	; 0x30
  66:	9a09      	ldr	r2, [sp, #36]	; 0x24
  68:	2a00      	cmp	r2, #0
  6a:	dd6c      	ble.n	146 <_Z18fill_raw_2dnoise16Ptiih3qfxItLi8ELi8EEtimlmlm+0x146>
  6c:	9d11      	ldr	r5, [sp, #68]	; 0x44
  6e:	2400      	movs	r4, #0
  70:	f8dd 808c 	ldr.w	r8, [sp, #140]	; 0x8c
  74:	429d      	cmp	r5, r3
  76:	e9dd 210f 	ldrd	r2, r1, [sp, #60]	; 0x3c
  7a:	bfa8      	it	ge
  7c:	461d      	movge	r5, r3
  7e:	eb02 0241 	add.w	r2, r2, r1, lsl #1
  82:	920d      	str	r2, [sp, #52]	; 0x34
  84:	e011      	b.n	aa <_Z18fill_raw_2dnoise16Ptiih3qfxItLi8ELi8EEtimlmlm+0xaa>
  86:	9a0d      	ldr	r2, [sp, #52]	; 0x34
  88:	f104 0b01 	add.w	fp, r4, #1
  8c:	f832 3014 	ldrh.w	r3, [r2, r4, lsl #1]
  90:	46da      	mov	sl, fp
  92:	fb07 f303 	mul.w	r3, r7, r3
  96:	eb01 4313 	add.w	r3, r1, r3, lsr #16
  9a:	f822 3014 	strh.w	r3, [r2, r4, lsl #1]
  9e:	9b0a      	ldr	r3, [sp, #40]	; 0x28
  a0:	4654      	mov	r4, sl
  a2:	4498      	add	r8, r3
  a4:	9b09      	ldr	r3, [sp, #36]	; 0x24
  a6:	455b      	cmp	r3, fp
  a8:	dd4d      	ble.n	146 <_Z18fill_raw_2dnoise16Ptiih3qfxItLi8ELi8EEtimlmlm+0x146>
  aa:	9925      	ldr	r1, [sp, #148]	; 0x94
  ac:	4640      	mov	r0, r8
  ae:	9a27      	ldr	r2, [sp, #156]	; 0x9c
  b0:	f7ff fffe 	bl	0 <_Z18fill_raw_2dnoise16Ptiih3qfxItLi8ELi8EEtimlmlm>
  b4:	f500 4094 	add.w	r0, r0, #18944	; 0x4a00
  b8:	f44f 73dc 	mov.w	r3, #440	; 0x1b8
  bc:	306c      	adds	r0, #108	; 0x6c
  be:	fb03 f300 	mul.w	r3, r3, r0
  c2:	f3c3 210f 	ubfx	r1, r3, #8, #16
  c6:	021b      	lsls	r3, r3, #8
  c8:	d453      	bmi.n	172 <_Z18fill_raw_2dnoise16Ptiih3qfxItLi8ELi8EEtimlmlm+0x172>
  ca:	f5c1 41ff 	rsb	r1, r1, #32640	; 0x7f80
  ce:	317f      	adds	r1, #127	; 0x7f
  d0:	b289      	uxth	r1, r1
  d2:	0049      	lsls	r1, r1, #1
  d4:	9b0b      	ldr	r3, [sp, #44]	; 0x2c
  d6:	b289      	uxth	r1, r1
  d8:	fb03 f101 	mul.w	r1, r3, r1
  dc:	9b22      	ldr	r3, [sp, #136]	; 0x88
  de:	2b01      	cmp	r3, #1
  e0:	ea4f 4111 	mov.w	r1, r1, lsr #16
  e4:	d0cf      	beq.n	86 <_Z18fill_raw_2dnoise16Ptiih3qfxItLi8ELi8EEtimlmlm+0x86>
  e6:	9b0c      	ldr	r3, [sp, #48]	; 0x30
  e8:	429d      	cmp	r5, r3
  ea:	dd47      	ble.n	17c <_Z18fill_raw_2dnoise16Ptiih3qfxItLi8ELi8EEtimlmlm+0x17c>
  ec:	9b22      	ldr	r3, [sp, #136]	; 0x88
  ee:	f8dd c030 	ldr.w	ip, [sp, #48]	; 0x30
  f2:	eb04 0a03 	add.w	sl, r4, r3
  f6:	9b09      	ldr	r3, [sp, #36]	; 0x24
  f8:	4553      	cmp	r3, sl
  fa:	46d3      	mov	fp, sl
  fc:	bfa8      	it	ge
  fe:	4653      	movge	r3, sl
 100:	469e      	mov	lr, r3
 102:	9b0e      	ldr	r3, [sp, #56]	; 0x38
 104:	eba4 090e 	sub.w	r9, r4, lr
 108:	eb03 000e 	add.w	r0, r3, lr
 10c:	9b0f      	ldr	r3, [sp, #60]	; 0x3c
 10e:	ea4f 0949 	mov.w	r9, r9, lsl #1
 112:	eb03 0040 	add.w	r0, r3, r0, lsl #1
 116:	4574      	cmp	r4, lr
 118:	da0a      	bge.n	130 <_Z18fill_raw_2dnoise16Ptiih3qfxItLi8ELi8EEtimlmlm+0x130>
 11a:	eb09 0200 	add.w	r2, r9, r0
 11e:	8813      	ldrh	r3, [r2, #0]
 120:	fb07 f303 	mul.w	r3, r7, r3
 124:	eb01 4313 	add.w	r3, r1, r3, lsr #16
 128:	f822 3b02 	strh.w	r3, [r2], #2
 12c:	4282      	cmp	r2, r0
 12e:	d1f6      	bne.n	11e <_Z18fill_raw_2dnoise16Ptiih3qfxItLi8ELi8EEtimlmlm+0x11e>
 130:	f10c 0c01 	add.w	ip, ip, #1
 134:	4430      	add	r0, r6
 136:	45ac      	cmp	ip, r5
 138:	d1ed      	bne.n	116 <_Z18fill_raw_2dnoise16Ptiih3qfxItLi8ELi8EEtimlmlm+0x116>
 13a:	9b0a      	ldr	r3, [sp, #40]	; 0x28
 13c:	4654      	mov	r4, sl
 13e:	4498      	add	r8, r3
 140:	9b09      	ldr	r3, [sp, #36]	; 0x24
 142:	455b      	cmp	r3, fp
 144:	dcb1      	bgt.n	aa <_Z18fill_raw_2dnoise16Ptiih3qfxItLi8ELi8EEtimlmlm+0xaa>
 146:	9b25      	ldr	r3, [sp, #148]	; 0x94
 148:	9a13      	ldr	r2, [sp, #76]	; 0x4c
 14a:	9914      	ldr	r1, [sp, #80]	; 0x50
 14c:	4413      	add	r3, r2
 14e:	9a15      	ldr	r2, [sp, #84]	; 0x54
 150:	9325      	str	r3, [sp, #148]	; 0x94
 152:	9b0c      	ldr	r3, [sp, #48]	; 0x30
 154:	4413      	add	r3, r2
 156:	9a10      	ldr	r2, [sp, #64]	; 0x40
 158:	440a      	add	r2, r1
 15a:	9210      	str	r2, [sp, #64]	; 0x40
 15c:	9a0e      	ldr	r2, [sp, #56]	; 0x38
 15e:	440a      	add	r2, r1
 160:	920e      	str	r2, [sp, #56]	; 0x38
 162:	e9dd 2111 	ldrd	r2, r1, [sp, #68]	; 0x44
 166:	428a      	cmp	r2, r1
 168:	f73f af79 	bgt.w	5e <_Z18fill_raw_2dnoise16Ptiih3qfxItLi8ELi8EEtimlmlm+0x5e>
 16c:	b017      	add	sp, #92	; 0x5c
 16e:	e8bd 8ff0 	ldmia.w	sp!, {r4, r5, r6, r7, r8, r9, sl, fp, pc}
 172:	f5a1 41ff 	sub.w	r1, r1, #32640	; 0x7f80
 176:	397f      	subs	r1, #127	; 0x7f
 178:	b289      	uxth	r1, r1
 17a:	e7aa      	b.n	d2 <_Z18fill_raw_2dnoise16Ptiih3qfxItLi8ELi8EEtimlmlm+0xd2>
 17c:	9b22      	ldr	r3, [sp, #136]	; 0x88
 17e:	eb04 0a03 	add.w	sl, r4, r3
 182:	46d3      	mov	fp, sl
 184:	e78b      	b.n	9e <_Z18fill_raw_2dnoise16Ptiih3qfxItLi8ELi8EEtimlmlm+0x9e>
 186:	9d27      	ldr	r5, [sp, #156]	; 0x9c
 188:	3b01      	subs	r3, #1
 18a:	f8ad 4000 	strh.w	r4, [sp]
 18e:	9507      	str	r5, [sp, #28]
 190:	b2db      	uxtb	r3, r3
 192:	9d22      	ldr	r5, [sp, #136]	; 0x88
 194:	e9cd 7501 	strd	r7, r5, [sp, #4]
 198:	b2e5      	uxtb	r5, r4
 19a:	f3c4 2407 	ubfx	r4, r4, #8, #8
 19e:	fb05 f60a 	mul.w	r6, r5, sl
 1a2:	fb04 fc0a 	mul.w	ip, r4, sl
 1a6:	fb04 fe09 	mul.w	lr, r4, r9
 1aa:	eb06 262c 	add.w	r6, r6, ip, asr #8
 1ae:	9606      	str	r6, [sp, #24]
 1b0:	9e25      	ldr	r6, [sp, #148]	; 0x94
 1b2:	fb04 fc06 	mul.w	ip, r4, r6
 1b6:	fb05 f606 	mul.w	r6, r5, r6
 1ba:	eb06 261c 	add.w	r6, r6, ip, lsr #8
 1be:	fb05 fc09 	mul.w	ip, r5, r9
 1c2:	9605      	str	r6, [sp, #20]
 1c4:	9e23      	ldr	r6, [sp, #140]	; 0x8c
 1c6:	fb06 f404 	mul.w	r4, r6, r4
 1ca:	eb0c 262e 	add.w	r6, ip, lr, asr #8
 1ce:	9604      	str	r6, [sp, #16]
 1d0:	9e23      	ldr	r6, [sp, #140]	; 0x8c
 1d2:	fb06 f505 	mul.w	r5, r6, r5
 1d6:	eb05 2414 	add.w	r4, r5, r4, lsr #8
 1da:	9403      	str	r4, [sp, #12]
 1dc:	f7ff fffe 	bl	0 <_Z18fill_raw_2dnoise16Ptiih3qfxItLi8ELi8EEtimlmlm>
 1e0:	43fb      	mvns	r3, r7
 1e2:	b29b      	uxth	r3, r3
 1e4:	e720      	b.n	28 <_Z18fill_raw_2dnoise16Ptiih3qfxItLi8ELi8EEtimlmlm+0x28>
 1e6:	bf00      	nop

Disassembly of section .text._Z23fill_raw_2dnoise16into8Phiih3qfxIhLi4ELi4EEhimlmlm:

00000000 <_Z23fill_raw_2dnoise16into8Phiih3qfxIhLi4ELi4EEhimlmlm>:
   0:	e92d 4ff0 	stmdb	sp!, {r4, r5, r6, r7, r8, r9, sl, fp, lr}
   4:	2b01      	cmp	r3, #1
   6:	b095      	sub	sp, #84	; 0x54
   8:	460f      	mov	r7, r1
   a:	f89d 4078 	ldrb.w	r4, [sp, #120]	; 0x78
   e:	f89d 507c 	ldrb.w	r5, [sp, #124]	; 0x7c
  12:	f8dd 8088 	ldr.w	r8, [sp, #136]	; 0x88
  16:	f8dd a090 	ldr.w	sl, [sp, #144]	; 0x90
  1a:	9010      	str	r0, [sp, #64]	; 0x40
  1c:	920e      	str	r2, [sp, #56]	; 0x38
  1e:	f200 80a8 	bhi.w	172 <_Z23fill_raw_2dnoise16into8Phiih3qfxIhLi4ELi4EEhimlmlm+0x172>
  22:	2300      	movs	r3, #0
  24:	25ff      	movs	r5, #255	; 0xff
  26:	9a20      	ldr	r2, [sp, #128]	; 0x80
  28:	fb08 f202 	mul.w	r2, r8, r2
  2c:	9208      	str	r2, [sp, #32]
  2e:	9a20      	ldr	r2, [sp, #128]	; 0x80
  30:	fb0a f202 	mul.w	r2, sl, r2
  34:	9211      	str	r2, [sp, #68]	; 0x44
  36:	9a0e      	ldr	r2, [sp, #56]	; 0x38
  38:	2a00      	cmp	r2, #0
  3a:	f340 808d 	ble.w	158 <_Z23fill_raw_2dnoise16into8Phiih3qfxIhLi4ELi4EEhimlmlm+0x158>
  3e:	1c5e      	adds	r6, r3, #1
  40:	9b20      	ldr	r3, [sp, #128]	; 0x80
  42:	1c6a      	adds	r2, r5, #1
  44:	fb07 f303 	mul.w	r3, r7, r3
  48:	9209      	str	r2, [sp, #36]	; 0x24
  4a:	2200      	movs	r2, #0
  4c:	9312      	str	r3, [sp, #72]	; 0x48
  4e:	9b10      	ldr	r3, [sp, #64]	; 0x40
  50:	920d      	str	r2, [sp, #52]	; 0x34
  52:	930c      	str	r3, [sp, #48]	; 0x30
  54:	9b20      	ldr	r3, [sp, #128]	; 0x80
  56:	005a      	lsls	r2, r3, #1
  58:	9213      	str	r2, [sp, #76]	; 0x4c
  5a:	9a20      	ldr	r2, [sp, #128]	; 0x80
  5c:	2f00      	cmp	r7, #0
  5e:	930f      	str	r3, [sp, #60]	; 0x3c
  60:	eba3 0202 	sub.w	r2, r3, r2
  64:	920a      	str	r2, [sp, #40]	; 0x28
  66:	dd65      	ble.n	134 <_Z23fill_raw_2dnoise16into8Phiih3qfxIhLi4ELi4EEhimlmlm+0x134>
  68:	9d0e      	ldr	r5, [sp, #56]	; 0x38
  6a:	2400      	movs	r4, #0
  6c:	9a10      	ldr	r2, [sp, #64]	; 0x40
  6e:	990d      	ldr	r1, [sp, #52]	; 0x34
  70:	429d      	cmp	r5, r3
  72:	f8dd 8084 	ldr.w	r8, [sp, #132]	; 0x84
  76:	440a      	add	r2, r1
  78:	bfa8      	it	ge
  7a:	461d      	movge	r5, r3
  7c:	920b      	str	r2, [sp, #44]	; 0x2c
  7e:	e011      	b.n	a4 <_Z23fill_raw_2dnoise16into8Phiih3qfxIhLi4ELi4EEhimlmlm+0xa4>
  80:	9a0b      	ldr	r2, [sp, #44]	; 0x2c
  82:	f104 0b01 	add.w	fp, r4, #1
  86:	5d13      	ldrb	r3, [r2, r4]
  88:	46da      	mov	sl, fp
  8a:	fb06 f303 	mul.w	r3, r6, r3
  8e:	eb01 2123 	add.w	r1, r1, r3, asr #8
  92:	29ff      	cmp	r1, #255	; 0xff
  94:	bf28      	it	cs
  96:	21ff      	movcs	r1, #255	; 0xff
  98:	5511      	strb	r1, [r2, r4]
  9a:	9b08      	ldr	r3, [sp, #32]
  9c:	455f      	cmp	r7, fp
  9e:	4654      	mov	r4, sl
  a0:	4498      	add	r8, r3
  a2:	dd47      	ble.n	134 <_Z23fill_raw_2dnoise16into8Phiih3qfxIhLi4ELi4EEhimlmlm+0x134>
  a4:	9923      	ldr	r1, [sp, #140]	; 0x8c
  a6:	4640      	mov	r0, r8
  a8:	9a25      	ldr	r2, [sp, #148]	; 0x94
  aa:	f7ff fffe 	bl	0 <_Z23fill_raw_2dnoise16into8Phiih3qfxIhLi4ELi4EEhimlmlm>
  ae:	f500 4094 	add.w	r0, r0, #18944	; 0x4a00
  b2:	f44f 73dc 	mov.w	r3, #440	; 0x1b8
  b6:	306c      	adds	r0, #108	; 0x6c
  b8:	fb03 f300 	mul.w	r3, r3, r0
  bc:	f3c3 210f 	ubfx	r1, r3, #8, #16
  c0:	021b      	lsls	r3, r3, #8
  c2:	d44c      	bmi.n	15e <_Z23fill_raw_2dnoise16into8Phiih3qfxIhLi4ELi4EEhimlmlm+0x15e>
  c4:	f5c1 41ff 	rsb	r1, r1, #32640	; 0x7f80
  c8:	317f      	adds	r1, #127	; 0x7f
  ca:	b289      	uxth	r1, r1
  cc:	9b09      	ldr	r3, [sp, #36]	; 0x24
  ce:	f3c1 11c7 	ubfx	r1, r1, #7, #8
  d2:	fb03 f101 	mul.w	r1, r3, r1
  d6:	9b20      	ldr	r3, [sp, #128]	; 0x80
  d8:	2b01      	cmp	r3, #1
  da:	ea4f 2121 	mov.w	r1, r1, asr #8
  de:	d0cf      	beq.n	80 <_Z23fill_raw_2dnoise16into8Phiih3qfxIhLi4ELi4EEhimlmlm+0x80>
  e0:	9b0a      	ldr	r3, [sp, #40]	; 0x28
  e2:	429d      	cmp	r5, r3
  e4:	dd40      	ble.n	168 <_Z23fill_raw_2dnoise16into8Phiih3qfxIhLi4ELi4EEhimlmlm+0x168>
  e6:	9b20      	ldr	r3, [sp, #128]	; 0x80
  e8:	46be      	mov	lr, r7
  ea:	b2c9      	uxtb	r1, r1
  ec:	f8dd c028 	ldr.w	ip, [sp, #40]	; 0x28
  f0:	eb03 0a04 	add.w	sl, r3, r4
  f4:	9b0c      	ldr	r3, [sp, #48]	; 0x30
  f6:	4557      	cmp	r7, sl
  f8:	46d3      	mov	fp, sl
  fa:	bfa8      	it	ge
  fc:	46d6      	movge	lr, sl
  fe:	eb03 000e 	add.w	r0, r3, lr
 102:	eba4 090e 	sub.w	r9, r4, lr
 106:	4574      	cmp	r4, lr
 108:	da0a      	bge.n	120 <_Z23fill_raw_2dnoise16into8Phiih3qfxIhLi4ELi4EEhimlmlm+0x120>
 10a:	eb09 0200 	add.w	r2, r9, r0
 10e:	7813      	ldrb	r3, [r2, #0]
 110:	fb06 f303 	mul.w	r3, r6, r3
 114:	eb01 2323 	add.w	r3, r1, r3, asr #8
 118:	f802 3b01 	strb.w	r3, [r2], #1
 11c:	4282      	cmp	r2, r0
 11e:	d1f6      	bne.n	10e <_Z23fill_raw_2dnoise16into8Phiih3qfxIhLi4ELi4EEhimlmlm+0x10e>
 120:	f10c 0c01 	add.w	ip, ip, #1
 124:	4438      	add	r0, r7
 126:	45ac      	cmp	ip, r5
 128:	d1ed      	bne.n	106 <_Z23fill_raw_2dnoise16into8Phiih3qfxIhLi4ELi4EEhimlmlm+0x106>
 12a:	9b08      	ldr	r3, [sp, #32]
 12c:	455f      	cmp	r7, fp
 12e:	4654      	mov	r4, sl
 130:	4498      	add	r8, r3
 132:	dcb7      	bgt.n	a4 <_Z23fill_raw_2dnoise16into8Phiih3qfxIhLi4ELi4EEhimlmlm+0xa4>
 134:	9b23      	ldr	r3, [sp, #140]	; 0x8c
 136:	9a11      	ldr	r2, [sp, #68]	; 0x44
 138:	9912      	ldr	r1, [sp, #72]	; 0x48
 13a:	4413      	add	r3, r2
 13c:	9a13      	ldr	r2, [sp, #76]	; 0x4c
 13e:	9323      	str	r3, [sp, #140]	; 0x8c
 140:	9b0a      	ldr	r3, [sp, #40]	; 0x28
 142:	4413      	add	r3, r2
 144:	9a0d      	ldr	r2, [sp, #52]	; 0x34
 146:	440a      	add	r2, r1
 148:	920d      	str	r2, [sp, #52]	; 0x34
 14a:	9a0c      	ldr	r2, [sp, #48]	; 0x30
 14c:	440a      	add	r2, r1
 14e:	920c      	str	r2, [sp, #48]	; 0x30
 150:	e9dd 210e 	ldrd	r2, r1, [sp, #56]	; 0x38
 154:	428a      	cmp	r2, r1
 156:	dc80      	bgt.n	5a <_Z23fill_raw_2dnoise16into8Phiih3qfxIhLi4ELi4EEhimlmlm+0x5a>
 158:	b015      	add	sp, #84	; 0x54
 15a:	e8bd 8ff0 	ldmia.w	sp!, {r4, r5, r6, r7, r8, r9, sl, fp, pc}
 15e:	f5a1 41ff 	sub.w	r1, r1, #32640	; 0x7f80
 162:	397f      	subs	r1, #127	; 0x7f
 164:	b289      	uxth	r1, r1
 166:	e7b1      	b.n	cc <_Z23fill_raw_2dnoise16into8Phiih3qfxIhLi4ELi4EEhimlmlm+0xcc>
 168:	9b20      	ldr	r3, [sp, #128]	; 0x80
 16a:	eb03 0a04 	add.w	sl, r3, r4
 16e:	46d3      	mov	fp, sl
 170:	e793      	b.n	9a <_Z23fill_raw_2dnoise16into8Phiih3qfxIhLi4ELi4EEhimlmlm+0x9a>
 172:	9e25      	ldr	r6, [sp, #148]	; 0x94
 174:	f004 0e0f 	and.w	lr, r4, #15
 178:	f88d 4000 	strb.w	r4, [sp]
 17c:	0924      	lsrs	r4, r4, #4
 17e:	9607      	str	r6, [sp, #28]
 180:	3b01      	subs	r3, #1
 182:	9e20      	ldr	r6, [sp, #128]	; 0x80
 184:	fb0e f90a 	mul.w	r9, lr, sl
 188:	b2db      	uxtb	r3, r3
 18a:	9501      	str	r5, [sp, #4]
 18c:	f106 0c01 	add.w	ip, r6, #1
 190:	9e23      	ldr	r6, [sp, #140]	; 0x8c
 192:	f8cd c008 	str.w	ip, [sp, #8]
 196:	fb04 fc0a 	mul.w	ip, r4, sl
 19a:	eb09 1c2c 	add.w	ip, r9, ip, asr #4
 19e:	fb0e f906 	mul.w	r9, lr, r6
 1a2:	f8cd c018 	str.w	ip, [sp, #24]
 1a6:	fb04 fc06 	mul.w	ip, r4, r6
 1aa:	9e21      	ldr	r6, [sp, #132]	; 0x84
 1ac:	eb09 1c1c 	add.w	ip, r9, ip, lsr #4
 1b0:	fb04 f908 	mul.w	r9, r4, r8
 1b4:	fb06 f404 	mul.w	r4, r6, r4
 1b8:	f8cd c014 	str.w	ip, [sp, #20]
 1bc:	fb0e fc08 	mul.w	ip, lr, r8
 1c0:	eb0c 1c29 	add.w	ip, ip, r9, asr #4
 1c4:	f8cd c010 	str.w	ip, [sp, #16]
 1c8:	fb0e fc06 	mul.w	ip, lr, r6
 1cc:	eb0c 1414 	add.w	r4, ip, r4, lsr #4
 1d0:	9403      	str	r4, [sp, #12]
 1d2:	f7ff fffe 	bl	0 <_Z23fill_raw_2dnoise16into8Phiih3qfxIhLi4ELi4EEhimlmlm>
 1d6:	43eb      	mvns	r3, r5
 1d8:	b2db      	uxtb	r3, r3
 1da:	e724      	b.n	26 <_Z23fill_raw_2dnoise16into8Phiih3qfxIhLi4ELi4EEhimlmlm+0x26>

Disassembly of section .text._Z23fill_raw_2dnoise16into8Phiihmimim:

00000000 <_Z23fill_raw_2dnoise16into8Phiihmimim>:
   0:	b510      	push	{r4, lr}
   2:	b088      	sub	sp, #32
   4:	f04f 0c01 	mov.w	ip, #1
   8:	9c0a      	ldr	r4, [sp, #40]	; 0x28
   a:	9403      	str	r4, [sp, #12]
   c:	24ab      	movs	r4, #171	; 0xab
   e:	e9cd 4c01 	strd	r4, ip, [sp, #4]
  12:	9c0b      	ldr	r4, [sp, #44]	; 0x2c
  14:	f04f 0c02 	mov.w	ip, #2
  18:	9404      	str	r4, [sp, #16]
  1a:	9c0c      	ldr	r4, [sp, #48]	; 0x30
  1c:	f88d c000 	strb.w	ip, [sp]
  20:	9405      	str	r4, [sp, #20]
  22:	9c0d      	ldr	r4, [sp, #52]	; 0x34
  24:	9406      	str	r4, [sp, #24]
  26:	9c0e      	ldr	r4, [sp, #56]	; 0x38
  28:	9407      	str	r4, [sp, #28]
  2a:	f7ff fffe 	bl	0 <_Z23fill_raw_2dnoise16into8Phiihmimim>
  2e:	b008      	add	sp, #32
  30:	bd10      	pop	{r4, pc}
  32:	bf00      	nop

Disassembly of section .text._Z11fill_noise8P4CRGBihtihtit:

00000000 <_Z11fill_noise8P4CRGBihtihtit>:
   0:	e92d 4ff0 	stmdb	sp!, {r4, r5, r6, r7, r8, r9, sl, fp, lr}
   4:	ed2d 8b06 	vpush	{d8-d10}
   8:	b089      	sub	sp, #36	; 0x24
   a:	ee09 3a10 	vmov	s18, r3
   e:	af02      	add	r7, sp, #8
  10:	f897 305c 	ldrb.w	r3, [r7, #92]	; 0x5c
  14:	ee09 3a90 	vmov	s19, r3
  18:	f8b7 3060 	ldrh.w	r3, [r7, #96]	; 0x60
  1c:	ee0a 3a10 	vmov	s20, r3
  20:	f8b7 3068 	ldrh.w	r3, [r7, #104]	; 0x68
  24:	603b      	str	r3, [r7, #0]
  26:	1e0b      	subs	r3, r1, #0
  28:	607b      	str	r3, [r7, #4]
  2a:	dd6a      	ble.n	102 <_Z11fill_noise8P4CRGBihtihtit+0x102>
  2c:	2300      	movs	r3, #0
  2e:	ee08 2a90 	vmov	s17, r2
  32:	f04f 08ff 	mov.w	r8, #255	; 0xff
  36:	60b8      	str	r0, [r7, #8]
  38:	60fb      	str	r3, [r7, #12]
  3a:	466b      	mov	r3, sp
  3c:	68fa      	ldr	r2, [r7, #12]
  3e:	2100      	movs	r1, #0
  40:	ee08 3a10 	vmov	s16, r3
  44:	687b      	ldr	r3, [r7, #4]
  46:	eba3 0902 	sub.w	r9, r3, r2
  4a:	464d      	mov	r5, r9
  4c:	2dff      	cmp	r5, #255	; 0xff
  4e:	bfa8      	it	ge
  50:	25ff      	movge	r5, #255	; 0xff
  52:	1deb      	adds	r3, r5, #7
  54:	462a      	mov	r2, r5
  56:	fa5f fb85 	uxtb.w	fp, r5
  5a:	f023 0307 	bic.w	r3, r3, #7
  5e:	ebad 0d03 	sub.w	sp, sp, r3
  62:	f10d 0a08 	add.w	sl, sp, #8
  66:	ebad 0d03 	sub.w	sp, sp, r3
  6a:	ae02      	add	r6, sp, #8
  6c:	4650      	mov	r0, sl
  6e:	f7ff fffe 	bl	0 <memset>
  72:	462a      	mov	r2, r5
  74:	2100      	movs	r1, #0
  76:	4630      	mov	r0, r6
  78:	f7ff fffe 	bl	0 <memset>
  7c:	683c      	ldr	r4, [r7, #0]
  7e:	ee18 2a90 	vmov	r2, s17
  82:	4659      	mov	r1, fp
  84:	9401      	str	r4, [sp, #4]
  86:	4650      	mov	r0, sl
  88:	6dbb      	ldr	r3, [r7, #88]	; 0x58
  8a:	9300      	str	r3, [sp, #0]
  8c:	ee19 3a10 	vmov	r3, s18
  90:	f7ff fffe 	bl	0 <_Z11fill_noise8P4CRGBihtihtit>
  94:	9401      	str	r4, [sp, #4]
  96:	6e7b      	ldr	r3, [r7, #100]	; 0x64
  98:	4659      	mov	r1, fp
  9a:	ee19 2a90 	vmov	r2, s19
  9e:	4630      	mov	r0, r6
  a0:	9300      	str	r3, [sp, #0]
  a2:	ee1a 3a10 	vmov	r3, s20
  a6:	f7ff fffe 	bl	0 <_Z11fill_noise8P4CRGBihtihtit>
  aa:	f1b9 0f00 	cmp.w	r9, #0
  ae:	dd1b      	ble.n	e8 <_Z11fill_noise8P4CRGBihtihtit+0xe8>
  b0:	f10a 3aff 	add.w	sl, sl, #4294967295	; 0xffffffff
  b4:	f10d 0407 	add.w	r4, sp, #7
  b8:	f8d7 b008 	ldr.w	fp, [r7, #8]
  bc:	46a1      	mov	r9, r4
  be:	f81a 3f01 	ldrb.w	r3, [sl, #1]!
  c2:	4659      	mov	r1, fp
  c4:	f107 0014 	add.w	r0, r7, #20
  c8:	f109 0902 	add.w	r9, r9, #2
  cc:	75bb      	strb	r3, [r7, #22]
  ce:	f814 3f01 	ldrb.w	r3, [r4, #1]!
  d2:	f10b 0b03 	add.w	fp, fp, #3
  d6:	eba9 0906 	sub.w	r9, r9, r6
  da:	f887 8015 	strb.w	r8, [r7, #21]
  de:	753b      	strb	r3, [r7, #20]
  e0:	f7ff fffe 	bl	0 <_Z15hsv2rgb_rainbowRK4CHSVR4CRGB>
  e4:	454d      	cmp	r5, r9
  e6:	dce9      	bgt.n	bc <_Z11fill_noise8P4CRGBihtihtit+0xbc>
  e8:	68fb      	ldr	r3, [r7, #12]
  ea:	33ff      	adds	r3, #255	; 0xff
  ec:	60fb      	str	r3, [r7, #12]
  ee:	68ba      	ldr	r2, [r7, #8]
  f0:	f202 22fd 	addw	r2, r2, #765	; 0x2fd
  f4:	60ba      	str	r2, [r7, #8]
  f6:	ee18 2a10 	vmov	r2, s16
  fa:	4695      	mov	sp, r2
  fc:	687a      	ldr	r2, [r7, #4]
  fe:	429a      	cmp	r2, r3
 100:	dc9b      	bgt.n	3a <_Z11fill_noise8P4CRGBihtihtit+0x3a>
 102:	371c      	adds	r7, #28
 104:	46bd      	mov	sp, r7
 106:	ecbd 8b06 	vpop	{d8-d10}
 10a:	e8bd 8ff0 	ldmia.w	sp!, {r4, r5, r6, r7, r8, r9, sl, fp, pc}
 10e:	bf00      	nop

Disassembly of section .text._Z12fill_noise16P4CRGBihtihtith:

00000000 <_Z12fill_noise16P4CRGBihtihtith>:
   0:	e92d 4ff0 	stmdb	sp!, {r4, r5, r6, r7, r8, r9, sl, fp, lr}
   4:	ed2d 8b06 	vpush	{d8-d10}
   8:	b089      	sub	sp, #36	; 0x24
   a:	ee09 3a10 	vmov	s18, r3
   e:	af02      	add	r7, sp, #8
  10:	f897 305c 	ldrb.w	r3, [r7, #92]	; 0x5c
  14:	f897 806c 	ldrb.w	r8, [r7, #108]	; 0x6c
  18:	ee09 3a90 	vmov	s19, r3
  1c:	f8b7 3060 	ldrh.w	r3, [r7, #96]	; 0x60
  20:	ee0a 3a10 	vmov	s20, r3
  24:	f8b7 3068 	ldrh.w	r3, [r7, #104]	; 0x68
  28:	603b      	str	r3, [r7, #0]
  2a:	1e0b      	subs	r3, r1, #0
  2c:	607b      	str	r3, [r7, #4]
  2e:	dd6a      	ble.n	106 <_Z12fill_noise16P4CRGBihtihtith+0x106>
  30:	2300      	movs	r3, #0
  32:	ee08 2a90 	vmov	s17, r2
  36:	60b8      	str	r0, [r7, #8]
  38:	60fb      	str	r3, [r7, #12]
  3a:	687b      	ldr	r3, [r7, #4]
  3c:	2100      	movs	r1, #0
  3e:	68fa      	ldr	r2, [r7, #12]
  40:	eba3 0902 	sub.w	r9, r3, r2
  44:	466b      	mov	r3, sp
  46:	464d      	mov	r5, r9
  48:	ee08 3a10 	vmov	s16, r3
  4c:	2dff      	cmp	r5, #255	; 0xff
  4e:	bfa8      	it	ge
  50:	25ff      	movge	r5, #255	; 0xff
  52:	1deb      	adds	r3, r5, #7
  54:	462a      	mov	r2, r5
  56:	fa5f fb85 	uxtb.w	fp, r5
  5a:	f023 0307 	bic.w	r3, r3, #7
  5e:	ebad 0d03 	sub.w	sp, sp, r3
  62:	f10d 0a08 	add.w	sl, sp, #8
  66:	ebad 0d03 	sub.w	sp, sp, r3
  6a:	ae02      	add	r6, sp, #8
  6c:	4650      	mov	r0, sl
  6e:	f7ff fffe 	bl	0 <memset>
  72:	462a      	mov	r2, r5
  74:	2100      	movs	r1, #0
  76:	4630      	mov	r0, r6
  78:	f7ff fffe 	bl	0 <memset>
  7c:	683c      	ldr	r4, [r7, #0]
  7e:	ee18 2a90 	vmov	r2, s17
  82:	4659      	mov	r1, fp
  84:	9401      	str	r4, [sp, #4]
  86:	4650      	mov	r0, sl
  88:	6dbb      	ldr	r3, [r7, #88]	; 0x58
  8a:	9300      	str	r3, [sp, #0]
  8c:	ee19 3a10 	vmov	r3, s18
  90:	f7ff fffe 	bl	0 <_Z12fill_noise16P4CRGBihtihtith>
  94:	9401      	str	r4, [sp, #4]
  96:	6e7b      	ldr	r3, [r7, #100]	; 0x64
  98:	4659      	mov	r1, fp
  9a:	ee19 2a90 	vmov	r2, s19
  9e:	4630      	mov	r0, r6
  a0:	9300      	str	r3, [sp, #0]
  a2:	ee1a 3a10 	vmov	r3, s20
  a6:	f7ff fffe 	bl	0 <_Z12fill_noise16P4CRGBihtihtith>
  aa:	f1b9 0f00 	cmp.w	r9, #0
  ae:	dd1d      	ble.n	ec <_Z12fill_noise16P4CRGBihtihtith+0xec>
  b0:	f10a 3aff 	add.w	sl, sl, #4294967295	; 0xffffffff
  b4:	f10d 0407 	add.w	r4, sp, #7
  b8:	f8d7 b008 	ldr.w	fp, [r7, #8]
  bc:	f04f 33ff 	mov.w	r3, #4294967295	; 0xffffffff
  c0:	46a1      	mov	r9, r4
  c2:	4659      	mov	r1, fp
  c4:	f107 0014 	add.w	r0, r7, #20
  c8:	757b      	strb	r3, [r7, #21]
  ca:	f109 0902 	add.w	r9, r9, #2
  ce:	f814 3f01 	ldrb.w	r3, [r4, #1]!
  d2:	f10b 0b03 	add.w	fp, fp, #3
  d6:	eba9 0906 	sub.w	r9, r9, r6
  da:	4443      	add	r3, r8
  dc:	753b      	strb	r3, [r7, #20]
  de:	f81a 3f01 	ldrb.w	r3, [sl, #1]!
  e2:	75bb      	strb	r3, [r7, #22]
  e4:	f7ff fffe 	bl	0 <_Z15hsv2rgb_rainbowRK4CHSVR4CRGB>
  e8:	454d      	cmp	r5, r9
  ea:	dce7      	bgt.n	bc <_Z12fill_noise16P4CRGBihtihtith+0xbc>
  ec:	68fb      	ldr	r3, [r7, #12]
  ee:	33ff      	adds	r3, #255	; 0xff
  f0:	60fb      	str	r3, [r7, #12]
  f2:	68ba      	ldr	r2, [r7, #8]
  f4:	f202 22fd 	addw	r2, r2, #765	; 0x2fd
  f8:	60ba      	str	r2, [r7, #8]
  fa:	ee18 2a10 	vmov	r2, s16
  fe:	4695      	mov	sp, r2
 100:	687a      	ldr	r2, [r7, #4]
 102:	429a      	cmp	r2, r3
 104:	dc99      	bgt.n	3a <_Z12fill_noise16P4CRGBihtihtith+0x3a>
 106:	371c      	adds	r7, #28
 108:	46bd      	mov	sp, r7
 10a:	ecbd 8b06 	vpop	{d8-d10}
 10e:	e8bd 8ff0 	ldmia.w	sp!, {r4, r5, r6, r7, r8, r9, sl, fp, pc}
 112:	bf00      	nop

Disassembly of section .text._Z13fill_2dnoise8P4CRGBiibhtitithtitttb:

00000000 <_Z13fill_2dnoise8P4CRGBiibhtitithtitttb>:
   0:	e92d 4ff0 	stmdb	sp!, {r4, r5, r6, r7, r8, r9, sl, fp, lr}
   4:	b097      	sub	sp, #92	; 0x5c
   6:	460d      	mov	r5, r1
   8:	af08      	add	r7, sp, #32
   a:	f8b7 4064 	ldrh.w	r4, [r7, #100]	; 0x64
   e:	6078      	str	r0, [r7, #4]
  10:	627c      	str	r4, [r7, #36]	; 0x24
  12:	fb01 f402 	mul.w	r4, r1, r2
  16:	f8b7 c088 	ldrh.w	ip, [r7, #136]	; 0x88
  1a:	f8b7 6084 	ldrh.w	r6, [r7, #132]	; 0x84
  1e:	1de0      	adds	r0, r4, #7
  20:	f8c7 c018 	str.w	ip, [r7, #24]
  24:	f8b7 c08c 	ldrh.w	ip, [r7, #140]	; 0x8c
  28:	f020 0007 	bic.w	r0, r0, #7
  2c:	62fb      	str	r3, [r7, #44]	; 0x2c
  2e:	61fe      	str	r6, [r7, #28]
  30:	ebad 0d00 	sub.w	sp, sp, r0
  34:	f8b7 306c 	ldrh.w	r3, [r7, #108]	; 0x6c
  38:	f8c7 c00c 	str.w	ip, [r7, #12]
  3c:	f10d 0b20 	add.w	fp, sp, #32
  40:	ebad 0d00 	sub.w	sp, sp, r0
  44:	f8b7 007c 	ldrh.w	r0, [r7, #124]	; 0x7c
  48:	f897 c090 	ldrb.w	ip, [r7, #144]	; 0x90
  4c:	ae08      	add	r6, sp, #32
  4e:	6179      	str	r1, [r7, #20]
  50:	2100      	movs	r1, #0
  52:	613a      	str	r2, [r7, #16]
  54:	4622      	mov	r2, r4
  56:	6238      	str	r0, [r7, #32]
  58:	4658      	mov	r0, fp
  5a:	f897 8060 	ldrb.w	r8, [r7, #96]	; 0x60
  5e:	f8b7 9074 	ldrh.w	r9, [r7, #116]	; 0x74
  62:	60bb      	str	r3, [r7, #8]
  64:	f8c7 c028 	str.w	ip, [r7, #40]	; 0x28
  68:	f897 a078 	ldrb.w	sl, [r7, #120]	; 0x78
  6c:	f7ff fffe 	bl	0 <memset>
  70:	4622      	mov	r2, r4
  72:	2100      	movs	r1, #0
  74:	4630      	mov	r0, r6
  76:	f7ff fffe 	bl	0 <memset>
  7a:	f04f 0c80 	mov.w	ip, #128	; 0x80
  7e:	68bb      	ldr	r3, [r7, #8]
  80:	4658      	mov	r0, fp
  82:	f8cd c004 	str.w	ip, [sp, #4]
  86:	f8d7 c070 	ldr.w	ip, [r7, #112]	; 0x70
  8a:	6a79      	ldr	r1, [r7, #36]	; 0x24
  8c:	fa0f f28c 	sxth.w	r2, ip
  90:	f8d7 c068 	ldr.w	ip, [r7, #104]	; 0x68
  94:	f8cd 901c 	str.w	r9, [sp, #28]
  98:	f04f 0901 	mov.w	r9, #1
  9c:	9305      	str	r3, [sp, #20]
  9e:	4643      	mov	r3, r8
  a0:	9206      	str	r2, [sp, #24]
  a2:	f04f 0802 	mov.w	r8, #2
  a6:	fa0f f28c 	sxth.w	r2, ip
  aa:	9103      	str	r1, [sp, #12]
  ac:	f8cd 9008 	str.w	r9, [sp, #8]
  b0:	4629      	mov	r1, r5
  b2:	9204      	str	r2, [sp, #16]
  b4:	f88d 8000 	strb.w	r8, [sp]
  b8:	693a      	ldr	r2, [r7, #16]
  ba:	f7ff fffe 	bl	0 <_Z13fill_2dnoise8P4CRGBiibhtitithtitttb>
  be:	68f9      	ldr	r1, [r7, #12]
  c0:	69fb      	ldr	r3, [r7, #28]
  c2:	6a38      	ldr	r0, [r7, #32]
  c4:	9107      	str	r1, [sp, #28]
  c6:	f8d7 1080 	ldr.w	r1, [r7, #128]	; 0x80
  ca:	9305      	str	r3, [sp, #20]
  cc:	b20a      	sxth	r2, r1
  ce:	f9b7 3018 	ldrsh.w	r3, [r7, #24]
  d2:	4629      	mov	r1, r5
  d4:	f88d 8000 	strb.w	r8, [sp]
  d8:	9306      	str	r3, [sp, #24]
  da:	4653      	mov	r3, sl
  dc:	9204      	str	r2, [sp, #16]
  de:	e9cd 9002 	strd	r9, r0, [sp, #8]
  e2:	f8d7 9010 	ldr.w	r9, [r7, #16]
  e6:	2080      	movs	r0, #128	; 0x80
  e8:	464a      	mov	r2, r9
  ea:	9001      	str	r0, [sp, #4]
  ec:	4630      	mov	r0, r6
  ee:	f7ff fffe 	bl	0 <_Z13fill_2dnoise8P4CRGBiibhtitithtitttb>
  f2:	464b      	mov	r3, r9
  f4:	2b00      	cmp	r3, #0
  f6:	dd6d      	ble.n	1d4 <_Z13fill_2dnoise8P4CRGBiibhtitithtitttb+0x1d4>
  f8:	1933      	adds	r3, r6, r4
  fa:	f105 38ff 	add.w	r8, r5, #4294967295	; 0xffffffff
  fe:	2600      	movs	r6, #0
 100:	687d      	ldr	r5, [r7, #4]
 102:	e9c7 b306 	strd	fp, r3, [r7, #24]
 106:	623e      	str	r6, [r7, #32]
 108:	697b      	ldr	r3, [r7, #20]
 10a:	2b00      	cmp	r3, #0
 10c:	dd54      	ble.n	1b8 <_Z13fill_2dnoise8P4CRGBiibhtitithtitttb+0x1b8>
 10e:	6a3b      	ldr	r3, [r7, #32]
 110:	4644      	mov	r4, r8
 112:	f003 0301 	and.w	r3, r3, #1
 116:	e9d7 ba06 	ldrd	fp, sl, [r7, #24]
 11a:	627b      	str	r3, [r7, #36]	; 0x24
 11c:	e022      	b.n	164 <_Z13fill_2dnoise8P4CRGBiibhtitithtitttb+0x164>
 11e:	eb09 0306 	add.w	r3, r9, r6
 122:	f897 2031 	ldrb.w	r2, [r7, #49]	; 0x31
 126:	f897 e032 	ldrb.w	lr, [r7, #50]	; 0x32
 12a:	3c01      	subs	r4, #1
 12c:	eb03 0343 	add.w	r3, r3, r3, lsl #1
 130:	ea4f 0262 	mov.w	r2, r2, asr #1
 134:	eb05 0003 	add.w	r0, r5, r3
 138:	5ce9      	ldrb	r1, [r5, r3]
 13a:	ea4f 0e6e 	mov.w	lr, lr, asr #1
 13e:	f890 c001 	ldrb.w	ip, [r0, #1]
 142:	ea4f 0161 	mov.w	r1, r1, asr #1
 146:	eb02 025c 	add.w	r2, r2, ip, lsr #1
 14a:	f890 c002 	ldrb.w	ip, [r0, #2]
 14e:	eb0e 0c5c 	add.w	ip, lr, ip, lsr #1
 152:	f897 e030 	ldrb.w	lr, [r7, #48]	; 0x30
 156:	eb01 015e 	add.w	r1, r1, lr, lsr #1
 15a:	54e9      	strb	r1, [r5, r3]
 15c:	7042      	strb	r2, [r0, #1]
 15e:	f880 c002 	strb.w	ip, [r0, #2]
 162:	d329      	bcc.n	1b8 <_Z13fill_2dnoise8P4CRGBiibhtitithtitttb+0x1b8>
 164:	f81a 1d01 	ldrb.w	r1, [sl, #-1]!
 168:	f04f 33ff 	mov.w	r3, #4294967295	; 0xffffffff
 16c:	f81b 2b01 	ldrb.w	r2, [fp], #1
 170:	f107 0034 	add.w	r0, r7, #52	; 0x34
 174:	f887 1034 	strb.w	r1, [r7, #52]	; 0x34
 178:	f107 0130 	add.w	r1, r7, #48	; 0x30
 17c:	f887 3035 	strb.w	r3, [r7, #53]	; 0x35
 180:	eba8 0904 	sub.w	r9, r8, r4
 184:	f887 2036 	strb.w	r2, [r7, #54]	; 0x36
 188:	f7ff fffe 	bl	0 <_Z15hsv2rgb_rainbowRK4CHSVR4CRGB>
 18c:	6afb      	ldr	r3, [r7, #44]	; 0x2c
 18e:	b11b      	cbz	r3, 198 <_Z13fill_2dnoise8P4CRGBiibhtitithtitttb+0x198>
 190:	6a7b      	ldr	r3, [r7, #36]	; 0x24
 192:	2b00      	cmp	r3, #0
 194:	bf18      	it	ne
 196:	46a1      	movne	r9, r4
 198:	6abb      	ldr	r3, [r7, #40]	; 0x28
 19a:	2b00      	cmp	r3, #0
 19c:	d1bf      	bne.n	11e <_Z13fill_2dnoise8P4CRGBiibhtitithtitttb+0x11e>
 19e:	eb09 0306 	add.w	r3, r9, r6
 1a2:	8e39      	ldrh	r1, [r7, #48]	; 0x30
 1a4:	3c01      	subs	r4, #1
 1a6:	eb03 0343 	add.w	r3, r3, r3, lsl #1
 1aa:	eb05 0203 	add.w	r2, r5, r3
 1ae:	52e9      	strh	r1, [r5, r3]
 1b0:	f897 3032 	ldrb.w	r3, [r7, #50]	; 0x32
 1b4:	7093      	strb	r3, [r2, #2]
 1b6:	d2d5      	bcs.n	164 <_Z13fill_2dnoise8P4CRGBiibhtitithtitttb+0x164>
 1b8:	697a      	ldr	r2, [r7, #20]
 1ba:	69f9      	ldr	r1, [r7, #28]
 1bc:	6a3b      	ldr	r3, [r7, #32]
 1be:	4416      	add	r6, r2
 1c0:	1a89      	subs	r1, r1, r2
 1c2:	3301      	adds	r3, #1
 1c4:	61f9      	str	r1, [r7, #28]
 1c6:	69b9      	ldr	r1, [r7, #24]
 1c8:	623b      	str	r3, [r7, #32]
 1ca:	4411      	add	r1, r2
 1cc:	693a      	ldr	r2, [r7, #16]
 1ce:	429a      	cmp	r2, r3
 1d0:	61b9      	str	r1, [r7, #24]
 1d2:	d199      	bne.n	108 <_Z13fill_2dnoise8P4CRGBiibhtitithtitttb+0x108>
 1d4:	373c      	adds	r7, #60	; 0x3c
 1d6:	46bd      	mov	sp, r7
 1d8:	e8bd 8ff0 	ldmia.w	sp!, {r4, r5, r6, r7, r8, r9, sl, fp, pc}

Disassembly of section .text._Z14fill_2dnoise16P4CRGBiibhmimimhtitttbt:

00000000 <_Z14fill_2dnoise16P4CRGBiibhmimimhtitttbt>:
   0:	e92d 4ff0 	stmdb	sp!, {r4, r5, r6, r7, r8, r9, sl, fp, lr}
   4:	b095      	sub	sp, #84	; 0x54
   6:	fb01 fa02 	mul.w	sl, r1, r2
   a:	4605      	mov	r5, r0
   c:	af08      	add	r7, sp, #32
   e:	f8b7 c07c 	ldrh.w	ip, [r7, #124]	; 0x7c
  12:	627b      	str	r3, [r7, #36]	; 0x24
  14:	f10a 0307 	add.w	r3, sl, #7
  18:	f8c7 c018 	str.w	ip, [r7, #24]
  1c:	f023 0307 	bic.w	r3, r3, #7
  20:	f8b7 c080 	ldrh.w	ip, [r7, #128]	; 0x80
  24:	6efe      	ldr	r6, [r7, #108]	; 0x6c
  26:	ebad 0d03 	sub.w	sp, sp, r3
  2a:	f8c7 c014 	str.w	ip, [r7, #20]
  2e:	f8b7 c084 	ldrh.w	ip, [r7, #132]	; 0x84
  32:	f10d 0b20 	add.w	fp, sp, #32
  36:	ebad 0d03 	sub.w	sp, sp, r3
  3a:	f8c7 c010 	str.w	ip, [r7, #16]
  3e:	f8b7 c08c 	ldrh.w	ip, [r7, #140]	; 0x8c
  42:	ac08      	add	r4, sp, #32
  44:	f8b7 3074 	ldrh.w	r3, [r7, #116]	; 0x74
  48:	4658      	mov	r0, fp
  4a:	f8c7 c00c 	str.w	ip, [r7, #12]
  4e:	f897 c088 	ldrb.w	ip, [r7, #136]	; 0x88
  52:	607a      	str	r2, [r7, #4]
  54:	4652      	mov	r2, sl
  56:	60b9      	str	r1, [r7, #8]
  58:	2100      	movs	r1, #0
  5a:	f8c7 c020 	str.w	ip, [r7, #32]
  5e:	f897 9058 	ldrb.w	r9, [r7, #88]	; 0x58
  62:	f897 8070 	ldrb.w	r8, [r7, #112]	; 0x70
  66:	61fb      	str	r3, [r7, #28]
  68:	f7ff fffe 	bl	0 <memset>
  6c:	4652      	mov	r2, sl
  6e:	2100      	movs	r1, #0
  70:	4620      	mov	r0, r4
  72:	f7ff fffe 	bl	0 <memset>
  76:	9607      	str	r6, [sp, #28]
  78:	6ebe      	ldr	r6, [r7, #104]	; 0x68
  7a:	464b      	mov	r3, r9
  7c:	22ab      	movs	r2, #171	; 0xab
  7e:	f04f 0902 	mov.w	r9, #2
  82:	9606      	str	r6, [sp, #24]
  84:	4658      	mov	r0, fp
  86:	6e7e      	ldr	r6, [r7, #100]	; 0x64
  88:	f88d 9000 	strb.w	r9, [sp]
  8c:	9605      	str	r6, [sp, #20]
  8e:	6e3e      	ldr	r6, [r7, #96]	; 0x60
  90:	9604      	str	r6, [sp, #16]
  92:	6dfe      	ldr	r6, [r7, #92]	; 0x5c
  94:	9603      	str	r6, [sp, #12]
  96:	2601      	movs	r6, #1
  98:	e9cd 2601 	strd	r2, r6, [sp, #4]
  9c:	e9d7 2101 	ldrd	r2, r1, [r7, #4]
  a0:	f7ff fffe 	bl	0 <_Z14fill_2dnoise16P4CRGBiibhmimimhtitttbt>
  a4:	69b8      	ldr	r0, [r7, #24]
  a6:	69fb      	ldr	r3, [r7, #28]
  a8:	9005      	str	r0, [sp, #20]
  aa:	6fb8      	ldr	r0, [r7, #120]	; 0x78
  ac:	6939      	ldr	r1, [r7, #16]
  ae:	b202      	sxth	r2, r0
  b0:	f88d 9000 	strb.w	r9, [sp]
  b4:	9107      	str	r1, [sp, #28]
  b6:	4620      	mov	r0, r4
  b8:	9204      	str	r2, [sp, #16]
  ba:	2280      	movs	r2, #128	; 0x80
  bc:	e9cd 6302 	strd	r6, r3, [sp, #8]
  c0:	f9b7 3014 	ldrsh.w	r3, [r7, #20]
  c4:	68be      	ldr	r6, [r7, #8]
  c6:	9306      	str	r3, [sp, #24]
  c8:	4643      	mov	r3, r8
  ca:	f8d7 8004 	ldr.w	r8, [r7, #4]
  ce:	4631      	mov	r1, r6
  d0:	9201      	str	r2, [sp, #4]
  d2:	4642      	mov	r2, r8
  d4:	f7ff fffe 	bl	0 <_Z14fill_2dnoise16P4CRGBiibhmimimhtitttbt>
  d8:	4642      	mov	r2, r8
  da:	68fb      	ldr	r3, [r7, #12]
  dc:	2a00      	cmp	r2, #0
  de:	dd71      	ble.n	1c4 <_Z14fill_2dnoise16P4CRGBiibhmimimhtitttbt+0x1c4>
  e0:	0a1b      	lsrs	r3, r3, #8
  e2:	f106 39ff 	add.w	r9, r6, #4294967295	; 0xffffffff
  e6:	eb04 020a 	add.w	r2, r4, sl
  ea:	2600      	movs	r6, #0
  ec:	b2db      	uxtb	r3, r3
  ee:	617e      	str	r6, [r7, #20]
  f0:	61fb      	str	r3, [r7, #28]
  f2:	e9c7 b203 	strd	fp, r2, [r7, #12]
  f6:	68bb      	ldr	r3, [r7, #8]
  f8:	2b00      	cmp	r3, #0
  fa:	dd55      	ble.n	1a8 <_Z14fill_2dnoise16P4CRGBiibhmimimhtitttbt+0x1a8>
  fc:	697b      	ldr	r3, [r7, #20]
  fe:	464c      	mov	r4, r9
 100:	f003 0301 	and.w	r3, r3, #1
 104:	e9d7 ba03 	ldrd	fp, sl, [r7, #12]
 108:	61bb      	str	r3, [r7, #24]
 10a:	e022      	b.n	152 <_Z14fill_2dnoise16P4CRGBiibhmimimhtitttbt+0x152>
 10c:	eb08 0306 	add.w	r3, r8, r6
 110:	f897 2029 	ldrb.w	r2, [r7, #41]	; 0x29
 114:	f897 e02a 	ldrb.w	lr, [r7, #42]	; 0x2a
 118:	3c01      	subs	r4, #1
 11a:	eb03 0343 	add.w	r3, r3, r3, lsl #1
 11e:	ea4f 0262 	mov.w	r2, r2, asr #1
 122:	eb05 0003 	add.w	r0, r5, r3
 126:	5ce9      	ldrb	r1, [r5, r3]
 128:	ea4f 0e6e 	mov.w	lr, lr, asr #1
 12c:	f890 c001 	ldrb.w	ip, [r0, #1]
 130:	ea4f 0161 	mov.w	r1, r1, asr #1
 134:	eb02 025c 	add.w	r2, r2, ip, lsr #1
 138:	f890 c002 	ldrb.w	ip, [r0, #2]
 13c:	eb0e 0c5c 	add.w	ip, lr, ip, lsr #1
 140:	f897 e028 	ldrb.w	lr, [r7, #40]	; 0x28
 144:	eb01 015e 	add.w	r1, r1, lr, lsr #1
 148:	54e9      	strb	r1, [r5, r3]
 14a:	7042      	strb	r2, [r0, #1]
 14c:	f880 c002 	strb.w	ip, [r0, #2]
 150:	d32a      	bcc.n	1a8 <_Z14fill_2dnoise16P4CRGBiibhmimimhtitttbt+0x1a8>
 152:	f06f 033b 	mvn.w	r3, #59	; 0x3b
 156:	f81a 2d01 	ldrb.w	r2, [sl, #-1]!
 15a:	f107 0128 	add.w	r1, r7, #40	; 0x28
 15e:	f107 002c 	add.w	r0, r7, #44	; 0x2c
 162:	f887 302d 	strb.w	r3, [r7, #45]	; 0x2d
 166:	eba9 0804 	sub.w	r8, r9, r4
 16a:	69fb      	ldr	r3, [r7, #28]
 16c:	441a      	add	r2, r3
 16e:	f887 202c 	strb.w	r2, [r7, #44]	; 0x2c
 172:	f81b 2b01 	ldrb.w	r2, [fp], #1
 176:	f887 202e 	strb.w	r2, [r7, #46]	; 0x2e
 17a:	f7ff fffe 	bl	0 <_Z15hsv2rgb_rainbowRK4CHSVR4CRGB>
 17e:	6a7b      	ldr	r3, [r7, #36]	; 0x24
 180:	b11b      	cbz	r3, 18a <_Z14fill_2dnoise16P4CRGBiibhmimimhtitttbt+0x18a>
 182:	69bb      	ldr	r3, [r7, #24]
 184:	2b00      	cmp	r3, #0
 186:	bf18      	it	ne
 188:	46a0      	movne	r8, r4
 18a:	6a3b      	ldr	r3, [r7, #32]
 18c:	2b00      	cmp	r3, #0
 18e:	d1bd      	bne.n	10c <_Z14fill_2dnoise16P4CRGBiibhmimimhtitttbt+0x10c>
 190:	eb08 0306 	add.w	r3, r8, r6
 194:	8d3a      	ldrh	r2, [r7, #40]	; 0x28
 196:	3c01      	subs	r4, #1
 198:	eb03 0343 	add.w	r3, r3, r3, lsl #1
 19c:	52ea      	strh	r2, [r5, r3]
 19e:	442b      	add	r3, r5
 1a0:	f897 202a 	ldrb.w	r2, [r7, #42]	; 0x2a
 1a4:	709a      	strb	r2, [r3, #2]
 1a6:	d2d4      	bcs.n	152 <_Z14fill_2dnoise16P4CRGBiibhmimimhtitttbt+0x152>
 1a8:	68ba      	ldr	r2, [r7, #8]
 1aa:	6939      	ldr	r1, [r7, #16]
 1ac:	697b      	ldr	r3, [r7, #20]
 1ae:	4416      	add	r6, r2
 1b0:	1a89      	subs	r1, r1, r2
 1b2:	3301      	adds	r3, #1
 1b4:	6139      	str	r1, [r7, #16]
 1b6:	68f9      	ldr	r1, [r7, #12]
 1b8:	617b      	str	r3, [r7, #20]
 1ba:	4411      	add	r1, r2
 1bc:	687a      	ldr	r2, [r7, #4]
 1be:	429a      	cmp	r2, r3
 1c0:	60f9      	str	r1, [r7, #12]
 1c2:	d198      	bne.n	f6 <_Z14fill_2dnoise16P4CRGBiibhmimimhtitttbt+0xf6>
 1c4:	3734      	adds	r7, #52	; 0x34
 1c6:	46bd      	mov	sp, r7
 1c8:	e8bd 8ff0 	ldmia.w	sp!, {r4, r5, r6, r7, r8, r9, sl, fp, pc}
