
build/./src/pwm/SparkMaxPWM.cpp.o:     file format elf32-littlearm

SYMBOL TABLE:
00000000 l    df *ABS*	00000000 SparkMaxPWM.cpp
00000000 l    d  .text	00000000 .text
00000000 l    d  .data	00000000 .data
00000000 l    d  .bss	00000000 .bss
00000000 l    d  .text._ZN11SparkMaxPWMC2Ei	00000000 .text._ZN11SparkMaxPWMC2Ei
00000000 l    d  .text._ZN11SparkMaxPWM5beginEv	00000000 .text._ZN11SparkMaxPWM5beginEv
00000000 l    d  .text._ZN11SparkMaxPWM8setSpeedEf	00000000 .text._ZN11SparkMaxPWM8setSpeedEf
00000000 l    d  .comment	00000000 .comment
00000000 l    d  .ARM.attributes	00000000 .ARM.attributes
00000000 g     F .text._ZN11SparkMaxPWMC2Ei	00000012 _ZN11SparkMaxPWMC2Ei
00000000         *UND*	00000000 _ZN8PWMServoC1Ev
00000000 g     F .text._ZN11SparkMaxPWMC2Ei	00000012 _ZN11SparkMaxPWMC1Ei
00000000 g     F .text._ZN11SparkMaxPWM5beginEv	00000010 _ZN11SparkMaxPWM5beginEv
00000000         *UND*	00000000 _ZN8PWMServo6attachEiii
00000000 g     F .text._ZN11SparkMaxPWM8setSpeedEf	0000006c _ZN11SparkMaxPWM8setSpeedEf
00000000         *UND*	00000000 _ZN8PWMServo5writeEi


Contents of section .text._ZN11SparkMaxPWMC2Ei:
 0000 38b50446 0d460430 fff7feff 20462560  8..F.F.0.... F%`
 0010 38bd00bf                             8...            
Contents of section .text._ZN11SparkMaxPWM5beginEv:
 0000 4ff4fa63 4ff47a72 50f8041b fff7febf  O..cO.zrP.......
Contents of section .text._ZN11SparkMaxPWM8setSpeedEf:
 0000 ffee007a b4eee70a f1ee10fa 21d4f7ee  ...z........!...
 0010 007ab4ee e70af1ee 10fa03dd b4210430  .z...........!.0
 0020 fff7febf dfed0d7a 04309fed 0d7ae0ee  .......z.0...z..
 0030 277a9fed 0c6adfed 0c6a27ee 877ac7ee  'z...j...j'..z..
 0040 067a77ee a67afdee e77a17ee 901afff7  .zw..z...z......
 0050 febf0021 0430fff7 febf00bf 0000c842  ...!.0.........B
 0060 00003443 00004843 00000000           ..4C..HC....    
Contents of section .comment:
 0000 00474343 3a202841 726d2047 4e552054  .GCC: (Arm GNU T
 0010 6f6f6c63 6861696e 2031312e 332e5265  oolchain 11.3.Re
 0020 6c312920 31312e33 2e312032 30323230  l1) 11.3.1 20220
 0030 37313200                             712.            
Contents of section .ARM.attributes:
 0000 41310000 00616561 62690001 27000000  A1...aeabi..'...
 0010 0537452d 4d00060d 074d0902 0a081204  .7E-M....M......
 0020 14011501 17031801 19011a01 1c011e02  ................
 0030 2201                                 ".              

Disassembly of section .text._ZN11SparkMaxPWMC2Ei:

00000000 <_ZN11SparkMaxPWMC1Ei>:
   0:	b538      	push	{r3, r4, r5, lr}
   2:	4604      	mov	r4, r0
   4:	460d      	mov	r5, r1
   6:	3004      	adds	r0, #4
   8:	f7ff fffe 	bl	0 <_ZN8PWMServoC1Ev>
   c:	4620      	mov	r0, r4
   e:	6025      	str	r5, [r4, #0]
  10:	bd38      	pop	{r3, r4, r5, pc}
  12:	bf00      	nop

Disassembly of section .text._ZN11SparkMaxPWM5beginEv:

00000000 <_ZN11SparkMaxPWM5beginEv>:
   0:	f44f 63fa 	mov.w	r3, #2000	; 0x7d0
   4:	f44f 727a 	mov.w	r2, #1000	; 0x3e8
   8:	f850 1b04 	ldr.w	r1, [r0], #4
   c:	f7ff bffe 	b.w	0 <_ZN8PWMServo6attachEiii>

Disassembly of section .text._ZN11SparkMaxPWM8setSpeedEf:

00000000 <_ZN11SparkMaxPWM8setSpeedEf>:
   0:	eeff 7a00 	vmov.f32	s15, #240	; 0xbf800000 -1.0
   4:	eeb4 0ae7 	vcmpe.f32	s0, s15
   8:	eef1 fa10 	vmrs	APSR_nzcv, fpscr
   c:	d421      	bmi.n	52 <_ZN11SparkMaxPWM8setSpeedEf+0x52>
   e:	eef7 7a00 	vmov.f32	s15, #112	; 0x3f800000  1.0
  12:	eeb4 0ae7 	vcmpe.f32	s0, s15
  16:	eef1 fa10 	vmrs	APSR_nzcv, fpscr
  1a:	dd03      	ble.n	24 <_ZN11SparkMaxPWM8setSpeedEf+0x24>
  1c:	21b4      	movs	r1, #180	; 0xb4
  1e:	3004      	adds	r0, #4
  20:	f7ff bffe 	b.w	0 <_ZN8PWMServo5writeEi>
  24:	eddf 7a0d 	vldr	s15, [pc, #52]	; 5c <_ZN11SparkMaxPWM8setSpeedEf+0x5c>
  28:	3004      	adds	r0, #4
  2a:	ed9f 7a0d 	vldr	s14, [pc, #52]	; 60 <_ZN11SparkMaxPWM8setSpeedEf+0x60>
  2e:	eee0 7a27 	vfma.f32	s15, s0, s15
  32:	ed9f 6a0c 	vldr	s12, [pc, #48]	; 64 <_ZN11SparkMaxPWM8setSpeedEf+0x64>
  36:	eddf 6a0c 	vldr	s13, [pc, #48]	; 68 <_ZN11SparkMaxPWM8setSpeedEf+0x68>
  3a:	ee27 7a87 	vmul.f32	s14, s15, s14
  3e:	eec7 7a06 	vdiv.f32	s15, s14, s12
  42:	ee77 7aa6 	vadd.f32	s15, s15, s13
  46:	eefd 7ae7 	vcvt.s32.f32	s15, s15
  4a:	ee17 1a90 	vmov	r1, s15
  4e:	f7ff bffe 	b.w	0 <_ZN8PWMServo5writeEi>
  52:	2100      	movs	r1, #0
  54:	3004      	adds	r0, #4
  56:	f7ff bffe 	b.w	0 <_ZN8PWMServo5writeEi>
  5a:	bf00      	nop
  5c:	42c80000 	.word	0x42c80000
  60:	43340000 	.word	0x43340000
  64:	43480000 	.word	0x43480000
  68:	00000000 	.word	0x00000000
