
build/./teensy4/analog.c.o:     file format elf32-littlearm

SYMBOL TABLE:
00000000 l    df *ABS*	00000000 analog.c
00000000 l    d  .text	00000000 .text
00000000 l    d  .data	00000000 .data
00000000 l    d  .bss	00000000 .bss
00000000 l    d  .text.analogRead	00000000 .text.analogRead
00000000 l    d  .text.analogReference	00000000 .text.analogReference
00000000 l    d  .text.analogReadRes	00000000 .text.analogReadRes
00000000 l    d  .text.analogReadAveraging	00000000 .text.analogReadAveraging
00000000 l    d  .flashmem	00000000 .flashmem
00000000 l    d  .bss.calibrating	00000000 .bss.calibrating
00000000 l     O .bss.calibrating	00000001 calibrating
00000000 l    d  .rodata.pin_to_channel	00000000 .rodata.pin_to_channel
00000000 l    d  .comment	00000000 .comment
00000000 l    d  .ARM.attributes	00000000 .ARM.attributes
00000000 g     F .text.analogRead	000000b0 analogRead
00000000         *UND*	00000000 yield
00000000         *UND*	00000000 digital_pin_to_info_PGM
00000000 g     F .text.analogReference	00000002 analogReference
00000000 g     F .text.analogReadRes	00000060 analogReadRes
00000000 g     F .text.analogReadAveraging	00000088 analogReadAveraging
00000000 g     F .flashmem	00000054 analog_init
00000000 g     O .rodata.pin_to_channel	0000002a pin_to_channel


Contents of section .text.analogRead:
 0000 2a2849d8 f8b5254f 04463b78 e3b9244b  *(I...%O.F;x..$K
 0010 1b5dff2b 29d0234a 02eb0412 91680a68  .].+).#J.....h.h
 0020 02f44050 b0f5805f 30d01c06 1fd41e4c  ..@P..._0......L
 0030 2360236a d80704d4 fff7feff 236ad907  #`#j........#j..
 0040 fad5194b 586af8bd 174d184e 01e0fff7  ...KXj...M.N....
 0050 feffab6c 1b06fad4 b36c13f0 8003f6d1  ...l.....l......
 0060 3b700f4b 1b5dff2b d5d10020 f8bd0f4c  ;p.K.].+... ...L
 0070 03f07f03 2360236a da0704d4 fff7feff  ....#`#j........
 0080 236adb07 fad5094b 586af8bd 22f48052  #j.....KXj.."..R
 0090 1c060a60 ebd4cae7 00207047 00000000  ...`..... pG....
 00a0 00000000 00000000 00400c40 00800c40  .........@.@...@
Contents of section .text.analogReference:
 0000 704700bf                             pG..            
Contents of section .text.analogReadRes:
 0000 082830b4 22d00a28 0cbf4ff4 05714ff4  .(0."..(..O..qO.
 0010 4671104c 104d636c 626c2b40 0f4802f0  Fq.L.Mclbl+@.H..
 0020 03021a43 636c03f0 e0031343 0b436364  ...Ccl.....C.Ccd
 0030 436c426c 2b4002f0 03021a43 436c03f0  ClBl+@.....CCl..
 0040 e0031343 194330bc 41647047 4ff44071  ...C.C0.AdpGO.@q
 0050 dfe700bf 00400c40 00fcffff 00800c40  .....@.@.......@
Contents of section .text.analogReadAveraging:
 0000 10b41f4c 1f281f49 a36c23f0 2003a364  ...L.(.I.l#. ..d
 0010 626c8b6c 22f44042 23f02003 8b644b6c  bl.l".@B#. ..dKl
 0020 23f44043 12d942f4 404243f4 40436264  #.@C..B.@BC.@Cbd
 0030 4b641349 134a8b6c 5df8044b 43f02003  Kd.I.J.l]..KC. .
 0040 8b64936c 43f02003 93647047 0f2808d9  .d.lC. ..dpG.(..
 0050 42f40042 43f40043 09480a49 42644b64  B..BC..C.H.IBdKd
 0060 e7e70728 04d942f4 804243f4 8043f3e7  ...(..B..BC..C..
 0070 03286264 4b64dcd8 5df8044b 704700bf  .(bdKd..]..KpG..
 0080 00400c40 00800c40                    .@.@...@        
Contents of section .flashmem:
 0000 104ba020 104ad96e 41f44031 10b4d966  .K. .J.nA.@1...f
 0010 40f23764 d96e41f4 4071d966 54649064  @.7d.nA.@q.fTd.d
 0020 936c1b06 fcd4094a 40f23761 a0235164  .l.....J@.7a.#Qd
 0030 9364936c 13f08003 fbd1054a 13705df8  .d.l.......J.p].
 0040 044b7047 00c00f40 00400c40 00800c40  .KpG...@.@.@...@
 0050 00000000                             ....            
Contents of section .rodata.pin_to_channel:
 0000 07080c0b 06050f00 0d0e0102 83840708  ................
 0010 0c0b0605 0f000d0e 01028384 ffffffff  ................
 0020 ffffffff ffff8182 090a               ..........      
Contents of section .comment:
 0000 00474343 3a202841 726d2047 4e552054  .GCC: (Arm GNU T
 0010 6f6f6c63 6861696e 2031312e 332e5265  oolchain 11.3.Re
 0020 6c312920 31312e33 2e312032 30323230  l1) 11.3.1 20220
 0030 37313200                             712.            
Contents of section .ARM.attributes:
 0000 41310000 00616561 62690001 27000000  A1...aeabi..'...
 0010 0537452d 4d00060d 074d0902 0a081204  .7E-M....M......
 0020 14011501 17031801 19011a01 1c011e02  ................
 0030 2201                                 ".              

Disassembly of section .text.analogRead:

00000000 <analogRead>:
   0:	282a      	cmp	r0, #42	; 0x2a
   2:	d849      	bhi.n	98 <analogRead+0x98>
   4:	b5f8      	push	{r3, r4, r5, r6, r7, lr}
   6:	4f25      	ldr	r7, [pc, #148]	; (9c <analogRead+0x9c>)
   8:	4604      	mov	r4, r0
   a:	783b      	ldrb	r3, [r7, #0]
   c:	b9e3      	cbnz	r3, 48 <analogRead+0x48>
   e:	4b24      	ldr	r3, [pc, #144]	; (a0 <analogRead+0xa0>)
  10:	5d1b      	ldrb	r3, [r3, r4]
  12:	2bff      	cmp	r3, #255	; 0xff
  14:	d029      	beq.n	6a <analogRead+0x6a>
  16:	4a23      	ldr	r2, [pc, #140]	; (a4 <analogRead+0xa4>)
  18:	eb02 1204 	add.w	r2, r2, r4, lsl #4
  1c:	6891      	ldr	r1, [r2, #8]
  1e:	680a      	ldr	r2, [r1, #0]
  20:	f402 5040 	and.w	r0, r2, #12288	; 0x3000
  24:	f5b0 5f80 	cmp.w	r0, #4096	; 0x1000
  28:	d030      	beq.n	8c <analogRead+0x8c>
  2a:	061c      	lsls	r4, r3, #24
  2c:	d41f      	bmi.n	6e <analogRead+0x6e>
  2e:	4c1e      	ldr	r4, [pc, #120]	; (a8 <analogRead+0xa8>)
  30:	6023      	str	r3, [r4, #0]
  32:	6a23      	ldr	r3, [r4, #32]
  34:	07d8      	lsls	r0, r3, #31
  36:	d404      	bmi.n	42 <analogRead+0x42>
  38:	f7ff fffe 	bl	0 <yield>
  3c:	6a23      	ldr	r3, [r4, #32]
  3e:	07d9      	lsls	r1, r3, #31
  40:	d5fa      	bpl.n	38 <analogRead+0x38>
  42:	4b19      	ldr	r3, [pc, #100]	; (a8 <analogRead+0xa8>)
  44:	6a58      	ldr	r0, [r3, #36]	; 0x24
  46:	bdf8      	pop	{r3, r4, r5, r6, r7, pc}
  48:	4d17      	ldr	r5, [pc, #92]	; (a8 <analogRead+0xa8>)
  4a:	4e18      	ldr	r6, [pc, #96]	; (ac <analogRead+0xac>)
  4c:	e001      	b.n	52 <analogRead+0x52>
  4e:	f7ff fffe 	bl	0 <yield>
  52:	6cab      	ldr	r3, [r5, #72]	; 0x48
  54:	061b      	lsls	r3, r3, #24
  56:	d4fa      	bmi.n	4e <analogRead+0x4e>
  58:	6cb3      	ldr	r3, [r6, #72]	; 0x48
  5a:	f013 0380 	ands.w	r3, r3, #128	; 0x80
  5e:	d1f6      	bne.n	4e <analogRead+0x4e>
  60:	703b      	strb	r3, [r7, #0]
  62:	4b0f      	ldr	r3, [pc, #60]	; (a0 <analogRead+0xa0>)
  64:	5d1b      	ldrb	r3, [r3, r4]
  66:	2bff      	cmp	r3, #255	; 0xff
  68:	d1d5      	bne.n	16 <analogRead+0x16>
  6a:	2000      	movs	r0, #0
  6c:	bdf8      	pop	{r3, r4, r5, r6, r7, pc}
  6e:	4c0f      	ldr	r4, [pc, #60]	; (ac <analogRead+0xac>)
  70:	f003 037f 	and.w	r3, r3, #127	; 0x7f
  74:	6023      	str	r3, [r4, #0]
  76:	6a23      	ldr	r3, [r4, #32]
  78:	07da      	lsls	r2, r3, #31
  7a:	d404      	bmi.n	86 <analogRead+0x86>
  7c:	f7ff fffe 	bl	0 <yield>
  80:	6a23      	ldr	r3, [r4, #32]
  82:	07db      	lsls	r3, r3, #31
  84:	d5fa      	bpl.n	7c <analogRead+0x7c>
  86:	4b09      	ldr	r3, [pc, #36]	; (ac <analogRead+0xac>)
  88:	6a58      	ldr	r0, [r3, #36]	; 0x24
  8a:	bdf8      	pop	{r3, r4, r5, r6, r7, pc}
  8c:	f422 5280 	bic.w	r2, r2, #4096	; 0x1000
  90:	061c      	lsls	r4, r3, #24
  92:	600a      	str	r2, [r1, #0]
  94:	d4eb      	bmi.n	6e <analogRead+0x6e>
  96:	e7ca      	b.n	2e <analogRead+0x2e>
  98:	2000      	movs	r0, #0
  9a:	4770      	bx	lr
  9c:	00000000 	.word	0x00000000
  a0:	00000000 	.word	0x00000000
  a4:	00000000 	.word	0x00000000
  a8:	400c4000 	.word	0x400c4000
  ac:	400c8000 	.word	0x400c8000

Disassembly of section .text.analogReference:

00000000 <analogReference>:
   0:	4770      	bx	lr
   2:	bf00      	nop

Disassembly of section .text.analogReadRes:

00000000 <analogReadRes>:
   0:	2808      	cmp	r0, #8
   2:	b430      	push	{r4, r5}
   4:	d022      	beq.n	4c <analogReadRes+0x4c>
   6:	280a      	cmp	r0, #10
   8:	bf0c      	ite	eq
   a:	f44f 7105 	moveq.w	r1, #532	; 0x214
   e:	f44f 7146 	movne.w	r1, #792	; 0x318
  12:	4c10      	ldr	r4, [pc, #64]	; (54 <analogReadRes+0x54>)
  14:	4d10      	ldr	r5, [pc, #64]	; (58 <analogReadRes+0x58>)
  16:	6c63      	ldr	r3, [r4, #68]	; 0x44
  18:	6c62      	ldr	r2, [r4, #68]	; 0x44
  1a:	402b      	ands	r3, r5
  1c:	480f      	ldr	r0, [pc, #60]	; (5c <analogReadRes+0x5c>)
  1e:	f002 0203 	and.w	r2, r2, #3
  22:	431a      	orrs	r2, r3
  24:	6c63      	ldr	r3, [r4, #68]	; 0x44
  26:	f003 03e0 	and.w	r3, r3, #224	; 0xe0
  2a:	4313      	orrs	r3, r2
  2c:	430b      	orrs	r3, r1
  2e:	6463      	str	r3, [r4, #68]	; 0x44
  30:	6c43      	ldr	r3, [r0, #68]	; 0x44
  32:	6c42      	ldr	r2, [r0, #68]	; 0x44
  34:	402b      	ands	r3, r5
  36:	f002 0203 	and.w	r2, r2, #3
  3a:	431a      	orrs	r2, r3
  3c:	6c43      	ldr	r3, [r0, #68]	; 0x44
  3e:	f003 03e0 	and.w	r3, r3, #224	; 0xe0
  42:	4313      	orrs	r3, r2
  44:	4319      	orrs	r1, r3
  46:	bc30      	pop	{r4, r5}
  48:	6441      	str	r1, [r0, #68]	; 0x44
  4a:	4770      	bx	lr
  4c:	f44f 7140 	mov.w	r1, #768	; 0x300
  50:	e7df      	b.n	12 <analogReadRes+0x12>
  52:	bf00      	nop
  54:	400c4000 	.word	0x400c4000
  58:	fffffc00 	.word	0xfffffc00
  5c:	400c8000 	.word	0x400c8000

Disassembly of section .text.analogReadAveraging:

00000000 <analogReadAveraging>:
   0:	b410      	push	{r4}
   2:	4c1f      	ldr	r4, [pc, #124]	; (80 <analogReadAveraging+0x80>)
   4:	281f      	cmp	r0, #31
   6:	491f      	ldr	r1, [pc, #124]	; (84 <analogReadAveraging+0x84>)
   8:	6ca3      	ldr	r3, [r4, #72]	; 0x48
   a:	f023 0320 	bic.w	r3, r3, #32
   e:	64a3      	str	r3, [r4, #72]	; 0x48
  10:	6c62      	ldr	r2, [r4, #68]	; 0x44
  12:	6c8b      	ldr	r3, [r1, #72]	; 0x48
  14:	f422 4240 	bic.w	r2, r2, #49152	; 0xc000
  18:	f023 0320 	bic.w	r3, r3, #32
  1c:	648b      	str	r3, [r1, #72]	; 0x48
  1e:	6c4b      	ldr	r3, [r1, #68]	; 0x44
  20:	f423 4340 	bic.w	r3, r3, #49152	; 0xc000
  24:	d912      	bls.n	4c <analogReadAveraging+0x4c>
  26:	f442 4240 	orr.w	r2, r2, #49152	; 0xc000
  2a:	f443 4340 	orr.w	r3, r3, #49152	; 0xc000
  2e:	6462      	str	r2, [r4, #68]	; 0x44
  30:	644b      	str	r3, [r1, #68]	; 0x44
  32:	4913      	ldr	r1, [pc, #76]	; (80 <analogReadAveraging+0x80>)
  34:	4a13      	ldr	r2, [pc, #76]	; (84 <analogReadAveraging+0x84>)
  36:	6c8b      	ldr	r3, [r1, #72]	; 0x48
  38:	f85d 4b04 	ldr.w	r4, [sp], #4
  3c:	f043 0320 	orr.w	r3, r3, #32
  40:	648b      	str	r3, [r1, #72]	; 0x48
  42:	6c93      	ldr	r3, [r2, #72]	; 0x48
  44:	f043 0320 	orr.w	r3, r3, #32
  48:	6493      	str	r3, [r2, #72]	; 0x48
  4a:	4770      	bx	lr
  4c:	280f      	cmp	r0, #15
  4e:	d908      	bls.n	62 <analogReadAveraging+0x62>
  50:	f442 4200 	orr.w	r2, r2, #32768	; 0x8000
  54:	f443 4300 	orr.w	r3, r3, #32768	; 0x8000
  58:	4809      	ldr	r0, [pc, #36]	; (80 <analogReadAveraging+0x80>)
  5a:	490a      	ldr	r1, [pc, #40]	; (84 <analogReadAveraging+0x84>)
  5c:	6442      	str	r2, [r0, #68]	; 0x44
  5e:	644b      	str	r3, [r1, #68]	; 0x44
  60:	e7e7      	b.n	32 <analogReadAveraging+0x32>
  62:	2807      	cmp	r0, #7
  64:	d904      	bls.n	70 <analogReadAveraging+0x70>
  66:	f442 4280 	orr.w	r2, r2, #16384	; 0x4000
  6a:	f443 4380 	orr.w	r3, r3, #16384	; 0x4000
  6e:	e7f3      	b.n	58 <analogReadAveraging+0x58>
  70:	2803      	cmp	r0, #3
  72:	6462      	str	r2, [r4, #68]	; 0x44
  74:	644b      	str	r3, [r1, #68]	; 0x44
  76:	d8dc      	bhi.n	32 <analogReadAveraging+0x32>
  78:	f85d 4b04 	ldr.w	r4, [sp], #4
  7c:	4770      	bx	lr
  7e:	bf00      	nop
  80:	400c4000 	.word	0x400c4000
  84:	400c8000 	.word	0x400c8000

Disassembly of section .flashmem:

00000000 <analog_init>:
   0:	4b10      	ldr	r3, [pc, #64]	; (44 <analog_init+0x44>)
   2:	20a0      	movs	r0, #160	; 0xa0
   4:	4a10      	ldr	r2, [pc, #64]	; (48 <analog_init+0x48>)
   6:	6ed9      	ldr	r1, [r3, #108]	; 0x6c
   8:	f441 3140 	orr.w	r1, r1, #196608	; 0x30000
   c:	b410      	push	{r4}
   e:	66d9      	str	r1, [r3, #108]	; 0x6c
  10:	f240 6437 	movw	r4, #1591	; 0x637
  14:	6ed9      	ldr	r1, [r3, #108]	; 0x6c
  16:	f441 7140 	orr.w	r1, r1, #768	; 0x300
  1a:	66d9      	str	r1, [r3, #108]	; 0x6c
  1c:	6454      	str	r4, [r2, #68]	; 0x44
  1e:	6490      	str	r0, [r2, #72]	; 0x48
  20:	6c93      	ldr	r3, [r2, #72]	; 0x48
  22:	061b      	lsls	r3, r3, #24
  24:	d4fc      	bmi.n	20 <analog_init+0x20>
  26:	4a09      	ldr	r2, [pc, #36]	; (4c <analog_init+0x4c>)
  28:	f240 6137 	movw	r1, #1591	; 0x637
  2c:	23a0      	movs	r3, #160	; 0xa0
  2e:	6451      	str	r1, [r2, #68]	; 0x44
  30:	6493      	str	r3, [r2, #72]	; 0x48
  32:	6c93      	ldr	r3, [r2, #72]	; 0x48
  34:	f013 0380 	ands.w	r3, r3, #128	; 0x80
  38:	d1fb      	bne.n	32 <analog_init+0x32>
  3a:	4a05      	ldr	r2, [pc, #20]	; (50 <analog_init+0x50>)
  3c:	7013      	strb	r3, [r2, #0]
  3e:	f85d 4b04 	ldr.w	r4, [sp], #4
  42:	4770      	bx	lr
  44:	400fc000 	.word	0x400fc000
  48:	400c4000 	.word	0x400c4000
  4c:	400c8000 	.word	0x400c8000
  50:	00000000 	.word	0x00000000
