
build/./teensy4/DMAChannel.cpp.o:     file format elf32-littlearm

SYMBOL TABLE:
00000000 l    df *ABS*	00000000 DMAChannel.cpp
00000000 l    d  .text	00000000 .text
00000000 l    d  .data	00000000 .data
00000000 l    d  .bss	00000000 .bss
00000000 l    d  .text._ZN10DMAChannel5beginEb	00000000 .text._ZN10DMAChannel5beginEb
00000000 l    d  .text._ZN10DMAChannel7releaseEv	00000000 .text._ZN10DMAChannel7releaseEv
00000000 l    d  .text._Z16DMAPriorityOrderR10DMAChannelS0_	00000000 .text._Z16DMAPriorityOrderR10DMAChannelS0_
00000000 l    d  .text._Z16DMAPriorityOrderR10DMAChannelS0_S0_	00000000 .text._Z16DMAPriorityOrderR10DMAChannelS0_S0_
00000000 l    d  .text._Z16DMAPriorityOrderR10DMAChannelS0_S0_S0_	00000000 .text._Z16DMAPriorityOrderR10DMAChannelS0_S0_S0_
00000000 l    d  .bss.dma_channel_allocated_mask	00000000 .bss.dma_channel_allocated_mask
00000000 l    d  .comment	00000000 .comment
00000000 l    d  .ARM.attributes	00000000 .ARM.attributes
00000000 g     F .text._ZN10DMAChannel5beginEb	000000b4 _ZN10DMAChannel5beginEb
00000000 g     F .text._ZN10DMAChannel7releaseEv	00000034 _ZN10DMAChannel7releaseEv
00000000 g     F .text._Z16DMAPriorityOrderR10DMAChannelS0_	00000058 _Z16DMAPriorityOrderR10DMAChannelS0_
00000000 g     F .text._Z16DMAPriorityOrderR10DMAChannelS0_S0_	000000dc _Z16DMAPriorityOrderR10DMAChannelS0_S0_
00000000 g     F .text._Z16DMAPriorityOrderR10DMAChannelS0_S0_S0_	000001cc _Z16DMAPriorityOrderR10DMAChannelS0_S0_S0_
00000000 g     O .bss.dma_channel_allocated_mask	00000002 dma_channel_allocated_mask


Contents of section .text._ZN10DMAChannel5beginEb:
 0000 30b472b6 21b90368 13b10279 0f2a3bd9  0.r.!..h...y.*;.
 0010 244c2188 002341fa 03f212f0 010208d0  $L!..#A.........
 0020 0133102b f7d162b6 00220371 026030bc  .3.+..b..".q.`0.
 0030 70474ff0 010c0cfa 03fc41ea 0c012180  pGO.......A...!.
 0040 62b61949 5ffa83fc 184c1944 80f804c0  b..I_....L.D....
 0050 4b01e16f 41f0c001 e16740f2 82441449  K..oA....g@..D.I
 0060 0c6081f8 1ac081f8 1ec081f8 18c081f8  .`..............
 0070 1fc00360 30bcc3e9 0022c3e9 0222c3e9  ...`0...."..."..
 0080 0422c3e9 06227047 064c2188 41fa02f5  ."..."pG.L!.A...
 0090 ed07bfd5 044d1544 b3eb451f bad162b6  .....M.D..E...b.
 00a0 c5e700bf 00000000 80740002 00c00f40  .........t.....@
 00b0 00800e40                             ...@            
Contents of section .text._ZN10DMAChannel7releaseEv:
 0000 03790f2b 11d8094a 937672b6 08490122  .y.+...J.vr..I."
 0010 90f804c0 0b8802fa 0cf223ea 02030b80  ..........#.....
 0020 62b61022 00230271 03607047 00800e40  b..".#.q.`pG...@
 0030 00000000                             ....            
Contents of section .text._Z16DMAPriorityOrderR10DMAChannelS0_:
 0000 30b590f8 04e0134d 0ef0fc03 4feace02  0......M....O...
 0010 0c792b44 02f01802 4feac40c d3f80031  .y+D....O......1
 0020 0cf0180c 1bbad340 04f0fc02 2a4403f0  .......@....*D..
 0030 0f03d2f8 002112ba 22fa0cf2 02f00f02  .....!..".......
 0040 9a4206d9 047181f8 04e00a68 03680260  .B...q.....h.h.`
 0050 0b6030bd 00800e40                    .`0....@        
Contents of section .text._Z16DMAPriorityOrderR10DMAChannelS0_S0_:
 0000 70b591f8 04e0344d 0ef0fc03 92f804c0  p.....4M........
 0010 4feace06 2b440cf0 fc0406f0 1806d3f8  O...+D..........
 0020 00312c44 1bbad4f8 0041f340 4feacc06  .1,D.....A.@O...
 0030 24ba06f0 180603f0 0f03f440 04f00f04  $..........@....
 0040 9c4216d9 81f804c0 82f804e0 14680b68  .B...........h.h
 0050 0c601360 91f804e0 0ef0fc03 4feace04  .`.`........O...
 0060 2b4404f0 1804d3f8 00311bba e34003f0  +D.......1...@..
 0070 0f030579 184c05f0 fc063444 d4f80041  ...y.L....4D...A
 0080 94fa84fc ec0004f0 18042cfa 04fc0cf0  ..........,.....
 0090 0f0c9c45 08d280f8 04e06346 0d71ae46  ...E......cF.q.F
 00a0 04680d68 05600c60 15790b48 05f0fc04  .h.h.`.`.y.H....
 00b0 2044ec00 d0f80001 04f01804 00bae040   D.............@
 00c0 00f00f00 984206d9 0d7182f8 04e01068  .....B...q.....h
 00d0 0b680860 136070bd 00800e40           .h.`.`p....@    
Contents of section .text._Z16DMAPriorityOrderR10DMAChannelS0_S0_S0_:
 0000 2de9f043 16796f4d 06f0fc04 1f794fea  -..C.yoM.....yO.
 0010 c60c2c44 0cf0180c d4f80041 94fa84fe  ..,D.......A....
 0020 07f0fc04 2c442efa 0cfe4fea c70cd4f8  ....,D....O.....
 0030 00410ef0 0f0e0cf0 180c24ba 24fa0cf4  .A........$.$...
 0040 04f00f04 744514d9 17711e71 1e681468  ....tE...q.q.h.h
 0050 16601c60 167906f0 fc042c44 d4f80041  .`.`.y....,D...A
 0060 94fa84fe f40004f0 18042efa 04fe0ef0  ................
 0070 0f0e0c79 534f04f0 fc053d44 d5f80051  ...ySO....=D...Q
 0080 95fa85fc e50005f0 18052cfa 05fc0cf0  ..........,.....
 0090 0f0cf445 14d20e71 14711568 0c680d60  ...E...q.q.h.h.`
 00a0 14600c79 04f0fc05 3d44d5f8 005195fa  .`.y....=D...Q..
 00b0 85fce500 05f01805 2cfa05fc 0cf00f0c  ........,.......
 00c0 0679404d 06f0fc07 3d44d5f8 005195fa  .y@M....=D...Q..
 00d0 85fef500 05f01805 2efa05fe 0ef00f0e  ................
 00e0 e64507d2 0471f446 0e713446 05680e68  .E...q.F.q4F.h.h
 00f0 06600d60 1d79334f 05f0fc09 1679ed00  .`.`.y3O.....y..
 0100 b94406f0 fc0e05f0 1808d9f8 0051be44  .D...........Q.D
 0110 2dbadef8 00e125fa 08f54fea c6089efa  -.....%...O.....
 0120 8efe08f0 180805f0 0f052efa 08fe0ef0  ................
 0130 0f0e7545 16d90e71 26461471 e6460d68  ..uE...q&F.q.F.h
 0140 14680c60 15600c79 04f0fc05 3d44d5f8  .h.`.`.y....=D..
 0150 005195fa 85fce500 05f01805 2cfa05fc  .Q..........,...
 0160 0cf00f0c e64514d9 05790471 0d710d68  .....E...y.q.q.h
 0170 04680560 0c601679 134806f0 fc040059  .h.`.`.y.H.....Y
 0180 90fa80fe f00000f0 18002efa 00fe0ef0  ................
 0190 0f0e1b79 0b4c03f0 fc000444 d800d4f8  ...y.L.....D....
 01a0 003100f0 18001bba c34003f0 0f037345  .1.......@....sE
 01b0 06d90b79 0e711371 10680b68 08601360  ...y.q.q.h.h.`.`
 01c0 bde8f083 00800e40 00810e40           .......@...@    
Contents of section .comment:
 0000 00474343 3a202841 726d2047 4e552054  .GCC: (Arm GNU T
 0010 6f6f6c63 6861696e 2031312e 332e5265  oolchain 11.3.Re
 0020 6c312920 31312e33 2e312032 30323230  l1) 11.3.1 20220
 0030 37313200                             712.            
Contents of section .ARM.attributes:
 0000 41310000 00616561 62690001 27000000  A1...aeabi..'...
 0010 0537452d 4d00060d 074d0902 0a081204  .7E-M....M......
 0020 14011501 17031801 19011a01 1c011e02  ................
 0030 2201                                 ".              

Disassembly of section .text._ZN10DMAChannel5beginEb:

00000000 <_ZN10DMAChannel5beginEb>:
   0:	b430      	push	{r4, r5}
   2:	b672      	cpsid	i
   4:	b921      	cbnz	r1, 10 <_ZN10DMAChannel5beginEb+0x10>
   6:	6803      	ldr	r3, [r0, #0]
   8:	b113      	cbz	r3, 10 <_ZN10DMAChannel5beginEb+0x10>
   a:	7902      	ldrb	r2, [r0, #4]
   c:	2a0f      	cmp	r2, #15
   e:	d93b      	bls.n	88 <_ZN10DMAChannel5beginEb+0x88>
  10:	4c24      	ldr	r4, [pc, #144]	; (a4 <_ZN10DMAChannel5beginEb+0xa4>)
  12:	8821      	ldrh	r1, [r4, #0]
  14:	2300      	movs	r3, #0
  16:	fa41 f203 	asr.w	r2, r1, r3
  1a:	f012 0201 	ands.w	r2, r2, #1
  1e:	d008      	beq.n	32 <_ZN10DMAChannel5beginEb+0x32>
  20:	3301      	adds	r3, #1
  22:	2b10      	cmp	r3, #16
  24:	d1f7      	bne.n	16 <_ZN10DMAChannel5beginEb+0x16>
  26:	b662      	cpsie	i
  28:	2200      	movs	r2, #0
  2a:	7103      	strb	r3, [r0, #4]
  2c:	6002      	str	r2, [r0, #0]
  2e:	bc30      	pop	{r4, r5}
  30:	4770      	bx	lr
  32:	f04f 0c01 	mov.w	ip, #1
  36:	fa0c fc03 	lsl.w	ip, ip, r3
  3a:	ea41 010c 	orr.w	r1, r1, ip
  3e:	8021      	strh	r1, [r4, #0]
  40:	b662      	cpsie	i
  42:	4919      	ldr	r1, [pc, #100]	; (a8 <_ZN10DMAChannel5beginEb+0xa8>)
  44:	fa5f fc83 	uxtb.w	ip, r3
  48:	4c18      	ldr	r4, [pc, #96]	; (ac <_ZN10DMAChannel5beginEb+0xac>)
  4a:	4419      	add	r1, r3
  4c:	f880 c004 	strb.w	ip, [r0, #4]
  50:	014b      	lsls	r3, r1, #5
  52:	6fe1      	ldr	r1, [r4, #124]	; 0x7c
  54:	f041 01c0 	orr.w	r1, r1, #192	; 0xc0
  58:	67e1      	str	r1, [r4, #124]	; 0x7c
  5a:	f240 4482 	movw	r4, #1154	; 0x482
  5e:	4914      	ldr	r1, [pc, #80]	; (b0 <_ZN10DMAChannel5beginEb+0xb0>)
  60:	600c      	str	r4, [r1, #0]
  62:	f881 c01a 	strb.w	ip, [r1, #26]
  66:	f881 c01e 	strb.w	ip, [r1, #30]
  6a:	f881 c018 	strb.w	ip, [r1, #24]
  6e:	f881 c01f 	strb.w	ip, [r1, #31]
  72:	6003      	str	r3, [r0, #0]
  74:	bc30      	pop	{r4, r5}
  76:	e9c3 2200 	strd	r2, r2, [r3]
  7a:	e9c3 2202 	strd	r2, r2, [r3, #8]
  7e:	e9c3 2204 	strd	r2, r2, [r3, #16]
  82:	e9c3 2206 	strd	r2, r2, [r3, #24]
  86:	4770      	bx	lr
  88:	4c06      	ldr	r4, [pc, #24]	; (a4 <_ZN10DMAChannel5beginEb+0xa4>)
  8a:	8821      	ldrh	r1, [r4, #0]
  8c:	fa41 f502 	asr.w	r5, r1, r2
  90:	07ed      	lsls	r5, r5, #31
  92:	d5bf      	bpl.n	14 <_ZN10DMAChannel5beginEb+0x14>
  94:	4d04      	ldr	r5, [pc, #16]	; (a8 <_ZN10DMAChannel5beginEb+0xa8>)
  96:	4415      	add	r5, r2
  98:	ebb3 1f45 	cmp.w	r3, r5, lsl #5
  9c:	d1ba      	bne.n	14 <_ZN10DMAChannel5beginEb+0x14>
  9e:	b662      	cpsie	i
  a0:	e7c5      	b.n	2e <_ZN10DMAChannel5beginEb+0x2e>
  a2:	bf00      	nop
  a4:	00000000 	.word	0x00000000
  a8:	02007480 	.word	0x02007480
  ac:	400fc000 	.word	0x400fc000
  b0:	400e8000 	.word	0x400e8000

Disassembly of section .text._ZN10DMAChannel7releaseEv:

00000000 <_ZN10DMAChannel7releaseEv>:
   0:	7903      	ldrb	r3, [r0, #4]
   2:	2b0f      	cmp	r3, #15
   4:	d811      	bhi.n	2a <_ZN10DMAChannel7releaseEv+0x2a>
   6:	4a09      	ldr	r2, [pc, #36]	; (2c <_ZN10DMAChannel7releaseEv+0x2c>)
   8:	7693      	strb	r3, [r2, #26]
   a:	b672      	cpsid	i
   c:	4908      	ldr	r1, [pc, #32]	; (30 <_ZN10DMAChannel7releaseEv+0x30>)
   e:	2201      	movs	r2, #1
  10:	f890 c004 	ldrb.w	ip, [r0, #4]
  14:	880b      	ldrh	r3, [r1, #0]
  16:	fa02 f20c 	lsl.w	r2, r2, ip
  1a:	ea23 0302 	bic.w	r3, r3, r2
  1e:	800b      	strh	r3, [r1, #0]
  20:	b662      	cpsie	i
  22:	2210      	movs	r2, #16
  24:	2300      	movs	r3, #0
  26:	7102      	strb	r2, [r0, #4]
  28:	6003      	str	r3, [r0, #0]
  2a:	4770      	bx	lr
  2c:	400e8000 	.word	0x400e8000
  30:	00000000 	.word	0x00000000

Disassembly of section .text._Z16DMAPriorityOrderR10DMAChannelS0_:

00000000 <_Z16DMAPriorityOrderR10DMAChannelS0_>:
   0:	b530      	push	{r4, r5, lr}
   2:	f890 e004 	ldrb.w	lr, [r0, #4]
   6:	4d13      	ldr	r5, [pc, #76]	; (54 <_Z16DMAPriorityOrderR10DMAChannelS0_+0x54>)
   8:	f00e 03fc 	and.w	r3, lr, #252	; 0xfc
   c:	ea4f 02ce 	mov.w	r2, lr, lsl #3
  10:	790c      	ldrb	r4, [r1, #4]
  12:	442b      	add	r3, r5
  14:	f002 0218 	and.w	r2, r2, #24
  18:	ea4f 0cc4 	mov.w	ip, r4, lsl #3
  1c:	f8d3 3100 	ldr.w	r3, [r3, #256]	; 0x100
  20:	f00c 0c18 	and.w	ip, ip, #24
  24:	ba1b      	rev	r3, r3
  26:	40d3      	lsrs	r3, r2
  28:	f004 02fc 	and.w	r2, r4, #252	; 0xfc
  2c:	442a      	add	r2, r5
  2e:	f003 030f 	and.w	r3, r3, #15
  32:	f8d2 2100 	ldr.w	r2, [r2, #256]	; 0x100
  36:	ba12      	rev	r2, r2
  38:	fa22 f20c 	lsr.w	r2, r2, ip
  3c:	f002 020f 	and.w	r2, r2, #15
  40:	429a      	cmp	r2, r3
  42:	d906      	bls.n	52 <_Z16DMAPriorityOrderR10DMAChannelS0_+0x52>
  44:	7104      	strb	r4, [r0, #4]
  46:	f881 e004 	strb.w	lr, [r1, #4]
  4a:	680a      	ldr	r2, [r1, #0]
  4c:	6803      	ldr	r3, [r0, #0]
  4e:	6002      	str	r2, [r0, #0]
  50:	600b      	str	r3, [r1, #0]
  52:	bd30      	pop	{r4, r5, pc}
  54:	400e8000 	.word	0x400e8000

Disassembly of section .text._Z16DMAPriorityOrderR10DMAChannelS0_S0_:

00000000 <_Z16DMAPriorityOrderR10DMAChannelS0_S0_>:
   0:	b570      	push	{r4, r5, r6, lr}
   2:	f891 e004 	ldrb.w	lr, [r1, #4]
   6:	4d34      	ldr	r5, [pc, #208]	; (d8 <_Z16DMAPriorityOrderR10DMAChannelS0_S0_+0xd8>)
   8:	f00e 03fc 	and.w	r3, lr, #252	; 0xfc
   c:	f892 c004 	ldrb.w	ip, [r2, #4]
  10:	ea4f 06ce 	mov.w	r6, lr, lsl #3
  14:	442b      	add	r3, r5
  16:	f00c 04fc 	and.w	r4, ip, #252	; 0xfc
  1a:	f006 0618 	and.w	r6, r6, #24
  1e:	f8d3 3100 	ldr.w	r3, [r3, #256]	; 0x100
  22:	442c      	add	r4, r5
  24:	ba1b      	rev	r3, r3
  26:	f8d4 4100 	ldr.w	r4, [r4, #256]	; 0x100
  2a:	40f3      	lsrs	r3, r6
  2c:	ea4f 06cc 	mov.w	r6, ip, lsl #3
  30:	ba24      	rev	r4, r4
  32:	f006 0618 	and.w	r6, r6, #24
  36:	f003 030f 	and.w	r3, r3, #15
  3a:	40f4      	lsrs	r4, r6
  3c:	f004 040f 	and.w	r4, r4, #15
  40:	429c      	cmp	r4, r3
  42:	d916      	bls.n	72 <_Z16DMAPriorityOrderR10DMAChannelS0_S0_+0x72>
  44:	f881 c004 	strb.w	ip, [r1, #4]
  48:	f882 e004 	strb.w	lr, [r2, #4]
  4c:	6814      	ldr	r4, [r2, #0]
  4e:	680b      	ldr	r3, [r1, #0]
  50:	600c      	str	r4, [r1, #0]
  52:	6013      	str	r3, [r2, #0]
  54:	f891 e004 	ldrb.w	lr, [r1, #4]
  58:	f00e 03fc 	and.w	r3, lr, #252	; 0xfc
  5c:	ea4f 04ce 	mov.w	r4, lr, lsl #3
  60:	442b      	add	r3, r5
  62:	f004 0418 	and.w	r4, r4, #24
  66:	f8d3 3100 	ldr.w	r3, [r3, #256]	; 0x100
  6a:	ba1b      	rev	r3, r3
  6c:	40e3      	lsrs	r3, r4
  6e:	f003 030f 	and.w	r3, r3, #15
  72:	7905      	ldrb	r5, [r0, #4]
  74:	4c18      	ldr	r4, [pc, #96]	; (d8 <_Z16DMAPriorityOrderR10DMAChannelS0_S0_+0xd8>)
  76:	f005 06fc 	and.w	r6, r5, #252	; 0xfc
  7a:	4434      	add	r4, r6
  7c:	f8d4 4100 	ldr.w	r4, [r4, #256]	; 0x100
  80:	fa94 fc84 	rev.w	ip, r4
  84:	00ec      	lsls	r4, r5, #3
  86:	f004 0418 	and.w	r4, r4, #24
  8a:	fa2c fc04 	lsr.w	ip, ip, r4
  8e:	f00c 0c0f 	and.w	ip, ip, #15
  92:	459c      	cmp	ip, r3
  94:	d208      	bcs.n	a8 <_Z16DMAPriorityOrderR10DMAChannelS0_S0_+0xa8>
  96:	f880 e004 	strb.w	lr, [r0, #4]
  9a:	4663      	mov	r3, ip
  9c:	710d      	strb	r5, [r1, #4]
  9e:	46ae      	mov	lr, r5
  a0:	6804      	ldr	r4, [r0, #0]
  a2:	680d      	ldr	r5, [r1, #0]
  a4:	6005      	str	r5, [r0, #0]
  a6:	600c      	str	r4, [r1, #0]
  a8:	7915      	ldrb	r5, [r2, #4]
  aa:	480b      	ldr	r0, [pc, #44]	; (d8 <_Z16DMAPriorityOrderR10DMAChannelS0_S0_+0xd8>)
  ac:	f005 04fc 	and.w	r4, r5, #252	; 0xfc
  b0:	4420      	add	r0, r4
  b2:	00ec      	lsls	r4, r5, #3
  b4:	f8d0 0100 	ldr.w	r0, [r0, #256]	; 0x100
  b8:	f004 0418 	and.w	r4, r4, #24
  bc:	ba00      	rev	r0, r0
  be:	40e0      	lsrs	r0, r4
  c0:	f000 000f 	and.w	r0, r0, #15
  c4:	4298      	cmp	r0, r3
  c6:	d906      	bls.n	d6 <_Z16DMAPriorityOrderR10DMAChannelS0_S0_+0xd6>
  c8:	710d      	strb	r5, [r1, #4]
  ca:	f882 e004 	strb.w	lr, [r2, #4]
  ce:	6810      	ldr	r0, [r2, #0]
  d0:	680b      	ldr	r3, [r1, #0]
  d2:	6008      	str	r0, [r1, #0]
  d4:	6013      	str	r3, [r2, #0]
  d6:	bd70      	pop	{r4, r5, r6, pc}
  d8:	400e8000 	.word	0x400e8000

Disassembly of section .text._Z16DMAPriorityOrderR10DMAChannelS0_S0_S0_:

00000000 <_Z16DMAPriorityOrderR10DMAChannelS0_S0_S0_>:
   0:	e92d 43f0 	stmdb	sp!, {r4, r5, r6, r7, r8, r9, lr}
   4:	7916      	ldrb	r6, [r2, #4]
   6:	4d6f      	ldr	r5, [pc, #444]	; (1c4 <_Z16DMAPriorityOrderR10DMAChannelS0_S0_S0_+0x1c4>)
   8:	f006 04fc 	and.w	r4, r6, #252	; 0xfc
   c:	791f      	ldrb	r7, [r3, #4]
   e:	ea4f 0cc6 	mov.w	ip, r6, lsl #3
  12:	442c      	add	r4, r5
  14:	f00c 0c18 	and.w	ip, ip, #24
  18:	f8d4 4100 	ldr.w	r4, [r4, #256]	; 0x100
  1c:	fa94 fe84 	rev.w	lr, r4
  20:	f007 04fc 	and.w	r4, r7, #252	; 0xfc
  24:	442c      	add	r4, r5
  26:	fa2e fe0c 	lsr.w	lr, lr, ip
  2a:	ea4f 0cc7 	mov.w	ip, r7, lsl #3
  2e:	f8d4 4100 	ldr.w	r4, [r4, #256]	; 0x100
  32:	f00e 0e0f 	and.w	lr, lr, #15
  36:	f00c 0c18 	and.w	ip, ip, #24
  3a:	ba24      	rev	r4, r4
  3c:	fa24 f40c 	lsr.w	r4, r4, ip
  40:	f004 040f 	and.w	r4, r4, #15
  44:	4574      	cmp	r4, lr
  46:	d914      	bls.n	72 <_Z16DMAPriorityOrderR10DMAChannelS0_S0_S0_+0x72>
  48:	7117      	strb	r7, [r2, #4]
  4a:	711e      	strb	r6, [r3, #4]
  4c:	681e      	ldr	r6, [r3, #0]
  4e:	6814      	ldr	r4, [r2, #0]
  50:	6016      	str	r6, [r2, #0]
  52:	601c      	str	r4, [r3, #0]
  54:	7916      	ldrb	r6, [r2, #4]
  56:	f006 04fc 	and.w	r4, r6, #252	; 0xfc
  5a:	442c      	add	r4, r5
  5c:	f8d4 4100 	ldr.w	r4, [r4, #256]	; 0x100
  60:	fa94 fe84 	rev.w	lr, r4
  64:	00f4      	lsls	r4, r6, #3
  66:	f004 0418 	and.w	r4, r4, #24
  6a:	fa2e fe04 	lsr.w	lr, lr, r4
  6e:	f00e 0e0f 	and.w	lr, lr, #15
  72:	790c      	ldrb	r4, [r1, #4]
  74:	4f53      	ldr	r7, [pc, #332]	; (1c4 <_Z16DMAPriorityOrderR10DMAChannelS0_S0_S0_+0x1c4>)
  76:	f004 05fc 	and.w	r5, r4, #252	; 0xfc
  7a:	443d      	add	r5, r7
  7c:	f8d5 5100 	ldr.w	r5, [r5, #256]	; 0x100
  80:	fa95 fc85 	rev.w	ip, r5
  84:	00e5      	lsls	r5, r4, #3
  86:	f005 0518 	and.w	r5, r5, #24
  8a:	fa2c fc05 	lsr.w	ip, ip, r5
  8e:	f00c 0c0f 	and.w	ip, ip, #15
  92:	45f4      	cmp	ip, lr
  94:	d214      	bcs.n	c0 <_Z16DMAPriorityOrderR10DMAChannelS0_S0_S0_+0xc0>
  96:	710e      	strb	r6, [r1, #4]
  98:	7114      	strb	r4, [r2, #4]
  9a:	6815      	ldr	r5, [r2, #0]
  9c:	680c      	ldr	r4, [r1, #0]
  9e:	600d      	str	r5, [r1, #0]
  a0:	6014      	str	r4, [r2, #0]
  a2:	790c      	ldrb	r4, [r1, #4]
  a4:	f004 05fc 	and.w	r5, r4, #252	; 0xfc
  a8:	443d      	add	r5, r7
  aa:	f8d5 5100 	ldr.w	r5, [r5, #256]	; 0x100
  ae:	fa95 fc85 	rev.w	ip, r5
  b2:	00e5      	lsls	r5, r4, #3
  b4:	f005 0518 	and.w	r5, r5, #24
  b8:	fa2c fc05 	lsr.w	ip, ip, r5
  bc:	f00c 0c0f 	and.w	ip, ip, #15
  c0:	7906      	ldrb	r6, [r0, #4]
  c2:	4d40      	ldr	r5, [pc, #256]	; (1c4 <_Z16DMAPriorityOrderR10DMAChannelS0_S0_S0_+0x1c4>)
  c4:	f006 07fc 	and.w	r7, r6, #252	; 0xfc
  c8:	443d      	add	r5, r7
  ca:	f8d5 5100 	ldr.w	r5, [r5, #256]	; 0x100
  ce:	fa95 fe85 	rev.w	lr, r5
  d2:	00f5      	lsls	r5, r6, #3
  d4:	f005 0518 	and.w	r5, r5, #24
  d8:	fa2e fe05 	lsr.w	lr, lr, r5
  dc:	f00e 0e0f 	and.w	lr, lr, #15
  e0:	45e6      	cmp	lr, ip
  e2:	d207      	bcs.n	f4 <_Z16DMAPriorityOrderR10DMAChannelS0_S0_S0_+0xf4>
  e4:	7104      	strb	r4, [r0, #4]
  e6:	46f4      	mov	ip, lr
  e8:	710e      	strb	r6, [r1, #4]
  ea:	4634      	mov	r4, r6
  ec:	6805      	ldr	r5, [r0, #0]
  ee:	680e      	ldr	r6, [r1, #0]
  f0:	6006      	str	r6, [r0, #0]
  f2:	600d      	str	r5, [r1, #0]
  f4:	791d      	ldrb	r5, [r3, #4]
  f6:	4f33      	ldr	r7, [pc, #204]	; (1c4 <_Z16DMAPriorityOrderR10DMAChannelS0_S0_S0_+0x1c4>)
  f8:	f005 09fc 	and.w	r9, r5, #252	; 0xfc
  fc:	7916      	ldrb	r6, [r2, #4]
  fe:	00ed      	lsls	r5, r5, #3
 100:	44b9      	add	r9, r7
 102:	f006 0efc 	and.w	lr, r6, #252	; 0xfc
 106:	f005 0818 	and.w	r8, r5, #24
 10a:	f8d9 5100 	ldr.w	r5, [r9, #256]	; 0x100
 10e:	44be      	add	lr, r7
 110:	ba2d      	rev	r5, r5
 112:	f8de e100 	ldr.w	lr, [lr, #256]	; 0x100
 116:	fa25 f508 	lsr.w	r5, r5, r8
 11a:	ea4f 08c6 	mov.w	r8, r6, lsl #3
 11e:	fa9e fe8e 	rev.w	lr, lr
 122:	f008 0818 	and.w	r8, r8, #24
 126:	f005 050f 	and.w	r5, r5, #15
 12a:	fa2e fe08 	lsr.w	lr, lr, r8
 12e:	f00e 0e0f 	and.w	lr, lr, #15
 132:	4575      	cmp	r5, lr
 134:	d916      	bls.n	164 <_Z16DMAPriorityOrderR10DMAChannelS0_S0_S0_+0x164>
 136:	710e      	strb	r6, [r1, #4]
 138:	4626      	mov	r6, r4
 13a:	7114      	strb	r4, [r2, #4]
 13c:	46e6      	mov	lr, ip
 13e:	680d      	ldr	r5, [r1, #0]
 140:	6814      	ldr	r4, [r2, #0]
 142:	600c      	str	r4, [r1, #0]
 144:	6015      	str	r5, [r2, #0]
 146:	790c      	ldrb	r4, [r1, #4]
 148:	f004 05fc 	and.w	r5, r4, #252	; 0xfc
 14c:	443d      	add	r5, r7
 14e:	f8d5 5100 	ldr.w	r5, [r5, #256]	; 0x100
 152:	fa95 fc85 	rev.w	ip, r5
 156:	00e5      	lsls	r5, r4, #3
 158:	f005 0518 	and.w	r5, r5, #24
 15c:	fa2c fc05 	lsr.w	ip, ip, r5
 160:	f00c 0c0f 	and.w	ip, ip, #15
 164:	45e6      	cmp	lr, ip
 166:	d914      	bls.n	192 <_Z16DMAPriorityOrderR10DMAChannelS0_S0_S0_+0x192>
 168:	7905      	ldrb	r5, [r0, #4]
 16a:	7104      	strb	r4, [r0, #4]
 16c:	710d      	strb	r5, [r1, #4]
 16e:	680d      	ldr	r5, [r1, #0]
 170:	6804      	ldr	r4, [r0, #0]
 172:	6005      	str	r5, [r0, #0]
 174:	600c      	str	r4, [r1, #0]
 176:	7916      	ldrb	r6, [r2, #4]
 178:	4813      	ldr	r0, [pc, #76]	; (1c8 <_Z16DMAPriorityOrderR10DMAChannelS0_S0_S0_+0x1c8>)
 17a:	f006 04fc 	and.w	r4, r6, #252	; 0xfc
 17e:	5900      	ldr	r0, [r0, r4]
 180:	fa90 fe80 	rev.w	lr, r0
 184:	00f0      	lsls	r0, r6, #3
 186:	f000 0018 	and.w	r0, r0, #24
 18a:	fa2e fe00 	lsr.w	lr, lr, r0
 18e:	f00e 0e0f 	and.w	lr, lr, #15
 192:	791b      	ldrb	r3, [r3, #4]
 194:	4c0b      	ldr	r4, [pc, #44]	; (1c4 <_Z16DMAPriorityOrderR10DMAChannelS0_S0_S0_+0x1c4>)
 196:	f003 00fc 	and.w	r0, r3, #252	; 0xfc
 19a:	4404      	add	r4, r0
 19c:	00d8      	lsls	r0, r3, #3
 19e:	f8d4 3100 	ldr.w	r3, [r4, #256]	; 0x100
 1a2:	f000 0018 	and.w	r0, r0, #24
 1a6:	ba1b      	rev	r3, r3
 1a8:	40c3      	lsrs	r3, r0
 1aa:	f003 030f 	and.w	r3, r3, #15
 1ae:	4573      	cmp	r3, lr
 1b0:	d906      	bls.n	1c0 <_Z16DMAPriorityOrderR10DMAChannelS0_S0_S0_+0x1c0>
 1b2:	790b      	ldrb	r3, [r1, #4]
 1b4:	710e      	strb	r6, [r1, #4]
 1b6:	7113      	strb	r3, [r2, #4]
 1b8:	6810      	ldr	r0, [r2, #0]
 1ba:	680b      	ldr	r3, [r1, #0]
 1bc:	6008      	str	r0, [r1, #0]
 1be:	6013      	str	r3, [r2, #0]
 1c0:	e8bd 83f0 	ldmia.w	sp!, {r4, r5, r6, r7, r8, r9, pc}
 1c4:	400e8000 	.word	0x400e8000
 1c8:	400e8100 	.word	0x400e8100
