
build/./teensy4/eeprom.c.o:     file format elf32-littlearm

SYMBOL TABLE:
00000000 l    df *ABS*	00000000 eeprom.c
00000000 l    d  .text	00000000 .text
00000000 l    d  .data	00000000 .data
00000000 l    d  .bss	00000000 .bss
00000000 l    d  .text.flash_wait	00000000 .text.flash_wait
00000000 l     F .text.flash_wait	0000005c flash_wait
00000000 l    d  .text.eeprom_initialize	00000000 .text.eeprom_initialize
00000000 l    d  .text.eeprom_read_byte	00000000 .text.eeprom_read_byte
00000000 l    d  .text.eeprom_read_word	00000000 .text.eeprom_read_word
00000000 l    d  .text.eeprom_read_dword	00000000 .text.eeprom_read_dword
00000000 l    d  .text.eeprom_read_block	00000000 .text.eeprom_read_block
00000000 l    d  .text.eeprom_is_ready	00000000 .text.eeprom_is_ready
00000000 l    d  .text.eepromemu_flash_write	00000000 .text.eepromemu_flash_write
00000000 l    d  .text.eepromemu_flash_erase_sector	00000000 .text.eepromemu_flash_erase_sector
00000000 l    d  .text.eeprom_write_byte	00000000 .text.eeprom_write_byte
00000000 l    d  .text.eeprom_write_word	00000000 .text.eeprom_write_word
00000000 l    d  .text.eeprom_write_dword	00000000 .text.eeprom_write_dword
00000000 l    d  .text.eeprom_write_block	00000000 .text.eeprom_write_block
00000000 l    d  .text.eepromemu_flash_erase_32K_block	00000000 .text.eepromemu_flash_erase_32K_block
00000000 l    d  .text.eepromemu_flash_erase_64K_block	00000000 .text.eepromemu_flash_erase_64K_block
00000000 l    d  .bss.initialized	00000000 .bss.initialized
00000000 l     O .bss.initialized	00000001 initialized
00000000 l    d  .bss.sector_index	00000000 .bss.sector_index
00000000 l     O .bss.sector_index	0000007e sector_index
00000000 l    d  .comment	00000000 .comment
00000000 l    d  .ARM.attributes	00000000 .ARM.attributes
00000000 g     F .text.eeprom_initialize	00000048 eeprom_initialize
00000000 g     F .text.eeprom_read_byte	0000007c eeprom_read_byte
00000000 g     F .text.eeprom_read_word	00000018 eeprom_read_word
00000000 g     F .text.eeprom_read_dword	0000002e eeprom_read_dword
00000000 g     F .text.eeprom_read_block	0000001e eeprom_read_block
00000000 g     F .text.eeprom_is_ready	00000004 eeprom_is_ready
00000000 g     F .text.eepromemu_flash_write	000000ec eepromemu_flash_write
00000000         *UND*	00000000 memcpy
00000000 g     F .text.eepromemu_flash_erase_sector	000000b8 eepromemu_flash_erase_sector
00000000 g     F .text.eeprom_write_byte	00000134 eeprom_write_byte
00000000         *UND*	00000000 memset
00000000 g     F .text.eeprom_write_word	00000018 eeprom_write_word
00000000 g     F .text.eeprom_write_dword	0000002c eeprom_write_dword
00000000 g     F .text.eeprom_write_block	0000001e eeprom_write_block
00000000 g     F .text.eepromemu_flash_erase_32K_block	000000bc eepromemu_flash_erase_32K_block
00000000 g     F .text.eepromemu_flash_erase_64K_block	000000b8 eepromemu_flash_erase_64K_block


Contents of section .text.flash_wait:
 0000 30b4124a 0020124b 0121124d 124cc2f8  0..J. .K.!.M.L..
 0010 f032c2f8 f402c2f8 b810c2f8 a000c2f8  .2..............
 0020 a450c2f8 b0105369 db07fcd5 51612378  .P....Si....Qa#x
 0030 db07f0d4 13680549 43f00103 13600b68  .....h.IC....`.h
 0040 db07fcd4 62b630bc 704700bf 00802a40  ....b.0.pG....*@
 0050 05040124 01000f00 00812a40           ...$......*@    
Contents of section .text.eeprom_initialize:
 0000 70b50e4c 4ff6ff7e 0d4e04f1 7e05a6f5  p..LO..~.N..~...
 0010 80530021 02e0b342 81b204d2 1a88481c  .S.!...B......H.
 0020 02337245 f7d124f8 021fac42 06f58056  .3rE..$....B...V
 0030 edd1044b 01221a70 70bd00bf feffffff  ...K.".pp.......
 0040 00107c60 00000000                    ..|`....        
Contents of section .text.eeprom_read_byte:
 0000 41f2bb03 98422fd8 184b10b5 1b780446  A....B/..K...x.F
 0010 3bb3a008 164b04f0 0301164c a3fb0023  ;....K.....L...#
 0020 c21a03eb 5203144a 5b09c3eb 831e9c46  ....R..J[......F
 0030 a0eb0e03 41ea8c01 ff2034f8 13c01a44  ....A.... 4....D
 0040 4fea4c0c 13030ceb 023cbceb 023f07d9  O.L......<...?..
 0050 1a880233 d4b28c42 08bf100a 9c45f7d8  ...3...B.....E..
 0060 10bdfff7 feffd4e7 ff207047 00000000  ......... pG....
 0070 05411004 00000000 c0070600           .A..........    
Contents of section .text.eeprom_read_word:
 0000 38b50546 fff7feff 0446681c fff7feff  8..F.....Fh.....
 0010 44ea0020 80b238bd                    D.. ..8.        
Contents of section .text.eeprom_read_dword:
 0000 f8b50546 fff7feff 0646681c fff7feff  ...F.....Fh.....
 0010 0746a81c fff7feff 0446e81c 2404fff7  .F.......F..$...
 0020 feff44ea 07243443 44ea0060 f8bd00bf  ..D..$4CD..`....
Contents of section .text.eeprom_read_block:
 0000 62b170b5 05460c46 8e182046 0134fff7  b.p..F.F.. F.4..
 0010 feff05f8 010bb442 f7d170bd 704700bf  .......B..p.pG..
Contents of section .text.eeprom_is_ready:
 0000 01207047                             . pG            
Contents of section .text.eepromemu_flash_write:
 0000 f8b50f46 164672b6 344b40f2 0641344a  ...F.Fr.4K@..A4J
 0010 9a610222 da610022 c3f8a020 c3f8f012  .a.".a."... ....
 0020 c3f8f422 c3f8f822 c3f8fc22 4ff47022  ..."..."..."O.p"
 0030 c3f8a420 0122c3f8 b02020f0 1f038219  ... ."...  .....
 0040 bff34f8f 4ff0e024 c4f85c3f 20339a42  ..O.O..$..\? 3.B
 0050 fad8bff3 4f8fbff3 6f8f204d 6b69da07  ....O...o. Mki..
 0060 fcd50123 1f49b2b2 20f07f40 6b6142f4  ...#.I.. ..@kaB.
 0070 7022c5f8 f01242f2 0121184c c5f8f412  p"....B..!.L....
 0080 c5f8bc30 c5f8a000 c5f8a420 c5f8b030  ...0....... ...0
 0090 154d01e0 5b0609d4 636913f0 0100f9d0  .M..[...ci......
 00a0 41236361 bde8f840 fff7febf 082e0ad8  A#ca...@........
 00b0 36b13246 39463744 06462846 fff7feff  6.2F9F7D.F(F....
 00c0 40236361 e8e7a6f1 08000826 39463246  @#ca.......&9F2F
 00d0 37440646 2846fff7 fefff1e7 00802a40  7D.F(F........*@
 00e0 f05af05a 32041808 80812a40           .Z.Z2.....*@    
Contents of section .text.eepromemu_flash_erase_sector:
 0000 10b472b6 284b0221 284c0022 9c614ff4  ..r.(K.!(L.".aO.
 0010 7024d961 40f20641 c3f8f012 0121c3f8  p$.a@..A.....!..
 0020 f422c3f8 f822c3f8 fc22c3f8 a020a2f5  ."..."..."... ..
 0030 8052c3f8 a4400240 c3f8b010 bff34f8f  .R...@.@......O.
 0040 02f58051 02f12003 4ff0e02c 994234bf  ...Q.. .O..,.B4.
 0050 01218021 02eb4111 8b42ccf8 5c2f1a46  .!.!..A..B..\/.F
 0060 03f12003 f8d1bff3 4f8fbff3 6f8f0e4a  .. .....O...o..J
 0070 5369d907 fcd50124 0d490e4b 54610340  Si.....$.I.KTa.@
 0080 c2f8f012 4ff47020 0749c2f8 a030c2f8  ....O.p .I...0..
 0090 a400c2f8 b0404b69 db07fcd5 01235df8  .....@Ki.....#].
 00a0 044b4b61 fff7febf 00802a40 f05af05a  .KKa......*@.Z.Z
 00b0 20041808 00f0ff00                     .......        
Contents of section .text.eeprom_write_byte:
 0000 41f2bb03 984200f2 8980464b 2de9f047  A....B....FK-..G
 0010 1b78c2b0 05468946 002b7cd0 ab08424e  .x...F.F.+|...BN
 0020 05f00305 414fa6fb 03269a1b 06eb5206  ....AO...&....R.
 0030 760945ea 8605c6eb 86169e1b 3c4b37f8  v.E.........<K7.
 0040 16403344 60004fea 033800eb 0330b0eb  .@3D`.O..8...0..
 0050 033f64d9 43464ff0 ff0c1a88 0233d1b2  .?d.CFO......3..
 0060 a94208bf 4fea122c 9842f6d8 e14541d0  .B..O..,.B...EA.
 0070 b4f5006f 41d302ac 4ff48072 ff212046  ...oA...O..r.! F
 0080 fff7feff 08f58050 08f10203 42469842  .......P....BF.B
 0090 34bf0120 4ff40060 08eb4000 13460232  4.. O..`..@..F.2
 00a0 1b888242 d9b24fea 13236354 f6d104f8  ...B..O..#cT....
 00b0 05900df1 07090df2 071a0025 4c464046  ...........%LF@F
 00c0 fff7feff 14f801cf 08eb4500 02220df1  ..........E.."..
 00d0 0601631e bcf1ff0f a3eb0903 06d043ea  ..c...........C.
 00e0 0c230135 adf80630 fff7feff a245e9d1  .#.5...0.....E..
 00f0 27f81650 42b0bde8 f08745ea 092502a9  '..PB.....E..%..
 0100 02220134 adf80850 fff7feff 27f81640  .".4...P....'..@
 0110 42b0bde8 f087fff7 feff7fe7 70474ff0  B...........pGO.
 0120 ff0ca3e7 00000000 05411004 00000000  .........A......
 0130 c0070600                             ....            
Contents of section .text.eeprom_write_word:
 0000 38b50c46 0546c9b2 fff7feff 681c210a  8..F.F......h.!.
 0010 bde83840 fff7febf                    ..8@....        
Contents of section .text.eeprom_write_dword:
 0000 38b50c46 0546c9b2 fff7feff c4f30721  8..F.F.........!
 0010 681cfff7 feffc4f3 0741a81c fff7feff  h........A......
 0020 e81c210e bde83840 fff7febf           ..!...8@....    
Contents of section .text.eeprom_write_block:
 0000 62b170b5 05460c46 8e182046 013415f8  b.p..F.F.. F.4..
 0010 011bfff7 feffb442 f7d170bd 704700bf  .......B..p.pG..
Contents of section .text.eepromemu_flash_erase_32K_block:
 0000 10b472b6 294b0221 294c0022 9c614ff4  ..r.)K.!)L.".aO.
 0010 7024d961 40f20641 c3f8f012 0121c3f8  p$.a@..A.....!..
 0020 f422c3f8 f822c3f8 fc22c3f8 a020a2f5  ."..."..."... ..
 0030 0042c3f8 a4400240 c3f8b010 bff34f8f  .B...@.@......O.
 0040 02f50041 02f12003 4ff0e02c 994234bf  ...A.. .O..,.B4.
 0050 01214ff4 806102eb 41118b42 ccf85c2f  .!O..a..A..B..\/
 0060 1a4603f1 2003f8d1 bff34f8f bff36f8f  .F.. .....O...o.
 0070 0e4a5369 d907fcd5 01240e49 0e4b5461  .JSi.....$.I.KTa
 0080 0340c2f8 f0124ff4 70200849 c2f8a030  .@....O.p .I...0
 0090 c2f8a400 c2f8b040 4b69db07 fcd50123  .......@Ki.....#
 00a0 5df8044b 4b61fff7 febf00bf 00802a40  ]..KKa........*@
 00b0 f05af05a 52041808 0080ff00           .Z.ZR.......    
Contents of section .text.eepromemu_flash_erase_64K_block:
 0000 10b472b6 294b0221 294c0022 9c614ff4  ..r.)K.!)L.".aO.
 0010 7024d961 40f20641 c3f8f012 0121c3f8  p$.a@..A.....!..
 0020 f422c3f8 f822c3f8 fc22c3f8 a020a2f5  ."..."..."... ..
 0030 8032c3f8 a4400240 c3f8b010 bff34f8f  .2...@.@......O.
 0040 02f58031 02f12003 4ff0e02c 994234bf  ...1.. .O..,.B4.
 0050 01214ff4 006102eb 41118b42 ccf85c2f  .!O..a..A..B..\/
 0060 1a4603f1 2003f8d1 bff34f8f bff36f8f  .F.. .....O...o.
 0070 0e4a5369 d907fcd5 01230e49 00f47f00  .JSi.....#.I....
 0080 4ff47024 5361c2f8 f0120849 c2f8a000  O.p$Sa.....I....
 0090 c2f8a440 c2f8b030 4b69db07 fcd50123  ...@...0Ki.....#
 00a0 5df8044b 4b61fff7 febf00bf 00802a40  ]..KKa........*@
 00b0 f05af05a d8041808                    .Z.Z....        
Contents of section .comment:
 0000 00474343 3a202841 726d2047 4e552054  .GCC: (Arm GNU T
 0010 6f6f6c63 6861696e 2031312e 332e5265  oolchain 11.3.Re
 0020 6c312920 31312e33 2e312032 30323230  l1) 11.3.1 20220
 0030 37313200                             712.            
Contents of section .ARM.attributes:
 0000 41310000 00616561 62690001 27000000  A1...aeabi..'...
 0010 0537452d 4d00060d 074d0902 0a081204  .7E-M....M......
 0020 14011501 17031801 19011a01 1c011e02  ................
 0030 2201                                 ".              

Disassembly of section .text.flash_wait:

00000000 <flash_wait>:
   0:	b430      	push	{r4, r5}
   2:	4a12      	ldr	r2, [pc, #72]	; (4c <flash_wait+0x4c>)
   4:	2000      	movs	r0, #0
   6:	4b12      	ldr	r3, [pc, #72]	; (50 <flash_wait+0x50>)
   8:	2101      	movs	r1, #1
   a:	4d12      	ldr	r5, [pc, #72]	; (54 <flash_wait+0x54>)
   c:	4c12      	ldr	r4, [pc, #72]	; (58 <flash_wait+0x58>)
   e:	f8c2 32f0 	str.w	r3, [r2, #752]	; 0x2f0
  12:	f8c2 02f4 	str.w	r0, [r2, #756]	; 0x2f4
  16:	f8c2 10b8 	str.w	r1, [r2, #184]	; 0xb8
  1a:	f8c2 00a0 	str.w	r0, [r2, #160]	; 0xa0
  1e:	f8c2 50a4 	str.w	r5, [r2, #164]	; 0xa4
  22:	f8c2 10b0 	str.w	r1, [r2, #176]	; 0xb0
  26:	6953      	ldr	r3, [r2, #20]
  28:	07db      	lsls	r3, r3, #31
  2a:	d5fc      	bpl.n	26 <flash_wait+0x26>
  2c:	6151      	str	r1, [r2, #20]
  2e:	7823      	ldrb	r3, [r4, #0]
  30:	07db      	lsls	r3, r3, #31
  32:	d4f0      	bmi.n	16 <flash_wait+0x16>
  34:	6813      	ldr	r3, [r2, #0]
  36:	4905      	ldr	r1, [pc, #20]	; (4c <flash_wait+0x4c>)
  38:	f043 0301 	orr.w	r3, r3, #1
  3c:	6013      	str	r3, [r2, #0]
  3e:	680b      	ldr	r3, [r1, #0]
  40:	07db      	lsls	r3, r3, #31
  42:	d4fc      	bmi.n	3e <flash_wait+0x3e>
  44:	b662      	cpsie	i
  46:	bc30      	pop	{r4, r5}
  48:	4770      	bx	lr
  4a:	bf00      	nop
  4c:	402a8000 	.word	0x402a8000
  50:	24010405 	.word	0x24010405
  54:	000f0001 	.word	0x000f0001
  58:	402a8100 	.word	0x402a8100

Disassembly of section .text.eeprom_initialize:

00000000 <eeprom_initialize>:
   0:	b570      	push	{r4, r5, r6, lr}
   2:	4c0e      	ldr	r4, [pc, #56]	; (3c <eeprom_initialize+0x3c>)
   4:	f64f 7eff 	movw	lr, #65535	; 0xffff
   8:	4e0d      	ldr	r6, [pc, #52]	; (40 <eeprom_initialize+0x40>)
   a:	f104 057e 	add.w	r5, r4, #126	; 0x7e
   e:	f5a6 5380 	sub.w	r3, r6, #4096	; 0x1000
  12:	2100      	movs	r1, #0
  14:	e002      	b.n	1c <eeprom_initialize+0x1c>
  16:	42b3      	cmp	r3, r6
  18:	b281      	uxth	r1, r0
  1a:	d204      	bcs.n	26 <eeprom_initialize+0x26>
  1c:	881a      	ldrh	r2, [r3, #0]
  1e:	1c48      	adds	r0, r1, #1
  20:	3302      	adds	r3, #2
  22:	4572      	cmp	r2, lr
  24:	d1f7      	bne.n	16 <eeprom_initialize+0x16>
  26:	f824 1f02 	strh.w	r1, [r4, #2]!
  2a:	42ac      	cmp	r4, r5
  2c:	f506 5680 	add.w	r6, r6, #4096	; 0x1000
  30:	d1ed      	bne.n	e <eeprom_initialize+0xe>
  32:	4b04      	ldr	r3, [pc, #16]	; (44 <eeprom_initialize+0x44>)
  34:	2201      	movs	r2, #1
  36:	701a      	strb	r2, [r3, #0]
  38:	bd70      	pop	{r4, r5, r6, pc}
  3a:	bf00      	nop
  3c:	fffffffe 	.word	0xfffffffe
  40:	607c1000 	.word	0x607c1000
  44:	00000000 	.word	0x00000000

Disassembly of section .text.eeprom_read_byte:

00000000 <eeprom_read_byte>:
   0:	f241 03bb 	movw	r3, #4283	; 0x10bb
   4:	4298      	cmp	r0, r3
   6:	d82f      	bhi.n	68 <eeprom_read_byte+0x68>
   8:	4b18      	ldr	r3, [pc, #96]	; (6c <eeprom_read_byte+0x6c>)
   a:	b510      	push	{r4, lr}
   c:	781b      	ldrb	r3, [r3, #0]
   e:	4604      	mov	r4, r0
  10:	b33b      	cbz	r3, 62 <eeprom_read_byte+0x62>
  12:	08a0      	lsrs	r0, r4, #2
  14:	4b16      	ldr	r3, [pc, #88]	; (70 <eeprom_read_byte+0x70>)
  16:	f004 0103 	and.w	r1, r4, #3
  1a:	4c16      	ldr	r4, [pc, #88]	; (74 <eeprom_read_byte+0x74>)
  1c:	fba3 2300 	umull	r2, r3, r3, r0
  20:	1ac2      	subs	r2, r0, r3
  22:	eb03 0352 	add.w	r3, r3, r2, lsr #1
  26:	4a14      	ldr	r2, [pc, #80]	; (78 <eeprom_read_byte+0x78>)
  28:	095b      	lsrs	r3, r3, #5
  2a:	ebc3 1e83 	rsb	lr, r3, r3, lsl #6
  2e:	469c      	mov	ip, r3
  30:	eba0 030e 	sub.w	r3, r0, lr
  34:	ea41 018c 	orr.w	r1, r1, ip, lsl #2
  38:	20ff      	movs	r0, #255	; 0xff
  3a:	f834 c013 	ldrh.w	ip, [r4, r3, lsl #1]
  3e:	441a      	add	r2, r3
  40:	ea4f 0c4c 	mov.w	ip, ip, lsl #1
  44:	0313      	lsls	r3, r2, #12
  46:	eb0c 3c02 	add.w	ip, ip, r2, lsl #12
  4a:	ebbc 3f02 	cmp.w	ip, r2, lsl #12
  4e:	d907      	bls.n	60 <eeprom_read_byte+0x60>
  50:	881a      	ldrh	r2, [r3, #0]
  52:	3302      	adds	r3, #2
  54:	b2d4      	uxtb	r4, r2
  56:	428c      	cmp	r4, r1
  58:	bf08      	it	eq
  5a:	0a10      	lsreq	r0, r2, #8
  5c:	459c      	cmp	ip, r3
  5e:	d8f7      	bhi.n	50 <eeprom_read_byte+0x50>
  60:	bd10      	pop	{r4, pc}
  62:	f7ff fffe 	bl	0 <eeprom_read_byte>
  66:	e7d4      	b.n	12 <eeprom_read_byte+0x12>
  68:	20ff      	movs	r0, #255	; 0xff
  6a:	4770      	bx	lr
  6c:	00000000 	.word	0x00000000
  70:	04104105 	.word	0x04104105
  74:	00000000 	.word	0x00000000
  78:	000607c0 	.word	0x000607c0

Disassembly of section .text.eeprom_read_word:

00000000 <eeprom_read_word>:
   0:	b538      	push	{r3, r4, r5, lr}
   2:	4605      	mov	r5, r0
   4:	f7ff fffe 	bl	0 <eeprom_read_word>
   8:	4604      	mov	r4, r0
   a:	1c68      	adds	r0, r5, #1
   c:	f7ff fffe 	bl	0 <eeprom_read_word>
  10:	ea44 2000 	orr.w	r0, r4, r0, lsl #8
  14:	b280      	uxth	r0, r0
  16:	bd38      	pop	{r3, r4, r5, pc}

Disassembly of section .text.eeprom_read_dword:

00000000 <eeprom_read_dword>:
   0:	b5f8      	push	{r3, r4, r5, r6, r7, lr}
   2:	4605      	mov	r5, r0
   4:	f7ff fffe 	bl	0 <eeprom_read_dword>
   8:	4606      	mov	r6, r0
   a:	1c68      	adds	r0, r5, #1
   c:	f7ff fffe 	bl	0 <eeprom_read_dword>
  10:	4607      	mov	r7, r0
  12:	1ca8      	adds	r0, r5, #2
  14:	f7ff fffe 	bl	0 <eeprom_read_dword>
  18:	4604      	mov	r4, r0
  1a:	1ce8      	adds	r0, r5, #3
  1c:	0424      	lsls	r4, r4, #16
  1e:	f7ff fffe 	bl	0 <eeprom_read_dword>
  22:	ea44 2407 	orr.w	r4, r4, r7, lsl #8
  26:	4334      	orrs	r4, r6
  28:	ea44 6000 	orr.w	r0, r4, r0, lsl #24
  2c:	bdf8      	pop	{r3, r4, r5, r6, r7, pc}
  2e:	bf00      	nop

Disassembly of section .text.eeprom_read_block:

00000000 <eeprom_read_block>:
   0:	b162      	cbz	r2, 1c <eeprom_read_block+0x1c>
   2:	b570      	push	{r4, r5, r6, lr}
   4:	4605      	mov	r5, r0
   6:	460c      	mov	r4, r1
   8:	188e      	adds	r6, r1, r2
   a:	4620      	mov	r0, r4
   c:	3401      	adds	r4, #1
   e:	f7ff fffe 	bl	0 <eeprom_read_block>
  12:	f805 0b01 	strb.w	r0, [r5], #1
  16:	42b4      	cmp	r4, r6
  18:	d1f7      	bne.n	a <eeprom_read_block+0xa>
  1a:	bd70      	pop	{r4, r5, r6, pc}
  1c:	4770      	bx	lr
  1e:	bf00      	nop

Disassembly of section .text.eeprom_is_ready:

00000000 <eeprom_is_ready>:
   0:	2001      	movs	r0, #1
   2:	4770      	bx	lr

Disassembly of section .text.eepromemu_flash_write:

00000000 <eepromemu_flash_write>:
   0:	b5f8      	push	{r3, r4, r5, r6, r7, lr}
   2:	460f      	mov	r7, r1
   4:	4616      	mov	r6, r2
   6:	b672      	cpsid	i
   8:	4b34      	ldr	r3, [pc, #208]	; (dc <eepromemu_flash_write+0xdc>)
   a:	f240 4106 	movw	r1, #1030	; 0x406
   e:	4a34      	ldr	r2, [pc, #208]	; (e0 <eepromemu_flash_write+0xe0>)
  10:	619a      	str	r2, [r3, #24]
  12:	2202      	movs	r2, #2
  14:	61da      	str	r2, [r3, #28]
  16:	2200      	movs	r2, #0
  18:	f8c3 20a0 	str.w	r2, [r3, #160]	; 0xa0
  1c:	f8c3 12f0 	str.w	r1, [r3, #752]	; 0x2f0
  20:	f8c3 22f4 	str.w	r2, [r3, #756]	; 0x2f4
  24:	f8c3 22f8 	str.w	r2, [r3, #760]	; 0x2f8
  28:	f8c3 22fc 	str.w	r2, [r3, #764]	; 0x2fc
  2c:	f44f 2270 	mov.w	r2, #983040	; 0xf0000
  30:	f8c3 20a4 	str.w	r2, [r3, #164]	; 0xa4
  34:	2201      	movs	r2, #1
  36:	f8c3 20b0 	str.w	r2, [r3, #176]	; 0xb0
  3a:	f020 031f 	bic.w	r3, r0, #31
  3e:	1982      	adds	r2, r0, r6
  40:	f3bf 8f4f 	dsb	sy
  44:	f04f 24e0 	mov.w	r4, #3758153728	; 0xe000e000
  48:	f8c4 3f5c 	str.w	r3, [r4, #3932]	; 0xf5c
  4c:	3320      	adds	r3, #32
  4e:	429a      	cmp	r2, r3
  50:	d8fa      	bhi.n	48 <eepromemu_flash_write+0x48>
  52:	f3bf 8f4f 	dsb	sy
  56:	f3bf 8f6f 	isb	sy
  5a:	4d20      	ldr	r5, [pc, #128]	; (dc <eepromemu_flash_write+0xdc>)
  5c:	696b      	ldr	r3, [r5, #20]
  5e:	07da      	lsls	r2, r3, #31
  60:	d5fc      	bpl.n	5c <eepromemu_flash_write+0x5c>
  62:	2301      	movs	r3, #1
  64:	491f      	ldr	r1, [pc, #124]	; (e4 <eepromemu_flash_write+0xe4>)
  66:	b2b2      	uxth	r2, r6
  68:	f020 407f 	bic.w	r0, r0, #4278190080	; 0xff000000
  6c:	616b      	str	r3, [r5, #20]
  6e:	f442 2270 	orr.w	r2, r2, #983040	; 0xf0000
  72:	f8c5 12f0 	str.w	r1, [r5, #752]	; 0x2f0
  76:	f242 2101 	movw	r1, #8705	; 0x2201
  7a:	4c18      	ldr	r4, [pc, #96]	; (dc <eepromemu_flash_write+0xdc>)
  7c:	f8c5 12f4 	str.w	r1, [r5, #756]	; 0x2f4
  80:	f8c5 30bc 	str.w	r3, [r5, #188]	; 0xbc
  84:	f8c5 00a0 	str.w	r0, [r5, #160]	; 0xa0
  88:	f8c5 20a4 	str.w	r2, [r5, #164]	; 0xa4
  8c:	f8c5 30b0 	str.w	r3, [r5, #176]	; 0xb0
  90:	4d15      	ldr	r5, [pc, #84]	; (e8 <eepromemu_flash_write+0xe8>)
  92:	e001      	b.n	98 <eepromemu_flash_write+0x98>
  94:	065b      	lsls	r3, r3, #25
  96:	d409      	bmi.n	ac <eepromemu_flash_write+0xac>
  98:	6963      	ldr	r3, [r4, #20]
  9a:	f013 0001 	ands.w	r0, r3, #1
  9e:	d0f9      	beq.n	94 <eepromemu_flash_write+0x94>
  a0:	2341      	movs	r3, #65	; 0x41
  a2:	6163      	str	r3, [r4, #20]
  a4:	e8bd 40f8 	ldmia.w	sp!, {r3, r4, r5, r6, r7, lr}
  a8:	f7ff bffe 	b.w	0 <eepromemu_flash_write>
  ac:	2e08      	cmp	r6, #8
  ae:	d80a      	bhi.n	c6 <eepromemu_flash_write+0xc6>
  b0:	b136      	cbz	r6, c0 <eepromemu_flash_write+0xc0>
  b2:	4632      	mov	r2, r6
  b4:	4639      	mov	r1, r7
  b6:	4437      	add	r7, r6
  b8:	4606      	mov	r6, r0
  ba:	4628      	mov	r0, r5
  bc:	f7ff fffe 	bl	0 <memcpy>
  c0:	2340      	movs	r3, #64	; 0x40
  c2:	6163      	str	r3, [r4, #20]
  c4:	e7e8      	b.n	98 <eepromemu_flash_write+0x98>
  c6:	f1a6 0008 	sub.w	r0, r6, #8
  ca:	2608      	movs	r6, #8
  cc:	4639      	mov	r1, r7
  ce:	4632      	mov	r2, r6
  d0:	4437      	add	r7, r6
  d2:	4606      	mov	r6, r0
  d4:	4628      	mov	r0, r5
  d6:	f7ff fffe 	bl	0 <memcpy>
  da:	e7f1      	b.n	c0 <eepromemu_flash_write+0xc0>
  dc:	402a8000 	.word	0x402a8000
  e0:	5af05af0 	.word	0x5af05af0
  e4:	08180432 	.word	0x08180432
  e8:	402a8180 	.word	0x402a8180

Disassembly of section .text.eepromemu_flash_erase_sector:

00000000 <eepromemu_flash_erase_sector>:
   0:	b410      	push	{r4}
   2:	b672      	cpsid	i
   4:	4b28      	ldr	r3, [pc, #160]	; (a8 <eepromemu_flash_erase_sector+0xa8>)
   6:	2102      	movs	r1, #2
   8:	4c28      	ldr	r4, [pc, #160]	; (ac <eepromemu_flash_erase_sector+0xac>)
   a:	2200      	movs	r2, #0
   c:	619c      	str	r4, [r3, #24]
   e:	f44f 2470 	mov.w	r4, #983040	; 0xf0000
  12:	61d9      	str	r1, [r3, #28]
  14:	f240 4106 	movw	r1, #1030	; 0x406
  18:	f8c3 12f0 	str.w	r1, [r3, #752]	; 0x2f0
  1c:	2101      	movs	r1, #1
  1e:	f8c3 22f4 	str.w	r2, [r3, #756]	; 0x2f4
  22:	f8c3 22f8 	str.w	r2, [r3, #760]	; 0x2f8
  26:	f8c3 22fc 	str.w	r2, [r3, #764]	; 0x2fc
  2a:	f8c3 20a0 	str.w	r2, [r3, #160]	; 0xa0
  2e:	f5a2 5280 	sub.w	r2, r2, #4096	; 0x1000
  32:	f8c3 40a4 	str.w	r4, [r3, #164]	; 0xa4
  36:	4002      	ands	r2, r0
  38:	f8c3 10b0 	str.w	r1, [r3, #176]	; 0xb0
  3c:	f3bf 8f4f 	dsb	sy
  40:	f502 5180 	add.w	r1, r2, #4096	; 0x1000
  44:	f102 0320 	add.w	r3, r2, #32
  48:	f04f 2ce0 	mov.w	ip, #3758153728	; 0xe000e000
  4c:	4299      	cmp	r1, r3
  4e:	bf34      	ite	cc
  50:	2101      	movcc	r1, #1
  52:	2180      	movcs	r1, #128	; 0x80
  54:	eb02 1141 	add.w	r1, r2, r1, lsl #5
  58:	428b      	cmp	r3, r1
  5a:	f8cc 2f5c 	str.w	r2, [ip, #3932]	; 0xf5c
  5e:	461a      	mov	r2, r3
  60:	f103 0320 	add.w	r3, r3, #32
  64:	d1f8      	bne.n	58 <eepromemu_flash_erase_sector+0x58>
  66:	f3bf 8f4f 	dsb	sy
  6a:	f3bf 8f6f 	isb	sy
  6e:	4a0e      	ldr	r2, [pc, #56]	; (a8 <eepromemu_flash_erase_sector+0xa8>)
  70:	6953      	ldr	r3, [r2, #20]
  72:	07d9      	lsls	r1, r3, #31
  74:	d5fc      	bpl.n	70 <eepromemu_flash_erase_sector+0x70>
  76:	2401      	movs	r4, #1
  78:	490d      	ldr	r1, [pc, #52]	; (b0 <eepromemu_flash_erase_sector+0xb0>)
  7a:	4b0e      	ldr	r3, [pc, #56]	; (b4 <eepromemu_flash_erase_sector+0xb4>)
  7c:	6154      	str	r4, [r2, #20]
  7e:	4003      	ands	r3, r0
  80:	f8c2 12f0 	str.w	r1, [r2, #752]	; 0x2f0
  84:	f44f 2070 	mov.w	r0, #983040	; 0xf0000
  88:	4907      	ldr	r1, [pc, #28]	; (a8 <eepromemu_flash_erase_sector+0xa8>)
  8a:	f8c2 30a0 	str.w	r3, [r2, #160]	; 0xa0
  8e:	f8c2 00a4 	str.w	r0, [r2, #164]	; 0xa4
  92:	f8c2 40b0 	str.w	r4, [r2, #176]	; 0xb0
  96:	694b      	ldr	r3, [r1, #20]
  98:	07db      	lsls	r3, r3, #31
  9a:	d5fc      	bpl.n	96 <eepromemu_flash_erase_sector+0x96>
  9c:	2301      	movs	r3, #1
  9e:	f85d 4b04 	ldr.w	r4, [sp], #4
  a2:	614b      	str	r3, [r1, #20]
  a4:	f7ff bffe 	b.w	0 <eepromemu_flash_erase_sector>
  a8:	402a8000 	.word	0x402a8000
  ac:	5af05af0 	.word	0x5af05af0
  b0:	08180420 	.word	0x08180420
  b4:	00fff000 	.word	0x00fff000

Disassembly of section .text.eeprom_write_byte:

00000000 <eeprom_write_byte>:
   0:	f241 03bb 	movw	r3, #4283	; 0x10bb
   4:	4298      	cmp	r0, r3
   6:	f200 8089 	bhi.w	11c <eeprom_write_byte+0x11c>
   a:	4b46      	ldr	r3, [pc, #280]	; (124 <eeprom_write_byte+0x124>)
   c:	e92d 47f0 	stmdb	sp!, {r4, r5, r6, r7, r8, r9, sl, lr}
  10:	781b      	ldrb	r3, [r3, #0]
  12:	b0c2      	sub	sp, #264	; 0x108
  14:	4605      	mov	r5, r0
  16:	4689      	mov	r9, r1
  18:	2b00      	cmp	r3, #0
  1a:	d07c      	beq.n	116 <eeprom_write_byte+0x116>
  1c:	08ab      	lsrs	r3, r5, #2
  1e:	4e42      	ldr	r6, [pc, #264]	; (128 <eeprom_write_byte+0x128>)
  20:	f005 0503 	and.w	r5, r5, #3
  24:	4f41      	ldr	r7, [pc, #260]	; (12c <eeprom_write_byte+0x12c>)
  26:	fba6 2603 	umull	r2, r6, r6, r3
  2a:	1b9a      	subs	r2, r3, r6
  2c:	eb06 0652 	add.w	r6, r6, r2, lsr #1
  30:	0976      	lsrs	r6, r6, #5
  32:	ea45 0586 	orr.w	r5, r5, r6, lsl #2
  36:	ebc6 1686 	rsb	r6, r6, r6, lsl #6
  3a:	1b9e      	subs	r6, r3, r6
  3c:	4b3c      	ldr	r3, [pc, #240]	; (130 <eeprom_write_byte+0x130>)
  3e:	f837 4016 	ldrh.w	r4, [r7, r6, lsl #1]
  42:	4433      	add	r3, r6
  44:	0060      	lsls	r0, r4, #1
  46:	ea4f 3803 	mov.w	r8, r3, lsl #12
  4a:	eb00 3003 	add.w	r0, r0, r3, lsl #12
  4e:	ebb0 3f03 	cmp.w	r0, r3, lsl #12
  52:	d964      	bls.n	11e <eeprom_write_byte+0x11e>
  54:	4643      	mov	r3, r8
  56:	f04f 0cff 	mov.w	ip, #255	; 0xff
  5a:	881a      	ldrh	r2, [r3, #0]
  5c:	3302      	adds	r3, #2
  5e:	b2d1      	uxtb	r1, r2
  60:	42a9      	cmp	r1, r5
  62:	bf08      	it	eq
  64:	ea4f 2c12 	moveq.w	ip, r2, lsr #8
  68:	4298      	cmp	r0, r3
  6a:	d8f6      	bhi.n	5a <eeprom_write_byte+0x5a>
  6c:	45e1      	cmp	r9, ip
  6e:	d041      	beq.n	f4 <eeprom_write_byte+0xf4>
  70:	f5b4 6f00 	cmp.w	r4, #2048	; 0x800
  74:	d341      	bcc.n	fa <eeprom_write_byte+0xfa>
  76:	ac02      	add	r4, sp, #8
  78:	f44f 7280 	mov.w	r2, #256	; 0x100
  7c:	21ff      	movs	r1, #255	; 0xff
  7e:	4620      	mov	r0, r4
  80:	f7ff fffe 	bl	0 <memset>
  84:	f508 5080 	add.w	r0, r8, #4096	; 0x1000
  88:	f108 0302 	add.w	r3, r8, #2
  8c:	4642      	mov	r2, r8
  8e:	4298      	cmp	r0, r3
  90:	bf34      	ite	cc
  92:	2001      	movcc	r0, #1
  94:	f44f 6000 	movcs.w	r0, #2048	; 0x800
  98:	eb08 0040 	add.w	r0, r8, r0, lsl #1
  9c:	4613      	mov	r3, r2
  9e:	3202      	adds	r2, #2
  a0:	881b      	ldrh	r3, [r3, #0]
  a2:	4282      	cmp	r2, r0
  a4:	b2d9      	uxtb	r1, r3
  a6:	ea4f 2313 	mov.w	r3, r3, lsr #8
  aa:	5463      	strb	r3, [r4, r1]
  ac:	d1f6      	bne.n	9c <eeprom_write_byte+0x9c>
  ae:	f804 9005 	strb.w	r9, [r4, r5]
  b2:	f10d 0907 	add.w	r9, sp, #7
  b6:	f20d 1a07 	addw	sl, sp, #263	; 0x107
  ba:	2500      	movs	r5, #0
  bc:	464c      	mov	r4, r9
  be:	4640      	mov	r0, r8
  c0:	f7ff fffe 	bl	0 <eeprom_write_byte>
  c4:	f814 cf01 	ldrb.w	ip, [r4, #1]!
  c8:	eb08 0045 	add.w	r0, r8, r5, lsl #1
  cc:	2202      	movs	r2, #2
  ce:	f10d 0106 	add.w	r1, sp, #6
  d2:	1e63      	subs	r3, r4, #1
  d4:	f1bc 0fff 	cmp.w	ip, #255	; 0xff
  d8:	eba3 0309 	sub.w	r3, r3, r9
  dc:	d006      	beq.n	ec <eeprom_write_byte+0xec>
  de:	ea43 230c 	orr.w	r3, r3, ip, lsl #8
  e2:	3501      	adds	r5, #1
  e4:	f8ad 3006 	strh.w	r3, [sp, #6]
  e8:	f7ff fffe 	bl	0 <eeprom_write_byte>
  ec:	45a2      	cmp	sl, r4
  ee:	d1e9      	bne.n	c4 <eeprom_write_byte+0xc4>
  f0:	f827 5016 	strh.w	r5, [r7, r6, lsl #1]
  f4:	b042      	add	sp, #264	; 0x108
  f6:	e8bd 87f0 	ldmia.w	sp!, {r4, r5, r6, r7, r8, r9, sl, pc}
  fa:	ea45 2509 	orr.w	r5, r5, r9, lsl #8
  fe:	a902      	add	r1, sp, #8
 100:	2202      	movs	r2, #2
 102:	3401      	adds	r4, #1
 104:	f8ad 5008 	strh.w	r5, [sp, #8]
 108:	f7ff fffe 	bl	0 <eeprom_write_byte>
 10c:	f827 4016 	strh.w	r4, [r7, r6, lsl #1]
 110:	b042      	add	sp, #264	; 0x108
 112:	e8bd 87f0 	ldmia.w	sp!, {r4, r5, r6, r7, r8, r9, sl, pc}
 116:	f7ff fffe 	bl	0 <eeprom_write_byte>
 11a:	e77f      	b.n	1c <eeprom_write_byte+0x1c>
 11c:	4770      	bx	lr
 11e:	f04f 0cff 	mov.w	ip, #255	; 0xff
 122:	e7a3      	b.n	6c <eeprom_write_byte+0x6c>
 124:	00000000 	.word	0x00000000
 128:	04104105 	.word	0x04104105
 12c:	00000000 	.word	0x00000000
 130:	000607c0 	.word	0x000607c0

Disassembly of section .text.eeprom_write_word:

00000000 <eeprom_write_word>:
   0:	b538      	push	{r3, r4, r5, lr}
   2:	460c      	mov	r4, r1
   4:	4605      	mov	r5, r0
   6:	b2c9      	uxtb	r1, r1
   8:	f7ff fffe 	bl	0 <eeprom_write_word>
   c:	1c68      	adds	r0, r5, #1
   e:	0a21      	lsrs	r1, r4, #8
  10:	e8bd 4038 	ldmia.w	sp!, {r3, r4, r5, lr}
  14:	f7ff bffe 	b.w	0 <eeprom_write_word>

Disassembly of section .text.eeprom_write_dword:

00000000 <eeprom_write_dword>:
   0:	b538      	push	{r3, r4, r5, lr}
   2:	460c      	mov	r4, r1
   4:	4605      	mov	r5, r0
   6:	b2c9      	uxtb	r1, r1
   8:	f7ff fffe 	bl	0 <eeprom_write_dword>
   c:	f3c4 2107 	ubfx	r1, r4, #8, #8
  10:	1c68      	adds	r0, r5, #1
  12:	f7ff fffe 	bl	0 <eeprom_write_dword>
  16:	f3c4 4107 	ubfx	r1, r4, #16, #8
  1a:	1ca8      	adds	r0, r5, #2
  1c:	f7ff fffe 	bl	0 <eeprom_write_dword>
  20:	1ce8      	adds	r0, r5, #3
  22:	0e21      	lsrs	r1, r4, #24
  24:	e8bd 4038 	ldmia.w	sp!, {r3, r4, r5, lr}
  28:	f7ff bffe 	b.w	0 <eeprom_write_dword>

Disassembly of section .text.eeprom_write_block:

00000000 <eeprom_write_block>:
   0:	b162      	cbz	r2, 1c <eeprom_write_block+0x1c>
   2:	b570      	push	{r4, r5, r6, lr}
   4:	4605      	mov	r5, r0
   6:	460c      	mov	r4, r1
   8:	188e      	adds	r6, r1, r2
   a:	4620      	mov	r0, r4
   c:	3401      	adds	r4, #1
   e:	f815 1b01 	ldrb.w	r1, [r5], #1
  12:	f7ff fffe 	bl	0 <eeprom_write_block>
  16:	42b4      	cmp	r4, r6
  18:	d1f7      	bne.n	a <eeprom_write_block+0xa>
  1a:	bd70      	pop	{r4, r5, r6, pc}
  1c:	4770      	bx	lr
  1e:	bf00      	nop

Disassembly of section .text.eepromemu_flash_erase_32K_block:

00000000 <eepromemu_flash_erase_32K_block>:
   0:	b410      	push	{r4}
   2:	b672      	cpsid	i
   4:	4b29      	ldr	r3, [pc, #164]	; (ac <eepromemu_flash_erase_32K_block+0xac>)
   6:	2102      	movs	r1, #2
   8:	4c29      	ldr	r4, [pc, #164]	; (b0 <eepromemu_flash_erase_32K_block+0xb0>)
   a:	2200      	movs	r2, #0
   c:	619c      	str	r4, [r3, #24]
   e:	f44f 2470 	mov.w	r4, #983040	; 0xf0000
  12:	61d9      	str	r1, [r3, #28]
  14:	f240 4106 	movw	r1, #1030	; 0x406
  18:	f8c3 12f0 	str.w	r1, [r3, #752]	; 0x2f0
  1c:	2101      	movs	r1, #1
  1e:	f8c3 22f4 	str.w	r2, [r3, #756]	; 0x2f4
  22:	f8c3 22f8 	str.w	r2, [r3, #760]	; 0x2f8
  26:	f8c3 22fc 	str.w	r2, [r3, #764]	; 0x2fc
  2a:	f8c3 20a0 	str.w	r2, [r3, #160]	; 0xa0
  2e:	f5a2 4200 	sub.w	r2, r2, #32768	; 0x8000
  32:	f8c3 40a4 	str.w	r4, [r3, #164]	; 0xa4
  36:	4002      	ands	r2, r0
  38:	f8c3 10b0 	str.w	r1, [r3, #176]	; 0xb0
  3c:	f3bf 8f4f 	dsb	sy
  40:	f502 4100 	add.w	r1, r2, #32768	; 0x8000
  44:	f102 0320 	add.w	r3, r2, #32
  48:	f04f 2ce0 	mov.w	ip, #3758153728	; 0xe000e000
  4c:	4299      	cmp	r1, r3
  4e:	bf34      	ite	cc
  50:	2101      	movcc	r1, #1
  52:	f44f 6180 	movcs.w	r1, #1024	; 0x400
  56:	eb02 1141 	add.w	r1, r2, r1, lsl #5
  5a:	428b      	cmp	r3, r1
  5c:	f8cc 2f5c 	str.w	r2, [ip, #3932]	; 0xf5c
  60:	461a      	mov	r2, r3
  62:	f103 0320 	add.w	r3, r3, #32
  66:	d1f8      	bne.n	5a <eepromemu_flash_erase_32K_block+0x5a>
  68:	f3bf 8f4f 	dsb	sy
  6c:	f3bf 8f6f 	isb	sy
  70:	4a0e      	ldr	r2, [pc, #56]	; (ac <eepromemu_flash_erase_32K_block+0xac>)
  72:	6953      	ldr	r3, [r2, #20]
  74:	07d9      	lsls	r1, r3, #31
  76:	d5fc      	bpl.n	72 <eepromemu_flash_erase_32K_block+0x72>
  78:	2401      	movs	r4, #1
  7a:	490e      	ldr	r1, [pc, #56]	; (b4 <eepromemu_flash_erase_32K_block+0xb4>)
  7c:	4b0e      	ldr	r3, [pc, #56]	; (b8 <eepromemu_flash_erase_32K_block+0xb8>)
  7e:	6154      	str	r4, [r2, #20]
  80:	4003      	ands	r3, r0
  82:	f8c2 12f0 	str.w	r1, [r2, #752]	; 0x2f0
  86:	f44f 2070 	mov.w	r0, #983040	; 0xf0000
  8a:	4908      	ldr	r1, [pc, #32]	; (ac <eepromemu_flash_erase_32K_block+0xac>)
  8c:	f8c2 30a0 	str.w	r3, [r2, #160]	; 0xa0
  90:	f8c2 00a4 	str.w	r0, [r2, #164]	; 0xa4
  94:	f8c2 40b0 	str.w	r4, [r2, #176]	; 0xb0
  98:	694b      	ldr	r3, [r1, #20]
  9a:	07db      	lsls	r3, r3, #31
  9c:	d5fc      	bpl.n	98 <eepromemu_flash_erase_32K_block+0x98>
  9e:	2301      	movs	r3, #1
  a0:	f85d 4b04 	ldr.w	r4, [sp], #4
  a4:	614b      	str	r3, [r1, #20]
  a6:	f7ff bffe 	b.w	0 <eepromemu_flash_erase_32K_block>
  aa:	bf00      	nop
  ac:	402a8000 	.word	0x402a8000
  b0:	5af05af0 	.word	0x5af05af0
  b4:	08180452 	.word	0x08180452
  b8:	00ff8000 	.word	0x00ff8000

Disassembly of section .text.eepromemu_flash_erase_64K_block:

00000000 <eepromemu_flash_erase_64K_block>:
   0:	b410      	push	{r4}
   2:	b672      	cpsid	i
   4:	4b29      	ldr	r3, [pc, #164]	; (ac <eepromemu_flash_erase_64K_block+0xac>)
   6:	2102      	movs	r1, #2
   8:	4c29      	ldr	r4, [pc, #164]	; (b0 <eepromemu_flash_erase_64K_block+0xb0>)
   a:	2200      	movs	r2, #0
   c:	619c      	str	r4, [r3, #24]
   e:	f44f 2470 	mov.w	r4, #983040	; 0xf0000
  12:	61d9      	str	r1, [r3, #28]
  14:	f240 4106 	movw	r1, #1030	; 0x406
  18:	f8c3 12f0 	str.w	r1, [r3, #752]	; 0x2f0
  1c:	2101      	movs	r1, #1
  1e:	f8c3 22f4 	str.w	r2, [r3, #756]	; 0x2f4
  22:	f8c3 22f8 	str.w	r2, [r3, #760]	; 0x2f8
  26:	f8c3 22fc 	str.w	r2, [r3, #764]	; 0x2fc
  2a:	f8c3 20a0 	str.w	r2, [r3, #160]	; 0xa0
  2e:	f5a2 3280 	sub.w	r2, r2, #65536	; 0x10000
  32:	f8c3 40a4 	str.w	r4, [r3, #164]	; 0xa4
  36:	4002      	ands	r2, r0
  38:	f8c3 10b0 	str.w	r1, [r3, #176]	; 0xb0
  3c:	f3bf 8f4f 	dsb	sy
  40:	f502 3180 	add.w	r1, r2, #65536	; 0x10000
  44:	f102 0320 	add.w	r3, r2, #32
  48:	f04f 2ce0 	mov.w	ip, #3758153728	; 0xe000e000
  4c:	4299      	cmp	r1, r3
  4e:	bf34      	ite	cc
  50:	2101      	movcc	r1, #1
  52:	f44f 6100 	movcs.w	r1, #2048	; 0x800
  56:	eb02 1141 	add.w	r1, r2, r1, lsl #5
  5a:	428b      	cmp	r3, r1
  5c:	f8cc 2f5c 	str.w	r2, [ip, #3932]	; 0xf5c
  60:	461a      	mov	r2, r3
  62:	f103 0320 	add.w	r3, r3, #32
  66:	d1f8      	bne.n	5a <eepromemu_flash_erase_64K_block+0x5a>
  68:	f3bf 8f4f 	dsb	sy
  6c:	f3bf 8f6f 	isb	sy
  70:	4a0e      	ldr	r2, [pc, #56]	; (ac <eepromemu_flash_erase_64K_block+0xac>)
  72:	6953      	ldr	r3, [r2, #20]
  74:	07d9      	lsls	r1, r3, #31
  76:	d5fc      	bpl.n	72 <eepromemu_flash_erase_64K_block+0x72>
  78:	2301      	movs	r3, #1
  7a:	490e      	ldr	r1, [pc, #56]	; (b4 <eepromemu_flash_erase_64K_block+0xb4>)
  7c:	f400 007f 	and.w	r0, r0, #16711680	; 0xff0000
  80:	f44f 2470 	mov.w	r4, #983040	; 0xf0000
  84:	6153      	str	r3, [r2, #20]
  86:	f8c2 12f0 	str.w	r1, [r2, #752]	; 0x2f0
  8a:	4908      	ldr	r1, [pc, #32]	; (ac <eepromemu_flash_erase_64K_block+0xac>)
  8c:	f8c2 00a0 	str.w	r0, [r2, #160]	; 0xa0
  90:	f8c2 40a4 	str.w	r4, [r2, #164]	; 0xa4
  94:	f8c2 30b0 	str.w	r3, [r2, #176]	; 0xb0
  98:	694b      	ldr	r3, [r1, #20]
  9a:	07db      	lsls	r3, r3, #31
  9c:	d5fc      	bpl.n	98 <eepromemu_flash_erase_64K_block+0x98>
  9e:	2301      	movs	r3, #1
  a0:	f85d 4b04 	ldr.w	r4, [sp], #4
  a4:	614b      	str	r3, [r1, #20]
  a6:	f7ff bffe 	b.w	0 <eepromemu_flash_erase_64K_block>
  aa:	bf00      	nop
  ac:	402a8000 	.word	0x402a8000
  b0:	5af05af0 	.word	0x5af05af0
  b4:	081804d8 	.word	0x081804d8
