
build/./teensy4/extmem.c.o:     file format elf32-littlearm

SYMBOL TABLE:
00000000 l    df *ABS*	00000000 extmem.c
00000000 l    d  .text	00000000 .text
00000000 l    d  .data	00000000 .data
00000000 l    d  .bss	00000000 .bss
00000000 l    d  .text.extmem_malloc	00000000 .text.extmem_malloc
00000000 l    d  .text.extmem_free	00000000 .text.extmem_free
00000000 l    d  .text.extmem_calloc	00000000 .text.extmem_calloc
00000000 l    d  .text.extmem_realloc	00000000 .text.extmem_realloc
00000000 l    d  .comment	00000000 .comment
00000000 l    d  .ARM.attributes	00000000 .ARM.attributes
00000000 g     F .text.extmem_malloc	00000020 extmem_malloc
00000000         *UND*	00000000 sm_malloc_pool
00000000         *UND*	00000000 malloc
00000000         *UND*	00000000 extmem_smalloc_pool
00000000 g     F .text.extmem_free	00000018 extmem_free
00000000         *UND*	00000000 free
00000000         *UND*	00000000 sm_free_pool
00000000 g     F .text.extmem_calloc	00000024 extmem_calloc
00000000         *UND*	00000000 calloc
00000000 g     F .text.extmem_realloc	0000001c extmem_realloc
00000000         *UND*	00000000 realloc
00000000         *UND*	00000000 sm_realloc_pool


Contents of section .text.extmem_malloc:
 0000 10b50446 05482146 fff7feff 00b110bd  ...F.H!F........
 0010 2046bde8 1040fff7 febf00bf 00000000   F...@..........
Contents of section .text.extmem_free:
 0000 030f0146 072b01d0 fff7febf 0148fff7  ...F.+.......H..
 0010 febf00bf 00000000                    ........        
Contents of section .text.extmem_calloc:
 0000 38b50446 0d460648 01fb04f1 fff7feff  8..F.F.H........
 0010 00b138bd 29462046 bde83840 fff7febf  ..8.)F F..8@....
 0020 00000000                             ....            
Contents of section .text.extmem_realloc:
 0000 4fea107c 0a46bcf1 070f01d0 fff7febf  O..|.F..........
 0010 01460148 fff7febf 00000000           .F.H........    
Contents of section .comment:
 0000 00474343 3a202841 726d2047 4e552054  .GCC: (Arm GNU T
 0010 6f6f6c63 6861696e 2031312e 332e5265  oolchain 11.3.Re
 0020 6c312920 31312e33 2e312032 30323230  l1) 11.3.1 20220
 0030 37313200                             712.            
Contents of section .ARM.attributes:
 0000 41310000 00616561 62690001 27000000  A1...aeabi..'...
 0010 0537452d 4d00060d 074d0902 0a081204  .7E-M....M......
 0020 14011501 17031801 19011a01 1c011e02  ................
 0030 2201                                 ".              

Disassembly of section .text.extmem_malloc:

00000000 <extmem_malloc>:
   0:	b510      	push	{r4, lr}
   2:	4604      	mov	r4, r0
   4:	4805      	ldr	r0, [pc, #20]	; (1c <extmem_malloc+0x1c>)
   6:	4621      	mov	r1, r4
   8:	f7ff fffe 	bl	0 <sm_malloc_pool>
   c:	b100      	cbz	r0, 10 <extmem_malloc+0x10>
   e:	bd10      	pop	{r4, pc}
  10:	4620      	mov	r0, r4
  12:	e8bd 4010 	ldmia.w	sp!, {r4, lr}
  16:	f7ff bffe 	b.w	0 <malloc>
  1a:	bf00      	nop
  1c:	00000000 	.word	0x00000000

Disassembly of section .text.extmem_free:

00000000 <extmem_free>:
   0:	0f03      	lsrs	r3, r0, #28
   2:	4601      	mov	r1, r0
   4:	2b07      	cmp	r3, #7
   6:	d001      	beq.n	c <extmem_free+0xc>
   8:	f7ff bffe 	b.w	0 <free>
   c:	4801      	ldr	r0, [pc, #4]	; (14 <extmem_free+0x14>)
   e:	f7ff bffe 	b.w	0 <sm_free_pool>
  12:	bf00      	nop
  14:	00000000 	.word	0x00000000

Disassembly of section .text.extmem_calloc:

00000000 <extmem_calloc>:
   0:	b538      	push	{r3, r4, r5, lr}
   2:	4604      	mov	r4, r0
   4:	460d      	mov	r5, r1
   6:	4806      	ldr	r0, [pc, #24]	; (20 <extmem_calloc+0x20>)
   8:	fb01 f104 	mul.w	r1, r1, r4
   c:	f7ff fffe 	bl	0 <sm_malloc_pool>
  10:	b100      	cbz	r0, 14 <extmem_calloc+0x14>
  12:	bd38      	pop	{r3, r4, r5, pc}
  14:	4629      	mov	r1, r5
  16:	4620      	mov	r0, r4
  18:	e8bd 4038 	ldmia.w	sp!, {r3, r4, r5, lr}
  1c:	f7ff bffe 	b.w	0 <calloc>
  20:	00000000 	.word	0x00000000

Disassembly of section .text.extmem_realloc:

00000000 <extmem_realloc>:
   0:	ea4f 7c10 	mov.w	ip, r0, lsr #28
   4:	460a      	mov	r2, r1
   6:	f1bc 0f07 	cmp.w	ip, #7
   a:	d001      	beq.n	10 <extmem_realloc+0x10>
   c:	f7ff bffe 	b.w	0 <realloc>
  10:	4601      	mov	r1, r0
  12:	4801      	ldr	r0, [pc, #4]	; (18 <extmem_realloc+0x18>)
  14:	f7ff bffe 	b.w	0 <sm_realloc_pool>
  18:	00000000 	.word	0x00000000
