
build/./teensy4/fuse.c.o:     file format elf32-littlearm

SYMBOL TABLE:
00000000 l    df *ABS*	00000000 fuse.c
00000000 l    d  .text	00000000 .text
00000000 l    d  .data	00000000 .data
00000000 l    d  .bss	00000000 .bss
00000000 l    d  .text.IMXRTfuseRead	00000000 .text.IMXRTfuseRead
00000000 l    d  .text.IMXRTfuseWrite	00000000 .text.IMXRTfuseWrite
00000000 l    d  .text.IMXRTfuseReload	00000000 .text.IMXRTfuseReload
00000000 l    d  .comment	00000000 .comment
00000000 l    d  .ARM.attributes	00000000 .ARM.attributes
00000000 g     F .text.IMXRTfuseRead	00000044 IMXRTfuseRead
00000000 g     F .text.IMXRTfuseWrite	0000008c IMXRTfuseWrite
00000000         *UND*	00000000 F_CPU_ACTUAL
00000000 g     F .text.IMXRTfuseReload	00000024 IMXRTfuseReload


Contents of section .text.IMXRTfuseRead:
 0000 10f00f02 17d10d4b 0344b3f5 407f4fea  .......K.D..@.O.
 0010 13110ed2 0a4b1a68 920502d5 4ff40072  .....K.h....O..r
 0020 9a60074a 01231160 13631368 db05fcd4  .`.J.#.`.c.h....
 0030 126c1046 70470022 10467047 00bce0bf  .l.FpG.".FpG....
 0040 00401f40                             .@.@            
Contents of section .text.IMXRTfuseWrite:
 0000 020700d0 704738b5 0d460446 fff7feff  ....pG8..F.F....
 0010 35ea0000 23d0174b 2344b3f5 407f4fea  5...#..K#D..@.O.
 0020 13111cd2 144b1a68 900519d4 134b124a  .....K.h.....K.J
 0030 0b431360 15621368 d905fcd4 1049114a  .C.`.b.h.....I.J
 0040 114b4868 1268a3fb 0232920c 52004b68  .KHh.h...2..R.Kh
 0050 1b1a9a42 fbd8084b 1b689b05 04d538bd  ...B...K.h....8.
 0060 4ff40072 9a60e1e7 2046fff7 feff2060  O..r.`.. F.... `
 0070 38bd00bf 00bce0bf 00401f40 0000773e  8........@.@..w>
 0080 001000e0 00000000 83de1b43           ...........C    
Contents of section .text.IMXRTfuseReload:
 0000 074b1a68 920502d5 4ff40072 9a60044a  .K.h....O..r.`.J
 0010 4ff48063 13601368 13f4a06f fbd17047  O..c.`.h...o..pG
 0020 00401f40                             .@.@            
Contents of section .comment:
 0000 00474343 3a202841 726d2047 4e552054  .GCC: (Arm GNU T
 0010 6f6f6c63 6861696e 2031312e 332e5265  oolchain 11.3.Re
 0020 6c312920 31312e33 2e312032 30323230  l1) 11.3.1 20220
 0030 37313200                             712.            
Contents of section .ARM.attributes:
 0000 41310000 00616561 62690001 27000000  A1...aeabi..'...
 0010 0537452d 4d00060d 074d0902 0a081204  .7E-M....M......
 0020 14011501 17031801 19011a01 1c011e02  ................
 0030 2201                                 ".              

Disassembly of section .text.IMXRTfuseRead:

00000000 <IMXRTfuseRead>:
   0:	f010 020f 	ands.w	r2, r0, #15
   4:	d117      	bne.n	36 <IMXRTfuseRead+0x36>
   6:	4b0d      	ldr	r3, [pc, #52]	; (3c <IMXRTfuseRead+0x3c>)
   8:	4403      	add	r3, r0
   a:	f5b3 7f40 	cmp.w	r3, #768	; 0x300
   e:	ea4f 1113 	mov.w	r1, r3, lsr #4
  12:	d20e      	bcs.n	32 <IMXRTfuseRead+0x32>
  14:	4b0a      	ldr	r3, [pc, #40]	; (40 <IMXRTfuseRead+0x40>)
  16:	681a      	ldr	r2, [r3, #0]
  18:	0592      	lsls	r2, r2, #22
  1a:	d502      	bpl.n	22 <IMXRTfuseRead+0x22>
  1c:	f44f 7200 	mov.w	r2, #512	; 0x200
  20:	609a      	str	r2, [r3, #8]
  22:	4a07      	ldr	r2, [pc, #28]	; (40 <IMXRTfuseRead+0x40>)
  24:	2301      	movs	r3, #1
  26:	6011      	str	r1, [r2, #0]
  28:	6313      	str	r3, [r2, #48]	; 0x30
  2a:	6813      	ldr	r3, [r2, #0]
  2c:	05db      	lsls	r3, r3, #23
  2e:	d4fc      	bmi.n	2a <IMXRTfuseRead+0x2a>
  30:	6c12      	ldr	r2, [r2, #64]	; 0x40
  32:	4610      	mov	r0, r2
  34:	4770      	bx	lr
  36:	2200      	movs	r2, #0
  38:	4610      	mov	r0, r2
  3a:	4770      	bx	lr
  3c:	bfe0bc00 	.word	0xbfe0bc00
  40:	401f4000 	.word	0x401f4000

Disassembly of section .text.IMXRTfuseWrite:

00000000 <IMXRTfuseWrite>:
   0:	0702      	lsls	r2, r0, #28
   2:	d000      	beq.n	6 <IMXRTfuseWrite+0x6>
   4:	4770      	bx	lr
   6:	b538      	push	{r3, r4, r5, lr}
   8:	460d      	mov	r5, r1
   a:	4604      	mov	r4, r0
   c:	f7ff fffe 	bl	0 <IMXRTfuseWrite>
  10:	ea35 0000 	bics.w	r0, r5, r0
  14:	d023      	beq.n	5e <IMXRTfuseWrite+0x5e>
  16:	4b17      	ldr	r3, [pc, #92]	; (74 <IMXRTfuseWrite+0x74>)
  18:	4423      	add	r3, r4
  1a:	f5b3 7f40 	cmp.w	r3, #768	; 0x300
  1e:	ea4f 1113 	mov.w	r1, r3, lsr #4
  22:	d21c      	bcs.n	5e <IMXRTfuseWrite+0x5e>
  24:	4b14      	ldr	r3, [pc, #80]	; (78 <IMXRTfuseWrite+0x78>)
  26:	681a      	ldr	r2, [r3, #0]
  28:	0590      	lsls	r0, r2, #22
  2a:	d419      	bmi.n	60 <IMXRTfuseWrite+0x60>
  2c:	4b13      	ldr	r3, [pc, #76]	; (7c <IMXRTfuseWrite+0x7c>)
  2e:	4a12      	ldr	r2, [pc, #72]	; (78 <IMXRTfuseWrite+0x78>)
  30:	430b      	orrs	r3, r1
  32:	6013      	str	r3, [r2, #0]
  34:	6215      	str	r5, [r2, #32]
  36:	6813      	ldr	r3, [r2, #0]
  38:	05d9      	lsls	r1, r3, #23
  3a:	d4fc      	bmi.n	36 <IMXRTfuseWrite+0x36>
  3c:	4910      	ldr	r1, [pc, #64]	; (80 <IMXRTfuseWrite+0x80>)
  3e:	4a11      	ldr	r2, [pc, #68]	; (84 <IMXRTfuseWrite+0x84>)
  40:	4b11      	ldr	r3, [pc, #68]	; (88 <IMXRTfuseWrite+0x88>)
  42:	6848      	ldr	r0, [r1, #4]
  44:	6812      	ldr	r2, [r2, #0]
  46:	fba3 3202 	umull	r3, r2, r3, r2
  4a:	0c92      	lsrs	r2, r2, #18
  4c:	0052      	lsls	r2, r2, #1
  4e:	684b      	ldr	r3, [r1, #4]
  50:	1a1b      	subs	r3, r3, r0
  52:	429a      	cmp	r2, r3
  54:	d8fb      	bhi.n	4e <IMXRTfuseWrite+0x4e>
  56:	4b08      	ldr	r3, [pc, #32]	; (78 <IMXRTfuseWrite+0x78>)
  58:	681b      	ldr	r3, [r3, #0]
  5a:	059b      	lsls	r3, r3, #22
  5c:	d504      	bpl.n	68 <IMXRTfuseWrite+0x68>
  5e:	bd38      	pop	{r3, r4, r5, pc}
  60:	f44f 7200 	mov.w	r2, #512	; 0x200
  64:	609a      	str	r2, [r3, #8]
  66:	e7e1      	b.n	2c <IMXRTfuseWrite+0x2c>
  68:	4620      	mov	r0, r4
  6a:	f7ff fffe 	bl	0 <IMXRTfuseWrite>
  6e:	6020      	str	r0, [r4, #0]
  70:	bd38      	pop	{r3, r4, r5, pc}
  72:	bf00      	nop
  74:	bfe0bc00 	.word	0xbfe0bc00
  78:	401f4000 	.word	0x401f4000
  7c:	3e770000 	.word	0x3e770000
  80:	e0001000 	.word	0xe0001000
  84:	00000000 	.word	0x00000000
  88:	431bde83 	.word	0x431bde83

Disassembly of section .text.IMXRTfuseReload:

00000000 <IMXRTfuseReload>:
   0:	4b07      	ldr	r3, [pc, #28]	; (20 <IMXRTfuseReload+0x20>)
   2:	681a      	ldr	r2, [r3, #0]
   4:	0592      	lsls	r2, r2, #22
   6:	d502      	bpl.n	e <IMXRTfuseReload+0xe>
   8:	f44f 7200 	mov.w	r2, #512	; 0x200
   c:	609a      	str	r2, [r3, #8]
   e:	4a04      	ldr	r2, [pc, #16]	; (20 <IMXRTfuseReload+0x20>)
  10:	f44f 6380 	mov.w	r3, #1024	; 0x400
  14:	6013      	str	r3, [r2, #0]
  16:	6813      	ldr	r3, [r2, #0]
  18:	f413 6fa0 	tst.w	r3, #1280	; 0x500
  1c:	d1fb      	bne.n	16 <IMXRTfuseReload+0x16>
  1e:	4770      	bx	lr
  20:	401f4000 	.word	0x401f4000
