
build/./teensy4/HardwareSerial.cpp.o:     file format elf32-littlearm

SYMBOL TABLE:
00000000 l    df *ABS*	00000000 HardwareSerial.cpp
00000000 l    d  .text	00000000 .text
00000000 l    d  .data	00000000 .data
00000000 l    d  .bss	00000000 .bss
00000000 l    d  .text._ZN19HardwareSerialIMXRTcvbEv	00000000 .text._ZN19HardwareSerialIMXRTcvbEv
00000000 l    d  .text._ZN19HardwareSerialIMXRT17availableForWriteEv	00000000 .text._ZN19HardwareSerialIMXRT17availableForWriteEv
00000000 l    d  .text._ZN19HardwareSerialIMXRT9availableEv	00000000 .text._ZN19HardwareSerialIMXRT9availableEv
00000000 l    d  .text._ZN19HardwareSerialIMXRT4peekEv	00000000 .text._ZN19HardwareSerialIMXRT4peekEv
00000000 l    d  .text._ZN19HardwareSerialIMXRT4readEv	00000000 .text._ZN19HardwareSerialIMXRT4readEv
00000000 l    d  .text._ZN19HardwareSerialIMXRT5flushEv	00000000 .text._ZN19HardwareSerialIMXRT5flushEv
00000000 l    d  .text._ZN19HardwareSerialIMXRT3endEv	00000000 .text._ZN19HardwareSerialIMXRT3endEv
00000000 l    d  .text._ZN19HardwareSerialIMXRT5beginEmt	00000000 .text._ZN19HardwareSerialIMXRT5beginEmt
00000000 l    d  .text._Z23nvic_execution_priorityv	00000000 .text._Z23nvic_execution_priorityv
00000000 l    d  .text._ZN19HardwareSerialIMXRT17transmitterEnableEh	00000000 .text._ZN19HardwareSerialIMXRT17transmitterEnableEh
00000000 l    d  .text._ZN19HardwareSerialIMXRT5setRXEh	00000000 .text._ZN19HardwareSerialIMXRT5setRXEh
00000000 l    d  .text._ZN19HardwareSerialIMXRT5setTXEhb	00000000 .text._ZN19HardwareSerialIMXRT5setTXEhb
00000000 l    d  .text._ZN19HardwareSerialIMXRT9attachRtsEh	00000000 .text._ZN19HardwareSerialIMXRT9attachRtsEh
00000000 l    d  .text._ZN19HardwareSerialIMXRT9attachCtsEh	00000000 .text._ZN19HardwareSerialIMXRT9attachCtsEh
00000000 l    d  .text._ZN19HardwareSerialIMXRT5clearEv	00000000 .text._ZN19HardwareSerialIMXRT5clearEv
00000000 l    d  .text._ZN19HardwareSerialIMXRT16addMemoryForReadEPvj	00000000 .text._ZN19HardwareSerialIMXRT16addMemoryForReadEPvj
00000000 l    d  .text._ZN19HardwareSerialIMXRT17addMemoryForWriteEPvj	00000000 .text._ZN19HardwareSerialIMXRT17addMemoryForWriteEPvj
00000000 l    d  .text._ZN19HardwareSerialIMXRT9write9bitEm	00000000 .text._ZN19HardwareSerialIMXRT9write9bitEm
00000000 l    d  .text._ZN19HardwareSerialIMXRT5writeEh	00000000 .text._ZN19HardwareSerialIMXRT5writeEh
00000000 l    d  .text._ZN19HardwareSerialIMXRT10IRQHandlerEv	00000000 .text._ZN19HardwareSerialIMXRT10IRQHandlerEv
00000000 l    d  .text._ZN19HardwareSerialIMXRT21addToSerialEventsListEv	00000000 .text._ZN19HardwareSerialIMXRT21addToSerialEventsListEv
00000000 l    d  .bss._ZN19HardwareSerialIMXRT28s_serials_with_serial_eventsE	00000000 .bss._ZN19HardwareSerialIMXRT28s_serials_with_serial_eventsE
00000000 l    d  .bss._ZN19HardwareSerialIMXRT34s_count_serials_with_serial_eventsE	00000000 .bss._ZN19HardwareSerialIMXRT34s_count_serials_with_serial_eventsE
00000000 l    d  .progmem	00000000 .progmem
00000000 l    d  .rodata._ZTV19HardwareSerialIMXRT	00000000 .rodata._ZTV19HardwareSerialIMXRT
00000000 l    d  .comment	00000000 .comment
00000000 l    d  .ARM.attributes	00000000 .ARM.attributes
00000000 l    d  .group	00000000 .group
00000000  w    F .text._ZN19HardwareSerialIMXRTcvbEv	00000004 _ZN19HardwareSerialIMXRTcvbEv
00000000 g     F .text._ZN19HardwareSerialIMXRT17availableForWriteEv	00000020 _ZN19HardwareSerialIMXRT17availableForWriteEv
00000000 g     F .text._ZN19HardwareSerialIMXRT9availableEv	00000026 _ZN19HardwareSerialIMXRT9availableEv
00000000 g     F .text._ZN19HardwareSerialIMXRT4peekEv	0000007a _ZN19HardwareSerialIMXRT4peekEv
00000000 g     F .text._ZN19HardwareSerialIMXRT4readEv	00000092 _ZN19HardwareSerialIMXRT4readEv
00000000 g     F .text._ZN19HardwareSerialIMXRT5flushEv	0000001a _ZN19HardwareSerialIMXRT5flushEv
00000000         *UND*	00000000 yield
00000000 g     F .text._ZN19HardwareSerialIMXRT3endEv	00000068 _ZN19HardwareSerialIMXRT3endEv
00000000         *UND*	00000000 digital_pin_to_info_PGM
00000000 g     F .text._ZN19HardwareSerialIMXRT5beginEmt	0000029c _ZN19HardwareSerialIMXRT5beginEmt
00000000         *UND*	00000000 _VectorsRam
00000000         *UND*	00000000 yield_active_check_flags
00000000 g     F .text._Z23nvic_execution_priorityv	00000040 _Z23nvic_execution_priorityv
00000000 g     F .text._ZN19HardwareSerialIMXRT17transmitterEnableEh	00000030 _ZN19HardwareSerialIMXRT17transmitterEnableEh
00000000         *UND*	00000000 pinMode
00000000 g     F .text._ZN19HardwareSerialIMXRT5setRXEh	000000cc _ZN19HardwareSerialIMXRT5setRXEh
00000000         *UND*	00000000 xbar_connect
00000000 g     F .text._ZN19HardwareSerialIMXRT5setTXEhb	00000088 _ZN19HardwareSerialIMXRT5setTXEhb
00000000 g     F .text._ZN19HardwareSerialIMXRT9attachRtsEh	0000004c _ZN19HardwareSerialIMXRT9attachRtsEh
00000000 g     F .text._ZN19HardwareSerialIMXRT9attachCtsEh	000000b4 _ZN19HardwareSerialIMXRT9attachCtsEh
00000000 g     F .text._ZN19HardwareSerialIMXRT5clearEv	00000016 _ZN19HardwareSerialIMXRT5clearEv
00000000 g     F .text._ZN19HardwareSerialIMXRT16addMemoryForReadEPvj	00000032 _ZN19HardwareSerialIMXRT16addMemoryForReadEPvj
00000000 g     F .text._ZN19HardwareSerialIMXRT17addMemoryForWriteEPvj	0000001a _ZN19HardwareSerialIMXRT17addMemoryForWriteEPvj
00000000 g     F .text._ZN19HardwareSerialIMXRT9write9bitEm	000000dc _ZN19HardwareSerialIMXRT9write9bitEm
00000000 g     F .text._ZN19HardwareSerialIMXRT5writeEh	00000004 _ZN19HardwareSerialIMXRT5writeEh
00000000 g     F .text._ZN19HardwareSerialIMXRT10IRQHandlerEv	0000014a _ZN19HardwareSerialIMXRT10IRQHandlerEv
00000000 g     F .text._ZN19HardwareSerialIMXRT21addToSerialEventsListEv	00000050 _ZN19HardwareSerialIMXRT21addToSerialEventsListEv
00000000 g     O .rodata._ZTV19HardwareSerialIMXRT	00000030 _ZTV19HardwareSerialIMXRT
00000140 g     O .progmem	00000001 count_pin_to_xbar_info
00000000 g     O .progmem	00000140 pin_to_xbar_info
00000000 g     O .bss._ZN19HardwareSerialIMXRT34s_count_serials_with_serial_eventsE	00000001 _ZN19HardwareSerialIMXRT34s_count_serials_with_serial_eventsE
00000000 g     O .bss._ZN19HardwareSerialIMXRT28s_serials_with_serial_eventsE	00000020 _ZN19HardwareSerialIMXRT28s_serials_with_serial_eventsE
00000000         *UND*	00000000 _ZN5Print5writeEPKhj


Contents of section .group:
 0000 01000000 05000000                    ........        
Contents of section .text._ZN19HardwareSerialIMXRTcvbEv:
 0000 01207047                             . pG            
Contents of section .text._ZN19HardwareSerialIMXRT17availableForWriteEv:
 0000 b0f84630 b0f84820 9bb292b2 934202d2  ..F0..H .....B..
 0010 013ad01a 7047416b 01390a44 d01a7047  .:..pGAk.9.D..pG
Contents of section .text._ZN19HardwareSerialIMXRT9availableEv:
 0000 016972b6 b0f84a20 b0f84c30 92b29bb2  .ir...J ..L0....
 0010 9a423cbf 806b1218 c86ad31a 62b6c0f3  .B<..k...j..b...
 0020 02601844 704700bf                    .`.DpG..        
Contents of section .text._ZN19HardwareSerialIMXRT4peekEv:
 0000 b0f84a10 0246b0f8 4c3089b2 9bb29942  ..J..F..L0.....B
 0010 10b40469 14d00133 906b116b 984298bf  ...i...3.k.k.B..
 0020 00239942 06d85b1a 526ad05c c0b25df8  .#.B..[.Rj.\..].
 0030 044b7047 126a5df8 044bd05c c0b27047  .KpG.j]..K.\..pG
 0040 72b6b0f8 4a0080b2 814201d0 62b6e2e7  r...J....B..b...
 0050 e36a13f0 e06f03d1 4ff0ff30 62b6e6e7  .j...o..O..0b...
 0060 e3690120 0024116a a2f84a00 c3f30900  .i. .$.j..J.....
 0070 dbb2a2f8 4c404b70 f0e700bf           ....L@Kp....    
Contents of section .text._ZN19HardwareSerialIMXRT4readEv:
 0000 b0f84a10 0246b0f8 4c3089b2 9bb29942  ..J..F..L0.....B
 0010 30b40469 25d00133 946b9c42 16d9106b  0..i%..3.k.B...k
 0020 1ffa83fc 984217d9 106ac05c c0b2956d  .....B...j.\...m
 0030 a2f84cc0 45b19942 1cd3cb1a d16b9942  ..L.E..B.....k.B
 0040 02d3d36d c5f88830 30bc7047 4ff0000c  ...m...00.pGO...
 0050 106b6346 9842e7d8 181a556a 285cc0b2  .kcF.B....Uj(\..
 0060 e5e70846 72b6b2f8 4a1089b2 884204d0  ...Fr...J....B..
 0070 62b6d0e7 0c44e31a e0e7e36a 13f0e06f  b....D.....j...o
 0080 03d14ff0 ff3062b6 dee7e069 c0f30900  ..O..0b....i....
 0090 f9e700bf                             ....            
Contents of section .text._ZN19HardwareSerialIMXRT5flushEv:
 0000 90f84430 43b110b5 0446fff7 feff94f8  ..D0C....F......
 0010 4430002b f9d110bd 704700bf           D0.+....pG..    
Contents of section .text._ZN19HardwareSerialIMXRT3endEv:
 0000 38b5d0e9 0453d3e9 03120968 114228d0  8....S.....h.B(.
 0010 90f84420 044632b1 fff7feff 94f84430  ..D .F2.......D0
 0020 002bf9d1 63690021 0e4aa961 207e03eb  .+..ci.!.J.a ~..
 0030 0010007d 02eb0010 45680520 2860657e  ...}....Eh. (`e~
 0040 03eb0513 93f83430 02eb0312 a36d5268  ......40.....mRh
 0050 1060a4f8 4a10a4f8 4c1013b1 e26dc3f8  .`..J...L....m..
 0060 842038bd 00000000                    . 8.....        
Contents of section .text._ZN19HardwareSerialIMXRT5beginEmt:
 0000 07ee901a 9fed9a7a 0421b6ee 005af8ee  .......z.!...Z..
 0010 677a9fed 986a41f6 ff7cc7ee 275a2de9  gz...jA..|..'Z-.
 0020 f0478e46 05690124 07ee901a f8eee77a  .G.F.i.$.......z
 0030 85eea77a 77ee057a fdeee77a 17ee903a  ...zw..z...z...:
 0040 6345a8bf 6346012b b8bf0123 07ee903a  cE..cF.+...#...:
 0050 f8eee76a 76eec76a c6ee877a f5eec07a  ...jv..j...z...z
 0060 f1ee10fa 48bff1ee 677af4ee c67af1ee  ....H...gz...z..
 0070 10fa03d8 b0ee676a 8e461c46 01312129  ......gj.F.F.1!)
 0080 d2d10021 436902f4 0076a0f8 4a10b3f8  ...!Ci...v..J...
 0090 5ac08e42 a0f84c10 b3f85860 a0f84610  Z..B..L...X`..F.
 00a0 a0f84810 80f84410 816bdf68 a1eb0606  ..H...D..k.h....
 00b0 a1eb0c01 c0e90f61 39681e69 41ea0601  .......a9h.iA...
 00c0 396014bf 01210021 817640f0 ac80017e  9`...!.!.v@....~
 00d0 694e03eb 0118dff8 c09198f8 1470d8f8  iN...........p..
 00e0 1ca006eb 0717b968 c1f80090 7968d8f8  .......h....yh..
 00f0 18700f60 baf1000f 03d0d8f8 2010caf8  .p.`........ ...
 0100 0010477e d92103eb 071898f8 34c006eb  ..G~.!......4...
 0110 0c1cdcf8 08703960 dcf80410 d8f83870  .....p9`......8p
 0120 0f60417e 03eb0111 cf6b0fb1 096c3960  .`A~.....k...l9`
 0130 0ef1ff31 bef1080f 4fea0161 ccbf4ff0  ...1....O..a..O.
 0140 000e4ff0 010e01f0 f85144ea 4e442143  ..O......QD.ND!C
 0150 5c682961 597801f1 10030021 e9604749  \h)aYx.....!.`GI
 0160 41f82340 41694ff0 010e454c 02f0030c  A.#@AiO...EL....
 0170 4f7891f8 5610434b 39554ff0 02174469  Ox..V.CK9UO...Di
 0180 617803eb 511301f0 1f019b00 0efa01f1  ax..Q...........
 0190 1960ef62 ab6a43f0 8803ab62 53073ed4  .`.b.jC....bS.>.
 01a0 4cf47013 02f00f01 042908bf 43f08043  L.p......)..C..C
 01b0 97062ed5 817e43f0 80530029 3ad11607  .....~C..S.):...
 01c0 ab6103d5 2b6943f0 00532b61 6b69d106  .a..+iC..S+aki..
 01d0 23f08053 48bf43f0 80536b61 d30503d5  #..SH.C..Ska....
 01e0 2b6943f4 00532b61 a36883b1 264e3478  +iC..S+a.h..&N4x
 01f0 002c3ad0 611e254d c9b22b1f 05eb8101  .,:.a.%M..+.....
 0200 01e09942 25d053f8 042f9042 f9d1bde8  ...B%.S../.B....
 0210 f087817e 0029d2d0 43f0a003 cfe71c4b  ...~.)..C......K
 0220 4cea0303 bee7477e 4ff2d901 124e03eb  L.....G~O....N..
 0230 07186ae7 417e43f0 a00304eb 011191f8  ..j.A~C.........
 0240 341006eb 0116b668 316821f4 40413160  4......h1h!.@A1`
 0250 b5e7631c dbb20f4a 33701378 45f82400  ..c....J3p.xE.$.
 0260 43f00203 1370bde8 f0870123 074df2e7  C....p.....#.M..
 0270 001bb74b ec78ad60 00000000 00000000  ...K.x.`........
 0280 00e400e0 40380038 00000000 00000000  ....@8.8........
 0290 10003c00 00000000 38f00100           ..<.....8...    
Contents of section .text._Z23nvic_execution_priorityv:
 0000 eff31380 b8b9eff3 10834bb9 eff30582  ..........K.....
 0010 3ab94ff4 8073eff3 118050b1 984208d2  :.O..s....P..B..
 0020 70470f2a f7d9054b 9b5ceff3 11800028  pG.*...K.\.....(
 0030 f4d11846 70474ff0 ff30f1e7 f0e300e0  ...FpGO..0......
Contents of section .text._ZN19HardwareSerialIMXRT17transmitterEnableEh:
 0000 38b50446 0d4694f8 4430002b fbd12846  8..F.F..D0.+..(F
 0010 0121fff7 feff054b 2a0103eb 05159b58  .!.....K*......X
 0020 ea68c4e9 1432c3f8 882038bd 00000000  .h...2... 8.....
Contents of section .text._ZN19HardwareSerialIMXRT5setRXEh:
 0000 f8b54669 037e0569 06eb0313 1a7d8a42  ..Fi.~.i.....}.B
 0010 32d0337d 0c469942 2fd096f8 24309942  2.3}.F.B/...$0.B
 0020 49d0264f 00233946 1a4604e0 0133142b  I.&O.#9F.F...3.+
 0030 22d011f8 102f9442 f8d1214a 07eb0317  "..../.B..!J....
 0040 136f7878 43f44003 136796f8 5c10fff7  .oxxC.@..g..\...
 0050 feff1c4b 01221c49 03eb0413 ea60d3e9  ...K.".I.....`..
 0060 01321160 d7e90112 19606b6a 43f00103  .2.`.....`kjC...
 0070 6b620ab1 fb681360 f8bd0024 2146f568  kb...h.`...$!F.h
 0080 2f683569 2f4214d0 0e4d0527 05eb0313  /h5i/B...M.'....
 0090 05eb0215 6d68d3e9 01322f60 0a4d1560  ....mh...2/`.M.`
 00a0 06eb0112 11469269 1a60cb69 0bb10a6a  .....F.i.`.i...j
 00b0 1a600476 f8bd0124 2146e0e7 00000000  .`.v...$!F......
 00c0 00c00f40 00000000 38f00100           ...@....8...    
Contents of section .text._ZN19HardwareSerialIMXRT5setTXEhb:
 0000 70b54369 447e03eb 041c9cf8 34c08c45  p.CiD~......4..E
 0010 08d093f8 34e08e45 30d093f8 44e08e45  ....4..E0...D..E
 0020 12d070bd db68a646 1b68164c 04eb0114  ..p..h.F.h.L....
 0030 80f819e0 22b140f6 d802a368 1a6070bd  ....".@....h.`p.
 0040 d922a368 1a6070bd 4ff0010e dd681e69  .".h.`p.O....h.i
 0050 2d683542 e9d0a645 e7d00a4c 03eb0e13  -h5B...E...L....
 0060 052604eb 0c1cdcf8 04502e60 93f834c0  .&.......P.`..4.
 0070 9d6b04eb 0c135b68 1d60d7e7 4ff0000e  .k....[h.`..O...
 0080 e4e700bf 00000000                    ........        
Contents of section .text._ZN19HardwareSerialIMXRT9attachRtsEh:
 0000 10b50446 08466369 d3e90312 0b681340  ...F.Fci.....h.@
 0010 17d03628 03d90023 1846a365 10bd0a4b  ..6(...#.F.e...K
 0020 02010121 03eb001c 9a58dcf8 0c30c4e9  ...!.....X...0..
 0030 1623fff7 feff0120 d4e91632 c3f88820  .#..... ...2... 
 0040 10bd1846 10bd00bf 00000000           ...F........    
Contents of section .text._ZN19HardwareSerialIMXRT9attachCtsEh:
 0000 70b50c46 4169d1e9 03321b68 134032d0  p..FAi...2.h.@2.
 0010 ff2c0669 03d091f8 5430a342 33d0214d  .,.i....T0.B3.!M
 0020 00232846 1a4604e0 0133142b 25d010f8  .#(F.F...3.+%...
 0030 102f9442 f8d11c4a 05eb0315 136f6878  ./.B...J.....ohx
 0040 43f44003 136791f8 5c10fff7 feff174b  C.@..g..\......K
 0050 02221748 03eb0413 f2609968 5a680860  .".H.....`.hZh.`
 0060 d5e90113 11600bb1 ea681a60 736a0120  .....`...h.`sj. 
 0070 03437362 70bd1846 70bd736a 002023f0  .Csbp..Fp.sj. #.
 0080 01037362 70bd094a 094802eb 0313d3e9  ..sbp..J.H......
 0090 01321060 012091f8 55201a60 736a0343  .2.`. ..U .`sj.C
 00a0 736270bd 00000000 00c00f40 00000000  sbp........@....
 00b0 38300100                             80..            
Contents of section .text._ZN19HardwareSerialIMXRT5clearEv:
 0000 b0f84c30 826d9bb2 a0f84a30 12b1c36d  ..L0.m....J0...m
 0010 c2f88830 704700bf                    ...0pG..        
Contents of section .text._ZN19HardwareSerialIMXRT16addMemoryForReadEPvj:
 0000 10b44162 99b1036b 1a444469 00218263  ..Ab...k.DDi.!.c
 0010 b4f85830 b4f85a40 d31aa0f8 4a10121b  ..X0..Z@....J...
 0020 a0f84c10 5df8044b c0e90f32 7047026b  ..L.]..K...2pG.k
 0030 ebe700bf                             ....            
Contents of section .text._ZN19HardwareSerialIMXRT17addMemoryForWriteEPvj:
 0000 816241b1 c36a1a44 00234263 a0f84630  .bA..j.D.#Bc..F0
 0010 a0f84830 7047c26a f6e700bf           ..H0pG.j....    
Contents of section .text._ZN19HardwareSerialIMXRT9write9bitEm:
 0000 036d2de9 f0410446 0f460669 13b1426d  .m-..A.F.F.i..Bm
 0010 c3f88420 a37e2bb1 72b6b369 43f00053  ... .~+.r..iC..S
 0020 b36162b6 b4f84650 636badb2 0135ab42  .ab...FPck...5.B
 0030 4cd84ff0 00084546 b4f84830 9bb29d42  L.O...EF..H0...B
 0040 19d028e0 73691b02 10d5b4f8 4830626b  ..(.si......H0bk
 0050 9bb20133 9a4236d9 9ab2e16a 99422dd9  ...3.B6....j.B-.
 0060 e169cb5c dbb2f361 a4f84820 b4f84830  .i.\...a..H ..H0
 0070 9bb2ab42 0fd1fff7 feff6369 b3f85630  ...B......ci..V0
 0080 8342dfda ff28f1dd fff7feff b4f84830  .B...(........H0
 0090 9bb2ab42 efd0e36a ab421ad9 ffb2e369  ...B...j.B.....i
 00a0 5f5572b6 012084f8 4400a4f8 4680b369  _Ur.. ..D...F..i
 00b0 43f40003 b36162b6 bde8f081 5b1aa16a  C....ab.....[..j
 00c0 cb5cdbb2 cfe70022 1346c6e7 1ffa85f8  .\.....".F......
 00d0 b2e7ed1a ffb2a36a 5f55e2e7           .......j_U..    
Contents of section .text._ZN19HardwareSerialIMXRT5writeEh:
 0000 fff7febf                             ....            
Contents of section .text._ZN19HardwareSerialIMXRT10IRQHandlerEv:
 0000 02695369 13f4401f 70b543d0 d36a13f0  .iSi..@.p.C..j..
 0010 e06fc3f3 026e3ad0 b0f84a50 b0f84c60  .o...n:...JP..L`
 0020 adb2b6b2 07e0016a 01f803c0 0ef1ff33  .......j.......3
 0030 13f0ff0e 1dd0d169 6b1c846b b0f84cc0  .......ik..k..L.
 0040 c1f30901 9c4298bf 00231ffa 8cfc9c45  .....B...#.....E
 0050 ecd0046b 5ffa81fc 1d469c42 a3eb0404  ...k_....F.B....
 0060 e1d8436a 03f804c0 0ef1ff33 13f0ff0e  ..Cj.......3....
 0070 e1d1abb2 a0f84a30 836d43b1 b54254d3  ......J0.mC..BT.
 0080 ad1b016c a94202d8 c16dc3f8 84105369  ...l.B...m....Si
 0090 d90245d4 96693302 28d55369 1d0225d5  ..E..i3.(.Si..%.
 00a0 b0f84650 b0f84830 adb29bb2 06e0c169  ..FP..H0.......i
 00b0 c95cc9b2 d161d16a 4c0512d4 ab4238d0  .\...a.jL....B8.
 00c0 446b0133 c16a9c42 98bf0023 9942a3eb  Dk.3.j.B...#.B..
 00d0 0104ecd8 816a095d c9b2d161 d16a4c05  .....j.]...a.jL.
 00e0 ecd599b2 ab42a0f8 481025d0 710216d5  .....B..H.%.q...
 00f0 53695b02 13d50021 036d80f8 441013b1  Si[....!.m..D...
 0100 416dc3f8 8810837e 2bb172b6 936923f0  Am.....~+.r..i#.
 0110 00539361 62b69369 23f48003 936170bd  .S.ab..i#....ap.
 0120 536943f4 80135361 b4e7816b 891b0d44  SiC...Sa...k...D
 0130 a7e79bb2 a0f84830 936923f4 00039361  ......H0.i#....a
 0140 936943f4 80039361 d0e700bf           .iC....a....    
Contents of section .text._ZN19HardwareSerialIMXRT21addToSerialEventsListEv:
 0000 70b4104e 3478d4b1 611e0f4d c9b22b1f  p..N4x..a..M..+.
 0010 05eb8101 01e08b42 05d053f8 042f8242  .......B..S../.B
 0020 f9d170bc 7047631c dbb2084a 33701378  ..p.pGc....J3p.x
 0030 45f82400 43f00203 137070bc 70470123  E.$.C....pp.pG.#
 0040 014df2e7 00000000 00000000 00000000  .M..............
Contents of section .progmem:
 0000 00110000 01000000 2c861f40 01000000  ........,..@....
 0010 01100000 01000000 00000000 00000000  ................
 0020 02060000 03000000 1c861f40 00000000  ...........@....
 0030 03070000 03000000 20861f40 00000000  ........ ..@....
 0040 04080000 03000000 24861f40 00000000  ........$..@....
 0050 05110000 03000000 2c861f40 00000000  ........,..@....
 0060 070f0000 01000000 48861f40 01000000  ........H..@....
 0070 080e0000 01000000 44861f40 01000000  ........D..@....
 0080 1e170000 01000000 3c861f40 00000000  ........<..@....
 0090 1f160000 01000000 38861f40 00000000  ........8..@....
 00a0 200a0000 01000000 00000000 00000000   ...............
 00b0 21090000 03000000 28861f40 00000000  !.......(..@....
 00c0 24100000 01000000 4c861f40 01000000  $.......L..@....
 00d0 25110000 01000000 2c861f40 03000000  %.......,..@....
 00e0 2a070000 03000000 20861f40 01000000  *....... ..@....
 00f0 2b060000 03000000 1c861f40 01000000  +..........@....
 0100 2c050000 03000000 18861f40 01000000  ,..........@....
 0110 2d040000 03000000 14861f40 01000000  -..........@....
 0120 2e090000 03000000 28861f40 01000000  ........(..@....
 0130 2f080000 03000000 24861f40 01000000  /.......$..@....
 0140 14                                   .               
Contents of section .rodata._ZTV19HardwareSerialIMXRT:
 0000 00000000 00000000 00000000 00000000  ................
 0010 00000000 00000000 00000000 00000000  ................
 0020 00000000 00000000 00000000 00000000  ................
Contents of section .comment:
 0000 00474343 3a202841 726d2047 4e552054  .GCC: (Arm GNU T
 0010 6f6f6c63 6861696e 2031312e 332e5265  oolchain 11.3.Re
 0020 6c312920 31312e33 2e312032 30323230  l1) 11.3.1 20220
 0030 37313200                             712.            
Contents of section .ARM.attributes:
 0000 41310000 00616561 62690001 27000000  A1...aeabi..'...
 0010 0537452d 4d00060d 074d0902 0a081204  .7E-M....M......
 0020 14011501 17031801 19011a01 1c011e02  ................
 0030 2201                                 ".              

Disassembly of section .text._ZN19HardwareSerialIMXRTcvbEv:

00000000 <_ZN19HardwareSerialIMXRTcvbEv>:
   0:	2001      	movs	r0, #1
   2:	4770      	bx	lr

Disassembly of section .text._ZN19HardwareSerialIMXRT17availableForWriteEv:

00000000 <_ZN19HardwareSerialIMXRT17availableForWriteEv>:
   0:	f8b0 3046 	ldrh.w	r3, [r0, #70]	; 0x46
   4:	f8b0 2048 	ldrh.w	r2, [r0, #72]	; 0x48
   8:	b29b      	uxth	r3, r3
   a:	b292      	uxth	r2, r2
   c:	4293      	cmp	r3, r2
   e:	d202      	bcs.n	16 <_ZN19HardwareSerialIMXRT17availableForWriteEv+0x16>
  10:	3a01      	subs	r2, #1
  12:	1ad0      	subs	r0, r2, r3
  14:	4770      	bx	lr
  16:	6b41      	ldr	r1, [r0, #52]	; 0x34
  18:	3901      	subs	r1, #1
  1a:	440a      	add	r2, r1
  1c:	1ad0      	subs	r0, r2, r3
  1e:	4770      	bx	lr

Disassembly of section .text._ZN19HardwareSerialIMXRT9availableEv:

00000000 <_ZN19HardwareSerialIMXRT9availableEv>:
   0:	6901      	ldr	r1, [r0, #16]
   2:	b672      	cpsid	i
   4:	f8b0 204a 	ldrh.w	r2, [r0, #74]	; 0x4a
   8:	f8b0 304c 	ldrh.w	r3, [r0, #76]	; 0x4c
   c:	b292      	uxth	r2, r2
   e:	b29b      	uxth	r3, r3
  10:	429a      	cmp	r2, r3
  12:	bf3c      	itt	cc
  14:	6b80      	ldrcc	r0, [r0, #56]	; 0x38
  16:	1812      	addcc	r2, r2, r0
  18:	6ac8      	ldr	r0, [r1, #44]	; 0x2c
  1a:	1ad3      	subs	r3, r2, r3
  1c:	b662      	cpsie	i
  1e:	f3c0 6002 	ubfx	r0, r0, #24, #3
  22:	4418      	add	r0, r3
  24:	4770      	bx	lr
  26:	bf00      	nop

Disassembly of section .text._ZN19HardwareSerialIMXRT4peekEv:

00000000 <_ZN19HardwareSerialIMXRT4peekEv>:
   0:	f8b0 104a 	ldrh.w	r1, [r0, #74]	; 0x4a
   4:	4602      	mov	r2, r0
   6:	f8b0 304c 	ldrh.w	r3, [r0, #76]	; 0x4c
   a:	b289      	uxth	r1, r1
   c:	b29b      	uxth	r3, r3
   e:	4299      	cmp	r1, r3
  10:	b410      	push	{r4}
  12:	6904      	ldr	r4, [r0, #16]
  14:	d014      	beq.n	40 <_ZN19HardwareSerialIMXRT4peekEv+0x40>
  16:	3301      	adds	r3, #1
  18:	6b90      	ldr	r0, [r2, #56]	; 0x38
  1a:	6b11      	ldr	r1, [r2, #48]	; 0x30
  1c:	4298      	cmp	r0, r3
  1e:	bf98      	it	ls
  20:	2300      	movls	r3, #0
  22:	4299      	cmp	r1, r3
  24:	d806      	bhi.n	34 <_ZN19HardwareSerialIMXRT4peekEv+0x34>
  26:	1a5b      	subs	r3, r3, r1
  28:	6a52      	ldr	r2, [r2, #36]	; 0x24
  2a:	5cd0      	ldrb	r0, [r2, r3]
  2c:	b2c0      	uxtb	r0, r0
  2e:	f85d 4b04 	ldr.w	r4, [sp], #4
  32:	4770      	bx	lr
  34:	6a12      	ldr	r2, [r2, #32]
  36:	f85d 4b04 	ldr.w	r4, [sp], #4
  3a:	5cd0      	ldrb	r0, [r2, r3]
  3c:	b2c0      	uxtb	r0, r0
  3e:	4770      	bx	lr
  40:	b672      	cpsid	i
  42:	f8b0 004a 	ldrh.w	r0, [r0, #74]	; 0x4a
  46:	b280      	uxth	r0, r0
  48:	4281      	cmp	r1, r0
  4a:	d001      	beq.n	50 <_ZN19HardwareSerialIMXRT4peekEv+0x50>
  4c:	b662      	cpsie	i
  4e:	e7e2      	b.n	16 <_ZN19HardwareSerialIMXRT4peekEv+0x16>
  50:	6ae3      	ldr	r3, [r4, #44]	; 0x2c
  52:	f013 6fe0 	tst.w	r3, #117440512	; 0x7000000
  56:	d103      	bne.n	60 <_ZN19HardwareSerialIMXRT4peekEv+0x60>
  58:	f04f 30ff 	mov.w	r0, #4294967295	; 0xffffffff
  5c:	b662      	cpsie	i
  5e:	e7e6      	b.n	2e <_ZN19HardwareSerialIMXRT4peekEv+0x2e>
  60:	69e3      	ldr	r3, [r4, #28]
  62:	2001      	movs	r0, #1
  64:	2400      	movs	r4, #0
  66:	6a11      	ldr	r1, [r2, #32]
  68:	f8a2 004a 	strh.w	r0, [r2, #74]	; 0x4a
  6c:	f3c3 0009 	ubfx	r0, r3, #0, #10
  70:	b2db      	uxtb	r3, r3
  72:	f8a2 404c 	strh.w	r4, [r2, #76]	; 0x4c
  76:	704b      	strb	r3, [r1, #1]
  78:	e7f0      	b.n	5c <_ZN19HardwareSerialIMXRT4peekEv+0x5c>
  7a:	bf00      	nop

Disassembly of section .text._ZN19HardwareSerialIMXRT4readEv:

00000000 <_ZN19HardwareSerialIMXRT4readEv>:
   0:	f8b0 104a 	ldrh.w	r1, [r0, #74]	; 0x4a
   4:	4602      	mov	r2, r0
   6:	f8b0 304c 	ldrh.w	r3, [r0, #76]	; 0x4c
   a:	b289      	uxth	r1, r1
   c:	b29b      	uxth	r3, r3
   e:	4299      	cmp	r1, r3
  10:	b430      	push	{r4, r5}
  12:	6904      	ldr	r4, [r0, #16]
  14:	d025      	beq.n	62 <_ZN19HardwareSerialIMXRT4readEv+0x62>
  16:	3301      	adds	r3, #1
  18:	6b94      	ldr	r4, [r2, #56]	; 0x38
  1a:	429c      	cmp	r4, r3
  1c:	d916      	bls.n	4c <_ZN19HardwareSerialIMXRT4readEv+0x4c>
  1e:	6b10      	ldr	r0, [r2, #48]	; 0x30
  20:	fa1f fc83 	uxth.w	ip, r3
  24:	4298      	cmp	r0, r3
  26:	d917      	bls.n	58 <_ZN19HardwareSerialIMXRT4readEv+0x58>
  28:	6a10      	ldr	r0, [r2, #32]
  2a:	5cc0      	ldrb	r0, [r0, r3]
  2c:	b2c0      	uxtb	r0, r0
  2e:	6d95      	ldr	r5, [r2, #88]	; 0x58
  30:	f8a2 c04c 	strh.w	ip, [r2, #76]	; 0x4c
  34:	b145      	cbz	r5, 48 <_ZN19HardwareSerialIMXRT4readEv+0x48>
  36:	4299      	cmp	r1, r3
  38:	d31c      	bcc.n	74 <_ZN19HardwareSerialIMXRT4readEv+0x74>
  3a:	1acb      	subs	r3, r1, r3
  3c:	6bd1      	ldr	r1, [r2, #60]	; 0x3c
  3e:	4299      	cmp	r1, r3
  40:	d302      	bcc.n	48 <_ZN19HardwareSerialIMXRT4readEv+0x48>
  42:	6dd3      	ldr	r3, [r2, #92]	; 0x5c
  44:	f8c5 3088 	str.w	r3, [r5, #136]	; 0x88
  48:	bc30      	pop	{r4, r5}
  4a:	4770      	bx	lr
  4c:	f04f 0c00 	mov.w	ip, #0
  50:	6b10      	ldr	r0, [r2, #48]	; 0x30
  52:	4663      	mov	r3, ip
  54:	4298      	cmp	r0, r3
  56:	d8e7      	bhi.n	28 <_ZN19HardwareSerialIMXRT4readEv+0x28>
  58:	1a18      	subs	r0, r3, r0
  5a:	6a55      	ldr	r5, [r2, #36]	; 0x24
  5c:	5c28      	ldrb	r0, [r5, r0]
  5e:	b2c0      	uxtb	r0, r0
  60:	e7e5      	b.n	2e <_ZN19HardwareSerialIMXRT4readEv+0x2e>
  62:	4608      	mov	r0, r1
  64:	b672      	cpsid	i
  66:	f8b2 104a 	ldrh.w	r1, [r2, #74]	; 0x4a
  6a:	b289      	uxth	r1, r1
  6c:	4288      	cmp	r0, r1
  6e:	d004      	beq.n	7a <_ZN19HardwareSerialIMXRT4readEv+0x7a>
  70:	b662      	cpsie	i
  72:	e7d0      	b.n	16 <_ZN19HardwareSerialIMXRT4readEv+0x16>
  74:	440c      	add	r4, r1
  76:	1ae3      	subs	r3, r4, r3
  78:	e7e0      	b.n	3c <_ZN19HardwareSerialIMXRT4readEv+0x3c>
  7a:	6ae3      	ldr	r3, [r4, #44]	; 0x2c
  7c:	f013 6fe0 	tst.w	r3, #117440512	; 0x7000000
  80:	d103      	bne.n	8a <_ZN19HardwareSerialIMXRT4readEv+0x8a>
  82:	f04f 30ff 	mov.w	r0, #4294967295	; 0xffffffff
  86:	b662      	cpsie	i
  88:	e7de      	b.n	48 <_ZN19HardwareSerialIMXRT4readEv+0x48>
  8a:	69e0      	ldr	r0, [r4, #28]
  8c:	f3c0 0009 	ubfx	r0, r0, #0, #10
  90:	e7f9      	b.n	86 <_ZN19HardwareSerialIMXRT4readEv+0x86>
  92:	bf00      	nop

Disassembly of section .text._ZN19HardwareSerialIMXRT5flushEv:

00000000 <_ZN19HardwareSerialIMXRT5flushEv>:
   0:	f890 3044 	ldrb.w	r3, [r0, #68]	; 0x44
   4:	b143      	cbz	r3, 18 <_ZN19HardwareSerialIMXRT5flushEv+0x18>
   6:	b510      	push	{r4, lr}
   8:	4604      	mov	r4, r0
   a:	f7ff fffe 	bl	0 <yield>
   e:	f894 3044 	ldrb.w	r3, [r4, #68]	; 0x44
  12:	2b00      	cmp	r3, #0
  14:	d1f9      	bne.n	a <_ZN19HardwareSerialIMXRT5flushEv+0xa>
  16:	bd10      	pop	{r4, pc}
  18:	4770      	bx	lr
  1a:	bf00      	nop

Disassembly of section .text._ZN19HardwareSerialIMXRT3endEv:

00000000 <_ZN19HardwareSerialIMXRT3endEv>:
   0:	b538      	push	{r3, r4, r5, lr}
   2:	e9d0 5304 	ldrd	r5, r3, [r0, #16]
   6:	e9d3 1203 	ldrd	r1, r2, [r3, #12]
   a:	6809      	ldr	r1, [r1, #0]
   c:	4211      	tst	r1, r2
   e:	d028      	beq.n	62 <_ZN19HardwareSerialIMXRT3endEv+0x62>
  10:	f890 2044 	ldrb.w	r2, [r0, #68]	; 0x44
  14:	4604      	mov	r4, r0
  16:	b132      	cbz	r2, 26 <_ZN19HardwareSerialIMXRT3endEv+0x26>
  18:	f7ff fffe 	bl	0 <yield>
  1c:	f894 3044 	ldrb.w	r3, [r4, #68]	; 0x44
  20:	2b00      	cmp	r3, #0
  22:	d1f9      	bne.n	18 <_ZN19HardwareSerialIMXRT3endEv+0x18>
  24:	6963      	ldr	r3, [r4, #20]
  26:	2100      	movs	r1, #0
  28:	4a0e      	ldr	r2, [pc, #56]	; (64 <_ZN19HardwareSerialIMXRT3endEv+0x64>)
  2a:	61a9      	str	r1, [r5, #24]
  2c:	7e20      	ldrb	r0, [r4, #24]
  2e:	eb03 1000 	add.w	r0, r3, r0, lsl #4
  32:	7d00      	ldrb	r0, [r0, #20]
  34:	eb02 1000 	add.w	r0, r2, r0, lsl #4
  38:	6845      	ldr	r5, [r0, #4]
  3a:	2005      	movs	r0, #5
  3c:	6028      	str	r0, [r5, #0]
  3e:	7e65      	ldrb	r5, [r4, #25]
  40:	eb03 1305 	add.w	r3, r3, r5, lsl #4
  44:	f893 3034 	ldrb.w	r3, [r3, #52]	; 0x34
  48:	eb02 1203 	add.w	r2, r2, r3, lsl #4
  4c:	6da3      	ldr	r3, [r4, #88]	; 0x58
  4e:	6852      	ldr	r2, [r2, #4]
  50:	6010      	str	r0, [r2, #0]
  52:	f8a4 104a 	strh.w	r1, [r4, #74]	; 0x4a
  56:	f8a4 104c 	strh.w	r1, [r4, #76]	; 0x4c
  5a:	b113      	cbz	r3, 62 <_ZN19HardwareSerialIMXRT3endEv+0x62>
  5c:	6de2      	ldr	r2, [r4, #92]	; 0x5c
  5e:	f8c3 2084 	str.w	r2, [r3, #132]	; 0x84
  62:	bd38      	pop	{r3, r4, r5, pc}
  64:	00000000 	.word	0x00000000

Disassembly of section .text._ZN19HardwareSerialIMXRT5beginEmt:

00000000 <_ZN19HardwareSerialIMXRT5beginEmt>:
   0:	ee07 1a90 	vmov	s15, r1
   4:	ed9f 7a9a 	vldr	s14, [pc, #616]	; 270 <_ZN19HardwareSerialIMXRT5beginEmt+0x270>
   8:	2104      	movs	r1, #4
   a:	eeb6 5a00 	vmov.f32	s10, #96	; 0x3f000000  0.5
   e:	eef8 7a67 	vcvt.f32.u32	s15, s15
  12:	ed9f 6a98 	vldr	s12, [pc, #608]	; 274 <_ZN19HardwareSerialIMXRT5beginEmt+0x274>
  16:	f641 7cff 	movw	ip, #8191	; 0x1fff
  1a:	eec7 5a27 	vdiv.f32	s11, s14, s15
  1e:	e92d 47f0 	stmdb	sp!, {r4, r5, r6, r7, r8, r9, sl, lr}
  22:	468e      	mov	lr, r1
  24:	6905      	ldr	r5, [r0, #16]
  26:	2401      	movs	r4, #1
  28:	ee07 1a90 	vmov	s15, r1
  2c:	eef8 7ae7 	vcvt.f32.s32	s15, s15
  30:	ee85 7aa7 	vdiv.f32	s14, s11, s15
  34:	ee77 7a05 	vadd.f32	s15, s14, s10
  38:	eefd 7ae7 	vcvt.s32.f32	s15, s15
  3c:	ee17 3a90 	vmov	r3, s15
  40:	4563      	cmp	r3, ip
  42:	bfa8      	it	ge
  44:	4663      	movge	r3, ip
  46:	2b01      	cmp	r3, #1
  48:	bfb8      	it	lt
  4a:	2301      	movlt	r3, #1
  4c:	ee07 3a90 	vmov	s15, r3
  50:	eef8 6ae7 	vcvt.f32.s32	s13, s15
  54:	ee76 6ac7 	vsub.f32	s13, s13, s14
  58:	eec6 7a87 	vdiv.f32	s15, s13, s14
  5c:	eef5 7ac0 	vcmpe.f32	s15, #0.0
  60:	eef1 fa10 	vmrs	APSR_nzcv, fpscr
  64:	bf48      	it	mi
  66:	eef1 7a67 	vnegmi.f32	s15, s15
  6a:	eef4 7ac6 	vcmpe.f32	s15, s12
  6e:	eef1 fa10 	vmrs	APSR_nzcv, fpscr
  72:	d803      	bhi.n	7c <_ZN19HardwareSerialIMXRT5beginEmt+0x7c>
  74:	eeb0 6a67 	vmov.f32	s12, s15
  78:	468e      	mov	lr, r1
  7a:	461c      	mov	r4, r3
  7c:	3101      	adds	r1, #1
  7e:	2921      	cmp	r1, #33	; 0x21
  80:	d1d2      	bne.n	28 <_ZN19HardwareSerialIMXRT5beginEmt+0x28>
  82:	2100      	movs	r1, #0
  84:	6943      	ldr	r3, [r0, #20]
  86:	f402 7600 	and.w	r6, r2, #512	; 0x200
  8a:	f8a0 104a 	strh.w	r1, [r0, #74]	; 0x4a
  8e:	f8b3 c05a 	ldrh.w	ip, [r3, #90]	; 0x5a
  92:	428e      	cmp	r6, r1
  94:	f8a0 104c 	strh.w	r1, [r0, #76]	; 0x4c
  98:	f8b3 6058 	ldrh.w	r6, [r3, #88]	; 0x58
  9c:	f8a0 1046 	strh.w	r1, [r0, #70]	; 0x46
  a0:	f8a0 1048 	strh.w	r1, [r0, #72]	; 0x48
  a4:	f880 1044 	strb.w	r1, [r0, #68]	; 0x44
  a8:	6b81      	ldr	r1, [r0, #56]	; 0x38
  aa:	68df      	ldr	r7, [r3, #12]
  ac:	eba1 0606 	sub.w	r6, r1, r6
  b0:	eba1 010c 	sub.w	r1, r1, ip
  b4:	e9c0 610f 	strd	r6, r1, [r0, #60]	; 0x3c
  b8:	6839      	ldr	r1, [r7, #0]
  ba:	691e      	ldr	r6, [r3, #16]
  bc:	ea41 0106 	orr.w	r1, r1, r6
  c0:	6039      	str	r1, [r7, #0]
  c2:	bf14      	ite	ne
  c4:	2101      	movne	r1, #1
  c6:	2100      	moveq	r1, #0
  c8:	7681      	strb	r1, [r0, #26]
  ca:	f040 80ac 	bne.w	226 <_ZN19HardwareSerialIMXRT5beginEmt+0x226>
  ce:	7e01      	ldrb	r1, [r0, #24]
  d0:	4e69      	ldr	r6, [pc, #420]	; (278 <_ZN19HardwareSerialIMXRT5beginEmt+0x278>)
  d2:	eb03 1801 	add.w	r8, r3, r1, lsl #4
  d6:	f8df 91c0 	ldr.w	r9, [pc, #448]	; 298 <_ZN19HardwareSerialIMXRT5beginEmt+0x298>
  da:	f898 7014 	ldrb.w	r7, [r8, #20]
  de:	f8d8 a01c 	ldr.w	sl, [r8, #28]
  e2:	eb06 1707 	add.w	r7, r6, r7, lsl #4
  e6:	68b9      	ldr	r1, [r7, #8]
  e8:	f8c1 9000 	str.w	r9, [r1]
  ec:	6879      	ldr	r1, [r7, #4]
  ee:	f8d8 7018 	ldr.w	r7, [r8, #24]
  f2:	600f      	str	r7, [r1, #0]
  f4:	f1ba 0f00 	cmp.w	sl, #0
  f8:	d003      	beq.n	102 <_ZN19HardwareSerialIMXRT5beginEmt+0x102>
  fa:	f8d8 1020 	ldr.w	r1, [r8, #32]
  fe:	f8ca 1000 	str.w	r1, [sl]
 102:	7e47      	ldrb	r7, [r0, #25]
 104:	21d9      	movs	r1, #217	; 0xd9
 106:	eb03 1807 	add.w	r8, r3, r7, lsl #4
 10a:	f898 c034 	ldrb.w	ip, [r8, #52]	; 0x34
 10e:	eb06 1c0c 	add.w	ip, r6, ip, lsl #4
 112:	f8dc 7008 	ldr.w	r7, [ip, #8]
 116:	6039      	str	r1, [r7, #0]
 118:	f8dc 1004 	ldr.w	r1, [ip, #4]
 11c:	f8d8 7038 	ldr.w	r7, [r8, #56]	; 0x38
 120:	600f      	str	r7, [r1, #0]
 122:	7e41      	ldrb	r1, [r0, #25]
 124:	eb03 1101 	add.w	r1, r3, r1, lsl #4
 128:	6bcf      	ldr	r7, [r1, #60]	; 0x3c
 12a:	b10f      	cbz	r7, 130 <_ZN19HardwareSerialIMXRT5beginEmt+0x130>
 12c:	6c09      	ldr	r1, [r1, #64]	; 0x40
 12e:	6039      	str	r1, [r7, #0]
 130:	f10e 31ff 	add.w	r1, lr, #4294967295	; 0xffffffff
 134:	f1be 0f08 	cmp.w	lr, #8
 138:	ea4f 6101 	mov.w	r1, r1, lsl #24
 13c:	bfcc      	ite	gt
 13e:	f04f 0e00 	movgt.w	lr, #0
 142:	f04f 0e01 	movle.w	lr, #1
 146:	f001 51f8 	and.w	r1, r1, #520093696	; 0x1f000000
 14a:	ea44 444e 	orr.w	r4, r4, lr, lsl #17
 14e:	4321      	orrs	r1, r4
 150:	685c      	ldr	r4, [r3, #4]
 152:	6129      	str	r1, [r5, #16]
 154:	7859      	ldrb	r1, [r3, #1]
 156:	f101 0310 	add.w	r3, r1, #16
 15a:	2100      	movs	r1, #0
 15c:	60e9      	str	r1, [r5, #12]
 15e:	4947      	ldr	r1, [pc, #284]	; (27c <_ZN19HardwareSerialIMXRT5beginEmt+0x27c>)
 160:	f841 4023 	str.w	r4, [r1, r3, lsl #2]
 164:	6941      	ldr	r1, [r0, #20]
 166:	f04f 0e01 	mov.w	lr, #1
 16a:	4c45      	ldr	r4, [pc, #276]	; (280 <_ZN19HardwareSerialIMXRT5beginEmt+0x280>)
 16c:	f002 0c03 	and.w	ip, r2, #3
 170:	784f      	ldrb	r7, [r1, #1]
 172:	f891 1056 	ldrb.w	r1, [r1, #86]	; 0x56
 176:	4b43      	ldr	r3, [pc, #268]	; (284 <_ZN19HardwareSerialIMXRT5beginEmt+0x284>)
 178:	5539      	strb	r1, [r7, r4]
 17a:	f04f 1702 	mov.w	r7, #131074	; 0x20002
 17e:	6944      	ldr	r4, [r0, #20]
 180:	7861      	ldrb	r1, [r4, #1]
 182:	eb03 1351 	add.w	r3, r3, r1, lsr #5
 186:	f001 011f 	and.w	r1, r1, #31
 18a:	009b      	lsls	r3, r3, #2
 18c:	fa0e f101 	lsl.w	r1, lr, r1
 190:	6019      	str	r1, [r3, #0]
 192:	62ef      	str	r7, [r5, #44]	; 0x2c
 194:	6aab      	ldr	r3, [r5, #40]	; 0x28
 196:	f043 0388 	orr.w	r3, r3, #136	; 0x88
 19a:	62ab      	str	r3, [r5, #40]	; 0x28
 19c:	0753      	lsls	r3, r2, #29
 19e:	d43e      	bmi.n	21e <_ZN19HardwareSerialIMXRT5beginEmt+0x21e>
 1a0:	f44c 1370 	orr.w	r3, ip, #3932160	; 0x3c0000
 1a4:	f002 010f 	and.w	r1, r2, #15
 1a8:	2904      	cmp	r1, #4
 1aa:	bf08      	it	eq
 1ac:	f043 4380 	orreq.w	r3, r3, #1073741824	; 0x40000000
 1b0:	0697      	lsls	r7, r2, #26
 1b2:	d52e      	bpl.n	212 <_ZN19HardwareSerialIMXRT5beginEmt+0x212>
 1b4:	7e81      	ldrb	r1, [r0, #26]
 1b6:	f043 5380 	orr.w	r3, r3, #268435456	; 0x10000000
 1ba:	2900      	cmp	r1, #0
 1bc:	d13a      	bne.n	234 <_ZN19HardwareSerialIMXRT5beginEmt+0x234>
 1be:	0716      	lsls	r6, r2, #28
 1c0:	61ab      	str	r3, [r5, #24]
 1c2:	d503      	bpl.n	1cc <_ZN19HardwareSerialIMXRT5beginEmt+0x1cc>
 1c4:	692b      	ldr	r3, [r5, #16]
 1c6:	f043 5300 	orr.w	r3, r3, #536870912	; 0x20000000
 1ca:	612b      	str	r3, [r5, #16]
 1cc:	696b      	ldr	r3, [r5, #20]
 1ce:	06d1      	lsls	r1, r2, #27
 1d0:	f023 5380 	bic.w	r3, r3, #268435456	; 0x10000000
 1d4:	bf48      	it	mi
 1d6:	f043 5380 	orrmi.w	r3, r3, #268435456	; 0x10000000
 1da:	616b      	str	r3, [r5, #20]
 1dc:	05d3      	lsls	r3, r2, #23
 1de:	d503      	bpl.n	1e8 <_ZN19HardwareSerialIMXRT5beginEmt+0x1e8>
 1e0:	692b      	ldr	r3, [r5, #16]
 1e2:	f443 5300 	orr.w	r3, r3, #8192	; 0x2000
 1e6:	612b      	str	r3, [r5, #16]
 1e8:	68a3      	ldr	r3, [r4, #8]
 1ea:	b183      	cbz	r3, 20e <_ZN19HardwareSerialIMXRT5beginEmt+0x20e>
 1ec:	4e26      	ldr	r6, [pc, #152]	; (288 <_ZN19HardwareSerialIMXRT5beginEmt+0x288>)
 1ee:	7834      	ldrb	r4, [r6, #0]
 1f0:	2c00      	cmp	r4, #0
 1f2:	d03a      	beq.n	26a <_ZN19HardwareSerialIMXRT5beginEmt+0x26a>
 1f4:	1e61      	subs	r1, r4, #1
 1f6:	4d25      	ldr	r5, [pc, #148]	; (28c <_ZN19HardwareSerialIMXRT5beginEmt+0x28c>)
 1f8:	b2c9      	uxtb	r1, r1
 1fa:	1f2b      	subs	r3, r5, #4
 1fc:	eb05 0181 	add.w	r1, r5, r1, lsl #2
 200:	e001      	b.n	206 <_ZN19HardwareSerialIMXRT5beginEmt+0x206>
 202:	4299      	cmp	r1, r3
 204:	d025      	beq.n	252 <_ZN19HardwareSerialIMXRT5beginEmt+0x252>
 206:	f853 2f04 	ldr.w	r2, [r3, #4]!
 20a:	4290      	cmp	r0, r2
 20c:	d1f9      	bne.n	202 <_ZN19HardwareSerialIMXRT5beginEmt+0x202>
 20e:	e8bd 87f0 	ldmia.w	sp!, {r4, r5, r6, r7, r8, r9, sl, pc}
 212:	7e81      	ldrb	r1, [r0, #26]
 214:	2900      	cmp	r1, #0
 216:	d0d2      	beq.n	1be <_ZN19HardwareSerialIMXRT5beginEmt+0x1be>
 218:	f043 03a0 	orr.w	r3, r3, #160	; 0xa0
 21c:	e7cf      	b.n	1be <_ZN19HardwareSerialIMXRT5beginEmt+0x1be>
 21e:	4b1c      	ldr	r3, [pc, #112]	; (290 <_ZN19HardwareSerialIMXRT5beginEmt+0x290>)
 220:	ea4c 0303 	orr.w	r3, ip, r3
 224:	e7be      	b.n	1a4 <_ZN19HardwareSerialIMXRT5beginEmt+0x1a4>
 226:	7e47      	ldrb	r7, [r0, #25]
 228:	f24f 01d9 	movw	r1, #61657	; 0xf0d9
 22c:	4e12      	ldr	r6, [pc, #72]	; (278 <_ZN19HardwareSerialIMXRT5beginEmt+0x278>)
 22e:	eb03 1807 	add.w	r8, r3, r7, lsl #4
 232:	e76a      	b.n	10a <_ZN19HardwareSerialIMXRT5beginEmt+0x10a>
 234:	7e41      	ldrb	r1, [r0, #25]
 236:	f043 03a0 	orr.w	r3, r3, #160	; 0xa0
 23a:	eb04 1101 	add.w	r1, r4, r1, lsl #4
 23e:	f891 1034 	ldrb.w	r1, [r1, #52]	; 0x34
 242:	eb06 1601 	add.w	r6, r6, r1, lsl #4
 246:	68b6      	ldr	r6, [r6, #8]
 248:	6831      	ldr	r1, [r6, #0]
 24a:	f421 4140 	bic.w	r1, r1, #49152	; 0xc000
 24e:	6031      	str	r1, [r6, #0]
 250:	e7b5      	b.n	1be <_ZN19HardwareSerialIMXRT5beginEmt+0x1be>
 252:	1c63      	adds	r3, r4, #1
 254:	b2db      	uxtb	r3, r3
 256:	4a0f      	ldr	r2, [pc, #60]	; (294 <_ZN19HardwareSerialIMXRT5beginEmt+0x294>)
 258:	7033      	strb	r3, [r6, #0]
 25a:	7813      	ldrb	r3, [r2, #0]
 25c:	f845 0024 	str.w	r0, [r5, r4, lsl #2]
 260:	f043 0302 	orr.w	r3, r3, #2
 264:	7013      	strb	r3, [r2, #0]
 266:	e8bd 87f0 	ldmia.w	sp!, {r4, r5, r6, r7, r8, r9, sl, pc}
 26a:	2301      	movs	r3, #1
 26c:	4d07      	ldr	r5, [pc, #28]	; (28c <_ZN19HardwareSerialIMXRT5beginEmt+0x28c>)
 26e:	e7f2      	b.n	256 <_ZN19HardwareSerialIMXRT5beginEmt+0x256>
 270:	4bb71b00 	.word	0x4bb71b00
 274:	60ad78ec 	.word	0x60ad78ec
 278:	00000000 	.word	0x00000000
 27c:	00000000 	.word	0x00000000
 280:	e000e400 	.word	0xe000e400
 284:	38003840 	.word	0x38003840
 288:	00000000 	.word	0x00000000
 28c:	00000000 	.word	0x00000000
 290:	003c0010 	.word	0x003c0010
 294:	00000000 	.word	0x00000000
 298:	0001f038 	.word	0x0001f038

Disassembly of section .text._Z23nvic_execution_priorityv:

00000000 <_Z23nvic_execution_priorityv>:
   0:	f3ef 8013 	mrs	r0, FAULTMASK
   4:	b9b8      	cbnz	r0, 36 <_Z23nvic_execution_priorityv+0x36>
   6:	f3ef 8310 	mrs	r3, PRIMASK
   a:	b94b      	cbnz	r3, 20 <_Z23nvic_execution_priorityv+0x20>
   c:	f3ef 8205 	mrs	r2, IPSR
  10:	b93a      	cbnz	r2, 22 <_Z23nvic_execution_priorityv+0x22>
  12:	f44f 7380 	mov.w	r3, #256	; 0x100
  16:	f3ef 8011 	mrs	r0, BASEPRI
  1a:	b150      	cbz	r0, 32 <_Z23nvic_execution_priorityv+0x32>
  1c:	4298      	cmp	r0, r3
  1e:	d208      	bcs.n	32 <_Z23nvic_execution_priorityv+0x32>
  20:	4770      	bx	lr
  22:	2a0f      	cmp	r2, #15
  24:	d9f7      	bls.n	16 <_Z23nvic_execution_priorityv+0x16>
  26:	4b05      	ldr	r3, [pc, #20]	; (3c <_Z23nvic_execution_priorityv+0x3c>)
  28:	5c9b      	ldrb	r3, [r3, r2]
  2a:	f3ef 8011 	mrs	r0, BASEPRI
  2e:	2800      	cmp	r0, #0
  30:	d1f4      	bne.n	1c <_Z23nvic_execution_priorityv+0x1c>
  32:	4618      	mov	r0, r3
  34:	4770      	bx	lr
  36:	f04f 30ff 	mov.w	r0, #4294967295	; 0xffffffff
  3a:	e7f1      	b.n	20 <_Z23nvic_execution_priorityv+0x20>
  3c:	e000e3f0 	.word	0xe000e3f0

Disassembly of section .text._ZN19HardwareSerialIMXRT17transmitterEnableEh:

00000000 <_ZN19HardwareSerialIMXRT17transmitterEnableEh>:
   0:	b538      	push	{r3, r4, r5, lr}
   2:	4604      	mov	r4, r0
   4:	460d      	mov	r5, r1
   6:	f894 3044 	ldrb.w	r3, [r4, #68]	; 0x44
   a:	2b00      	cmp	r3, #0
   c:	d1fb      	bne.n	6 <_ZN19HardwareSerialIMXRT17transmitterEnableEh+0x6>
   e:	4628      	mov	r0, r5
  10:	2101      	movs	r1, #1
  12:	f7ff fffe 	bl	0 <pinMode>
  16:	4b05      	ldr	r3, [pc, #20]	; (2c <_ZN19HardwareSerialIMXRT17transmitterEnableEh+0x2c>)
  18:	012a      	lsls	r2, r5, #4
  1a:	eb03 1505 	add.w	r5, r3, r5, lsl #4
  1e:	589b      	ldr	r3, [r3, r2]
  20:	68ea      	ldr	r2, [r5, #12]
  22:	e9c4 3214 	strd	r3, r2, [r4, #80]	; 0x50
  26:	f8c3 2088 	str.w	r2, [r3, #136]	; 0x88
  2a:	bd38      	pop	{r3, r4, r5, pc}
  2c:	00000000 	.word	0x00000000

Disassembly of section .text._ZN19HardwareSerialIMXRT5setRXEh:

00000000 <_ZN19HardwareSerialIMXRT5setRXEh>:
   0:	b5f8      	push	{r3, r4, r5, r6, r7, lr}
   2:	6946      	ldr	r6, [r0, #20]
   4:	7e03      	ldrb	r3, [r0, #24]
   6:	6905      	ldr	r5, [r0, #16]
   8:	eb06 1303 	add.w	r3, r6, r3, lsl #4
   c:	7d1a      	ldrb	r2, [r3, #20]
   e:	428a      	cmp	r2, r1
  10:	d032      	beq.n	78 <_ZN19HardwareSerialIMXRT5setRXEh+0x78>
  12:	7d33      	ldrb	r3, [r6, #20]
  14:	460c      	mov	r4, r1
  16:	4299      	cmp	r1, r3
  18:	d02f      	beq.n	7a <_ZN19HardwareSerialIMXRT5setRXEh+0x7a>
  1a:	f896 3024 	ldrb.w	r3, [r6, #36]	; 0x24
  1e:	4299      	cmp	r1, r3
  20:	d049      	beq.n	b6 <_ZN19HardwareSerialIMXRT5setRXEh+0xb6>
  22:	4f26      	ldr	r7, [pc, #152]	; (bc <_ZN19HardwareSerialIMXRT5setRXEh+0xbc>)
  24:	2300      	movs	r3, #0
  26:	4639      	mov	r1, r7
  28:	461a      	mov	r2, r3
  2a:	e004      	b.n	36 <_ZN19HardwareSerialIMXRT5setRXEh+0x36>
  2c:	3301      	adds	r3, #1
  2e:	2b14      	cmp	r3, #20
  30:	d022      	beq.n	78 <_ZN19HardwareSerialIMXRT5setRXEh+0x78>
  32:	f811 2f10 	ldrb.w	r2, [r1, #16]!
  36:	4294      	cmp	r4, r2
  38:	d1f8      	bne.n	2c <_ZN19HardwareSerialIMXRT5setRXEh+0x2c>
  3a:	4a21      	ldr	r2, [pc, #132]	; (c0 <_ZN19HardwareSerialIMXRT5setRXEh+0xc0>)
  3c:	eb07 1703 	add.w	r7, r7, r3, lsl #4
  40:	6f13      	ldr	r3, [r2, #112]	; 0x70
  42:	7878      	ldrb	r0, [r7, #1]
  44:	f443 0340 	orr.w	r3, r3, #12582912	; 0xc00000
  48:	6713      	str	r3, [r2, #112]	; 0x70
  4a:	f896 105c 	ldrb.w	r1, [r6, #92]	; 0x5c
  4e:	f7ff fffe 	bl	0 <xbar_connect>
  52:	4b1c      	ldr	r3, [pc, #112]	; (c4 <_ZN19HardwareSerialIMXRT5setRXEh+0xc4>)
  54:	2201      	movs	r2, #1
  56:	491c      	ldr	r1, [pc, #112]	; (c8 <_ZN19HardwareSerialIMXRT5setRXEh+0xc8>)
  58:	eb03 1304 	add.w	r3, r3, r4, lsl #4
  5c:	60ea      	str	r2, [r5, #12]
  5e:	e9d3 3201 	ldrd	r3, r2, [r3, #4]
  62:	6011      	str	r1, [r2, #0]
  64:	e9d7 1201 	ldrd	r1, r2, [r7, #4]
  68:	6019      	str	r1, [r3, #0]
  6a:	6a6b      	ldr	r3, [r5, #36]	; 0x24
  6c:	f043 0301 	orr.w	r3, r3, #1
  70:	626b      	str	r3, [r5, #36]	; 0x24
  72:	b10a      	cbz	r2, 78 <_ZN19HardwareSerialIMXRT5setRXEh+0x78>
  74:	68fb      	ldr	r3, [r7, #12]
  76:	6013      	str	r3, [r2, #0]
  78:	bdf8      	pop	{r3, r4, r5, r6, r7, pc}
  7a:	2400      	movs	r4, #0
  7c:	4621      	mov	r1, r4
  7e:	68f5      	ldr	r5, [r6, #12]
  80:	682f      	ldr	r7, [r5, #0]
  82:	6935      	ldr	r5, [r6, #16]
  84:	422f      	tst	r7, r5
  86:	d014      	beq.n	b2 <_ZN19HardwareSerialIMXRT5setRXEh+0xb2>
  88:	4d0e      	ldr	r5, [pc, #56]	; (c4 <_ZN19HardwareSerialIMXRT5setRXEh+0xc4>)
  8a:	2705      	movs	r7, #5
  8c:	eb05 1303 	add.w	r3, r5, r3, lsl #4
  90:	eb05 1502 	add.w	r5, r5, r2, lsl #4
  94:	686d      	ldr	r5, [r5, #4]
  96:	e9d3 3201 	ldrd	r3, r2, [r3, #4]
  9a:	602f      	str	r7, [r5, #0]
  9c:	4d0a      	ldr	r5, [pc, #40]	; (c8 <_ZN19HardwareSerialIMXRT5setRXEh+0xc8>)
  9e:	6015      	str	r5, [r2, #0]
  a0:	eb06 1201 	add.w	r2, r6, r1, lsl #4
  a4:	4611      	mov	r1, r2
  a6:	6992      	ldr	r2, [r2, #24]
  a8:	601a      	str	r2, [r3, #0]
  aa:	69cb      	ldr	r3, [r1, #28]
  ac:	b10b      	cbz	r3, b2 <_ZN19HardwareSerialIMXRT5setRXEh+0xb2>
  ae:	6a0a      	ldr	r2, [r1, #32]
  b0:	601a      	str	r2, [r3, #0]
  b2:	7604      	strb	r4, [r0, #24]
  b4:	bdf8      	pop	{r3, r4, r5, r6, r7, pc}
  b6:	2401      	movs	r4, #1
  b8:	4621      	mov	r1, r4
  ba:	e7e0      	b.n	7e <_ZN19HardwareSerialIMXRT5setRXEh+0x7e>
  bc:	00000000 	.word	0x00000000
  c0:	400fc000 	.word	0x400fc000
  c4:	00000000 	.word	0x00000000
  c8:	0001f038 	.word	0x0001f038

Disassembly of section .text._ZN19HardwareSerialIMXRT5setTXEhb:

00000000 <_ZN19HardwareSerialIMXRT5setTXEhb>:
   0:	b570      	push	{r4, r5, r6, lr}
   2:	6943      	ldr	r3, [r0, #20]
   4:	7e44      	ldrb	r4, [r0, #25]
   6:	eb03 1c04 	add.w	ip, r3, r4, lsl #4
   a:	f89c c034 	ldrb.w	ip, [ip, #52]	; 0x34
   e:	458c      	cmp	ip, r1
  10:	d008      	beq.n	24 <_ZN19HardwareSerialIMXRT5setTXEhb+0x24>
  12:	f893 e034 	ldrb.w	lr, [r3, #52]	; 0x34
  16:	458e      	cmp	lr, r1
  18:	d030      	beq.n	7c <_ZN19HardwareSerialIMXRT5setTXEhb+0x7c>
  1a:	f893 e044 	ldrb.w	lr, [r3, #68]	; 0x44
  1e:	458e      	cmp	lr, r1
  20:	d012      	beq.n	48 <_ZN19HardwareSerialIMXRT5setTXEhb+0x48>
  22:	bd70      	pop	{r4, r5, r6, pc}
  24:	68db      	ldr	r3, [r3, #12]
  26:	46a6      	mov	lr, r4
  28:	681b      	ldr	r3, [r3, #0]
  2a:	4c16      	ldr	r4, [pc, #88]	; (84 <_ZN19HardwareSerialIMXRT5setTXEhb+0x84>)
  2c:	eb04 1401 	add.w	r4, r4, r1, lsl #4
  30:	f880 e019 	strb.w	lr, [r0, #25]
  34:	b122      	cbz	r2, 40 <_ZN19HardwareSerialIMXRT5setTXEhb+0x40>
  36:	f640 02d8 	movw	r2, #2264	; 0x8d8
  3a:	68a3      	ldr	r3, [r4, #8]
  3c:	601a      	str	r2, [r3, #0]
  3e:	bd70      	pop	{r4, r5, r6, pc}
  40:	22d9      	movs	r2, #217	; 0xd9
  42:	68a3      	ldr	r3, [r4, #8]
  44:	601a      	str	r2, [r3, #0]
  46:	bd70      	pop	{r4, r5, r6, pc}
  48:	f04f 0e01 	mov.w	lr, #1
  4c:	68dd      	ldr	r5, [r3, #12]
  4e:	691e      	ldr	r6, [r3, #16]
  50:	682d      	ldr	r5, [r5, #0]
  52:	4235      	tst	r5, r6
  54:	d0e9      	beq.n	2a <_ZN19HardwareSerialIMXRT5setTXEhb+0x2a>
  56:	45a6      	cmp	lr, r4
  58:	d0e7      	beq.n	2a <_ZN19HardwareSerialIMXRT5setTXEhb+0x2a>
  5a:	4c0a      	ldr	r4, [pc, #40]	; (84 <_ZN19HardwareSerialIMXRT5setTXEhb+0x84>)
  5c:	eb03 130e 	add.w	r3, r3, lr, lsl #4
  60:	2605      	movs	r6, #5
  62:	eb04 1c0c 	add.w	ip, r4, ip, lsl #4
  66:	f8dc 5004 	ldr.w	r5, [ip, #4]
  6a:	602e      	str	r6, [r5, #0]
  6c:	f893 c034 	ldrb.w	ip, [r3, #52]	; 0x34
  70:	6b9d      	ldr	r5, [r3, #56]	; 0x38
  72:	eb04 130c 	add.w	r3, r4, ip, lsl #4
  76:	685b      	ldr	r3, [r3, #4]
  78:	601d      	str	r5, [r3, #0]
  7a:	e7d7      	b.n	2c <_ZN19HardwareSerialIMXRT5setTXEhb+0x2c>
  7c:	f04f 0e00 	mov.w	lr, #0
  80:	e7e4      	b.n	4c <_ZN19HardwareSerialIMXRT5setTXEhb+0x4c>
  82:	bf00      	nop
  84:	00000000 	.word	0x00000000

Disassembly of section .text._ZN19HardwareSerialIMXRT9attachRtsEh:

00000000 <_ZN19HardwareSerialIMXRT9attachRtsEh>:
   0:	b510      	push	{r4, lr}
   2:	4604      	mov	r4, r0
   4:	4608      	mov	r0, r1
   6:	6963      	ldr	r3, [r4, #20]
   8:	e9d3 1203 	ldrd	r1, r2, [r3, #12]
   c:	680b      	ldr	r3, [r1, #0]
   e:	4013      	ands	r3, r2
  10:	d017      	beq.n	42 <_ZN19HardwareSerialIMXRT9attachRtsEh+0x42>
  12:	2836      	cmp	r0, #54	; 0x36
  14:	d903      	bls.n	1e <_ZN19HardwareSerialIMXRT9attachRtsEh+0x1e>
  16:	2300      	movs	r3, #0
  18:	4618      	mov	r0, r3
  1a:	65a3      	str	r3, [r4, #88]	; 0x58
  1c:	bd10      	pop	{r4, pc}
  1e:	4b0a      	ldr	r3, [pc, #40]	; (48 <_ZN19HardwareSerialIMXRT9attachRtsEh+0x48>)
  20:	0102      	lsls	r2, r0, #4
  22:	2101      	movs	r1, #1
  24:	eb03 1c00 	add.w	ip, r3, r0, lsl #4
  28:	589a      	ldr	r2, [r3, r2]
  2a:	f8dc 300c 	ldr.w	r3, [ip, #12]
  2e:	e9c4 2316 	strd	r2, r3, [r4, #88]	; 0x58
  32:	f7ff fffe 	bl	0 <pinMode>
  36:	2001      	movs	r0, #1
  38:	e9d4 3216 	ldrd	r3, r2, [r4, #88]	; 0x58
  3c:	f8c3 2088 	str.w	r2, [r3, #136]	; 0x88
  40:	bd10      	pop	{r4, pc}
  42:	4618      	mov	r0, r3
  44:	bd10      	pop	{r4, pc}
  46:	bf00      	nop
  48:	00000000 	.word	0x00000000

Disassembly of section .text._ZN19HardwareSerialIMXRT9attachCtsEh:

00000000 <_ZN19HardwareSerialIMXRT9attachCtsEh>:
   0:	b570      	push	{r4, r5, r6, lr}
   2:	460c      	mov	r4, r1
   4:	6941      	ldr	r1, [r0, #20]
   6:	e9d1 3203 	ldrd	r3, r2, [r1, #12]
   a:	681b      	ldr	r3, [r3, #0]
   c:	4013      	ands	r3, r2
   e:	d032      	beq.n	76 <_ZN19HardwareSerialIMXRT9attachCtsEh+0x76>
  10:	2cff      	cmp	r4, #255	; 0xff
  12:	6906      	ldr	r6, [r0, #16]
  14:	d003      	beq.n	1e <_ZN19HardwareSerialIMXRT9attachCtsEh+0x1e>
  16:	f891 3054 	ldrb.w	r3, [r1, #84]	; 0x54
  1a:	42a3      	cmp	r3, r4
  1c:	d033      	beq.n	86 <_ZN19HardwareSerialIMXRT9attachCtsEh+0x86>
  1e:	4d21      	ldr	r5, [pc, #132]	; (a4 <_ZN19HardwareSerialIMXRT9attachCtsEh+0xa4>)
  20:	2300      	movs	r3, #0
  22:	4628      	mov	r0, r5
  24:	461a      	mov	r2, r3
  26:	e004      	b.n	32 <_ZN19HardwareSerialIMXRT9attachCtsEh+0x32>
  28:	3301      	adds	r3, #1
  2a:	2b14      	cmp	r3, #20
  2c:	d025      	beq.n	7a <_ZN19HardwareSerialIMXRT9attachCtsEh+0x7a>
  2e:	f810 2f10 	ldrb.w	r2, [r0, #16]!
  32:	4294      	cmp	r4, r2
  34:	d1f8      	bne.n	28 <_ZN19HardwareSerialIMXRT9attachCtsEh+0x28>
  36:	4a1c      	ldr	r2, [pc, #112]	; (a8 <_ZN19HardwareSerialIMXRT9attachCtsEh+0xa8>)
  38:	eb05 1503 	add.w	r5, r5, r3, lsl #4
  3c:	6f13      	ldr	r3, [r2, #112]	; 0x70
  3e:	7868      	ldrb	r0, [r5, #1]
  40:	f443 0340 	orr.w	r3, r3, #12582912	; 0xc00000
  44:	6713      	str	r3, [r2, #112]	; 0x70
  46:	f891 105c 	ldrb.w	r1, [r1, #92]	; 0x5c
  4a:	f7ff fffe 	bl	0 <xbar_connect>
  4e:	4b17      	ldr	r3, [pc, #92]	; (ac <_ZN19HardwareSerialIMXRT9attachCtsEh+0xac>)
  50:	2202      	movs	r2, #2
  52:	4817      	ldr	r0, [pc, #92]	; (b0 <_ZN19HardwareSerialIMXRT9attachCtsEh+0xb0>)
  54:	eb03 1304 	add.w	r3, r3, r4, lsl #4
  58:	60f2      	str	r2, [r6, #12]
  5a:	6899      	ldr	r1, [r3, #8]
  5c:	685a      	ldr	r2, [r3, #4]
  5e:	6008      	str	r0, [r1, #0]
  60:	e9d5 1301 	ldrd	r1, r3, [r5, #4]
  64:	6011      	str	r1, [r2, #0]
  66:	b10b      	cbz	r3, 6c <_ZN19HardwareSerialIMXRT9attachCtsEh+0x6c>
  68:	68ea      	ldr	r2, [r5, #12]
  6a:	601a      	str	r2, [r3, #0]
  6c:	6a73      	ldr	r3, [r6, #36]	; 0x24
  6e:	2001      	movs	r0, #1
  70:	4303      	orrs	r3, r0
  72:	6273      	str	r3, [r6, #36]	; 0x24
  74:	bd70      	pop	{r4, r5, r6, pc}
  76:	4618      	mov	r0, r3
  78:	bd70      	pop	{r4, r5, r6, pc}
  7a:	6a73      	ldr	r3, [r6, #36]	; 0x24
  7c:	2000      	movs	r0, #0
  7e:	f023 0301 	bic.w	r3, r3, #1
  82:	6273      	str	r3, [r6, #36]	; 0x24
  84:	bd70      	pop	{r4, r5, r6, pc}
  86:	4a09      	ldr	r2, [pc, #36]	; (ac <_ZN19HardwareSerialIMXRT9attachCtsEh+0xac>)
  88:	4809      	ldr	r0, [pc, #36]	; (b0 <_ZN19HardwareSerialIMXRT9attachCtsEh+0xb0>)
  8a:	eb02 1303 	add.w	r3, r2, r3, lsl #4
  8e:	e9d3 3201 	ldrd	r3, r2, [r3, #4]
  92:	6010      	str	r0, [r2, #0]
  94:	2001      	movs	r0, #1
  96:	f891 2055 	ldrb.w	r2, [r1, #85]	; 0x55
  9a:	601a      	str	r2, [r3, #0]
  9c:	6a73      	ldr	r3, [r6, #36]	; 0x24
  9e:	4303      	orrs	r3, r0
  a0:	6273      	str	r3, [r6, #36]	; 0x24
  a2:	bd70      	pop	{r4, r5, r6, pc}
  a4:	00000000 	.word	0x00000000
  a8:	400fc000 	.word	0x400fc000
  ac:	00000000 	.word	0x00000000
  b0:	00013038 	.word	0x00013038

Disassembly of section .text._ZN19HardwareSerialIMXRT5clearEv:

00000000 <_ZN19HardwareSerialIMXRT5clearEv>:
   0:	f8b0 304c 	ldrh.w	r3, [r0, #76]	; 0x4c
   4:	6d82      	ldr	r2, [r0, #88]	; 0x58
   6:	b29b      	uxth	r3, r3
   8:	f8a0 304a 	strh.w	r3, [r0, #74]	; 0x4a
   c:	b112      	cbz	r2, 14 <_ZN19HardwareSerialIMXRT5clearEv+0x14>
   e:	6dc3      	ldr	r3, [r0, #92]	; 0x5c
  10:	f8c2 3088 	str.w	r3, [r2, #136]	; 0x88
  14:	4770      	bx	lr
  16:	bf00      	nop

Disassembly of section .text._ZN19HardwareSerialIMXRT16addMemoryForReadEPvj:

00000000 <_ZN19HardwareSerialIMXRT16addMemoryForReadEPvj>:
   0:	b410      	push	{r4}
   2:	6241      	str	r1, [r0, #36]	; 0x24
   4:	b199      	cbz	r1, 2e <_ZN19HardwareSerialIMXRT16addMemoryForReadEPvj+0x2e>
   6:	6b03      	ldr	r3, [r0, #48]	; 0x30
   8:	441a      	add	r2, r3
   a:	6944      	ldr	r4, [r0, #20]
   c:	2100      	movs	r1, #0
   e:	6382      	str	r2, [r0, #56]	; 0x38
  10:	f8b4 3058 	ldrh.w	r3, [r4, #88]	; 0x58
  14:	f8b4 405a 	ldrh.w	r4, [r4, #90]	; 0x5a
  18:	1ad3      	subs	r3, r2, r3
  1a:	f8a0 104a 	strh.w	r1, [r0, #74]	; 0x4a
  1e:	1b12      	subs	r2, r2, r4
  20:	f8a0 104c 	strh.w	r1, [r0, #76]	; 0x4c
  24:	f85d 4b04 	ldr.w	r4, [sp], #4
  28:	e9c0 320f 	strd	r3, r2, [r0, #60]	; 0x3c
  2c:	4770      	bx	lr
  2e:	6b02      	ldr	r2, [r0, #48]	; 0x30
  30:	e7eb      	b.n	a <_ZN19HardwareSerialIMXRT16addMemoryForReadEPvj+0xa>
  32:	bf00      	nop

Disassembly of section .text._ZN19HardwareSerialIMXRT17addMemoryForWriteEPvj:

00000000 <_ZN19HardwareSerialIMXRT17addMemoryForWriteEPvj>:
   0:	6281      	str	r1, [r0, #40]	; 0x28
   2:	b141      	cbz	r1, 16 <_ZN19HardwareSerialIMXRT17addMemoryForWriteEPvj+0x16>
   4:	6ac3      	ldr	r3, [r0, #44]	; 0x2c
   6:	441a      	add	r2, r3
   8:	2300      	movs	r3, #0
   a:	6342      	str	r2, [r0, #52]	; 0x34
   c:	f8a0 3046 	strh.w	r3, [r0, #70]	; 0x46
  10:	f8a0 3048 	strh.w	r3, [r0, #72]	; 0x48
  14:	4770      	bx	lr
  16:	6ac2      	ldr	r2, [r0, #44]	; 0x2c
  18:	e7f6      	b.n	8 <_ZN19HardwareSerialIMXRT17addMemoryForWriteEPvj+0x8>
  1a:	bf00      	nop

Disassembly of section .text._ZN19HardwareSerialIMXRT9write9bitEm:

00000000 <_ZN19HardwareSerialIMXRT9write9bitEm>:
   0:	6d03      	ldr	r3, [r0, #80]	; 0x50
   2:	e92d 41f0 	stmdb	sp!, {r4, r5, r6, r7, r8, lr}
   6:	4604      	mov	r4, r0
   8:	460f      	mov	r7, r1
   a:	6906      	ldr	r6, [r0, #16]
   c:	b113      	cbz	r3, 14 <_ZN19HardwareSerialIMXRT9write9bitEm+0x14>
   e:	6d42      	ldr	r2, [r0, #84]	; 0x54
  10:	f8c3 2084 	str.w	r2, [r3, #132]	; 0x84
  14:	7ea3      	ldrb	r3, [r4, #26]
  16:	b12b      	cbz	r3, 24 <_ZN19HardwareSerialIMXRT9write9bitEm+0x24>
  18:	b672      	cpsid	i
  1a:	69b3      	ldr	r3, [r6, #24]
  1c:	f043 5300 	orr.w	r3, r3, #536870912	; 0x20000000
  20:	61b3      	str	r3, [r6, #24]
  22:	b662      	cpsie	i
  24:	f8b4 5046 	ldrh.w	r5, [r4, #70]	; 0x46
  28:	6b63      	ldr	r3, [r4, #52]	; 0x34
  2a:	b2ad      	uxth	r5, r5
  2c:	3501      	adds	r5, #1
  2e:	42ab      	cmp	r3, r5
  30:	d84c      	bhi.n	cc <_ZN19HardwareSerialIMXRT9write9bitEm+0xcc>
  32:	f04f 0800 	mov.w	r8, #0
  36:	4645      	mov	r5, r8
  38:	f8b4 3048 	ldrh.w	r3, [r4, #72]	; 0x48
  3c:	b29b      	uxth	r3, r3
  3e:	429d      	cmp	r5, r3
  40:	d019      	beq.n	76 <_ZN19HardwareSerialIMXRT9write9bitEm+0x76>
  42:	e028      	b.n	96 <_ZN19HardwareSerialIMXRT9write9bitEm+0x96>
  44:	6973      	ldr	r3, [r6, #20]
  46:	021b      	lsls	r3, r3, #8
  48:	d510      	bpl.n	6c <_ZN19HardwareSerialIMXRT9write9bitEm+0x6c>
  4a:	f8b4 3048 	ldrh.w	r3, [r4, #72]	; 0x48
  4e:	6b62      	ldr	r2, [r4, #52]	; 0x34
  50:	b29b      	uxth	r3, r3
  52:	3301      	adds	r3, #1
  54:	429a      	cmp	r2, r3
  56:	d936      	bls.n	c6 <_ZN19HardwareSerialIMXRT9write9bitEm+0xc6>
  58:	b29a      	uxth	r2, r3
  5a:	6ae1      	ldr	r1, [r4, #44]	; 0x2c
  5c:	4299      	cmp	r1, r3
  5e:	d92d      	bls.n	bc <_ZN19HardwareSerialIMXRT9write9bitEm+0xbc>
  60:	69e1      	ldr	r1, [r4, #28]
  62:	5ccb      	ldrb	r3, [r1, r3]
  64:	b2db      	uxtb	r3, r3
  66:	61f3      	str	r3, [r6, #28]
  68:	f8a4 2048 	strh.w	r2, [r4, #72]	; 0x48
  6c:	f8b4 3048 	ldrh.w	r3, [r4, #72]	; 0x48
  70:	b29b      	uxth	r3, r3
  72:	42ab      	cmp	r3, r5
  74:	d10f      	bne.n	96 <_ZN19HardwareSerialIMXRT9write9bitEm+0x96>
  76:	f7ff fffe 	bl	0 <_ZN19HardwareSerialIMXRT9write9bitEm>
  7a:	6963      	ldr	r3, [r4, #20]
  7c:	f8b3 3056 	ldrh.w	r3, [r3, #86]	; 0x56
  80:	4283      	cmp	r3, r0
  82:	dadf      	bge.n	44 <_ZN19HardwareSerialIMXRT9write9bitEm+0x44>
  84:	28ff      	cmp	r0, #255	; 0xff
  86:	ddf1      	ble.n	6c <_ZN19HardwareSerialIMXRT9write9bitEm+0x6c>
  88:	f7ff fffe 	bl	0 <yield>
  8c:	f8b4 3048 	ldrh.w	r3, [r4, #72]	; 0x48
  90:	b29b      	uxth	r3, r3
  92:	42ab      	cmp	r3, r5
  94:	d0ef      	beq.n	76 <_ZN19HardwareSerialIMXRT9write9bitEm+0x76>
  96:	6ae3      	ldr	r3, [r4, #44]	; 0x2c
  98:	42ab      	cmp	r3, r5
  9a:	d91a      	bls.n	d2 <_ZN19HardwareSerialIMXRT9write9bitEm+0xd2>
  9c:	b2ff      	uxtb	r7, r7
  9e:	69e3      	ldr	r3, [r4, #28]
  a0:	555f      	strb	r7, [r3, r5]
  a2:	b672      	cpsid	i
  a4:	2001      	movs	r0, #1
  a6:	f884 0044 	strb.w	r0, [r4, #68]	; 0x44
  aa:	f8a4 8046 	strh.w	r8, [r4, #70]	; 0x46
  ae:	69b3      	ldr	r3, [r6, #24]
  b0:	f443 0300 	orr.w	r3, r3, #8388608	; 0x800000
  b4:	61b3      	str	r3, [r6, #24]
  b6:	b662      	cpsie	i
  b8:	e8bd 81f0 	ldmia.w	sp!, {r4, r5, r6, r7, r8, pc}
  bc:	1a5b      	subs	r3, r3, r1
  be:	6aa1      	ldr	r1, [r4, #40]	; 0x28
  c0:	5ccb      	ldrb	r3, [r1, r3]
  c2:	b2db      	uxtb	r3, r3
  c4:	e7cf      	b.n	66 <_ZN19HardwareSerialIMXRT9write9bitEm+0x66>
  c6:	2200      	movs	r2, #0
  c8:	4613      	mov	r3, r2
  ca:	e7c6      	b.n	5a <_ZN19HardwareSerialIMXRT9write9bitEm+0x5a>
  cc:	fa1f f885 	uxth.w	r8, r5
  d0:	e7b2      	b.n	38 <_ZN19HardwareSerialIMXRT9write9bitEm+0x38>
  d2:	1aed      	subs	r5, r5, r3
  d4:	b2ff      	uxtb	r7, r7
  d6:	6aa3      	ldr	r3, [r4, #40]	; 0x28
  d8:	555f      	strb	r7, [r3, r5]
  da:	e7e2      	b.n	a2 <_ZN19HardwareSerialIMXRT9write9bitEm+0xa2>

Disassembly of section .text._ZN19HardwareSerialIMXRT5writeEh:

00000000 <_ZN19HardwareSerialIMXRT5writeEh>:
   0:	f7ff bffe 	b.w	0 <_ZN19HardwareSerialIMXRT5writeEh>

Disassembly of section .text._ZN19HardwareSerialIMXRT10IRQHandlerEv:

00000000 <_ZN19HardwareSerialIMXRT10IRQHandlerEv>:
   0:	6902      	ldr	r2, [r0, #16]
   2:	6953      	ldr	r3, [r2, #20]
   4:	f413 1f40 	tst.w	r3, #3145728	; 0x300000
   8:	b570      	push	{r4, r5, r6, lr}
   a:	d043      	beq.n	94 <_ZN19HardwareSerialIMXRT10IRQHandlerEv+0x94>
   c:	6ad3      	ldr	r3, [r2, #44]	; 0x2c
   e:	f013 6fe0 	tst.w	r3, #117440512	; 0x7000000
  12:	f3c3 6e02 	ubfx	lr, r3, #24, #3
  16:	d03a      	beq.n	8e <_ZN19HardwareSerialIMXRT10IRQHandlerEv+0x8e>
  18:	f8b0 504a 	ldrh.w	r5, [r0, #74]	; 0x4a
  1c:	f8b0 604c 	ldrh.w	r6, [r0, #76]	; 0x4c
  20:	b2ad      	uxth	r5, r5
  22:	b2b6      	uxth	r6, r6
  24:	e007      	b.n	36 <_ZN19HardwareSerialIMXRT10IRQHandlerEv+0x36>
  26:	6a01      	ldr	r1, [r0, #32]
  28:	f801 c003 	strb.w	ip, [r1, r3]
  2c:	f10e 33ff 	add.w	r3, lr, #4294967295	; 0xffffffff
  30:	f013 0eff 	ands.w	lr, r3, #255	; 0xff
  34:	d01d      	beq.n	72 <_ZN19HardwareSerialIMXRT10IRQHandlerEv+0x72>
  36:	69d1      	ldr	r1, [r2, #28]
  38:	1c6b      	adds	r3, r5, #1
  3a:	6b84      	ldr	r4, [r0, #56]	; 0x38
  3c:	f8b0 c04c 	ldrh.w	ip, [r0, #76]	; 0x4c
  40:	f3c1 0109 	ubfx	r1, r1, #0, #10
  44:	429c      	cmp	r4, r3
  46:	bf98      	it	ls
  48:	2300      	movls	r3, #0
  4a:	fa1f fc8c 	uxth.w	ip, ip
  4e:	459c      	cmp	ip, r3
  50:	d0ec      	beq.n	2c <_ZN19HardwareSerialIMXRT10IRQHandlerEv+0x2c>
  52:	6b04      	ldr	r4, [r0, #48]	; 0x30
  54:	fa5f fc81 	uxtb.w	ip, r1
  58:	461d      	mov	r5, r3
  5a:	429c      	cmp	r4, r3
  5c:	eba3 0404 	sub.w	r4, r3, r4
  60:	d8e1      	bhi.n	26 <_ZN19HardwareSerialIMXRT10IRQHandlerEv+0x26>
  62:	6a43      	ldr	r3, [r0, #36]	; 0x24
  64:	f803 c004 	strb.w	ip, [r3, r4]
  68:	f10e 33ff 	add.w	r3, lr, #4294967295	; 0xffffffff
  6c:	f013 0eff 	ands.w	lr, r3, #255	; 0xff
  70:	d1e1      	bne.n	36 <_ZN19HardwareSerialIMXRT10IRQHandlerEv+0x36>
  72:	b2ab      	uxth	r3, r5
  74:	f8a0 304a 	strh.w	r3, [r0, #74]	; 0x4a
  78:	6d83      	ldr	r3, [r0, #88]	; 0x58
  7a:	b143      	cbz	r3, 8e <_ZN19HardwareSerialIMXRT10IRQHandlerEv+0x8e>
  7c:	42b5      	cmp	r5, r6
  7e:	d354      	bcc.n	12a <_ZN19HardwareSerialIMXRT10IRQHandlerEv+0x12a>
  80:	1bad      	subs	r5, r5, r6
  82:	6c01      	ldr	r1, [r0, #64]	; 0x40
  84:	42a9      	cmp	r1, r5
  86:	d802      	bhi.n	8e <_ZN19HardwareSerialIMXRT10IRQHandlerEv+0x8e>
  88:	6dc1      	ldr	r1, [r0, #92]	; 0x5c
  8a:	f8c3 1084 	str.w	r1, [r3, #132]	; 0x84
  8e:	6953      	ldr	r3, [r2, #20]
  90:	02d9      	lsls	r1, r3, #11
  92:	d445      	bmi.n	120 <_ZN19HardwareSerialIMXRT10IRQHandlerEv+0x120>
  94:	6996      	ldr	r6, [r2, #24]
  96:	0233      	lsls	r3, r6, #8
  98:	d528      	bpl.n	ec <_ZN19HardwareSerialIMXRT10IRQHandlerEv+0xec>
  9a:	6953      	ldr	r3, [r2, #20]
  9c:	021d      	lsls	r5, r3, #8
  9e:	d525      	bpl.n	ec <_ZN19HardwareSerialIMXRT10IRQHandlerEv+0xec>
  a0:	f8b0 5046 	ldrh.w	r5, [r0, #70]	; 0x46
  a4:	f8b0 3048 	ldrh.w	r3, [r0, #72]	; 0x48
  a8:	b2ad      	uxth	r5, r5
  aa:	b29b      	uxth	r3, r3
  ac:	e006      	b.n	bc <_ZN19HardwareSerialIMXRT10IRQHandlerEv+0xbc>
  ae:	69c1      	ldr	r1, [r0, #28]
  b0:	5cc9      	ldrb	r1, [r1, r3]
  b2:	b2c9      	uxtb	r1, r1
  b4:	61d1      	str	r1, [r2, #28]
  b6:	6ad1      	ldr	r1, [r2, #44]	; 0x2c
  b8:	054c      	lsls	r4, r1, #21
  ba:	d412      	bmi.n	e2 <_ZN19HardwareSerialIMXRT10IRQHandlerEv+0xe2>
  bc:	42ab      	cmp	r3, r5
  be:	d038      	beq.n	132 <_ZN19HardwareSerialIMXRT10IRQHandlerEv+0x132>
  c0:	6b44      	ldr	r4, [r0, #52]	; 0x34
  c2:	3301      	adds	r3, #1
  c4:	6ac1      	ldr	r1, [r0, #44]	; 0x2c
  c6:	429c      	cmp	r4, r3
  c8:	bf98      	it	ls
  ca:	2300      	movls	r3, #0
  cc:	4299      	cmp	r1, r3
  ce:	eba3 0401 	sub.w	r4, r3, r1
  d2:	d8ec      	bhi.n	ae <_ZN19HardwareSerialIMXRT10IRQHandlerEv+0xae>
  d4:	6a81      	ldr	r1, [r0, #40]	; 0x28
  d6:	5d09      	ldrb	r1, [r1, r4]
  d8:	b2c9      	uxtb	r1, r1
  da:	61d1      	str	r1, [r2, #28]
  dc:	6ad1      	ldr	r1, [r2, #44]	; 0x2c
  de:	054c      	lsls	r4, r1, #21
  e0:	d5ec      	bpl.n	bc <_ZN19HardwareSerialIMXRT10IRQHandlerEv+0xbc>
  e2:	b299      	uxth	r1, r3
  e4:	42ab      	cmp	r3, r5
  e6:	f8a0 1048 	strh.w	r1, [r0, #72]	; 0x48
  ea:	d025      	beq.n	138 <_ZN19HardwareSerialIMXRT10IRQHandlerEv+0x138>
  ec:	0271      	lsls	r1, r6, #9
  ee:	d516      	bpl.n	11e <_ZN19HardwareSerialIMXRT10IRQHandlerEv+0x11e>
  f0:	6953      	ldr	r3, [r2, #20]
  f2:	025b      	lsls	r3, r3, #9
  f4:	d513      	bpl.n	11e <_ZN19HardwareSerialIMXRT10IRQHandlerEv+0x11e>
  f6:	2100      	movs	r1, #0
  f8:	6d03      	ldr	r3, [r0, #80]	; 0x50
  fa:	f880 1044 	strb.w	r1, [r0, #68]	; 0x44
  fe:	b113      	cbz	r3, 106 <_ZN19HardwareSerialIMXRT10IRQHandlerEv+0x106>
 100:	6d41      	ldr	r1, [r0, #84]	; 0x54
 102:	f8c3 1088 	str.w	r1, [r3, #136]	; 0x88
 106:	7e83      	ldrb	r3, [r0, #26]
 108:	b12b      	cbz	r3, 116 <_ZN19HardwareSerialIMXRT10IRQHandlerEv+0x116>
 10a:	b672      	cpsid	i
 10c:	6993      	ldr	r3, [r2, #24]
 10e:	f023 5300 	bic.w	r3, r3, #536870912	; 0x20000000
 112:	6193      	str	r3, [r2, #24]
 114:	b662      	cpsie	i
 116:	6993      	ldr	r3, [r2, #24]
 118:	f423 0380 	bic.w	r3, r3, #4194304	; 0x400000
 11c:	6193      	str	r3, [r2, #24]
 11e:	bd70      	pop	{r4, r5, r6, pc}
 120:	6953      	ldr	r3, [r2, #20]
 122:	f443 1380 	orr.w	r3, r3, #1048576	; 0x100000
 126:	6153      	str	r3, [r2, #20]
 128:	e7b4      	b.n	94 <_ZN19HardwareSerialIMXRT10IRQHandlerEv+0x94>
 12a:	6b81      	ldr	r1, [r0, #56]	; 0x38
 12c:	1b89      	subs	r1, r1, r6
 12e:	440d      	add	r5, r1
 130:	e7a7      	b.n	82 <_ZN19HardwareSerialIMXRT10IRQHandlerEv+0x82>
 132:	b29b      	uxth	r3, r3
 134:	f8a0 3048 	strh.w	r3, [r0, #72]	; 0x48
 138:	6993      	ldr	r3, [r2, #24]
 13a:	f423 0300 	bic.w	r3, r3, #8388608	; 0x800000
 13e:	6193      	str	r3, [r2, #24]
 140:	6993      	ldr	r3, [r2, #24]
 142:	f443 0380 	orr.w	r3, r3, #4194304	; 0x400000
 146:	6193      	str	r3, [r2, #24]
 148:	e7d0      	b.n	ec <_ZN19HardwareSerialIMXRT10IRQHandlerEv+0xec>
 14a:	bf00      	nop

Disassembly of section .text._ZN19HardwareSerialIMXRT21addToSerialEventsListEv:

00000000 <_ZN19HardwareSerialIMXRT21addToSerialEventsListEv>:
   0:	b470      	push	{r4, r5, r6}
   2:	4e10      	ldr	r6, [pc, #64]	; (44 <_ZN19HardwareSerialIMXRT21addToSerialEventsListEv+0x44>)
   4:	7834      	ldrb	r4, [r6, #0]
   6:	b1d4      	cbz	r4, 3e <_ZN19HardwareSerialIMXRT21addToSerialEventsListEv+0x3e>
   8:	1e61      	subs	r1, r4, #1
   a:	4d0f      	ldr	r5, [pc, #60]	; (48 <_ZN19HardwareSerialIMXRT21addToSerialEventsListEv+0x48>)
   c:	b2c9      	uxtb	r1, r1
   e:	1f2b      	subs	r3, r5, #4
  10:	eb05 0181 	add.w	r1, r5, r1, lsl #2
  14:	e001      	b.n	1a <_ZN19HardwareSerialIMXRT21addToSerialEventsListEv+0x1a>
  16:	428b      	cmp	r3, r1
  18:	d005      	beq.n	26 <_ZN19HardwareSerialIMXRT21addToSerialEventsListEv+0x26>
  1a:	f853 2f04 	ldr.w	r2, [r3, #4]!
  1e:	4282      	cmp	r2, r0
  20:	d1f9      	bne.n	16 <_ZN19HardwareSerialIMXRT21addToSerialEventsListEv+0x16>
  22:	bc70      	pop	{r4, r5, r6}
  24:	4770      	bx	lr
  26:	1c63      	adds	r3, r4, #1
  28:	b2db      	uxtb	r3, r3
  2a:	4a08      	ldr	r2, [pc, #32]	; (4c <_ZN19HardwareSerialIMXRT21addToSerialEventsListEv+0x4c>)
  2c:	7033      	strb	r3, [r6, #0]
  2e:	7813      	ldrb	r3, [r2, #0]
  30:	f845 0024 	str.w	r0, [r5, r4, lsl #2]
  34:	f043 0302 	orr.w	r3, r3, #2
  38:	7013      	strb	r3, [r2, #0]
  3a:	bc70      	pop	{r4, r5, r6}
  3c:	4770      	bx	lr
  3e:	2301      	movs	r3, #1
  40:	4d01      	ldr	r5, [pc, #4]	; (48 <_ZN19HardwareSerialIMXRT21addToSerialEventsListEv+0x48>)
  42:	e7f2      	b.n	2a <_ZN19HardwareSerialIMXRT21addToSerialEventsListEv+0x2a>
  44:	00000000 	.word	0x00000000
  48:	00000000 	.word	0x00000000
  4c:	00000000 	.word	0x00000000
