
build/./teensy4/printf.c.o:     file format elf32-littlearm

SYMBOL TABLE:
00000000 l    df *ABS*	00000000 printf.c
00000000 l    d  .text	00000000 .text
00000000 l    d  .data	00000000 .data
00000000 l    d  .bss	00000000 .bss
00000000 l    d  .text._out_buffer	00000000 .text._out_buffer
00000000 l     F .text._out_buffer	00000008 _out_buffer
00000000 l    d  .text._out_null	00000000 .text._out_null
00000000 l     F .text._out_null	00000002 _out_null
00000000 l    d  .text._out_rev	00000000 .text._out_rev
00000000 l     F .text._out_rev	00000088 _out_rev
00000000 l    d  .text._ntoa_format	00000000 .text._ntoa_format
00000000 l     F .text._ntoa_format	000001de _ntoa_format
00000000 l    d  .text._ntoa_long	00000000 .text._ntoa_long
00000000 l     F .text._ntoa_long	00000098 _ntoa_long
00000000 l    d  .text._ntoa_long_long	00000000 .text._ntoa_long_long
00000000 l     F .text._ntoa_long_long	000000c6 _ntoa_long_long
00000000 l    d  .text._etoa	00000000 .text._etoa
00000000 l     F .text._etoa	00000338 _etoa
00000000 l     F .text._ftoa	0000037c _ftoa
00000000 l    d  .rodata._ftoa.str1.4	00000000 .rodata._ftoa.str1.4
00000000 l    d  .text._ftoa	00000000 .text._ftoa
00000000 l    d  .text.vsnprintf_	00000000 .text.vsnprintf_
00000000 l    d  .rodata.pow10.0	00000000 .rodata.pow10.0
00000000 l     O .rodata.pow10.0	00000050 pow10.0
00000000 l    d  .comment	00000000 .comment
00000000 l    d  .ARM.attributes	00000000 .ARM.attributes
00000000         *UND*	00000000 __aeabi_uldivmod
00000000 g     F .text.vsnprintf_	00000668 vsnprintf_


Contents of section .text._out_buffer:
 0000 9a4238bf 88547047                    .B8..TpG        
Contents of section .text._out_null:
 0000 704700bf                             pG..            
Contents of section .text._out_rev:
 0000 2de9f84f 9a460d9b 17460646 9a078b46  -..O.F...F.F...F
 0010 ddf82880 11d1dde9 0b329342 0dd23c46  ..(......2.B..<F
 0020 dde90b23 9d1a3d44 22460134 53465946  ...#..=D"F.4SFYF
 0030 2020b047 ac42f7d1 00e03d46 0b9b7bb1    .G.B....=F..{.
 0040 0b9b08eb 030404eb 0509a9eb 040214f8  ................
 0050 010d5346 5946b047 4445f6d1 0b9b1d44  ..SFYF.GDE.....D
 0060 0d9b9b07 0dd5ef1b 0c9bbb42 09d91c46  ...........B...F
 0070 01372a46 53465946 20200135 b047a742  .7*FSFYF  .5.G.B
 0080 f6d32846 bde8f88f                    ..(F....        
Contents of section .text._ntoa_format:
 0000 2de9f04f 0f9eddf8 24e016f0 020f0a9c  -..O....$.......
 0010 9df82c90 0e9ddde9 0c872ed1 002d6fd1  ..,..........-o.
 0020 1f2c06f0 010a0dd8 bc420bd2 04f1ff3c  .,.......B.....<
 0030 4ff0300b f4440134 0cf801bf a74201d9  O.0..D.4.....B..
 0040 1f2cf8d9 baf1000f 17d01f2c 8cbf4ff0  .,.........,..O.
 0050 000c4ff0 010ca542 0fd9bcf1 000f0cd0  ..O....B........
 0060 04f1ff3c 4ff0300a f44401e0 1f2c04d8  ...<O.0..D...,..
 0070 01340cf8 01afac42 f8d316f0 100f2ed0  .4.....B........
 0080 16f4806f 18d0b8f1 100f73d0 b8f1020f  ...o......s.....
 0090 08d11f2c 06d80eeb 04074ff0 620c0134  ...,......O.b..4
 00a0 87f800c0 202c13d1 cde90b56 cde909e4  .... ,.....V....
 00b0 bde8f04f fff7febf 002c51d1 b8f1100f  ...O.....,Q.....
 00c0 79d0b8f1 020f7dd1 62248ef8 00400124  y.....}.b$...@.$
 00d0 0eeb0407 4ff0300c 013487f8 00c0202c  ....O.0..4.... ,
 00e0 e2d0b9f1 000f20d0 2d270ef8 04700134  ...... .-'...p.4
 00f0 cde90b56 cde909e4 bde8f04f fff7febf  ...V.......O....
 0100 16f0010a 26d0b9f1 000f48d1 16f00c0f  ....&.....H.....
 0110 45d11f2c 8cbf4ff0 000c4ff0 010cbc42  E..,..O...O....B
 0120 99d2bcf1 000f81d1 95e77707 06d43707  ..........w...7.
 0130 bad52027 0ef80470 0134b5e7 2b270ef8  .. '...p.4..+'..
 0140 04700134 cde90b56 cde909e4 bde8f04f  .p.4...V.......O
 0150 fff7febf 1f2c90d8 bc42fff4 67af8ce7  .....,...B..g...
 0160 bc4201d0 ac428ed1 671e22d0 b8f1100f  .B...B..g.".....
 0170 1fd1023c 1f2c8cbf 00270127 16f0200c  ...<.,...'.'.. .
 0180 00d177b9 bcf1000f 8cd0002f 8ad00eeb  ..w......../....
 0190 04074ff0 580c0134 87f800c0 82e7013d  ..O.X..4.......=
 01a0 b7e70eeb 04074ff0 780c0134 87f800c0  ......O.x..4....
 01b0 78e73c46 67e7b406 0cd47824 8ef80040  x.<Fg.....x$...@
 01c0 012485e7 30248ef8 00400124 b9f1000f  .$..0$...@.$....
 01d0 abd089e7 58248ef8 00400124 78e700bf  ....X$...@.$x...
Contents of section .text._ntoa_long:
 0000 2de9f04f 93b09df8 74501c9c 0995ddf8  -..O....tP......
 0010 84a01e9d ccb92af0 10061af4 806fb246  ......*......o.F
 0020 13d02646 0df1280b 209ccdf8 18a00594  ..&F..(. .......
 0030 1f9ccdf8 00b0cde9 0354099c cde90164  .........T.....d
 0040 fff7feff 13b0bde8 f08f1af0 200f0df1  ............ ...
 0050 280b4ff0 000614bf 4ff04109 4ff06109  (.O.....O.A.O.a.
 0060 d846a9f1 0a090136 b4fbf5fe 05fb1e4c  .F.....6.......L
 0070 5ffa8cf7 bcf1090f 07eb090c 07f13007  _.............0.
 0080 8cbf5ffa 8cf7ffb2 ac427446 08f8017b  .._......BtF...{
 0090 cad31f2e e7d9c7e7                    ........        
Contents of section .text._ntoa_long_long:
 0000 2de9f04f 2ded048b 93b09b46 08ee100a  -..O-......F....
 0010 08ee901a 9df88830 09ee102a 209d219c  .......0...* .!.
 0020 089355ea 0403dde9 247823d1 289b289a  ..U.....$x#.(.(.
 0030 23f01003 28935305 1cd50aab 00260993  #...(.S......&..
 0040 289b19ee 102a099c 18ee901a 069318ee  (....*..........
 0050 100a279b 00940593 269bcde9 0373089b  ..'.....&....s..
 0060 cde90163 5b46fff7 feff13b0 bdec048b  ...c[F..........
 0070 bde8f08f 289b0026 13f0200f 0aab14bf  ....(..&.. .....
 0080 4ff0410a 4ff0610a 99460993 aaf10a0a  O.A.O.a..F......
 0090 21462846 3a464346 fff7feff 0136d2b2  !F(F:FCF.....6..
 00a0 092a02eb 0a0302f1 3002dbb2 98bfd3b2  .*......0.......
 00b0 bd420546 74eb0804 09f8013b 0c46bfd3  .B.Ft......;.F..
 00c0 1f2ee5d9 bce700bf                    ........        
Contents of section .text._etoa:
 0000 b4ee400b 2de9f04f f1ee10fa 05461446  ..@.-..O.....F.F
 0010 2ded028b 8bb0dde9 167a189e 40f0bf80  -........z..@...
 0020 9fedb17b b4eec70b f1ee10fa 00f3b780  ...{............
 0030 9fedaf7b b4eec70b f1ee10fa 00f1af80  ...{............
 0040 b5eec00b f1ee10fa 00f13581 b0ee404b  ..........5...@K
 0050 14ee900a 14ee108a b7ee085b 16f48062  ...........[...b
 0060 c0f30a5c c0f31300 b6ee006b 08bf0627  ...\.......k...'
 0070 acf2ff3c 40f07f59 07ee90ca 49f44019  ...<@..Y....I.@.
 0080 9fed9d8b b8eee77b 9fed9d3b 9fed9e1b  .......{...;....
 0090 9fed9f2b a7ee083b 49ec188b 38ee455b  ...+...;I...8.E[
 00a0 4ff00008 9fed9c7b a5ee013b 9fed9c1b  O......{...;....
 00b0 fdeec35b b2ee0c3b 15ee90ba b8eee55b  ...[...;.......[
 00c0 a5ee026b bdeec66b b8eec62b 16ee100a  ...k...k...+....
 00d0 b1ee086b 00f2ff30 27ee427b 4fea0059  ...k...0'.B{O..Y
 00e0 b2ee042b a5ee017b 27ee078b 37ee071b  ...+...{'...7...
 00f0 88ee035b 35ee025b 88ee053b b0ee005b  ...[5..[...;...[
 0100 35ee477b b7ee005b 33ee063b 88ee036b  5.G{...[3..;...k
 0110 36ee076b 81ee067b 49ec168b 37ee057b  6..k...{I...7..{
 0120 27ee067b b4eec47b f1ee10fa 43dcb0ee  '..{...{....C...
 0130 476b0bf1 6300c728 34bf4ff0 04084ff0  Gk..c..(4.O...O.
 0140 05083005 3fd59fed 787bb4ee c74bf1ee  ..0.?...x{...K..
 0150 10fa35db 9fed767b b4eec74b f1ee10fa  ..5...v{...K....
 0160 2ed55f45 40f3b580 a7eb0b07 013f46f4  .._E@........?F.
 0170 8062baf1 000f40f0 a380b5ee c00bf1ee  .b....@.........
 0180 10fa00f1 a88026f4 0066b0ee 440b2246  ......&..f..D."F
 0190 284646f4 8066cde9 167a1896 04e02246  (FF..f...z...."F
 01a0 28461697 cde917a6 0bb0bdec 028bbde8  (F..............
 01b0 f04ffff7 febf87ee 026b0bf1 ff3bb8e7  .O.......k...;..
 01c0 0fb1002a 7ad1d045 60d3c6f3 40090022  ...*z..E`...@.."
 01d0 b9f1000f 18bf0022 bbf1000f 61d084ee  ......."....a...
 01e0 064b0120 0790b5ee c00bf1ee 10fa5fd4  .K. .........._.
 01f0 b0ee440b 28460993 0891cde9 007226f4  ..D.(F.......r&.
 0200 00620292 2246fff7 feff079b 0746002b  .b.."F.......F.+
 0210 36d016f0 200f0899 0246099b 14bf4520  6... ....F....E 
 0220 65200791 0137a847 05200021 08f1ff32  e ...7.G. .!...2
 0230 05900a20 099b0492 3a460893 cde90201  ... ....:F......
 0240 4feadb70 07990190 8beaeb70 a0ebeb70  O..p.......p...p
 0250 00902846 fff7feff 0746b9f1 000f0fd0  ..(F.....F......
 0260 041ba245 0cd90799 089b0e46 98460134  ...E.......F.F.4
 0270 3a464346 31462020 0137a847 a245f6d8  :FCF1F  .7.G.E..
 0280 38460bb0 bdec028b bde8f08f c6f34009  8F............@.
 0290 aaeb0802 b9f1000f 18bf0022 bbf1000f  ..........."....
 02a0 9dd1b5ee c00b0120 0790f1ee 10fa9fd5  ....... ........
 02b0 b1ee444b 9ce7b1ee 404bc9e6 013f82e7  ..DK....@K...?..
 02c0 4ff0000b 16465246 d846d946 cdf81cb0  O....FRF.F.F....
 02d0 89e70027 4be71646 d0465246 d146d346  ...'K..F.FRF.F.F
 02e0 cdf81ca0 e4e700bf ffffffff ffffef7f  ................
 02f0 ffffffff ffffefff fb799f50 1344d33f  .........y.P.D.?
 0300 b3c8608b 288ac63f 61436f63 a787d23f  ..`.(..?aCoc...?
 0310 71a37909 4f930a40 ef39fafe 422ee63f  q.y.O..@.9..B..?
 0320 1655b5bb b16b0240 2d431ceb e2361a3f  .U...k.@-C...6.?
 0330 00000000 80842e41                    .......A        
Contents of section .rodata._ftoa.str1.4:
 0000 666e692b 00000000 666e6900 6e616e00  fni+....fni.nan.
 0010 666e692d 00                          fni-.           
Contents of section .text._ftoa:
 0000 b4ee400b 2de9f04f f1ee10fa 91b0dde9  ..@.-..O........
 0010 1a4a1c9e 059040f0 c8809fed bf7bb4ee  .J....@......{..
 0020 c70bf1ee 10fa00f1 e2809fed bd7bb4ee  .............{..
 0030 c70bf1ee 10fa00f3 a5800f46 90469946  ...........F.F.F
 0040 9fedb97b b4eec70b f1ee10fa 00f3c380  ...{............
 0050 9fedb77b b4eec70b f1ee10fa 00f1bb80  ...{............
 0060 9fedb57b b4eec70b f1ee10fa 00f1a880  ...{............
 0070 00230793 16f48060 00f0ec80 092c40f2  .#.....`.....,@.
 0080 6f8108ab 00203022 06930130 013c03f8  o.... 0"...0.<..
 0090 012b1f28 01d8092c f7d89fed a36bfdee  .+.(...,.....k..
 00a0 c07bb6ee 005b17ee 90cab8ee e77b30ee  .{...[.......{0.
 00b0 477b27ee 067bfcee c74b14ee 903ab8ee  G{'..{...K...:..
 00c0 644b37ee 447bb4ee c57bf1ee 10fa40f3  dK7.D{...{....@.
 00d0 bb800133 07ee903a b8ee677b b4eec67b  ...3...:..g{...{
 00e0 f1ee10fa 02db0cf1 010c0023 002c40f0  ...........#.,@.
 00f0 898007ee 90cab6ee 006bb8ee e77b30ee  .........k...{0.
 0100 470bb4ee c60bf1ee 10fa5ed5 5ddc421e  G.........^.].B.
 0110 069b8d49 1a4481fb 0c342028 4feaec73  ...I.D...4 (O..s
 0120 00f10100 c3eba403 00f08880 03eb8304  ................
 0130 aceb4404 9c4604f1 300302f8 013fbcf1  ..D..F..0....?..
 0140 000fe8d1 06f00303 012b00f0 dc802028  .........+.... (
 0150 0ad0079b 002b00f0 838000f1 40032d22  .....+......@.-"
 0160 01306b44 03f8202c 01904b46 42463946  .0kD.. ,..KFBF9F
 0170 dde90504 cde902a6 0094fff7 feff11b0  ................
 0180 bde8f08f cde902a6 06f00406 6f4d704c  ............oMpL
 0190 002e08bf 2c460094 14bf0424 03240194  ....,F.....$.$..
 01a0 fff7feff 11b0bde8 f08f0324 0194694c  ...........$..iL
 01b0 cde902a6 0094fff7 feff11b0 bde8f08f  ................
 01c0 012337ee 400b0793 54e71cf0 010f9ed0  .#7.@...T.......
 01d0 0cf1010c 9be74b46 42463946 05981a94  ......KFBF9F....
 01e0 cde91ba6 11b0bde8 f04ffff7 febf0424  .........O.....$
 01f0 0194594c cde902a6 0094fff7 feff11b0  ..YL............
 0200 bde8f08f 411e069a 114411e0 534d092b  ....A....D..SM.+
 0210 a5fb03e5 4fead505 05eb850e a3eb4e0e  ....O.........N.
 0220 2b460ef1 300e01f8 01ef26d9 5c461046  +F..0.....&.\F.F
 0230 202804f1 ff3b00f1 0102e7d1 06f00303   (...;..........
 0240 012b41d0 20208fe7 3ff550af 002b37d1  .+A.  ..?.P..+7.
 0250 01334be7 08ab0624 9fed396b 06931ee7  .3K....$..9k....
 0260 720725d4 33077ff5 7faf00f1 40032022  r.%.3.......@. "
 0270 01306b44 03f8202c 76e7202a ded0bbf1  .0kD.. ,v. *....
 0280 000f76d0 069b3025 19181046 013001f8  ..v...0%...F.0..
 0290 015f231a 202803f1 ff33cfd0 da42f5d1  ._#. (...3...B..
 02a0 00f14003 2e220130 6b4403f8 202c2ee7  ..@..".0kD.. ,..
 02b0 00f14003 2b220130 6b4403f8 202c53e7  ..@.+".0kD.. ,S.
 02c0 d9077ff5 13afc3e7 baf1000f bad00023  ...............#
 02d0 2020079a 12b916f0 0c0f01d0 0af1ff3a    .............:
 02e0 5045bff4 34af002b 3ff431af 069a431e  PE..4..+?.1...C.
 02f0 13443022 013003f8 012f5045 bff427af  .D0".0.../PE..'.
 0300 1f28f7d9 23e7baf1 000f3ff4 20af1f28  .(..#.....?. ..(
 0310 8cbf0023 0123dce7 ffffffff ffffefff  ...#.#..........
 0320 ffffffff ffffef7f 00000000 65cdcd41  ............e..A
 0330 00000000 65cdcdc1 00000000 00000000  ....e...........
 0340 00000000 80842e41 67666666 08000000  .......Agfff....
 0350 00000000 0c000000 10000000 cdcccccc  ................
 0360 054b0020 03ebc403 93ed006b 08ab0693  .K. .......k....
 0370 95e61046 94e700bf 00000000           ...F........    
Contents of section .text.vsnprintf_:
 0000 2de9f04f 1446b0f1 000a9c4a 91b09846  -..O.F.....J...F
 0010 20789b4b 18bf1346 8b460b93 002800f0   x.K...F.F...(..
 0020 62820025 99460ae0 6e1c2a46 5b465146  b..%.F..n.*F[FQF
 0030 01343546 c8472078 002800f0 bb802528  .45F.G x.(....%(
 0040 f2d1631c 4ff0000c 1c4613f8 010ba0f1  ..c.O....F......
 0050 2002102a 0ad8dfe8 02f08c09 09890909   ..*............
 0060 09090909 09860983 09098000 a0f13003  ..............0.
 0070 092b40f2 bc802a28 00f0c680 00262e28  .+@...*(.....&.(
 0080 00f0a780 0027a0f1 6803122b 18d8dfe8  .....'..h..+....
 0090 13f0f900 1700ef00 1700e700 17001700  ................
 00a0 17001700 17001700 17001300 17001700  ................
 00b0 17001700 17001300 60784cf4 807c0134  ........`xL..|.4
 00c0 672859d8 24286ad9 a0f12503 422b66d8  g(Y.$(j...%.B+f.
 00d0 dfe813f0 f6006500 65006500 65006500  ......e.e.e.e.e.
 00e0 65006500 65006500 65006500 65006500  e.e.e.e.e.e.e.e.
 00f0 65006500 65006500 65006500 65006500  e.e.e.e.e.e.e.e.
 0100 65006500 65006500 65006500 65006500  e.e.e.e.e.e.e.e.
 0110 65006500 a100e000 a1006500 65006500  e.e.......e.e.e.
 0120 65006500 65006500 65006500 65006500  e.e.e.e.e.e.e.e.
 0130 65006500 65006500 6500f101 65006500  e.e.e.e.e...e.e.
 0140 65006500 65006500 65006500 6500f101  e.e.e.e.e.e.e...
 0150 ff00f101 a100e000 a1004cf0 010c73e7  ..........L...s.
 0160 4cf0020c 70e74cf0 040c6de7 4cf0100c  L...p.L...m.L...
 0170 6ae74cf0 080c67e7 a0f16903 dbb20f2b  j.L...g...i....+
 0180 0dd80122 49f24101 9a400a40 0a9240f0  ..."I.A..@.@..@.
 0190 15810a2b 00f0cd80 072b00f0 b4806b1c  ...+.....+....k.
 01a0 01342a46 51461d46 5b46c847 20780028  .4*FQF.F[F.G x.(
 01b0 7ff445af 2c46ab45 01d80bf1 ff352a46  ..E.,F.E.....5*F
 01c0 5b465146 00200b9d a8472046 11b0bde8  [FQF. ...G F....
 01d0 f08f6078 4cf4806c 621ca0f1 3003092b  ..`xL..lb...0..+
 01e0 40f22f81 2a2800f0 3b811446 4ae70026  @./.*(..;..FJ..&
 01f0 06eb8606 00eb4606 14f8010f a0f13003  ......F.......0.
 0200 303e092b f4d93ae7 58f8046b 002e21db  0>.+..:.X..k..!.
 0210 60780134 33e700f0 df0300f0 fd0008f1  `x.43...........
 0220 07082a46 472b5146 28f00708 5b4608bf  ..*FG+QF(...[F..
 0230 4cf4006c 45284846 04f10104 08bf4cf0  L..lE(HF......L.
 0240 200cb8ec 020bcde9 016c0097 fff7feff   ........l......
 0250 0546f0e6 60784cf0 020c7642 01340ee7  .F..`xL...vB.4..
 0260 60786c28 00f03a81 4cf4807c 013427e7  `xl(..:.L..|.4'.
 0270 60784cf4 007c0134 22e700bf 00000000  `xL..|.4".......
 0280 00000000 60786828 00f02381 4cf0800c  ....`xh(..#.L...
 0290 013415e7 462808f1 07082a46 5b4608bf  .4..F(....*F[F..
 02a0 4cf0200c 28f00708 51464846 0134b8ec  L. .(...QFHF.4..
 02b0 020bcde9 016c0097 fff7feff 0546bae6  .....l.......F..
 02c0 6b1c2a46 51462520 1d465b46 0134c847  k.*FQF% .F[F.4.G
 02d0 b1e61cf0 020f00f0 098158f8 040b5b46  ..........X...[F
 02e0 2a465146 c0b26f1c c847012e 40f24981  *FQF..o..G..@.I.
 02f0 35443a46 01375b46 51462020 c847af42  5D:F.7[FQF  .G.B
 0300 f7d10134 97e60a9b 2a460397 51460193  ...4....*F..QF..
 0310 4cf02103 48460134 05930823 04931023  L.!.HF.4...#...#
 0320 029358f8 043b0093 5b46fff7 feff0546  ..X..;..[F.....F
 0330 81e64346 53f8048b 98f80000 0c93002f  ..CFS........../
 0340 40f09580 70b16ff0 01010131 43464144  @...p.o....1CFAD
 0350 01e08b42 03d013f8 012f002a f9d1a3eb  ...B...../.*....
 0360 08030a93 1cf48063 0d9304d0 0a9bbb42  .......c.......B
 0370 28bf3b46 0a931cf0 02030e93 00f0dc80  (.;F............
 0380 002800f0 c9800f96 2a460d9e 00e02a46  .(......*F....*F
 0390 5b465146 1eb107f1 ff3c37b1 6746c847  [FQF.....<7.gF.G
 03a0 18f8010f 01350028 f1d1dde9 0e36002b  .....5.(.....6.+
 03b0 40f0b280 0134ddf8 30803ce6 00f0df03  @....4..0.<.....
 03c0 582b00f0 18816f28 00f0d180 622800f0  X+....o(....b(..
 03d0 25812cf0 100c4ff0 0a0e6928 01d06428  %.,...O...i(..d(
 03e0 74d11cf4 806f18bf 2cf0010c 692843d0  t....o..,...i(C.
 03f0 a0f16400 b0fa80f0 40090028 3cd11cf4  ..d.....@..(<...
 0400 007340f0 e1801cf4 807f40f0 f7801cf0  .s@.......@.....
 0410 400f58f8 043b40f0 b2801cf0 800f18bf  @.X..;@.........
 0420 9bb20093 2a460023 cde9046c cde902e7  ....*F.#...l....
 0430 01935b46 51464846 0134fff7 feff0546  ..[FQFHF.4.....F
 0440 f9e50027 07eb8707 00eb4700 a0f13007  ...'......G...0.
 0450 12f8010f a0f13003 092bf3d9 144612e6  ......0..+...F..
 0460 58f8047b 02342078 27eae777 0be60028  X..{.4 x'..w...(
 0470 3ff478af 791e68e7 1cf4007f 40f08380  ?.x.y.h.....@...
 0480 1cf4807f 40f0cd80 1cf0400f 72d11cf0  ....@.....@.r...
 0490 800f00f0 db8038f9 043b83ea e372a2eb  ......8..;...r..
 04a0 e37292b2 db0f0092 2a460193 cde9046c  .r......*F.....l
 04b0 cde902e7 bde700f0 df03582b 86d15828  ..........X+..X(
 04c0 40f09980 4cf0200c 4ff0100e 2cf00c0c  @...L. .O...,...
 04d0 87e7a078 4cf0c00c 0234f1e5 a0784cf4  ...xL....4...xL.
 04e0 407c0234 ece50446 054664e6 012e40f2  @|.4...F.Fd...@.
 04f0 b4806b1e 1e442a46 01355b46 51462020  ..k..D*F.5[FQF  
 0500 c847b542 f7d158f8 040b5b46 32465146  .G.B..X...[F2FQF
 0510 c0b2751c c847f4e6 0a9b2f46 9e427ff6  ..u..G..../F.B..
 0520 49af3544 ed1a3a46 01375b46 51462020  I.5D..:F.7[FQF  
 0530 c847af42 f7d13de7 0a9a9642 02f10103  .G.B..=....B....
 0540 40f28d80 73190a94 9b1a1c46 2a460135  @...s......F*F.5
 0550 5b465146 2020c847 a542f7d1 731c98f8  [FQF  .G.B..s...
 0560 00000a9c 0a930028 7ff40daf 22e74ff0  .......(....".O.
 0570 080eabe7 58f8043b dbb21a46 92e7dbb2  ....X..;...F....
 0580 4fe73d46 bde608f1 070828f0 0708d8f8  O.=F......(.....
 0590 043058f8 082bd90f 002b0697 02914ff0  .0X..+...+....O.
 05a0 0001cdf8 10e00591 cde9076c 02da5242  ...........l..RB
 05b0 63eb4303 51464846 cde90023 2a465b46  c.C.QFHF...#*F[F
 05c0 fff7feff 05469ce6 08f10708 05900290  .....F..........
 05d0 2a4628f0 07080697 cdf810e0 5b465146  *F(.........[FQF
 05e0 4846cde9 076cf8e8 0267cde9 0067fff7  HF...l...g...g..
 05f0 feff0546 85e64ff0 100eeee6 01932a46  ...F..O.......*F
 0600 5b464846 cde9046c cde902e7 58f8041b  [FHF...l....X...
 0610 00915146 fff7feff 054672e6 4ff0020e  ..QF.....Fr.O...
 0620 54e758f8 040b2a46 5b465146 00284fea  T.X...*F[FQF.(O.
 0630 d075b8bf 40420195 00904846 cde9046c  .u..@B....HF...l
 0640 cde902e7 fff7feff 05465ae6 58f8043b  .........FZ.X..;
 0650 83eae372 a2ebe372 24e72e46 53e70a93  ...r...r$..FS...
 0660 00287ff4 90aea5e6                    .(......        
Contents of section .rodata.pow10.0:
 0000 00000000 0000f03f 00000000 00002440  .......?......$@
 0010 00000000 00005940 00000000 00408f40  ......Y@.....@.@
 0020 00000000 0088c340 00000000 006af840  .......@.....j.@
 0030 00000000 80842e41 00000000 d0126341  .......A......cA
 0040 00000000 84d79741 00000000 65cdcd41  .......A....e..A
Contents of section .comment:
 0000 00474343 3a202841 726d2047 4e552054  .GCC: (Arm GNU T
 0010 6f6f6c63 6861696e 2031312e 332e5265  oolchain 11.3.Re
 0020 6c312920 31312e33 2e312032 30323230  l1) 11.3.1 20220
 0030 37313200                             712.            
Contents of section .ARM.attributes:
 0000 41310000 00616561 62690001 27000000  A1...aeabi..'...
 0010 0537452d 4d00060d 074d0902 0a081204  .7E-M....M......
 0020 14011501 17031801 19011a01 1c011e02  ................
 0030 2201                                 ".              

Disassembly of section .text._out_buffer:

00000000 <_out_buffer>:
   0:	429a      	cmp	r2, r3
   2:	bf38      	it	cc
   4:	5488      	strbcc	r0, [r1, r2]
   6:	4770      	bx	lr

Disassembly of section .text._out_null:

00000000 <_out_null>:
   0:	4770      	bx	lr
   2:	bf00      	nop

Disassembly of section .text._out_rev:

00000000 <_out_rev>:
   0:	e92d 4ff8 	stmdb	sp!, {r3, r4, r5, r6, r7, r8, r9, sl, fp, lr}
   4:	469a      	mov	sl, r3
   6:	9b0d      	ldr	r3, [sp, #52]	; 0x34
   8:	4617      	mov	r7, r2
   a:	4606      	mov	r6, r0
   c:	079a      	lsls	r2, r3, #30
   e:	468b      	mov	fp, r1
  10:	f8dd 8028 	ldr.w	r8, [sp, #40]	; 0x28
  14:	d111      	bne.n	3a <_out_rev+0x3a>
  16:	e9dd 320b 	ldrd	r3, r2, [sp, #44]	; 0x2c
  1a:	4293      	cmp	r3, r2
  1c:	d20d      	bcs.n	3a <_out_rev+0x3a>
  1e:	463c      	mov	r4, r7
  20:	e9dd 230b 	ldrd	r2, r3, [sp, #44]	; 0x2c
  24:	1a9d      	subs	r5, r3, r2
  26:	443d      	add	r5, r7
  28:	4622      	mov	r2, r4
  2a:	3401      	adds	r4, #1
  2c:	4653      	mov	r3, sl
  2e:	4659      	mov	r1, fp
  30:	2020      	movs	r0, #32
  32:	47b0      	blx	r6
  34:	42ac      	cmp	r4, r5
  36:	d1f7      	bne.n	28 <_out_rev+0x28>
  38:	e000      	b.n	3c <_out_rev+0x3c>
  3a:	463d      	mov	r5, r7
  3c:	9b0b      	ldr	r3, [sp, #44]	; 0x2c
  3e:	b17b      	cbz	r3, 60 <_out_rev+0x60>
  40:	9b0b      	ldr	r3, [sp, #44]	; 0x2c
  42:	eb08 0403 	add.w	r4, r8, r3
  46:	eb04 0905 	add.w	r9, r4, r5
  4a:	eba9 0204 	sub.w	r2, r9, r4
  4e:	f814 0d01 	ldrb.w	r0, [r4, #-1]!
  52:	4653      	mov	r3, sl
  54:	4659      	mov	r1, fp
  56:	47b0      	blx	r6
  58:	4544      	cmp	r4, r8
  5a:	d1f6      	bne.n	4a <_out_rev+0x4a>
  5c:	9b0b      	ldr	r3, [sp, #44]	; 0x2c
  5e:	441d      	add	r5, r3
  60:	9b0d      	ldr	r3, [sp, #52]	; 0x34
  62:	079b      	lsls	r3, r3, #30
  64:	d50d      	bpl.n	82 <_out_rev+0x82>
  66:	1bef      	subs	r7, r5, r7
  68:	9b0c      	ldr	r3, [sp, #48]	; 0x30
  6a:	42bb      	cmp	r3, r7
  6c:	d909      	bls.n	82 <_out_rev+0x82>
  6e:	461c      	mov	r4, r3
  70:	3701      	adds	r7, #1
  72:	462a      	mov	r2, r5
  74:	4653      	mov	r3, sl
  76:	4659      	mov	r1, fp
  78:	2020      	movs	r0, #32
  7a:	3501      	adds	r5, #1
  7c:	47b0      	blx	r6
  7e:	42a7      	cmp	r7, r4
  80:	d3f6      	bcc.n	70 <_out_rev+0x70>
  82:	4628      	mov	r0, r5
  84:	e8bd 8ff8 	ldmia.w	sp!, {r3, r4, r5, r6, r7, r8, r9, sl, fp, pc}

Disassembly of section .text._ntoa_format:

00000000 <_ntoa_format>:
   0:	e92d 4ff0 	stmdb	sp!, {r4, r5, r6, r7, r8, r9, sl, fp, lr}
   4:	9e0f      	ldr	r6, [sp, #60]	; 0x3c
   6:	f8dd e024 	ldr.w	lr, [sp, #36]	; 0x24
   a:	f016 0f02 	tst.w	r6, #2
   e:	9c0a      	ldr	r4, [sp, #40]	; 0x28
  10:	f89d 902c 	ldrb.w	r9, [sp, #44]	; 0x2c
  14:	9d0e      	ldr	r5, [sp, #56]	; 0x38
  16:	e9dd 870c 	ldrd	r8, r7, [sp, #48]	; 0x30
  1a:	d12e      	bne.n	7a <_ntoa_format+0x7a>
  1c:	2d00      	cmp	r5, #0
  1e:	d16f      	bne.n	100 <_ntoa_format+0x100>
  20:	2c1f      	cmp	r4, #31
  22:	f006 0a01 	and.w	sl, r6, #1
  26:	d80d      	bhi.n	44 <_ntoa_format+0x44>
  28:	42bc      	cmp	r4, r7
  2a:	d20b      	bcs.n	44 <_ntoa_format+0x44>
  2c:	f104 3cff 	add.w	ip, r4, #4294967295	; 0xffffffff
  30:	f04f 0b30 	mov.w	fp, #48	; 0x30
  34:	44f4      	add	ip, lr
  36:	3401      	adds	r4, #1
  38:	f80c bf01 	strb.w	fp, [ip, #1]!
  3c:	42a7      	cmp	r7, r4
  3e:	d901      	bls.n	44 <_ntoa_format+0x44>
  40:	2c1f      	cmp	r4, #31
  42:	d9f8      	bls.n	36 <_ntoa_format+0x36>
  44:	f1ba 0f00 	cmp.w	sl, #0
  48:	d017      	beq.n	7a <_ntoa_format+0x7a>
  4a:	2c1f      	cmp	r4, #31
  4c:	bf8c      	ite	hi
  4e:	f04f 0c00 	movhi.w	ip, #0
  52:	f04f 0c01 	movls.w	ip, #1
  56:	42a5      	cmp	r5, r4
  58:	d90f      	bls.n	7a <_ntoa_format+0x7a>
  5a:	f1bc 0f00 	cmp.w	ip, #0
  5e:	d00c      	beq.n	7a <_ntoa_format+0x7a>
  60:	f104 3cff 	add.w	ip, r4, #4294967295	; 0xffffffff
  64:	f04f 0a30 	mov.w	sl, #48	; 0x30
  68:	44f4      	add	ip, lr
  6a:	e001      	b.n	70 <_ntoa_format+0x70>
  6c:	2c1f      	cmp	r4, #31
  6e:	d804      	bhi.n	7a <_ntoa_format+0x7a>
  70:	3401      	adds	r4, #1
  72:	f80c af01 	strb.w	sl, [ip, #1]!
  76:	42ac      	cmp	r4, r5
  78:	d3f8      	bcc.n	6c <_ntoa_format+0x6c>
  7a:	f016 0f10 	tst.w	r6, #16
  7e:	d02e      	beq.n	de <_ntoa_format+0xde>
  80:	f416 6f80 	tst.w	r6, #1024	; 0x400
  84:	d018      	beq.n	b8 <_ntoa_format+0xb8>
  86:	f1b8 0f10 	cmp.w	r8, #16
  8a:	d073      	beq.n	174 <_ntoa_format+0x174>
  8c:	f1b8 0f02 	cmp.w	r8, #2
  90:	d108      	bne.n	a4 <_ntoa_format+0xa4>
  92:	2c1f      	cmp	r4, #31
  94:	d806      	bhi.n	a4 <_ntoa_format+0xa4>
  96:	eb0e 0704 	add.w	r7, lr, r4
  9a:	f04f 0c62 	mov.w	ip, #98	; 0x62
  9e:	3401      	adds	r4, #1
  a0:	f887 c000 	strb.w	ip, [r7]
  a4:	2c20      	cmp	r4, #32
  a6:	d113      	bne.n	d0 <_ntoa_format+0xd0>
  a8:	e9cd 560b 	strd	r5, r6, [sp, #44]	; 0x2c
  ac:	e9cd e409 	strd	lr, r4, [sp, #36]	; 0x24
  b0:	e8bd 4ff0 	ldmia.w	sp!, {r4, r5, r6, r7, r8, r9, sl, fp, lr}
  b4:	f7ff bffe 	b.w	0 <_ntoa_format>
  b8:	2c00      	cmp	r4, #0
  ba:	d151      	bne.n	160 <_ntoa_format+0x160>
  bc:	f1b8 0f10 	cmp.w	r8, #16
  c0:	d079      	beq.n	1b6 <_ntoa_format+0x1b6>
  c2:	f1b8 0f02 	cmp.w	r8, #2
  c6:	d17d      	bne.n	1c4 <_ntoa_format+0x1c4>
  c8:	2462      	movs	r4, #98	; 0x62
  ca:	f88e 4000 	strb.w	r4, [lr]
  ce:	2401      	movs	r4, #1
  d0:	eb0e 0704 	add.w	r7, lr, r4
  d4:	f04f 0c30 	mov.w	ip, #48	; 0x30
  d8:	3401      	adds	r4, #1
  da:	f887 c000 	strb.w	ip, [r7]
  de:	2c20      	cmp	r4, #32
  e0:	d0e2      	beq.n	a8 <_ntoa_format+0xa8>
  e2:	f1b9 0f00 	cmp.w	r9, #0
  e6:	d020      	beq.n	12a <_ntoa_format+0x12a>
  e8:	272d      	movs	r7, #45	; 0x2d
  ea:	f80e 7004 	strb.w	r7, [lr, r4]
  ee:	3401      	adds	r4, #1
  f0:	e9cd 560b 	strd	r5, r6, [sp, #44]	; 0x2c
  f4:	e9cd e409 	strd	lr, r4, [sp, #36]	; 0x24
  f8:	e8bd 4ff0 	ldmia.w	sp!, {r4, r5, r6, r7, r8, r9, sl, fp, lr}
  fc:	f7ff bffe 	b.w	0 <_ntoa_format>
 100:	f016 0a01 	ands.w	sl, r6, #1
 104:	d026      	beq.n	154 <_ntoa_format+0x154>
 106:	f1b9 0f00 	cmp.w	r9, #0
 10a:	d148      	bne.n	19e <_ntoa_format+0x19e>
 10c:	f016 0f0c 	tst.w	r6, #12
 110:	d145      	bne.n	19e <_ntoa_format+0x19e>
 112:	2c1f      	cmp	r4, #31
 114:	bf8c      	ite	hi
 116:	f04f 0c00 	movhi.w	ip, #0
 11a:	f04f 0c01 	movls.w	ip, #1
 11e:	42bc      	cmp	r4, r7
 120:	d299      	bcs.n	56 <_ntoa_format+0x56>
 122:	f1bc 0f00 	cmp.w	ip, #0
 126:	d181      	bne.n	2c <_ntoa_format+0x2c>
 128:	e795      	b.n	56 <_ntoa_format+0x56>
 12a:	0777      	lsls	r7, r6, #29
 12c:	d406      	bmi.n	13c <_ntoa_format+0x13c>
 12e:	0737      	lsls	r7, r6, #28
 130:	d5ba      	bpl.n	a8 <_ntoa_format+0xa8>
 132:	2720      	movs	r7, #32
 134:	f80e 7004 	strb.w	r7, [lr, r4]
 138:	3401      	adds	r4, #1
 13a:	e7b5      	b.n	a8 <_ntoa_format+0xa8>
 13c:	272b      	movs	r7, #43	; 0x2b
 13e:	f80e 7004 	strb.w	r7, [lr, r4]
 142:	3401      	adds	r4, #1
 144:	e9cd 560b 	strd	r5, r6, [sp, #44]	; 0x2c
 148:	e9cd e409 	strd	lr, r4, [sp, #36]	; 0x24
 14c:	e8bd 4ff0 	ldmia.w	sp!, {r4, r5, r6, r7, r8, r9, sl, fp, lr}
 150:	f7ff bffe 	b.w	0 <_ntoa_format>
 154:	2c1f      	cmp	r4, #31
 156:	d890      	bhi.n	7a <_ntoa_format+0x7a>
 158:	42bc      	cmp	r4, r7
 15a:	f4ff af67 	bcc.w	2c <_ntoa_format+0x2c>
 15e:	e78c      	b.n	7a <_ntoa_format+0x7a>
 160:	42bc      	cmp	r4, r7
 162:	d001      	beq.n	168 <_ntoa_format+0x168>
 164:	42ac      	cmp	r4, r5
 166:	d18e      	bne.n	86 <_ntoa_format+0x86>
 168:	1e67      	subs	r7, r4, #1
 16a:	d022      	beq.n	1b2 <_ntoa_format+0x1b2>
 16c:	f1b8 0f10 	cmp.w	r8, #16
 170:	d11f      	bne.n	1b2 <_ntoa_format+0x1b2>
 172:	3c02      	subs	r4, #2
 174:	2c1f      	cmp	r4, #31
 176:	bf8c      	ite	hi
 178:	2700      	movhi	r7, #0
 17a:	2701      	movls	r7, #1
 17c:	f016 0c20 	ands.w	ip, r6, #32
 180:	d100      	bne.n	184 <_ntoa_format+0x184>
 182:	b977      	cbnz	r7, 1a2 <_ntoa_format+0x1a2>
 184:	f1bc 0f00 	cmp.w	ip, #0
 188:	d08c      	beq.n	a4 <_ntoa_format+0xa4>
 18a:	2f00      	cmp	r7, #0
 18c:	d08a      	beq.n	a4 <_ntoa_format+0xa4>
 18e:	eb0e 0704 	add.w	r7, lr, r4
 192:	f04f 0c58 	mov.w	ip, #88	; 0x58
 196:	3401      	adds	r4, #1
 198:	f887 c000 	strb.w	ip, [r7]
 19c:	e782      	b.n	a4 <_ntoa_format+0xa4>
 19e:	3d01      	subs	r5, #1
 1a0:	e7b7      	b.n	112 <_ntoa_format+0x112>
 1a2:	eb0e 0704 	add.w	r7, lr, r4
 1a6:	f04f 0c78 	mov.w	ip, #120	; 0x78
 1aa:	3401      	adds	r4, #1
 1ac:	f887 c000 	strb.w	ip, [r7]
 1b0:	e778      	b.n	a4 <_ntoa_format+0xa4>
 1b2:	463c      	mov	r4, r7
 1b4:	e767      	b.n	86 <_ntoa_format+0x86>
 1b6:	06b4      	lsls	r4, r6, #26
 1b8:	d40c      	bmi.n	1d4 <_ntoa_format+0x1d4>
 1ba:	2478      	movs	r4, #120	; 0x78
 1bc:	f88e 4000 	strb.w	r4, [lr]
 1c0:	2401      	movs	r4, #1
 1c2:	e785      	b.n	d0 <_ntoa_format+0xd0>
 1c4:	2430      	movs	r4, #48	; 0x30
 1c6:	f88e 4000 	strb.w	r4, [lr]
 1ca:	2401      	movs	r4, #1
 1cc:	f1b9 0f00 	cmp.w	r9, #0
 1d0:	d0ab      	beq.n	12a <_ntoa_format+0x12a>
 1d2:	e789      	b.n	e8 <_ntoa_format+0xe8>
 1d4:	2458      	movs	r4, #88	; 0x58
 1d6:	f88e 4000 	strb.w	r4, [lr]
 1da:	2401      	movs	r4, #1
 1dc:	e778      	b.n	d0 <_ntoa_format+0xd0>
 1de:	bf00      	nop

Disassembly of section .text._ntoa_long:

00000000 <_ntoa_long>:
   0:	e92d 4ff0 	stmdb	sp!, {r4, r5, r6, r7, r8, r9, sl, fp, lr}
   4:	b093      	sub	sp, #76	; 0x4c
   6:	f89d 5074 	ldrb.w	r5, [sp, #116]	; 0x74
   a:	9c1c      	ldr	r4, [sp, #112]	; 0x70
   c:	9509      	str	r5, [sp, #36]	; 0x24
   e:	f8dd a084 	ldr.w	sl, [sp, #132]	; 0x84
  12:	9d1e      	ldr	r5, [sp, #120]	; 0x78
  14:	b9cc      	cbnz	r4, 4a <_ntoa_long+0x4a>
  16:	f02a 0610 	bic.w	r6, sl, #16
  1a:	f41a 6f80 	tst.w	sl, #1024	; 0x400
  1e:	46b2      	mov	sl, r6
  20:	d013      	beq.n	4a <_ntoa_long+0x4a>
  22:	4626      	mov	r6, r4
  24:	f10d 0b28 	add.w	fp, sp, #40	; 0x28
  28:	9c20      	ldr	r4, [sp, #128]	; 0x80
  2a:	f8cd a018 	str.w	sl, [sp, #24]
  2e:	9405      	str	r4, [sp, #20]
  30:	9c1f      	ldr	r4, [sp, #124]	; 0x7c
  32:	f8cd b000 	str.w	fp, [sp]
  36:	e9cd 5403 	strd	r5, r4, [sp, #12]
  3a:	9c09      	ldr	r4, [sp, #36]	; 0x24
  3c:	e9cd 6401 	strd	r6, r4, [sp, #4]
  40:	f7ff fffe 	bl	0 <_ntoa_long>
  44:	b013      	add	sp, #76	; 0x4c
  46:	e8bd 8ff0 	ldmia.w	sp!, {r4, r5, r6, r7, r8, r9, sl, fp, pc}
  4a:	f01a 0f20 	tst.w	sl, #32
  4e:	f10d 0b28 	add.w	fp, sp, #40	; 0x28
  52:	f04f 0600 	mov.w	r6, #0
  56:	bf14      	ite	ne
  58:	f04f 0941 	movne.w	r9, #65	; 0x41
  5c:	f04f 0961 	moveq.w	r9, #97	; 0x61
  60:	46d8      	mov	r8, fp
  62:	f1a9 090a 	sub.w	r9, r9, #10
  66:	3601      	adds	r6, #1
  68:	fbb4 fef5 	udiv	lr, r4, r5
  6c:	fb05 4c1e 	mls	ip, r5, lr, r4
  70:	fa5f f78c 	uxtb.w	r7, ip
  74:	f1bc 0f09 	cmp.w	ip, #9
  78:	eb07 0c09 	add.w	ip, r7, r9
  7c:	f107 0730 	add.w	r7, r7, #48	; 0x30
  80:	bf8c      	ite	hi
  82:	fa5f f78c 	uxtbhi.w	r7, ip
  86:	b2ff      	uxtbls	r7, r7
  88:	42ac      	cmp	r4, r5
  8a:	4674      	mov	r4, lr
  8c:	f808 7b01 	strb.w	r7, [r8], #1
  90:	d3ca      	bcc.n	28 <_ntoa_long+0x28>
  92:	2e1f      	cmp	r6, #31
  94:	d9e7      	bls.n	66 <_ntoa_long+0x66>
  96:	e7c7      	b.n	28 <_ntoa_long+0x28>

Disassembly of section .text._ntoa_long_long:

00000000 <_ntoa_long_long>:
   0:	e92d 4ff0 	stmdb	sp!, {r4, r5, r6, r7, r8, r9, sl, fp, lr}
   4:	ed2d 8b04 	vpush	{d8-d9}
   8:	b093      	sub	sp, #76	; 0x4c
   a:	469b      	mov	fp, r3
   c:	ee08 0a10 	vmov	s16, r0
  10:	ee08 1a90 	vmov	s17, r1
  14:	f89d 3088 	ldrb.w	r3, [sp, #136]	; 0x88
  18:	ee09 2a10 	vmov	s18, r2
  1c:	9d20      	ldr	r5, [sp, #128]	; 0x80
  1e:	9c21      	ldr	r4, [sp, #132]	; 0x84
  20:	9308      	str	r3, [sp, #32]
  22:	ea55 0304 	orrs.w	r3, r5, r4
  26:	e9dd 7824 	ldrd	r7, r8, [sp, #144]	; 0x90
  2a:	d123      	bne.n	74 <_ntoa_long_long+0x74>
  2c:	9b28      	ldr	r3, [sp, #160]	; 0xa0
  2e:	9a28      	ldr	r2, [sp, #160]	; 0xa0
  30:	f023 0310 	bic.w	r3, r3, #16
  34:	9328      	str	r3, [sp, #160]	; 0xa0
  36:	0553      	lsls	r3, r2, #21
  38:	d51c      	bpl.n	74 <_ntoa_long_long+0x74>
  3a:	ab0a      	add	r3, sp, #40	; 0x28
  3c:	2600      	movs	r6, #0
  3e:	9309      	str	r3, [sp, #36]	; 0x24
  40:	9b28      	ldr	r3, [sp, #160]	; 0xa0
  42:	ee19 2a10 	vmov	r2, s18
  46:	9c09      	ldr	r4, [sp, #36]	; 0x24
  48:	ee18 1a90 	vmov	r1, s17
  4c:	9306      	str	r3, [sp, #24]
  4e:	ee18 0a10 	vmov	r0, s16
  52:	9b27      	ldr	r3, [sp, #156]	; 0x9c
  54:	9400      	str	r4, [sp, #0]
  56:	9305      	str	r3, [sp, #20]
  58:	9b26      	ldr	r3, [sp, #152]	; 0x98
  5a:	e9cd 7303 	strd	r7, r3, [sp, #12]
  5e:	9b08      	ldr	r3, [sp, #32]
  60:	e9cd 6301 	strd	r6, r3, [sp, #4]
  64:	465b      	mov	r3, fp
  66:	f7ff fffe 	bl	0 <_ntoa_long_long>
  6a:	b013      	add	sp, #76	; 0x4c
  6c:	ecbd 8b04 	vpop	{d8-d9}
  70:	e8bd 8ff0 	ldmia.w	sp!, {r4, r5, r6, r7, r8, r9, sl, fp, pc}
  74:	9b28      	ldr	r3, [sp, #160]	; 0xa0
  76:	2600      	movs	r6, #0
  78:	f013 0f20 	tst.w	r3, #32
  7c:	ab0a      	add	r3, sp, #40	; 0x28
  7e:	bf14      	ite	ne
  80:	f04f 0a41 	movne.w	sl, #65	; 0x41
  84:	f04f 0a61 	moveq.w	sl, #97	; 0x61
  88:	4699      	mov	r9, r3
  8a:	9309      	str	r3, [sp, #36]	; 0x24
  8c:	f1aa 0a0a 	sub.w	sl, sl, #10
  90:	4621      	mov	r1, r4
  92:	4628      	mov	r0, r5
  94:	463a      	mov	r2, r7
  96:	4643      	mov	r3, r8
  98:	f7ff fffe 	bl	0 <__aeabi_uldivmod>
  9c:	3601      	adds	r6, #1
  9e:	b2d2      	uxtb	r2, r2
  a0:	2a09      	cmp	r2, #9
  a2:	eb02 030a 	add.w	r3, r2, sl
  a6:	f102 0230 	add.w	r2, r2, #48	; 0x30
  aa:	b2db      	uxtb	r3, r3
  ac:	bf98      	it	ls
  ae:	b2d3      	uxtbls	r3, r2
  b0:	42bd      	cmp	r5, r7
  b2:	4605      	mov	r5, r0
  b4:	eb74 0408 	sbcs.w	r4, r4, r8
  b8:	f809 3b01 	strb.w	r3, [r9], #1
  bc:	460c      	mov	r4, r1
  be:	d3bf      	bcc.n	40 <_ntoa_long_long+0x40>
  c0:	2e1f      	cmp	r6, #31
  c2:	d9e5      	bls.n	90 <_ntoa_long_long+0x90>
  c4:	e7bc      	b.n	40 <_ntoa_long_long+0x40>
  c6:	bf00      	nop

Disassembly of section .text._etoa:

00000000 <_etoa>:
   0:	eeb4 0b40 	vcmp.f64	d0, d0
   4:	e92d 4ff0 	stmdb	sp!, {r4, r5, r6, r7, r8, r9, sl, fp, lr}
   8:	eef1 fa10 	vmrs	APSR_nzcv, fpscr
   c:	4605      	mov	r5, r0
   e:	4614      	mov	r4, r2
  10:	ed2d 8b02 	vpush	{d8}
  14:	b08b      	sub	sp, #44	; 0x2c
  16:	e9dd 7a16 	ldrd	r7, sl, [sp, #88]	; 0x58
  1a:	9e18      	ldr	r6, [sp, #96]	; 0x60
  1c:	f040 80bf 	bne.w	19e <_etoa+0x19e>
  20:	ed9f 7bb1 	vldr	d7, [pc, #708]	; 2e8 <_etoa+0x2e8>
  24:	eeb4 0bc7 	vcmpe.f64	d0, d7
  28:	eef1 fa10 	vmrs	APSR_nzcv, fpscr
  2c:	f300 80b7 	bgt.w	19e <_etoa+0x19e>
  30:	ed9f 7baf 	vldr	d7, [pc, #700]	; 2f0 <_etoa+0x2f0>
  34:	eeb4 0bc7 	vcmpe.f64	d0, d7
  38:	eef1 fa10 	vmrs	APSR_nzcv, fpscr
  3c:	f100 80af 	bmi.w	19e <_etoa+0x19e>
  40:	eeb5 0bc0 	vcmpe.f64	d0, #0.0
  44:	eef1 fa10 	vmrs	APSR_nzcv, fpscr
  48:	f100 8135 	bmi.w	2b6 <_etoa+0x2b6>
  4c:	eeb0 4b40 	vmov.f64	d4, d0
  50:	ee14 0a90 	vmov	r0, s9
  54:	ee14 8a10 	vmov	r8, s8
  58:	eeb7 5b08 	vmov.f64	d5, #120	; 0x3fc00000  1.5
  5c:	f416 6280 	ands.w	r2, r6, #1024	; 0x400
  60:	f3c0 5c0a 	ubfx	ip, r0, #20, #11
  64:	f3c0 0013 	ubfx	r0, r0, #0, #20
  68:	eeb6 6b00 	vmov.f64	d6, #96	; 0x3f000000  0.5
  6c:	bf08      	it	eq
  6e:	2706      	moveq	r7, #6
  70:	f2ac 3cff 	subw	ip, ip, #1023	; 0x3ff
  74:	f040 597f 	orr.w	r9, r0, #1069547520	; 0x3fc00000
  78:	ee07 ca90 	vmov	s15, ip
  7c:	f449 1940 	orr.w	r9, r9, #3145728	; 0x300000
  80:	ed9f 8b9d 	vldr	d8, [pc, #628]	; 2f8 <_etoa+0x2f8>
  84:	eeb8 7be7 	vcvt.f64.s32	d7, s15
  88:	ed9f 3b9d 	vldr	d3, [pc, #628]	; 300 <_etoa+0x300>
  8c:	ed9f 1b9e 	vldr	d1, [pc, #632]	; 308 <_etoa+0x308>
  90:	ed9f 2b9f 	vldr	d2, [pc, #636]	; 310 <_etoa+0x310>
  94:	eea7 3b08 	vfma.f64	d3, d7, d8
  98:	ec49 8b18 	vmov	d8, r8, r9
  9c:	ee38 5b45 	vsub.f64	d5, d8, d5
  a0:	f04f 0800 	mov.w	r8, #0
  a4:	ed9f 7b9c 	vldr	d7, [pc, #624]	; 318 <_etoa+0x318>
  a8:	eea5 3b01 	vfma.f64	d3, d5, d1
  ac:	ed9f 1b9c 	vldr	d1, [pc, #624]	; 320 <_etoa+0x320>
  b0:	eefd 5bc3 	vcvt.s32.f64	s11, d3
  b4:	eeb2 3b0c 	vmov.f64	d3, #44	; 0x41600000  14.0
  b8:	ee15 ba90 	vmov	fp, s11
  bc:	eeb8 5be5 	vcvt.f64.s32	d5, s11
  c0:	eea5 6b02 	vfma.f64	d6, d5, d2
  c4:	eebd 6bc6 	vcvt.s32.f64	s12, d6
  c8:	eeb8 2bc6 	vcvt.f64.s32	d2, s12
  cc:	ee16 0a10 	vmov	r0, s12
  d0:	eeb1 6b08 	vmov.f64	d6, #24	; 0x40c00000  6.0
  d4:	f200 30ff 	addw	r0, r0, #1023	; 0x3ff
  d8:	ee27 7b42 	vnmul.f64	d7, d7, d2
  dc:	ea4f 5900 	mov.w	r9, r0, lsl #20
  e0:	eeb2 2b04 	vmov.f64	d2, #36	; 0x41200000  10.0
  e4:	eea5 7b01 	vfma.f64	d7, d5, d1
  e8:	ee27 8b07 	vmul.f64	d8, d7, d7
  ec:	ee37 1b07 	vadd.f64	d1, d7, d7
  f0:	ee88 5b03 	vdiv.f64	d5, d8, d3
  f4:	ee35 5b02 	vadd.f64	d5, d5, d2
  f8:	ee88 3b05 	vdiv.f64	d3, d8, d5
  fc:	eeb0 5b00 	vmov.f64	d5, #0	; 0x40000000  2.0
 100:	ee35 7b47 	vsub.f64	d7, d5, d7
 104:	eeb7 5b00 	vmov.f64	d5, #112	; 0x3f800000  1.0
 108:	ee33 3b06 	vadd.f64	d3, d3, d6
 10c:	ee88 6b03 	vdiv.f64	d6, d8, d3
 110:	ee36 6b07 	vadd.f64	d6, d6, d7
 114:	ee81 7b06 	vdiv.f64	d7, d1, d6
 118:	ec49 8b16 	vmov	d6, r8, r9
 11c:	ee37 7b05 	vadd.f64	d7, d7, d5
 120:	ee27 7b06 	vmul.f64	d7, d7, d6
 124:	eeb4 7bc4 	vcmpe.f64	d7, d4
 128:	eef1 fa10 	vmrs	APSR_nzcv, fpscr
 12c:	dc43      	bgt.n	1b6 <_etoa+0x1b6>
 12e:	eeb0 6b47 	vmov.f64	d6, d7
 132:	f10b 0063 	add.w	r0, fp, #99	; 0x63
 136:	28c7      	cmp	r0, #199	; 0xc7
 138:	bf34      	ite	cc
 13a:	f04f 0804 	movcc.w	r8, #4
 13e:	f04f 0805 	movcs.w	r8, #5
 142:	0530      	lsls	r0, r6, #20
 144:	d53f      	bpl.n	1c6 <_etoa+0x1c6>
 146:	ed9f 7b78 	vldr	d7, [pc, #480]	; 328 <_etoa+0x328>
 14a:	eeb4 4bc7 	vcmpe.f64	d4, d7
 14e:	eef1 fa10 	vmrs	APSR_nzcv, fpscr
 152:	db35      	blt.n	1c0 <_etoa+0x1c0>
 154:	ed9f 7b76 	vldr	d7, [pc, #472]	; 330 <_etoa+0x330>
 158:	eeb4 4bc7 	vcmpe.f64	d4, d7
 15c:	eef1 fa10 	vmrs	APSR_nzcv, fpscr
 160:	d52e      	bpl.n	1c0 <_etoa+0x1c0>
 162:	455f      	cmp	r7, fp
 164:	f340 80b5 	ble.w	2d2 <_etoa+0x2d2>
 168:	eba7 070b 	sub.w	r7, r7, fp
 16c:	3f01      	subs	r7, #1
 16e:	f446 6280 	orr.w	r2, r6, #1024	; 0x400
 172:	f1ba 0f00 	cmp.w	sl, #0
 176:	f040 80a3 	bne.w	2c0 <_etoa+0x2c0>
 17a:	eeb5 0bc0 	vcmpe.f64	d0, #0.0
 17e:	eef1 fa10 	vmrs	APSR_nzcv, fpscr
 182:	f100 80a8 	bmi.w	2d6 <_etoa+0x2d6>
 186:	f426 6600 	bic.w	r6, r6, #2048	; 0x800
 18a:	eeb0 0b44 	vmov.f64	d0, d4
 18e:	4622      	mov	r2, r4
 190:	4628      	mov	r0, r5
 192:	f446 6680 	orr.w	r6, r6, #1024	; 0x400
 196:	e9cd 7a16 	strd	r7, sl, [sp, #88]	; 0x58
 19a:	9618      	str	r6, [sp, #96]	; 0x60
 19c:	e004      	b.n	1a8 <_etoa+0x1a8>
 19e:	4622      	mov	r2, r4
 1a0:	4628      	mov	r0, r5
 1a2:	9716      	str	r7, [sp, #88]	; 0x58
 1a4:	e9cd a617 	strd	sl, r6, [sp, #92]	; 0x5c
 1a8:	b00b      	add	sp, #44	; 0x2c
 1aa:	ecbd 8b02 	vpop	{d8}
 1ae:	e8bd 4ff0 	ldmia.w	sp!, {r4, r5, r6, r7, r8, r9, sl, fp, lr}
 1b2:	f7ff bffe 	b.w	0 <_etoa>
 1b6:	ee87 6b02 	vdiv.f64	d6, d7, d2
 1ba:	f10b 3bff 	add.w	fp, fp, #4294967295	; 0xffffffff
 1be:	e7b8      	b.n	132 <_etoa+0x132>
 1c0:	b10f      	cbz	r7, 1c6 <_etoa+0x1c6>
 1c2:	2a00      	cmp	r2, #0
 1c4:	d17a      	bne.n	2bc <_etoa+0x2bc>
 1c6:	45d0      	cmp	r8, sl
 1c8:	d360      	bcc.n	28c <_etoa+0x28c>
 1ca:	f3c6 0940 	ubfx	r9, r6, #1, #1
 1ce:	2200      	movs	r2, #0
 1d0:	f1b9 0f00 	cmp.w	r9, #0
 1d4:	bf18      	it	ne
 1d6:	2200      	movne	r2, #0
 1d8:	f1bb 0f00 	cmp.w	fp, #0
 1dc:	d061      	beq.n	2a2 <_etoa+0x2a2>
 1de:	ee84 4b06 	vdiv.f64	d4, d4, d6
 1e2:	2001      	movs	r0, #1
 1e4:	9007      	str	r0, [sp, #28]
 1e6:	eeb5 0bc0 	vcmpe.f64	d0, #0.0
 1ea:	eef1 fa10 	vmrs	APSR_nzcv, fpscr
 1ee:	d45f      	bmi.n	2b0 <_etoa+0x2b0>
 1f0:	eeb0 0b44 	vmov.f64	d0, d4
 1f4:	4628      	mov	r0, r5
 1f6:	9309      	str	r3, [sp, #36]	; 0x24
 1f8:	9108      	str	r1, [sp, #32]
 1fa:	e9cd 7200 	strd	r7, r2, [sp]
 1fe:	f426 6200 	bic.w	r2, r6, #2048	; 0x800
 202:	9202      	str	r2, [sp, #8]
 204:	4622      	mov	r2, r4
 206:	f7ff fffe 	bl	0 <_etoa>
 20a:	9b07      	ldr	r3, [sp, #28]
 20c:	4607      	mov	r7, r0
 20e:	2b00      	cmp	r3, #0
 210:	d036      	beq.n	280 <_etoa+0x280>
 212:	f016 0f20 	tst.w	r6, #32
 216:	9908      	ldr	r1, [sp, #32]
 218:	4602      	mov	r2, r0
 21a:	9b09      	ldr	r3, [sp, #36]	; 0x24
 21c:	bf14      	ite	ne
 21e:	2045      	movne	r0, #69	; 0x45
 220:	2065      	moveq	r0, #101	; 0x65
 222:	9107      	str	r1, [sp, #28]
 224:	3701      	adds	r7, #1
 226:	47a8      	blx	r5
 228:	2005      	movs	r0, #5
 22a:	2100      	movs	r1, #0
 22c:	f108 32ff 	add.w	r2, r8, #4294967295	; 0xffffffff
 230:	9005      	str	r0, [sp, #20]
 232:	200a      	movs	r0, #10
 234:	9b09      	ldr	r3, [sp, #36]	; 0x24
 236:	9204      	str	r2, [sp, #16]
 238:	463a      	mov	r2, r7
 23a:	9308      	str	r3, [sp, #32]
 23c:	e9cd 0102 	strd	r0, r1, [sp, #8]
 240:	ea4f 70db 	mov.w	r0, fp, lsr #31
 244:	9907      	ldr	r1, [sp, #28]
 246:	9001      	str	r0, [sp, #4]
 248:	ea8b 70eb 	eor.w	r0, fp, fp, asr #31
 24c:	eba0 70eb 	sub.w	r0, r0, fp, asr #31
 250:	9000      	str	r0, [sp, #0]
 252:	4628      	mov	r0, r5
 254:	f7ff fffe 	bl	0 <_etoa>
 258:	4607      	mov	r7, r0
 25a:	f1b9 0f00 	cmp.w	r9, #0
 25e:	d00f      	beq.n	280 <_etoa+0x280>
 260:	1b04      	subs	r4, r0, r4
 262:	45a2      	cmp	sl, r4
 264:	d90c      	bls.n	280 <_etoa+0x280>
 266:	9907      	ldr	r1, [sp, #28]
 268:	9b08      	ldr	r3, [sp, #32]
 26a:	460e      	mov	r6, r1
 26c:	4698      	mov	r8, r3
 26e:	3401      	adds	r4, #1
 270:	463a      	mov	r2, r7
 272:	4643      	mov	r3, r8
 274:	4631      	mov	r1, r6
 276:	2020      	movs	r0, #32
 278:	3701      	adds	r7, #1
 27a:	47a8      	blx	r5
 27c:	45a2      	cmp	sl, r4
 27e:	d8f6      	bhi.n	26e <_etoa+0x26e>
 280:	4638      	mov	r0, r7
 282:	b00b      	add	sp, #44	; 0x2c
 284:	ecbd 8b02 	vpop	{d8}
 288:	e8bd 8ff0 	ldmia.w	sp!, {r4, r5, r6, r7, r8, r9, sl, fp, pc}
 28c:	f3c6 0940 	ubfx	r9, r6, #1, #1
 290:	ebaa 0208 	sub.w	r2, sl, r8
 294:	f1b9 0f00 	cmp.w	r9, #0
 298:	bf18      	it	ne
 29a:	2200      	movne	r2, #0
 29c:	f1bb 0f00 	cmp.w	fp, #0
 2a0:	d19d      	bne.n	1de <_etoa+0x1de>
 2a2:	eeb5 0bc0 	vcmpe.f64	d0, #0.0
 2a6:	2001      	movs	r0, #1
 2a8:	9007      	str	r0, [sp, #28]
 2aa:	eef1 fa10 	vmrs	APSR_nzcv, fpscr
 2ae:	d59f      	bpl.n	1f0 <_etoa+0x1f0>
 2b0:	eeb1 4b44 	vneg.f64	d4, d4
 2b4:	e79c      	b.n	1f0 <_etoa+0x1f0>
 2b6:	eeb1 4b40 	vneg.f64	d4, d0
 2ba:	e6c9      	b.n	50 <_etoa+0x50>
 2bc:	3f01      	subs	r7, #1
 2be:	e782      	b.n	1c6 <_etoa+0x1c6>
 2c0:	f04f 0b00 	mov.w	fp, #0
 2c4:	4616      	mov	r6, r2
 2c6:	4652      	mov	r2, sl
 2c8:	46d8      	mov	r8, fp
 2ca:	46d9      	mov	r9, fp
 2cc:	f8cd b01c 	str.w	fp, [sp, #28]
 2d0:	e789      	b.n	1e6 <_etoa+0x1e6>
 2d2:	2700      	movs	r7, #0
 2d4:	e74b      	b.n	16e <_etoa+0x16e>
 2d6:	4616      	mov	r6, r2
 2d8:	46d0      	mov	r8, sl
 2da:	4652      	mov	r2, sl
 2dc:	46d1      	mov	r9, sl
 2de:	46d3      	mov	fp, sl
 2e0:	f8cd a01c 	str.w	sl, [sp, #28]
 2e4:	e7e4      	b.n	2b0 <_etoa+0x2b0>
 2e6:	bf00      	nop
 2e8:	ffffffff 	.word	0xffffffff
 2ec:	7fefffff 	.word	0x7fefffff
 2f0:	ffffffff 	.word	0xffffffff
 2f4:	ffefffff 	.word	0xffefffff
 2f8:	509f79fb 	.word	0x509f79fb
 2fc:	3fd34413 	.word	0x3fd34413
 300:	8b60c8b3 	.word	0x8b60c8b3
 304:	3fc68a28 	.word	0x3fc68a28
 308:	636f4361 	.word	0x636f4361
 30c:	3fd287a7 	.word	0x3fd287a7
 310:	0979a371 	.word	0x0979a371
 314:	400a934f 	.word	0x400a934f
 318:	fefa39ef 	.word	0xfefa39ef
 31c:	3fe62e42 	.word	0x3fe62e42
 320:	bbb55516 	.word	0xbbb55516
 324:	40026bb1 	.word	0x40026bb1
 328:	eb1c432d 	.word	0xeb1c432d
 32c:	3f1a36e2 	.word	0x3f1a36e2
 330:	00000000 	.word	0x00000000
 334:	412e8480 	.word	0x412e8480

Disassembly of section .text._ftoa:

00000000 <_ftoa>:
   0:	eeb4 0b40 	vcmp.f64	d0, d0
   4:	e92d 4ff0 	stmdb	sp!, {r4, r5, r6, r7, r8, r9, sl, fp, lr}
   8:	eef1 fa10 	vmrs	APSR_nzcv, fpscr
   c:	b091      	sub	sp, #68	; 0x44
   e:	e9dd 4a1a 	ldrd	r4, sl, [sp, #104]	; 0x68
  12:	9e1c      	ldr	r6, [sp, #112]	; 0x70
  14:	9005      	str	r0, [sp, #20]
  16:	f040 80c8 	bne.w	1aa <_ftoa+0x1aa>
  1a:	ed9f 7bbf 	vldr	d7, [pc, #764]	; 318 <_ftoa+0x318>
  1e:	eeb4 0bc7 	vcmpe.f64	d0, d7
  22:	eef1 fa10 	vmrs	APSR_nzcv, fpscr
  26:	f100 80e2 	bmi.w	1ee <_ftoa+0x1ee>
  2a:	ed9f 7bbd 	vldr	d7, [pc, #756]	; 320 <_ftoa+0x320>
  2e:	eeb4 0bc7 	vcmpe.f64	d0, d7
  32:	eef1 fa10 	vmrs	APSR_nzcv, fpscr
  36:	f300 80a5 	bgt.w	184 <_ftoa+0x184>
  3a:	460f      	mov	r7, r1
  3c:	4690      	mov	r8, r2
  3e:	4699      	mov	r9, r3
  40:	ed9f 7bb9 	vldr	d7, [pc, #740]	; 328 <_ftoa+0x328>
  44:	eeb4 0bc7 	vcmpe.f64	d0, d7
  48:	eef1 fa10 	vmrs	APSR_nzcv, fpscr
  4c:	f300 80c3 	bgt.w	1d6 <_ftoa+0x1d6>
  50:	ed9f 7bb7 	vldr	d7, [pc, #732]	; 330 <_ftoa+0x330>
  54:	eeb4 0bc7 	vcmpe.f64	d0, d7
  58:	eef1 fa10 	vmrs	APSR_nzcv, fpscr
  5c:	f100 80bb 	bmi.w	1d6 <_ftoa+0x1d6>
  60:	ed9f 7bb5 	vldr	d7, [pc, #724]	; 338 <_ftoa+0x338>
  64:	eeb4 0bc7 	vcmpe.f64	d0, d7
  68:	eef1 fa10 	vmrs	APSR_nzcv, fpscr
  6c:	f100 80a8 	bmi.w	1c0 <_ftoa+0x1c0>
  70:	2300      	movs	r3, #0
  72:	9307      	str	r3, [sp, #28]
  74:	f416 6080 	ands.w	r0, r6, #1024	; 0x400
  78:	f000 80ec 	beq.w	254 <_ftoa+0x254>
  7c:	2c09      	cmp	r4, #9
  7e:	f240 816f 	bls.w	360 <_ftoa+0x360>
  82:	ab08      	add	r3, sp, #32
  84:	2000      	movs	r0, #0
  86:	2230      	movs	r2, #48	; 0x30
  88:	9306      	str	r3, [sp, #24]
  8a:	3001      	adds	r0, #1
  8c:	3c01      	subs	r4, #1
  8e:	f803 2b01 	strb.w	r2, [r3], #1
  92:	281f      	cmp	r0, #31
  94:	d801      	bhi.n	9a <_ftoa+0x9a>
  96:	2c09      	cmp	r4, #9
  98:	d8f7      	bhi.n	8a <_ftoa+0x8a>
  9a:	ed9f 6ba3 	vldr	d6, [pc, #652]	; 328 <_ftoa+0x328>
  9e:	eefd 7bc0 	vcvt.s32.f64	s15, d0
  a2:	eeb6 5b00 	vmov.f64	d5, #96	; 0x3f000000  0.5
  a6:	ee17 ca90 	vmov	ip, s15
  aa:	eeb8 7be7 	vcvt.f64.s32	d7, s15
  ae:	ee30 7b47 	vsub.f64	d7, d0, d7
  b2:	ee27 7b06 	vmul.f64	d7, d7, d6
  b6:	eefc 4bc7 	vcvt.u32.f64	s9, d7
  ba:	ee14 3a90 	vmov	r3, s9
  be:	eeb8 4b64 	vcvt.f64.u32	d4, s9
  c2:	ee37 7b44 	vsub.f64	d7, d7, d4
  c6:	eeb4 7bc5 	vcmpe.f64	d7, d5
  ca:	eef1 fa10 	vmrs	APSR_nzcv, fpscr
  ce:	f340 80bb 	ble.w	248 <_ftoa+0x248>
  d2:	3301      	adds	r3, #1
  d4:	ee07 3a90 	vmov	s15, r3
  d8:	eeb8 7b67 	vcvt.f64.u32	d7, s15
  dc:	eeb4 7bc6 	vcmpe.f64	d7, d6
  e0:	eef1 fa10 	vmrs	APSR_nzcv, fpscr
  e4:	db02      	blt.n	ec <_ftoa+0xec>
  e6:	f10c 0c01 	add.w	ip, ip, #1
  ea:	2300      	movs	r3, #0
  ec:	2c00      	cmp	r4, #0
  ee:	f040 8089 	bne.w	204 <_ftoa+0x204>
  f2:	ee07 ca90 	vmov	s15, ip
  f6:	eeb6 6b00 	vmov.f64	d6, #96	; 0x3f000000  0.5
  fa:	eeb8 7be7 	vcvt.f64.s32	d7, s15
  fe:	ee30 0b47 	vsub.f64	d0, d0, d7
 102:	eeb4 0bc6 	vcmpe.f64	d0, d6
 106:	eef1 fa10 	vmrs	APSR_nzcv, fpscr
 10a:	d55e      	bpl.n	1ca <_ftoa+0x1ca>
 10c:	dc5d      	bgt.n	1ca <_ftoa+0x1ca>
 10e:	1e42      	subs	r2, r0, #1
 110:	9b06      	ldr	r3, [sp, #24]
 112:	498d      	ldr	r1, [pc, #564]	; (348 <_ftoa+0x348>)
 114:	441a      	add	r2, r3
 116:	fb81 340c 	smull	r3, r4, r1, ip
 11a:	2820      	cmp	r0, #32
 11c:	ea4f 73ec 	mov.w	r3, ip, asr #31
 120:	f100 0001 	add.w	r0, r0, #1
 124:	ebc3 03a4 	rsb	r3, r3, r4, asr #2
 128:	f000 8088 	beq.w	23c <_ftoa+0x23c>
 12c:	eb03 0483 	add.w	r4, r3, r3, lsl #2
 130:	ebac 0444 	sub.w	r4, ip, r4, lsl #1
 134:	469c      	mov	ip, r3
 136:	f104 0330 	add.w	r3, r4, #48	; 0x30
 13a:	f802 3f01 	strb.w	r3, [r2, #1]!
 13e:	f1bc 0f00 	cmp.w	ip, #0
 142:	d1e8      	bne.n	116 <_ftoa+0x116>
 144:	f006 0303 	and.w	r3, r6, #3
 148:	2b01      	cmp	r3, #1
 14a:	f000 80dc 	beq.w	306 <_ftoa+0x306>
 14e:	2820      	cmp	r0, #32
 150:	d00a      	beq.n	168 <_ftoa+0x168>
 152:	9b07      	ldr	r3, [sp, #28]
 154:	2b00      	cmp	r3, #0
 156:	f000 8083 	beq.w	260 <_ftoa+0x260>
 15a:	f100 0340 	add.w	r3, r0, #64	; 0x40
 15e:	222d      	movs	r2, #45	; 0x2d
 160:	3001      	adds	r0, #1
 162:	446b      	add	r3, sp
 164:	f803 2c20 	strb.w	r2, [r3, #-32]
 168:	9001      	str	r0, [sp, #4]
 16a:	464b      	mov	r3, r9
 16c:	4642      	mov	r2, r8
 16e:	4639      	mov	r1, r7
 170:	e9dd 0405 	ldrd	r0, r4, [sp, #20]
 174:	e9cd a602 	strd	sl, r6, [sp, #8]
 178:	9400      	str	r4, [sp, #0]
 17a:	f7ff fffe 	bl	0 <_ftoa>
 17e:	b011      	add	sp, #68	; 0x44
 180:	e8bd 8ff0 	ldmia.w	sp!, {r4, r5, r6, r7, r8, r9, sl, fp, pc}
 184:	e9cd a602 	strd	sl, r6, [sp, #8]
 188:	f006 0604 	and.w	r6, r6, #4
 18c:	4d6f      	ldr	r5, [pc, #444]	; (34c <_ftoa+0x34c>)
 18e:	4c70      	ldr	r4, [pc, #448]	; (350 <_ftoa+0x350>)
 190:	2e00      	cmp	r6, #0
 192:	bf08      	it	eq
 194:	462c      	moveq	r4, r5
 196:	9400      	str	r4, [sp, #0]
 198:	bf14      	ite	ne
 19a:	2404      	movne	r4, #4
 19c:	2403      	moveq	r4, #3
 19e:	9401      	str	r4, [sp, #4]
 1a0:	f7ff fffe 	bl	0 <_ftoa>
 1a4:	b011      	add	sp, #68	; 0x44
 1a6:	e8bd 8ff0 	ldmia.w	sp!, {r4, r5, r6, r7, r8, r9, sl, fp, pc}
 1aa:	2403      	movs	r4, #3
 1ac:	9401      	str	r4, [sp, #4]
 1ae:	4c69      	ldr	r4, [pc, #420]	; (354 <_ftoa+0x354>)
 1b0:	e9cd a602 	strd	sl, r6, [sp, #8]
 1b4:	9400      	str	r4, [sp, #0]
 1b6:	f7ff fffe 	bl	0 <_ftoa>
 1ba:	b011      	add	sp, #68	; 0x44
 1bc:	e8bd 8ff0 	ldmia.w	sp!, {r4, r5, r6, r7, r8, r9, sl, fp, pc}
 1c0:	2301      	movs	r3, #1
 1c2:	ee37 0b40 	vsub.f64	d0, d7, d0
 1c6:	9307      	str	r3, [sp, #28]
 1c8:	e754      	b.n	74 <_ftoa+0x74>
 1ca:	f01c 0f01 	tst.w	ip, #1
 1ce:	d09e      	beq.n	10e <_ftoa+0x10e>
 1d0:	f10c 0c01 	add.w	ip, ip, #1
 1d4:	e79b      	b.n	10e <_ftoa+0x10e>
 1d6:	464b      	mov	r3, r9
 1d8:	4642      	mov	r2, r8
 1da:	4639      	mov	r1, r7
 1dc:	9805      	ldr	r0, [sp, #20]
 1de:	941a      	str	r4, [sp, #104]	; 0x68
 1e0:	e9cd a61b 	strd	sl, r6, [sp, #108]	; 0x6c
 1e4:	b011      	add	sp, #68	; 0x44
 1e6:	e8bd 4ff0 	ldmia.w	sp!, {r4, r5, r6, r7, r8, r9, sl, fp, lr}
 1ea:	f7ff bffe 	b.w	0 <_ftoa>
 1ee:	2404      	movs	r4, #4
 1f0:	9401      	str	r4, [sp, #4]
 1f2:	4c59      	ldr	r4, [pc, #356]	; (358 <_ftoa+0x358>)
 1f4:	e9cd a602 	strd	sl, r6, [sp, #8]
 1f8:	9400      	str	r4, [sp, #0]
 1fa:	f7ff fffe 	bl	0 <_ftoa>
 1fe:	b011      	add	sp, #68	; 0x44
 200:	e8bd 8ff0 	ldmia.w	sp!, {r4, r5, r6, r7, r8, r9, sl, fp, pc}
 204:	1e41      	subs	r1, r0, #1
 206:	9a06      	ldr	r2, [sp, #24]
 208:	4411      	add	r1, r2
 20a:	e011      	b.n	230 <_ftoa+0x230>
 20c:	4d53      	ldr	r5, [pc, #332]	; (35c <_ftoa+0x35c>)
 20e:	2b09      	cmp	r3, #9
 210:	fba5 e503 	umull	lr, r5, r5, r3
 214:	ea4f 05d5 	mov.w	r5, r5, lsr #3
 218:	eb05 0e85 	add.w	lr, r5, r5, lsl #2
 21c:	eba3 0e4e 	sub.w	lr, r3, lr, lsl #1
 220:	462b      	mov	r3, r5
 222:	f10e 0e30 	add.w	lr, lr, #48	; 0x30
 226:	f801 ef01 	strb.w	lr, [r1, #1]!
 22a:	d926      	bls.n	27a <_ftoa+0x27a>
 22c:	465c      	mov	r4, fp
 22e:	4610      	mov	r0, r2
 230:	2820      	cmp	r0, #32
 232:	f104 3bff 	add.w	fp, r4, #4294967295	; 0xffffffff
 236:	f100 0201 	add.w	r2, r0, #1
 23a:	d1e7      	bne.n	20c <_ftoa+0x20c>
 23c:	f006 0303 	and.w	r3, r6, #3
 240:	2b01      	cmp	r3, #1
 242:	d041      	beq.n	2c8 <_ftoa+0x2c8>
 244:	2020      	movs	r0, #32
 246:	e78f      	b.n	168 <_ftoa+0x168>
 248:	f53f af50 	bmi.w	ec <_ftoa+0xec>
 24c:	2b00      	cmp	r3, #0
 24e:	d137      	bne.n	2c0 <_ftoa+0x2c0>
 250:	3301      	adds	r3, #1
 252:	e74b      	b.n	ec <_ftoa+0xec>
 254:	ab08      	add	r3, sp, #32
 256:	2406      	movs	r4, #6
 258:	ed9f 6b39 	vldr	d6, [pc, #228]	; 340 <_ftoa+0x340>
 25c:	9306      	str	r3, [sp, #24]
 25e:	e71e      	b.n	9e <_ftoa+0x9e>
 260:	0772      	lsls	r2, r6, #29
 262:	d425      	bmi.n	2b0 <_ftoa+0x2b0>
 264:	0733      	lsls	r3, r6, #28
 266:	f57f af7f 	bpl.w	168 <_ftoa+0x168>
 26a:	f100 0340 	add.w	r3, r0, #64	; 0x40
 26e:	2220      	movs	r2, #32
 270:	3001      	adds	r0, #1
 272:	446b      	add	r3, sp
 274:	f803 2c20 	strb.w	r2, [r3, #-32]
 278:	e776      	b.n	168 <_ftoa+0x168>
 27a:	2a20      	cmp	r2, #32
 27c:	d0de      	beq.n	23c <_ftoa+0x23c>
 27e:	f1bb 0f00 	cmp.w	fp, #0
 282:	d076      	beq.n	372 <_ftoa+0x372>
 284:	9b06      	ldr	r3, [sp, #24]
 286:	2530      	movs	r5, #48	; 0x30
 288:	1819      	adds	r1, r3, r0
 28a:	4610      	mov	r0, r2
 28c:	3001      	adds	r0, #1
 28e:	f801 5f01 	strb.w	r5, [r1, #1]!
 292:	1a23      	subs	r3, r4, r0
 294:	2820      	cmp	r0, #32
 296:	f103 33ff 	add.w	r3, r3, #4294967295	; 0xffffffff
 29a:	d0cf      	beq.n	23c <_ftoa+0x23c>
 29c:	42da      	cmn	r2, r3
 29e:	d1f5      	bne.n	28c <_ftoa+0x28c>
 2a0:	f100 0340 	add.w	r3, r0, #64	; 0x40
 2a4:	222e      	movs	r2, #46	; 0x2e
 2a6:	3001      	adds	r0, #1
 2a8:	446b      	add	r3, sp
 2aa:	f803 2c20 	strb.w	r2, [r3, #-32]
 2ae:	e72e      	b.n	10e <_ftoa+0x10e>
 2b0:	f100 0340 	add.w	r3, r0, #64	; 0x40
 2b4:	222b      	movs	r2, #43	; 0x2b
 2b6:	3001      	adds	r0, #1
 2b8:	446b      	add	r3, sp
 2ba:	f803 2c20 	strb.w	r2, [r3, #-32]
 2be:	e753      	b.n	168 <_ftoa+0x168>
 2c0:	07d9      	lsls	r1, r3, #31
 2c2:	f57f af13 	bpl.w	ec <_ftoa+0xec>
 2c6:	e7c3      	b.n	250 <_ftoa+0x250>
 2c8:	f1ba 0f00 	cmp.w	sl, #0
 2cc:	d0ba      	beq.n	244 <_ftoa+0x244>
 2ce:	2300      	movs	r3, #0
 2d0:	2020      	movs	r0, #32
 2d2:	9a07      	ldr	r2, [sp, #28]
 2d4:	b912      	cbnz	r2, 2dc <_ftoa+0x2dc>
 2d6:	f016 0f0c 	tst.w	r6, #12
 2da:	d001      	beq.n	2e0 <_ftoa+0x2e0>
 2dc:	f10a 3aff 	add.w	sl, sl, #4294967295	; 0xffffffff
 2e0:	4550      	cmp	r0, sl
 2e2:	f4bf af34 	bcs.w	14e <_ftoa+0x14e>
 2e6:	2b00      	cmp	r3, #0
 2e8:	f43f af31 	beq.w	14e <_ftoa+0x14e>
 2ec:	9a06      	ldr	r2, [sp, #24]
 2ee:	1e43      	subs	r3, r0, #1
 2f0:	4413      	add	r3, r2
 2f2:	2230      	movs	r2, #48	; 0x30
 2f4:	3001      	adds	r0, #1
 2f6:	f803 2f01 	strb.w	r2, [r3, #1]!
 2fa:	4550      	cmp	r0, sl
 2fc:	f4bf af27 	bcs.w	14e <_ftoa+0x14e>
 300:	281f      	cmp	r0, #31
 302:	d9f7      	bls.n	2f4 <_ftoa+0x2f4>
 304:	e723      	b.n	14e <_ftoa+0x14e>
 306:	f1ba 0f00 	cmp.w	sl, #0
 30a:	f43f af20 	beq.w	14e <_ftoa+0x14e>
 30e:	281f      	cmp	r0, #31
 310:	bf8c      	ite	hi
 312:	2300      	movhi	r3, #0
 314:	2301      	movls	r3, #1
 316:	e7dc      	b.n	2d2 <_ftoa+0x2d2>
 318:	ffffffff 	.word	0xffffffff
 31c:	ffefffff 	.word	0xffefffff
 320:	ffffffff 	.word	0xffffffff
 324:	7fefffff 	.word	0x7fefffff
 328:	00000000 	.word	0x00000000
 32c:	41cdcd65 	.word	0x41cdcd65
 330:	00000000 	.word	0x00000000
 334:	c1cdcd65 	.word	0xc1cdcd65
 338:	00000000 	.word	0x00000000
 33c:	00000000 	.word	0x00000000
 340:	00000000 	.word	0x00000000
 344:	412e8480 	.word	0x412e8480
 348:	66666667 	.word	0x66666667
 34c:	00000008 	.word	0x00000008
 350:	00000000 	.word	0x00000000
 354:	0000000c 	.word	0x0000000c
 358:	00000010 	.word	0x00000010
 35c:	cccccccd 	.word	0xcccccccd
 360:	4b05      	ldr	r3, [pc, #20]	; (378 <_ftoa+0x378>)
 362:	2000      	movs	r0, #0
 364:	eb03 03c4 	add.w	r3, r3, r4, lsl #3
 368:	ed93 6b00 	vldr	d6, [r3]
 36c:	ab08      	add	r3, sp, #32
 36e:	9306      	str	r3, [sp, #24]
 370:	e695      	b.n	9e <_ftoa+0x9e>
 372:	4610      	mov	r0, r2
 374:	e794      	b.n	2a0 <_ftoa+0x2a0>
 376:	bf00      	nop
 378:	00000000 	.word	0x00000000

Disassembly of section .text.vsnprintf_:

00000000 <vsnprintf_>:
   0:	e92d 4ff0 	stmdb	sp!, {r4, r5, r6, r7, r8, r9, sl, fp, lr}
   4:	4614      	mov	r4, r2
   6:	f1b0 0a00 	subs.w	sl, r0, #0
   a:	4a9c      	ldr	r2, [pc, #624]	; (27c <vsnprintf_+0x27c>)
   c:	b091      	sub	sp, #68	; 0x44
   e:	4698      	mov	r8, r3
  10:	7820      	ldrb	r0, [r4, #0]
  12:	4b9b      	ldr	r3, [pc, #620]	; (280 <vsnprintf_+0x280>)
  14:	bf18      	it	ne
  16:	4613      	movne	r3, r2
  18:	468b      	mov	fp, r1
  1a:	930b      	str	r3, [sp, #44]	; 0x2c
  1c:	2800      	cmp	r0, #0
  1e:	f000 8262 	beq.w	4e6 <vsnprintf_+0x4e6>
  22:	2500      	movs	r5, #0
  24:	4699      	mov	r9, r3
  26:	e00a      	b.n	3e <vsnprintf_+0x3e>
  28:	1c6e      	adds	r6, r5, #1
  2a:	462a      	mov	r2, r5
  2c:	465b      	mov	r3, fp
  2e:	4651      	mov	r1, sl
  30:	3401      	adds	r4, #1
  32:	4635      	mov	r5, r6
  34:	47c8      	blx	r9
  36:	7820      	ldrb	r0, [r4, #0]
  38:	2800      	cmp	r0, #0
  3a:	f000 80bb 	beq.w	1b4 <vsnprintf_+0x1b4>
  3e:	2825      	cmp	r0, #37	; 0x25
  40:	d1f2      	bne.n	28 <vsnprintf_+0x28>
  42:	1c63      	adds	r3, r4, #1
  44:	f04f 0c00 	mov.w	ip, #0
  48:	461c      	mov	r4, r3
  4a:	f813 0b01 	ldrb.w	r0, [r3], #1
  4e:	f1a0 0220 	sub.w	r2, r0, #32
  52:	2a10      	cmp	r2, #16
  54:	d80a      	bhi.n	6c <vsnprintf_+0x6c>
  56:	e8df f002 	tbb	[pc, r2]
  5a:	098c      	.short	0x098c
  5c:	09098909 	.word	0x09098909
  60:	09090909 	.word	0x09090909
  64:	83098609 	.word	0x83098609
  68:	0909      	.short	0x0909
  6a:	80          	.byte	0x80
  6b:	00          	.byte	0x00
  6c:	f1a0 0330 	sub.w	r3, r0, #48	; 0x30
  70:	2b09      	cmp	r3, #9
  72:	f240 80bc 	bls.w	1ee <vsnprintf_+0x1ee>
  76:	282a      	cmp	r0, #42	; 0x2a
  78:	f000 80c6 	beq.w	208 <vsnprintf_+0x208>
  7c:	2600      	movs	r6, #0
  7e:	282e      	cmp	r0, #46	; 0x2e
  80:	f000 80a7 	beq.w	1d2 <vsnprintf_+0x1d2>
  84:	2700      	movs	r7, #0
  86:	f1a0 0368 	sub.w	r3, r0, #104	; 0x68
  8a:	2b12      	cmp	r3, #18
  8c:	d818      	bhi.n	c0 <vsnprintf_+0xc0>
  8e:	e8df f013 	tbh	[pc, r3, lsl #1]
  92:	00f9      	.short	0x00f9
  94:	00ef0017 	.word	0x00ef0017
  98:	00e70017 	.word	0x00e70017
  9c:	00170017 	.word	0x00170017
  a0:	00170017 	.word	0x00170017
  a4:	00170017 	.word	0x00170017
  a8:	00130017 	.word	0x00130017
  ac:	00170017 	.word	0x00170017
  b0:	00170017 	.word	0x00170017
  b4:	00130017 	.word	0x00130017
  b8:	7860      	ldrb	r0, [r4, #1]
  ba:	f44c 7c80 	orr.w	ip, ip, #256	; 0x100
  be:	3401      	adds	r4, #1
  c0:	2867      	cmp	r0, #103	; 0x67
  c2:	d859      	bhi.n	178 <vsnprintf_+0x178>
  c4:	2824      	cmp	r0, #36	; 0x24
  c6:	d96a      	bls.n	19e <vsnprintf_+0x19e>
  c8:	f1a0 0325 	sub.w	r3, r0, #37	; 0x25
  cc:	2b42      	cmp	r3, #66	; 0x42
  ce:	d866      	bhi.n	19e <vsnprintf_+0x19e>
  d0:	e8df f013 	tbh	[pc, r3, lsl #1]
  d4:	006500f6 	.word	0x006500f6
  d8:	00650065 	.word	0x00650065
  dc:	00650065 	.word	0x00650065
  e0:	00650065 	.word	0x00650065
  e4:	00650065 	.word	0x00650065
  e8:	00650065 	.word	0x00650065
  ec:	00650065 	.word	0x00650065
  f0:	00650065 	.word	0x00650065
  f4:	00650065 	.word	0x00650065
  f8:	00650065 	.word	0x00650065
  fc:	00650065 	.word	0x00650065
 100:	00650065 	.word	0x00650065
 104:	00650065 	.word	0x00650065
 108:	00650065 	.word	0x00650065
 10c:	00650065 	.word	0x00650065
 110:	00650065 	.word	0x00650065
 114:	00e000a1 	.word	0x00e000a1
 118:	006500a1 	.word	0x006500a1
 11c:	00650065 	.word	0x00650065
 120:	00650065 	.word	0x00650065
 124:	00650065 	.word	0x00650065
 128:	00650065 	.word	0x00650065
 12c:	00650065 	.word	0x00650065
 130:	00650065 	.word	0x00650065
 134:	00650065 	.word	0x00650065
 138:	01f10065 	.word	0x01f10065
 13c:	00650065 	.word	0x00650065
 140:	00650065 	.word	0x00650065
 144:	00650065 	.word	0x00650065
 148:	00650065 	.word	0x00650065
 14c:	01f10065 	.word	0x01f10065
 150:	01f100ff 	.word	0x01f100ff
 154:	00e000a1 	.word	0x00e000a1
 158:	00a1      	.short	0x00a1
 15a:	f04c 0c01 	orr.w	ip, ip, #1
 15e:	e773      	b.n	48 <vsnprintf_+0x48>
 160:	f04c 0c02 	orr.w	ip, ip, #2
 164:	e770      	b.n	48 <vsnprintf_+0x48>
 166:	f04c 0c04 	orr.w	ip, ip, #4
 16a:	e76d      	b.n	48 <vsnprintf_+0x48>
 16c:	f04c 0c10 	orr.w	ip, ip, #16
 170:	e76a      	b.n	48 <vsnprintf_+0x48>
 172:	f04c 0c08 	orr.w	ip, ip, #8
 176:	e767      	b.n	48 <vsnprintf_+0x48>
 178:	f1a0 0369 	sub.w	r3, r0, #105	; 0x69
 17c:	b2db      	uxtb	r3, r3
 17e:	2b0f      	cmp	r3, #15
 180:	d80d      	bhi.n	19e <vsnprintf_+0x19e>
 182:	2201      	movs	r2, #1
 184:	f249 0141 	movw	r1, #36929	; 0x9041
 188:	409a      	lsls	r2, r3
 18a:	400a      	ands	r2, r1
 18c:	920a      	str	r2, [sp, #40]	; 0x28
 18e:	f040 8115 	bne.w	3bc <vsnprintf_+0x3bc>
 192:	2b0a      	cmp	r3, #10
 194:	f000 80cd 	beq.w	332 <vsnprintf_+0x332>
 198:	2b07      	cmp	r3, #7
 19a:	f000 80b4 	beq.w	306 <vsnprintf_+0x306>
 19e:	1c6b      	adds	r3, r5, #1
 1a0:	3401      	adds	r4, #1
 1a2:	462a      	mov	r2, r5
 1a4:	4651      	mov	r1, sl
 1a6:	461d      	mov	r5, r3
 1a8:	465b      	mov	r3, fp
 1aa:	47c8      	blx	r9
 1ac:	7820      	ldrb	r0, [r4, #0]
 1ae:	2800      	cmp	r0, #0
 1b0:	f47f af45 	bne.w	3e <vsnprintf_+0x3e>
 1b4:	462c      	mov	r4, r5
 1b6:	45ab      	cmp	fp, r5
 1b8:	d801      	bhi.n	1be <vsnprintf_+0x1be>
 1ba:	f10b 35ff 	add.w	r5, fp, #4294967295	; 0xffffffff
 1be:	462a      	mov	r2, r5
 1c0:	465b      	mov	r3, fp
 1c2:	4651      	mov	r1, sl
 1c4:	2000      	movs	r0, #0
 1c6:	9d0b      	ldr	r5, [sp, #44]	; 0x2c
 1c8:	47a8      	blx	r5
 1ca:	4620      	mov	r0, r4
 1cc:	b011      	add	sp, #68	; 0x44
 1ce:	e8bd 8ff0 	ldmia.w	sp!, {r4, r5, r6, r7, r8, r9, sl, fp, pc}
 1d2:	7860      	ldrb	r0, [r4, #1]
 1d4:	f44c 6c80 	orr.w	ip, ip, #1024	; 0x400
 1d8:	1c62      	adds	r2, r4, #1
 1da:	f1a0 0330 	sub.w	r3, r0, #48	; 0x30
 1de:	2b09      	cmp	r3, #9
 1e0:	f240 812f 	bls.w	442 <vsnprintf_+0x442>
 1e4:	282a      	cmp	r0, #42	; 0x2a
 1e6:	f000 813b 	beq.w	460 <vsnprintf_+0x460>
 1ea:	4614      	mov	r4, r2
 1ec:	e74a      	b.n	84 <vsnprintf_+0x84>
 1ee:	2600      	movs	r6, #0
 1f0:	eb06 0686 	add.w	r6, r6, r6, lsl #2
 1f4:	eb00 0646 	add.w	r6, r0, r6, lsl #1
 1f8:	f814 0f01 	ldrb.w	r0, [r4, #1]!
 1fc:	f1a0 0330 	sub.w	r3, r0, #48	; 0x30
 200:	3e30      	subs	r6, #48	; 0x30
 202:	2b09      	cmp	r3, #9
 204:	d9f4      	bls.n	1f0 <vsnprintf_+0x1f0>
 206:	e73a      	b.n	7e <vsnprintf_+0x7e>
 208:	f858 6b04 	ldr.w	r6, [r8], #4
 20c:	2e00      	cmp	r6, #0
 20e:	db21      	blt.n	254 <vsnprintf_+0x254>
 210:	7860      	ldrb	r0, [r4, #1]
 212:	3401      	adds	r4, #1
 214:	e733      	b.n	7e <vsnprintf_+0x7e>
 216:	f000 03df 	and.w	r3, r0, #223	; 0xdf
 21a:	f000 00fd 	and.w	r0, r0, #253	; 0xfd
 21e:	f108 0807 	add.w	r8, r8, #7
 222:	462a      	mov	r2, r5
 224:	2b47      	cmp	r3, #71	; 0x47
 226:	4651      	mov	r1, sl
 228:	f028 0807 	bic.w	r8, r8, #7
 22c:	465b      	mov	r3, fp
 22e:	bf08      	it	eq
 230:	f44c 6c00 	orreq.w	ip, ip, #2048	; 0x800
 234:	2845      	cmp	r0, #69	; 0x45
 236:	4648      	mov	r0, r9
 238:	f104 0401 	add.w	r4, r4, #1
 23c:	bf08      	it	eq
 23e:	f04c 0c20 	orreq.w	ip, ip, #32
 242:	ecb8 0b02 	vldmia	r8!, {d0}
 246:	e9cd 6c01 	strd	r6, ip, [sp, #4]
 24a:	9700      	str	r7, [sp, #0]
 24c:	f7ff fffe 	bl	0 <vsnprintf_>
 250:	4605      	mov	r5, r0
 252:	e6f0      	b.n	36 <vsnprintf_+0x36>
 254:	7860      	ldrb	r0, [r4, #1]
 256:	f04c 0c02 	orr.w	ip, ip, #2
 25a:	4276      	negs	r6, r6
 25c:	3401      	adds	r4, #1
 25e:	e70e      	b.n	7e <vsnprintf_+0x7e>
 260:	7860      	ldrb	r0, [r4, #1]
 262:	286c      	cmp	r0, #108	; 0x6c
 264:	f000 813a 	beq.w	4dc <vsnprintf_+0x4dc>
 268:	f44c 7c80 	orr.w	ip, ip, #256	; 0x100
 26c:	3401      	adds	r4, #1
 26e:	e727      	b.n	c0 <vsnprintf_+0xc0>
 270:	7860      	ldrb	r0, [r4, #1]
 272:	f44c 7c00 	orr.w	ip, ip, #512	; 0x200
 276:	3401      	adds	r4, #1
 278:	e722      	b.n	c0 <vsnprintf_+0xc0>
 27a:	bf00      	nop
 27c:	00000000 	.word	0x00000000
 280:	00000000 	.word	0x00000000
 284:	7860      	ldrb	r0, [r4, #1]
 286:	2868      	cmp	r0, #104	; 0x68
 288:	f000 8123 	beq.w	4d2 <vsnprintf_+0x4d2>
 28c:	f04c 0c80 	orr.w	ip, ip, #128	; 0x80
 290:	3401      	adds	r4, #1
 292:	e715      	b.n	c0 <vsnprintf_+0xc0>
 294:	2846      	cmp	r0, #70	; 0x46
 296:	f108 0807 	add.w	r8, r8, #7
 29a:	462a      	mov	r2, r5
 29c:	465b      	mov	r3, fp
 29e:	bf08      	it	eq
 2a0:	f04c 0c20 	orreq.w	ip, ip, #32
 2a4:	f028 0807 	bic.w	r8, r8, #7
 2a8:	4651      	mov	r1, sl
 2aa:	4648      	mov	r0, r9
 2ac:	3401      	adds	r4, #1
 2ae:	ecb8 0b02 	vldmia	r8!, {d0}
 2b2:	e9cd 6c01 	strd	r6, ip, [sp, #4]
 2b6:	9700      	str	r7, [sp, #0]
 2b8:	f7ff fffe 	bl	0 <vsnprintf_>
 2bc:	4605      	mov	r5, r0
 2be:	e6ba      	b.n	36 <vsnprintf_+0x36>
 2c0:	1c6b      	adds	r3, r5, #1
 2c2:	462a      	mov	r2, r5
 2c4:	4651      	mov	r1, sl
 2c6:	2025      	movs	r0, #37	; 0x25
 2c8:	461d      	mov	r5, r3
 2ca:	465b      	mov	r3, fp
 2cc:	3401      	adds	r4, #1
 2ce:	47c8      	blx	r9
 2d0:	e6b1      	b.n	36 <vsnprintf_+0x36>
 2d2:	f01c 0f02 	tst.w	ip, #2
 2d6:	f000 8109 	beq.w	4ec <vsnprintf_+0x4ec>
 2da:	f858 0b04 	ldr.w	r0, [r8], #4
 2de:	465b      	mov	r3, fp
 2e0:	462a      	mov	r2, r5
 2e2:	4651      	mov	r1, sl
 2e4:	b2c0      	uxtb	r0, r0
 2e6:	1c6f      	adds	r7, r5, #1
 2e8:	47c8      	blx	r9
 2ea:	2e01      	cmp	r6, #1
 2ec:	f240 8149 	bls.w	582 <vsnprintf_+0x582>
 2f0:	4435      	add	r5, r6
 2f2:	463a      	mov	r2, r7
 2f4:	3701      	adds	r7, #1
 2f6:	465b      	mov	r3, fp
 2f8:	4651      	mov	r1, sl
 2fa:	2020      	movs	r0, #32
 2fc:	47c8      	blx	r9
 2fe:	42af      	cmp	r7, r5
 300:	d1f7      	bne.n	2f2 <vsnprintf_+0x2f2>
 302:	3401      	adds	r4, #1
 304:	e697      	b.n	36 <vsnprintf_+0x36>
 306:	9b0a      	ldr	r3, [sp, #40]	; 0x28
 308:	462a      	mov	r2, r5
 30a:	9703      	str	r7, [sp, #12]
 30c:	4651      	mov	r1, sl
 30e:	9301      	str	r3, [sp, #4]
 310:	f04c 0321 	orr.w	r3, ip, #33	; 0x21
 314:	4648      	mov	r0, r9
 316:	3401      	adds	r4, #1
 318:	9305      	str	r3, [sp, #20]
 31a:	2308      	movs	r3, #8
 31c:	9304      	str	r3, [sp, #16]
 31e:	2310      	movs	r3, #16
 320:	9302      	str	r3, [sp, #8]
 322:	f858 3b04 	ldr.w	r3, [r8], #4
 326:	9300      	str	r3, [sp, #0]
 328:	465b      	mov	r3, fp
 32a:	f7ff fffe 	bl	0 <vsnprintf_>
 32e:	4605      	mov	r5, r0
 330:	e681      	b.n	36 <vsnprintf_+0x36>
 332:	4643      	mov	r3, r8
 334:	f853 8b04 	ldr.w	r8, [r3], #4
 338:	f898 0000 	ldrb.w	r0, [r8]
 33c:	930c      	str	r3, [sp, #48]	; 0x30
 33e:	2f00      	cmp	r7, #0
 340:	f040 8095 	bne.w	46e <vsnprintf_+0x46e>
 344:	b170      	cbz	r0, 364 <vsnprintf_+0x364>
 346:	f06f 0101 	mvn.w	r1, #1
 34a:	3101      	adds	r1, #1
 34c:	4643      	mov	r3, r8
 34e:	4441      	add	r1, r8
 350:	e001      	b.n	356 <vsnprintf_+0x356>
 352:	428b      	cmp	r3, r1
 354:	d003      	beq.n	35e <vsnprintf_+0x35e>
 356:	f813 2f01 	ldrb.w	r2, [r3, #1]!
 35a:	2a00      	cmp	r2, #0
 35c:	d1f9      	bne.n	352 <vsnprintf_+0x352>
 35e:	eba3 0308 	sub.w	r3, r3, r8
 362:	930a      	str	r3, [sp, #40]	; 0x28
 364:	f41c 6380 	ands.w	r3, ip, #1024	; 0x400
 368:	930d      	str	r3, [sp, #52]	; 0x34
 36a:	d004      	beq.n	376 <vsnprintf_+0x376>
 36c:	9b0a      	ldr	r3, [sp, #40]	; 0x28
 36e:	42bb      	cmp	r3, r7
 370:	bf28      	it	cs
 372:	463b      	movcs	r3, r7
 374:	930a      	str	r3, [sp, #40]	; 0x28
 376:	f01c 0302 	ands.w	r3, ip, #2
 37a:	930e      	str	r3, [sp, #56]	; 0x38
 37c:	f000 80dc 	beq.w	538 <vsnprintf_+0x538>
 380:	2800      	cmp	r0, #0
 382:	f000 80c9 	beq.w	518 <vsnprintf_+0x518>
 386:	960f      	str	r6, [sp, #60]	; 0x3c
 388:	462a      	mov	r2, r5
 38a:	9e0d      	ldr	r6, [sp, #52]	; 0x34
 38c:	e000      	b.n	390 <vsnprintf_+0x390>
 38e:	462a      	mov	r2, r5
 390:	465b      	mov	r3, fp
 392:	4651      	mov	r1, sl
 394:	b11e      	cbz	r6, 39e <vsnprintf_+0x39e>
 396:	f107 3cff 	add.w	ip, r7, #4294967295	; 0xffffffff
 39a:	b137      	cbz	r7, 3aa <vsnprintf_+0x3aa>
 39c:	4667      	mov	r7, ip
 39e:	47c8      	blx	r9
 3a0:	f818 0f01 	ldrb.w	r0, [r8, #1]!
 3a4:	3501      	adds	r5, #1
 3a6:	2800      	cmp	r0, #0
 3a8:	d1f1      	bne.n	38e <vsnprintf_+0x38e>
 3aa:	e9dd 360e 	ldrd	r3, r6, [sp, #56]	; 0x38
 3ae:	2b00      	cmp	r3, #0
 3b0:	f040 80b2 	bne.w	518 <vsnprintf_+0x518>
 3b4:	3401      	adds	r4, #1
 3b6:	f8dd 8030 	ldr.w	r8, [sp, #48]	; 0x30
 3ba:	e63c      	b.n	36 <vsnprintf_+0x36>
 3bc:	f000 03df 	and.w	r3, r0, #223	; 0xdf
 3c0:	2b58      	cmp	r3, #88	; 0x58
 3c2:	f000 8118 	beq.w	5f6 <vsnprintf_+0x5f6>
 3c6:	286f      	cmp	r0, #111	; 0x6f
 3c8:	f000 80d1 	beq.w	56e <vsnprintf_+0x56e>
 3cc:	2862      	cmp	r0, #98	; 0x62
 3ce:	f000 8125 	beq.w	61c <vsnprintf_+0x61c>
 3d2:	f02c 0c10 	bic.w	ip, ip, #16
 3d6:	f04f 0e0a 	mov.w	lr, #10
 3da:	2869      	cmp	r0, #105	; 0x69
 3dc:	d001      	beq.n	3e2 <vsnprintf_+0x3e2>
 3de:	2864      	cmp	r0, #100	; 0x64
 3e0:	d174      	bne.n	4cc <vsnprintf_+0x4cc>
 3e2:	f41c 6f80 	tst.w	ip, #1024	; 0x400
 3e6:	bf18      	it	ne
 3e8:	f02c 0c01 	bicne.w	ip, ip, #1
 3ec:	2869      	cmp	r0, #105	; 0x69
 3ee:	d043      	beq.n	478 <vsnprintf_+0x478>
 3f0:	f1a0 0064 	sub.w	r0, r0, #100	; 0x64
 3f4:	fab0 f080 	clz	r0, r0
 3f8:	0940      	lsrs	r0, r0, #5
 3fa:	2800      	cmp	r0, #0
 3fc:	d13c      	bne.n	478 <vsnprintf_+0x478>
 3fe:	f41c 7300 	ands.w	r3, ip, #512	; 0x200
 402:	f040 80e1 	bne.w	5c8 <vsnprintf_+0x5c8>
 406:	f41c 7f80 	tst.w	ip, #256	; 0x100
 40a:	f040 80f7 	bne.w	5fc <vsnprintf_+0x5fc>
 40e:	f01c 0f40 	tst.w	ip, #64	; 0x40
 412:	f858 3b04 	ldr.w	r3, [r8], #4
 416:	f040 80b2 	bne.w	57e <vsnprintf_+0x57e>
 41a:	f01c 0f80 	tst.w	ip, #128	; 0x80
 41e:	bf18      	it	ne
 420:	b29b      	uxthne	r3, r3
 422:	9300      	str	r3, [sp, #0]
 424:	462a      	mov	r2, r5
 426:	2300      	movs	r3, #0
 428:	e9cd 6c04 	strd	r6, ip, [sp, #16]
 42c:	e9cd e702 	strd	lr, r7, [sp, #8]
 430:	9301      	str	r3, [sp, #4]
 432:	465b      	mov	r3, fp
 434:	4651      	mov	r1, sl
 436:	4648      	mov	r0, r9
 438:	3401      	adds	r4, #1
 43a:	f7ff fffe 	bl	0 <vsnprintf_>
 43e:	4605      	mov	r5, r0
 440:	e5f9      	b.n	36 <vsnprintf_+0x36>
 442:	2700      	movs	r7, #0
 444:	eb07 0787 	add.w	r7, r7, r7, lsl #2
 448:	eb00 0047 	add.w	r0, r0, r7, lsl #1
 44c:	f1a0 0730 	sub.w	r7, r0, #48	; 0x30
 450:	f812 0f01 	ldrb.w	r0, [r2, #1]!
 454:	f1a0 0330 	sub.w	r3, r0, #48	; 0x30
 458:	2b09      	cmp	r3, #9
 45a:	d9f3      	bls.n	444 <vsnprintf_+0x444>
 45c:	4614      	mov	r4, r2
 45e:	e612      	b.n	86 <vsnprintf_+0x86>
 460:	f858 7b04 	ldr.w	r7, [r8], #4
 464:	3402      	adds	r4, #2
 466:	7820      	ldrb	r0, [r4, #0]
 468:	ea27 77e7 	bic.w	r7, r7, r7, asr #31
 46c:	e60b      	b.n	86 <vsnprintf_+0x86>
 46e:	2800      	cmp	r0, #0
 470:	f43f af78 	beq.w	364 <vsnprintf_+0x364>
 474:	1e79      	subs	r1, r7, #1
 476:	e768      	b.n	34a <vsnprintf_+0x34a>
 478:	f41c 7f00 	tst.w	ip, #512	; 0x200
 47c:	f040 8083 	bne.w	586 <vsnprintf_+0x586>
 480:	f41c 7f80 	tst.w	ip, #256	; 0x100
 484:	f040 80cd 	bne.w	622 <vsnprintf_+0x622>
 488:	f01c 0f40 	tst.w	ip, #64	; 0x40
 48c:	d172      	bne.n	574 <vsnprintf_+0x574>
 48e:	f01c 0f80 	tst.w	ip, #128	; 0x80
 492:	f000 80db 	beq.w	64c <vsnprintf_+0x64c>
 496:	f938 3b04 	ldrsh.w	r3, [r8], #4
 49a:	ea83 72e3 	eor.w	r2, r3, r3, asr #31
 49e:	eba2 72e3 	sub.w	r2, r2, r3, asr #31
 4a2:	b292      	uxth	r2, r2
 4a4:	0fdb      	lsrs	r3, r3, #31
 4a6:	9200      	str	r2, [sp, #0]
 4a8:	462a      	mov	r2, r5
 4aa:	9301      	str	r3, [sp, #4]
 4ac:	e9cd 6c04 	strd	r6, ip, [sp, #16]
 4b0:	e9cd e702 	strd	lr, r7, [sp, #8]
 4b4:	e7bd      	b.n	432 <vsnprintf_+0x432>
 4b6:	f000 03df 	and.w	r3, r0, #223	; 0xdf
 4ba:	2b58      	cmp	r3, #88	; 0x58
 4bc:	d186      	bne.n	3cc <vsnprintf_+0x3cc>
 4be:	2858      	cmp	r0, #88	; 0x58
 4c0:	f040 8099 	bne.w	5f6 <vsnprintf_+0x5f6>
 4c4:	f04c 0c20 	orr.w	ip, ip, #32
 4c8:	f04f 0e10 	mov.w	lr, #16
 4cc:	f02c 0c0c 	bic.w	ip, ip, #12
 4d0:	e787      	b.n	3e2 <vsnprintf_+0x3e2>
 4d2:	78a0      	ldrb	r0, [r4, #2]
 4d4:	f04c 0cc0 	orr.w	ip, ip, #192	; 0xc0
 4d8:	3402      	adds	r4, #2
 4da:	e5f1      	b.n	c0 <vsnprintf_+0xc0>
 4dc:	78a0      	ldrb	r0, [r4, #2]
 4de:	f44c 7c40 	orr.w	ip, ip, #768	; 0x300
 4e2:	3402      	adds	r4, #2
 4e4:	e5ec      	b.n	c0 <vsnprintf_+0xc0>
 4e6:	4604      	mov	r4, r0
 4e8:	4605      	mov	r5, r0
 4ea:	e664      	b.n	1b6 <vsnprintf_+0x1b6>
 4ec:	2e01      	cmp	r6, #1
 4ee:	f240 80b4 	bls.w	65a <vsnprintf_+0x65a>
 4f2:	1e6b      	subs	r3, r5, #1
 4f4:	441e      	add	r6, r3
 4f6:	462a      	mov	r2, r5
 4f8:	3501      	adds	r5, #1
 4fa:	465b      	mov	r3, fp
 4fc:	4651      	mov	r1, sl
 4fe:	2020      	movs	r0, #32
 500:	47c8      	blx	r9
 502:	42b5      	cmp	r5, r6
 504:	d1f7      	bne.n	4f6 <vsnprintf_+0x4f6>
 506:	f858 0b04 	ldr.w	r0, [r8], #4
 50a:	465b      	mov	r3, fp
 50c:	4632      	mov	r2, r6
 50e:	4651      	mov	r1, sl
 510:	b2c0      	uxtb	r0, r0
 512:	1c75      	adds	r5, r6, #1
 514:	47c8      	blx	r9
 516:	e6f4      	b.n	302 <vsnprintf_+0x302>
 518:	9b0a      	ldr	r3, [sp, #40]	; 0x28
 51a:	462f      	mov	r7, r5
 51c:	429e      	cmp	r6, r3
 51e:	f67f af49 	bls.w	3b4 <vsnprintf_+0x3b4>
 522:	4435      	add	r5, r6
 524:	1aed      	subs	r5, r5, r3
 526:	463a      	mov	r2, r7
 528:	3701      	adds	r7, #1
 52a:	465b      	mov	r3, fp
 52c:	4651      	mov	r1, sl
 52e:	2020      	movs	r0, #32
 530:	47c8      	blx	r9
 532:	42af      	cmp	r7, r5
 534:	d1f7      	bne.n	526 <vsnprintf_+0x526>
 536:	e73d      	b.n	3b4 <vsnprintf_+0x3b4>
 538:	9a0a      	ldr	r2, [sp, #40]	; 0x28
 53a:	4296      	cmp	r6, r2
 53c:	f102 0301 	add.w	r3, r2, #1
 540:	f240 808d 	bls.w	65e <vsnprintf_+0x65e>
 544:	1973      	adds	r3, r6, r5
 546:	940a      	str	r4, [sp, #40]	; 0x28
 548:	1a9b      	subs	r3, r3, r2
 54a:	461c      	mov	r4, r3
 54c:	462a      	mov	r2, r5
 54e:	3501      	adds	r5, #1
 550:	465b      	mov	r3, fp
 552:	4651      	mov	r1, sl
 554:	2020      	movs	r0, #32
 556:	47c8      	blx	r9
 558:	42a5      	cmp	r5, r4
 55a:	d1f7      	bne.n	54c <vsnprintf_+0x54c>
 55c:	1c73      	adds	r3, r6, #1
 55e:	f898 0000 	ldrb.w	r0, [r8]
 562:	9c0a      	ldr	r4, [sp, #40]	; 0x28
 564:	930a      	str	r3, [sp, #40]	; 0x28
 566:	2800      	cmp	r0, #0
 568:	f47f af0d 	bne.w	386 <vsnprintf_+0x386>
 56c:	e722      	b.n	3b4 <vsnprintf_+0x3b4>
 56e:	f04f 0e08 	mov.w	lr, #8
 572:	e7ab      	b.n	4cc <vsnprintf_+0x4cc>
 574:	f858 3b04 	ldr.w	r3, [r8], #4
 578:	b2db      	uxtb	r3, r3
 57a:	461a      	mov	r2, r3
 57c:	e792      	b.n	4a4 <vsnprintf_+0x4a4>
 57e:	b2db      	uxtb	r3, r3
 580:	e74f      	b.n	422 <vsnprintf_+0x422>
 582:	463d      	mov	r5, r7
 584:	e6bd      	b.n	302 <vsnprintf_+0x302>
 586:	f108 0807 	add.w	r8, r8, #7
 58a:	f028 0807 	bic.w	r8, r8, #7
 58e:	f8d8 3004 	ldr.w	r3, [r8, #4]
 592:	f858 2b08 	ldr.w	r2, [r8], #8
 596:	0fd9      	lsrs	r1, r3, #31
 598:	2b00      	cmp	r3, #0
 59a:	9706      	str	r7, [sp, #24]
 59c:	9102      	str	r1, [sp, #8]
 59e:	f04f 0100 	mov.w	r1, #0
 5a2:	f8cd e010 	str.w	lr, [sp, #16]
 5a6:	9105      	str	r1, [sp, #20]
 5a8:	e9cd 6c07 	strd	r6, ip, [sp, #28]
 5ac:	da02      	bge.n	5b4 <vsnprintf_+0x5b4>
 5ae:	4252      	negs	r2, r2
 5b0:	eb63 0343 	sbc.w	r3, r3, r3, lsl #1
 5b4:	4651      	mov	r1, sl
 5b6:	4648      	mov	r0, r9
 5b8:	e9cd 2300 	strd	r2, r3, [sp]
 5bc:	462a      	mov	r2, r5
 5be:	465b      	mov	r3, fp
 5c0:	f7ff fffe 	bl	0 <vsnprintf_>
 5c4:	4605      	mov	r5, r0
 5c6:	e69c      	b.n	302 <vsnprintf_+0x302>
 5c8:	f108 0807 	add.w	r8, r8, #7
 5cc:	9005      	str	r0, [sp, #20]
 5ce:	9002      	str	r0, [sp, #8]
 5d0:	462a      	mov	r2, r5
 5d2:	f028 0807 	bic.w	r8, r8, #7
 5d6:	9706      	str	r7, [sp, #24]
 5d8:	f8cd e010 	str.w	lr, [sp, #16]
 5dc:	465b      	mov	r3, fp
 5de:	4651      	mov	r1, sl
 5e0:	4648      	mov	r0, r9
 5e2:	e9cd 6c07 	strd	r6, ip, [sp, #28]
 5e6:	e8f8 6702 	ldrd	r6, r7, [r8], #8
 5ea:	e9cd 6700 	strd	r6, r7, [sp]
 5ee:	f7ff fffe 	bl	0 <vsnprintf_>
 5f2:	4605      	mov	r5, r0
 5f4:	e685      	b.n	302 <vsnprintf_+0x302>
 5f6:	f04f 0e10 	mov.w	lr, #16
 5fa:	e6ee      	b.n	3da <vsnprintf_+0x3da>
 5fc:	9301      	str	r3, [sp, #4]
 5fe:	462a      	mov	r2, r5
 600:	465b      	mov	r3, fp
 602:	4648      	mov	r0, r9
 604:	e9cd 6c04 	strd	r6, ip, [sp, #16]
 608:	e9cd e702 	strd	lr, r7, [sp, #8]
 60c:	f858 1b04 	ldr.w	r1, [r8], #4
 610:	9100      	str	r1, [sp, #0]
 612:	4651      	mov	r1, sl
 614:	f7ff fffe 	bl	0 <vsnprintf_>
 618:	4605      	mov	r5, r0
 61a:	e672      	b.n	302 <vsnprintf_+0x302>
 61c:	f04f 0e02 	mov.w	lr, #2
 620:	e754      	b.n	4cc <vsnprintf_+0x4cc>
 622:	f858 0b04 	ldr.w	r0, [r8], #4
 626:	462a      	mov	r2, r5
 628:	465b      	mov	r3, fp
 62a:	4651      	mov	r1, sl
 62c:	2800      	cmp	r0, #0
 62e:	ea4f 75d0 	mov.w	r5, r0, lsr #31
 632:	bfb8      	it	lt
 634:	4240      	neglt	r0, r0
 636:	9501      	str	r5, [sp, #4]
 638:	9000      	str	r0, [sp, #0]
 63a:	4648      	mov	r0, r9
 63c:	e9cd 6c04 	strd	r6, ip, [sp, #16]
 640:	e9cd e702 	strd	lr, r7, [sp, #8]
 644:	f7ff fffe 	bl	0 <vsnprintf_>
 648:	4605      	mov	r5, r0
 64a:	e65a      	b.n	302 <vsnprintf_+0x302>
 64c:	f858 3b04 	ldr.w	r3, [r8], #4
 650:	ea83 72e3 	eor.w	r2, r3, r3, asr #31
 654:	eba2 72e3 	sub.w	r2, r2, r3, asr #31
 658:	e724      	b.n	4a4 <vsnprintf_+0x4a4>
 65a:	462e      	mov	r6, r5
 65c:	e753      	b.n	506 <vsnprintf_+0x506>
 65e:	930a      	str	r3, [sp, #40]	; 0x28
 660:	2800      	cmp	r0, #0
 662:	f47f ae90 	bne.w	386 <vsnprintf_+0x386>
 666:	e6a5      	b.n	3b4 <vsnprintf_+0x3b4>
