
build/./teensy4/sm_pool.c.o:     file format elf32-littlearm

SYMBOL TABLE:
00000000 l    df *ABS*	00000000 sm_pool.c
00000000 l    d  .text	00000000 .text
00000000 l    d  .data	00000000 .data
00000000 l    d  .bss	00000000 .bss
00000000 l    d  .text.smalloc_verify_pool	00000000 .text.smalloc_verify_pool
00000000 l    d  .text.sm_align_pool	00000000 .text.sm_align_pool
00000000 l    d  .text.sm_set_pool	00000000 .text.sm_set_pool
00000000 l    d  .text.sm_set_default_pool	00000000 .text.sm_set_default_pool
00000000 l    d  .text.sm_release_pool	00000000 .text.sm_release_pool
00000000 l    d  .text.sm_release_default_pool	00000000 .text.sm_release_default_pool
00000000 l    d  .bss.smalloc_curr_pool	00000000 .bss.smalloc_curr_pool
00000000 l    d  .comment	00000000 .comment
00000000 l    d  .ARM.attributes	00000000 .ARM.attributes
00000000 g     F .text.smalloc_verify_pool	00000028 smalloc_verify_pool
00000000 g     F .text.sm_align_pool	0000004c sm_align_pool
00000000         *UND*	00000000 __errno
00000000 g     F .text.sm_set_pool	00000084 sm_set_pool
00000000         *UND*	00000000 memset
00000000 g     F .text.sm_set_default_pool	00000020 sm_set_default_pool
00000000 g     F .text.sm_release_pool	0000004c sm_release_pool
00000000 g     F .text.sm_release_default_pool	00000050 sm_release_default_pool
00000000 g     O .bss.smalloc_curr_pool	00000010 smalloc_curr_pool


Contents of section .text.smalloc_verify_pool:
 0000 03685bb1 406850b1 054a064b 02fb00f0  .h[.@hP..J.K....
 0010 b3ebb00f 2cbf0120 00207047 18467047  ....,.. . pG.FpG
 0020 abaaaaaa 55555515                    ....UUU.        
Contents of section .text.sm_align_pool:
 0000 08b5d0e9 00325bb1 bab10f4b a3fb0213  .....2[....K....
 0010 db0803eb 4303b2eb 83030ad1 012008bd  ....C........ ..
 0020 094ba3fb 0213db08 03eb4303 b2eb8303  .K........C.....
 0030 01d0d21a 4260f02a f0d8fff7 feff1c22  ....B`.*......."
 0040 03460020 1a6008bd abaaaaaa           .F. .`......    
Contents of section .text.sm_set_pool:
 0000 70b50446 38b319b1 b2fa82f6 7609a2b9  p..F8.......v...
 0010 206800b3 6268f2b1 184b1949 02fb03f3   h..bh...K.I....
 0020 b1ebb30f 17d3a368 e3b90022 01232260  .......h...".#"`
 0030 6260a260 e2601846 70bd1d46 049bc0e9  b`.`.`.Fp..F....
 0040 0012c360 fff7feff 03460028 f3d06db9  ...`.....F.(..m.
 0050 01231846 70bdfff7 feff1622 00230260  .#.Fp......".#.`
 0060 184670bd 0021fff7 feffdee7 62683146  .Fp..!......bh1F
 0070 2068a560 fff7feff 0123dce7 abaaaaaa   h.`.....#......
 0080 55555515                             UUU.            
Contents of section .text.sm_set_default_pool:
 0000 94460a46 01460548 10b51c46 82b06346  .F.F.F.H...F..cF
 0010 0094fff7 feff02b0 10bd00bf 00000000  ................
Contents of section .text.sm_release_pool:
 0000 10b50446 98b10068 88b16268 7ab10d4b  ...F...h..bhz..K
 0010 0d4902fb 03f3b1eb b30f08d3 a3686bb9  .I...........hk.
 0020 00230120 23606360 a360e360 10bdfff7  .#. #`c`.`.`....
 0030 feff1622 03460020 1a6010bd 0021fff7  ...".F. .`...!..
 0040 feffede7 abaaaaaa 55555515           ........UUU.    
Contents of section .text.sm_release_default_pool:
 0000 10b5104c 206888b1 62687ab1 0e4b0f49  ...L h..bhz..K.I
 0010 02fb03f3 b1ebb30f 08d3a368 6bb90023  ...........hk..#
 0020 0120c4e9 0033c4e9 023310bd fff7feff  . ...3...3......
 0030 16220346 00201a60 10bd0021 fff7feff  .".F. .`...!....
 0040 ede700bf 00000000 abaaaaaa 55555515  ............UUU.
Contents of section .comment:
 0000 00474343 3a202841 726d2047 4e552054  .GCC: (Arm GNU T
 0010 6f6f6c63 6861696e 2031312e 332e5265  oolchain 11.3.Re
 0020 6c312920 31312e33 2e312032 30323230  l1) 11.3.1 20220
 0030 37313200                             712.            
Contents of section .ARM.attributes:
 0000 41310000 00616561 62690001 27000000  A1...aeabi..'...
 0010 0537452d 4d00060d 074d0902 0a081204  .7E-M....M......
 0020 14011501 17031801 19011a01 1c011e02  ................
 0030 2201                                 ".              

Disassembly of section .text.smalloc_verify_pool:

00000000 <smalloc_verify_pool>:
   0:	6803      	ldr	r3, [r0, #0]
   2:	b15b      	cbz	r3, 1c <smalloc_verify_pool+0x1c>
   4:	6840      	ldr	r0, [r0, #4]
   6:	b150      	cbz	r0, 1e <smalloc_verify_pool+0x1e>
   8:	4a05      	ldr	r2, [pc, #20]	; (20 <smalloc_verify_pool+0x20>)
   a:	4b06      	ldr	r3, [pc, #24]	; (24 <smalloc_verify_pool+0x24>)
   c:	fb02 f000 	mul.w	r0, r2, r0
  10:	ebb3 0fb0 	cmp.w	r3, r0, ror #2
  14:	bf2c      	ite	cs
  16:	2001      	movcs	r0, #1
  18:	2000      	movcc	r0, #0
  1a:	4770      	bx	lr
  1c:	4618      	mov	r0, r3
  1e:	4770      	bx	lr
  20:	aaaaaaab 	.word	0xaaaaaaab
  24:	15555555 	.word	0x15555555

Disassembly of section .text.sm_align_pool:

00000000 <sm_align_pool>:
   0:	b508      	push	{r3, lr}
   2:	e9d0 3200 	ldrd	r3, r2, [r0]
   6:	b15b      	cbz	r3, 20 <sm_align_pool+0x20>
   8:	b1ba      	cbz	r2, 3a <sm_align_pool+0x3a>
   a:	4b0f      	ldr	r3, [pc, #60]	; (48 <sm_align_pool+0x48>)
   c:	fba3 1302 	umull	r1, r3, r3, r2
  10:	08db      	lsrs	r3, r3, #3
  12:	eb03 0343 	add.w	r3, r3, r3, lsl #1
  16:	ebb2 0383 	subs.w	r3, r2, r3, lsl #2
  1a:	d10a      	bne.n	32 <sm_align_pool+0x32>
  1c:	2001      	movs	r0, #1
  1e:	bd08      	pop	{r3, pc}
  20:	4b09      	ldr	r3, [pc, #36]	; (48 <sm_align_pool+0x48>)
  22:	fba3 1302 	umull	r1, r3, r3, r2
  26:	08db      	lsrs	r3, r3, #3
  28:	eb03 0343 	add.w	r3, r3, r3, lsl #1
  2c:	ebb2 0383 	subs.w	r3, r2, r3, lsl #2
  30:	d001      	beq.n	36 <sm_align_pool+0x36>
  32:	1ad2      	subs	r2, r2, r3
  34:	6042      	str	r2, [r0, #4]
  36:	2af0      	cmp	r2, #240	; 0xf0
  38:	d8f0      	bhi.n	1c <sm_align_pool+0x1c>
  3a:	f7ff fffe 	bl	0 <__errno>
  3e:	221c      	movs	r2, #28
  40:	4603      	mov	r3, r0
  42:	2000      	movs	r0, #0
  44:	601a      	str	r2, [r3, #0]
  46:	bd08      	pop	{r3, pc}
  48:	aaaaaaab 	.word	0xaaaaaaab

Disassembly of section .text.sm_set_pool:

00000000 <sm_set_pool>:
   0:	b570      	push	{r4, r5, r6, lr}
   2:	4604      	mov	r4, r0
   4:	b338      	cbz	r0, 56 <sm_set_pool+0x56>
   6:	b119      	cbz	r1, 10 <sm_set_pool+0x10>
   8:	fab2 f682 	clz	r6, r2
   c:	0976      	lsrs	r6, r6, #5
   e:	b9a2      	cbnz	r2, 3a <sm_set_pool+0x3a>
  10:	6820      	ldr	r0, [r4, #0]
  12:	b300      	cbz	r0, 56 <sm_set_pool+0x56>
  14:	6862      	ldr	r2, [r4, #4]
  16:	b1f2      	cbz	r2, 56 <sm_set_pool+0x56>
  18:	4b18      	ldr	r3, [pc, #96]	; (7c <sm_set_pool+0x7c>)
  1a:	4919      	ldr	r1, [pc, #100]	; (80 <sm_set_pool+0x80>)
  1c:	fb02 f303 	mul.w	r3, r2, r3
  20:	ebb1 0fb3 	cmp.w	r1, r3, ror #2
  24:	d317      	bcc.n	56 <sm_set_pool+0x56>
  26:	68a3      	ldr	r3, [r4, #8]
  28:	b9e3      	cbnz	r3, 64 <sm_set_pool+0x64>
  2a:	2200      	movs	r2, #0
  2c:	2301      	movs	r3, #1
  2e:	6022      	str	r2, [r4, #0]
  30:	6062      	str	r2, [r4, #4]
  32:	60a2      	str	r2, [r4, #8]
  34:	60e2      	str	r2, [r4, #12]
  36:	4618      	mov	r0, r3
  38:	bd70      	pop	{r4, r5, r6, pc}
  3a:	461d      	mov	r5, r3
  3c:	9b04      	ldr	r3, [sp, #16]
  3e:	e9c0 1200 	strd	r1, r2, [r0]
  42:	60c3      	str	r3, [r0, #12]
  44:	f7ff fffe 	bl	0 <sm_set_pool>
  48:	4603      	mov	r3, r0
  4a:	2800      	cmp	r0, #0
  4c:	d0f3      	beq.n	36 <sm_set_pool+0x36>
  4e:	b96d      	cbnz	r5, 6c <sm_set_pool+0x6c>
  50:	2301      	movs	r3, #1
  52:	4618      	mov	r0, r3
  54:	bd70      	pop	{r4, r5, r6, pc}
  56:	f7ff fffe 	bl	0 <__errno>
  5a:	2216      	movs	r2, #22
  5c:	2300      	movs	r3, #0
  5e:	6002      	str	r2, [r0, #0]
  60:	4618      	mov	r0, r3
  62:	bd70      	pop	{r4, r5, r6, pc}
  64:	2100      	movs	r1, #0
  66:	f7ff fffe 	bl	0 <memset>
  6a:	e7de      	b.n	2a <sm_set_pool+0x2a>
  6c:	6862      	ldr	r2, [r4, #4]
  6e:	4631      	mov	r1, r6
  70:	6820      	ldr	r0, [r4, #0]
  72:	60a5      	str	r5, [r4, #8]
  74:	f7ff fffe 	bl	0 <memset>
  78:	2301      	movs	r3, #1
  7a:	e7dc      	b.n	36 <sm_set_pool+0x36>
  7c:	aaaaaaab 	.word	0xaaaaaaab
  80:	15555555 	.word	0x15555555

Disassembly of section .text.sm_set_default_pool:

00000000 <sm_set_default_pool>:
   0:	4694      	mov	ip, r2
   2:	460a      	mov	r2, r1
   4:	4601      	mov	r1, r0
   6:	4805      	ldr	r0, [pc, #20]	; (1c <sm_set_default_pool+0x1c>)
   8:	b510      	push	{r4, lr}
   a:	461c      	mov	r4, r3
   c:	b082      	sub	sp, #8
   e:	4663      	mov	r3, ip
  10:	9400      	str	r4, [sp, #0]
  12:	f7ff fffe 	bl	0 <sm_set_default_pool>
  16:	b002      	add	sp, #8
  18:	bd10      	pop	{r4, pc}
  1a:	bf00      	nop
  1c:	00000000 	.word	0x00000000

Disassembly of section .text.sm_release_pool:

00000000 <sm_release_pool>:
   0:	b510      	push	{r4, lr}
   2:	4604      	mov	r4, r0
   4:	b198      	cbz	r0, 2e <sm_release_pool+0x2e>
   6:	6800      	ldr	r0, [r0, #0]
   8:	b188      	cbz	r0, 2e <sm_release_pool+0x2e>
   a:	6862      	ldr	r2, [r4, #4]
   c:	b17a      	cbz	r2, 2e <sm_release_pool+0x2e>
   e:	4b0d      	ldr	r3, [pc, #52]	; (44 <sm_release_pool+0x44>)
  10:	490d      	ldr	r1, [pc, #52]	; (48 <sm_release_pool+0x48>)
  12:	fb02 f303 	mul.w	r3, r2, r3
  16:	ebb1 0fb3 	cmp.w	r1, r3, ror #2
  1a:	d308      	bcc.n	2e <sm_release_pool+0x2e>
  1c:	68a3      	ldr	r3, [r4, #8]
  1e:	b96b      	cbnz	r3, 3c <sm_release_pool+0x3c>
  20:	2300      	movs	r3, #0
  22:	2001      	movs	r0, #1
  24:	6023      	str	r3, [r4, #0]
  26:	6063      	str	r3, [r4, #4]
  28:	60a3      	str	r3, [r4, #8]
  2a:	60e3      	str	r3, [r4, #12]
  2c:	bd10      	pop	{r4, pc}
  2e:	f7ff fffe 	bl	0 <__errno>
  32:	2216      	movs	r2, #22
  34:	4603      	mov	r3, r0
  36:	2000      	movs	r0, #0
  38:	601a      	str	r2, [r3, #0]
  3a:	bd10      	pop	{r4, pc}
  3c:	2100      	movs	r1, #0
  3e:	f7ff fffe 	bl	0 <memset>
  42:	e7ed      	b.n	20 <sm_release_pool+0x20>
  44:	aaaaaaab 	.word	0xaaaaaaab
  48:	15555555 	.word	0x15555555

Disassembly of section .text.sm_release_default_pool:

00000000 <sm_release_default_pool>:
   0:	b510      	push	{r4, lr}
   2:	4c10      	ldr	r4, [pc, #64]	; (44 <sm_release_default_pool+0x44>)
   4:	6820      	ldr	r0, [r4, #0]
   6:	b188      	cbz	r0, 2c <sm_release_default_pool+0x2c>
   8:	6862      	ldr	r2, [r4, #4]
   a:	b17a      	cbz	r2, 2c <sm_release_default_pool+0x2c>
   c:	4b0e      	ldr	r3, [pc, #56]	; (48 <sm_release_default_pool+0x48>)
   e:	490f      	ldr	r1, [pc, #60]	; (4c <sm_release_default_pool+0x4c>)
  10:	fb02 f303 	mul.w	r3, r2, r3
  14:	ebb1 0fb3 	cmp.w	r1, r3, ror #2
  18:	d308      	bcc.n	2c <sm_release_default_pool+0x2c>
  1a:	68a3      	ldr	r3, [r4, #8]
  1c:	b96b      	cbnz	r3, 3a <sm_release_default_pool+0x3a>
  1e:	2300      	movs	r3, #0
  20:	2001      	movs	r0, #1
  22:	e9c4 3300 	strd	r3, r3, [r4]
  26:	e9c4 3302 	strd	r3, r3, [r4, #8]
  2a:	bd10      	pop	{r4, pc}
  2c:	f7ff fffe 	bl	0 <__errno>
  30:	2216      	movs	r2, #22
  32:	4603      	mov	r3, r0
  34:	2000      	movs	r0, #0
  36:	601a      	str	r2, [r3, #0]
  38:	bd10      	pop	{r4, pc}
  3a:	2100      	movs	r1, #0
  3c:	f7ff fffe 	bl	0 <memset>
  40:	e7ed      	b.n	1e <sm_release_default_pool+0x1e>
  42:	bf00      	nop
  44:	00000000 	.word	0x00000000
  48:	aaaaaaab 	.word	0xaaaaaaab
  4c:	15555555 	.word	0x15555555
