
build/./teensy4/sm_util.c.o:     file format elf32-littlearm

SYMBOL TABLE:
00000000 l    df *ABS*	00000000 sm_util.c
00000000 l    d  .text	00000000 .text
00000000 l    d  .data	00000000 .data
00000000 l    d  .bss	00000000 .bss
00000000 l    d  .text.smalloc_do_crash	00000000 .text.smalloc_do_crash
00000000 l     F .text.smalloc_do_crash	00000006 smalloc_do_crash
00000000 l    d  .text.sm_set_ub_handler	00000000 .text.sm_set_ub_handler
00000000 l    d  .text.smalloc_is_alloc	00000000 .text.smalloc_is_alloc
00000000 l    d  .data.smalloc_UB	00000000 .data.smalloc_UB
00000000 l    d  .comment	00000000 .comment
00000000 l    d  .ARM.attributes	00000000 .ARM.attributes
00000000 g     F .text.sm_set_ub_handler	00000018 sm_set_ub_handler
00000000 g     F .text.smalloc_is_alloc	000000c0 smalloc_is_alloc
00000000         *UND*	00000000 smalloc_mktag
00000000         *UND*	00000000 smalloc_uinthash
00000000 g     O .data.smalloc_UB	00000004 smalloc_UB


Contents of section .text.smalloc_do_crash:
 0000 00231b70 ffde00bf                    .#.p....        
Contents of section .text.sm_set_ub_handler:
 0000 034a0028 034b08bf 10461860 704700bf  .J.(.K...F.`pG..
 0010 00000000 00000000                    ........        
Contents of section .text.smalloc_is_alloc:
 0000 40b10368 994203d3 42681344 994202d9  @..h.B..Bh.D.B..
 0010 00207047 70470868 0028fbd0 4b689842  . pGpG.h.(..Kh.B
 0020 f6d3254a 254b02fb 00f0b3eb b00fefd3  ..%J%K..........
 0030 084670b5 84b00191 fff7feff 01990390  .Fp.............
 0040 8b689842 02d00020 04b070bd 4b680c33  .h.B... ..p.Kh.3
 0050 cc1804f1 0c062546 0191fff7 feff2a78  ......%F......*x
 0060 c3b20199 9a420390 edd16a78 05f1010c  .....B....jx....
 0070 9df80d30 9a42e6d1 1cf8012f 9df80e30  ...0.B...../...0
 0080 9a42e0d1 9cf80120 9df80f30 9a42dad1  .B..... ...0.B..
 0090 0435b542 e0d1d1e9 00329b1a 0ad003f1  .5.B.....2......
 00a0 0b0204f1 0b03a118 13f8012f ff2acad1  .........../.*..
 00b0 8b42f9d1 0120c7e7 abaaaaaa 55555515  .B... ......UUU.
Contents of section .data.smalloc_UB:
 0000 00000000                             ....            
Contents of section .comment:
 0000 00474343 3a202841 726d2047 4e552054  .GCC: (Arm GNU T
 0010 6f6f6c63 6861696e 2031312e 332e5265  oolchain 11.3.Re
 0020 6c312920 31312e33 2e312032 30323230  l1) 11.3.1 20220
 0030 37313200                             712.            
Contents of section .ARM.attributes:
 0000 41310000 00616561 62690001 27000000  A1...aeabi..'...
 0010 0537452d 4d00060d 074d0902 0a081204  .7E-M....M......
 0020 14011501 17031801 19011a01 1c011e02  ................
 0030 2201                                 ".              

Disassembly of section .text.smalloc_do_crash:

00000000 <smalloc_do_crash>:
   0:	2300      	movs	r3, #0
   2:	701b      	strb	r3, [r3, #0]
   4:	deff      	udf	#255	; 0xff
   6:	bf00      	nop

Disassembly of section .text.sm_set_ub_handler:

00000000 <sm_set_ub_handler>:
   0:	4a03      	ldr	r2, [pc, #12]	; (10 <sm_set_ub_handler+0x10>)
   2:	2800      	cmp	r0, #0
   4:	4b03      	ldr	r3, [pc, #12]	; (14 <sm_set_ub_handler+0x14>)
   6:	bf08      	it	eq
   8:	4610      	moveq	r0, r2
   a:	6018      	str	r0, [r3, #0]
   c:	4770      	bx	lr
   e:	bf00      	nop
  10:	00000000 	.word	0x00000000
  14:	00000000 	.word	0x00000000

Disassembly of section .text.smalloc_is_alloc:

00000000 <smalloc_is_alloc>:
   0:	b140      	cbz	r0, 14 <smalloc_is_alloc+0x14>
   2:	6803      	ldr	r3, [r0, #0]
   4:	4299      	cmp	r1, r3
   6:	d303      	bcc.n	10 <smalloc_is_alloc+0x10>
   8:	6842      	ldr	r2, [r0, #4]
   a:	4413      	add	r3, r2
   c:	4299      	cmp	r1, r3
   e:	d902      	bls.n	16 <smalloc_is_alloc+0x16>
  10:	2000      	movs	r0, #0
  12:	4770      	bx	lr
  14:	4770      	bx	lr
  16:	6808      	ldr	r0, [r1, #0]
  18:	2800      	cmp	r0, #0
  1a:	d0fb      	beq.n	14 <smalloc_is_alloc+0x14>
  1c:	684b      	ldr	r3, [r1, #4]
  1e:	4298      	cmp	r0, r3
  20:	d3f6      	bcc.n	10 <smalloc_is_alloc+0x10>
  22:	4a25      	ldr	r2, [pc, #148]	; (b8 <smalloc_is_alloc+0xb8>)
  24:	4b25      	ldr	r3, [pc, #148]	; (bc <smalloc_is_alloc+0xbc>)
  26:	fb02 f000 	mul.w	r0, r2, r0
  2a:	ebb3 0fb0 	cmp.w	r3, r0, ror #2
  2e:	d3ef      	bcc.n	10 <smalloc_is_alloc+0x10>
  30:	4608      	mov	r0, r1
  32:	b570      	push	{r4, r5, r6, lr}
  34:	b084      	sub	sp, #16
  36:	9101      	str	r1, [sp, #4]
  38:	f7ff fffe 	bl	0 <smalloc_mktag>
  3c:	9901      	ldr	r1, [sp, #4]
  3e:	9003      	str	r0, [sp, #12]
  40:	688b      	ldr	r3, [r1, #8]
  42:	4298      	cmp	r0, r3
  44:	d002      	beq.n	4c <smalloc_is_alloc+0x4c>
  46:	2000      	movs	r0, #0
  48:	b004      	add	sp, #16
  4a:	bd70      	pop	{r4, r5, r6, pc}
  4c:	684b      	ldr	r3, [r1, #4]
  4e:	330c      	adds	r3, #12
  50:	18cc      	adds	r4, r1, r3
  52:	f104 060c 	add.w	r6, r4, #12
  56:	4625      	mov	r5, r4
  58:	9101      	str	r1, [sp, #4]
  5a:	f7ff fffe 	bl	0 <smalloc_uinthash>
  5e:	782a      	ldrb	r2, [r5, #0]
  60:	b2c3      	uxtb	r3, r0
  62:	9901      	ldr	r1, [sp, #4]
  64:	429a      	cmp	r2, r3
  66:	9003      	str	r0, [sp, #12]
  68:	d1ed      	bne.n	46 <smalloc_is_alloc+0x46>
  6a:	786a      	ldrb	r2, [r5, #1]
  6c:	f105 0c01 	add.w	ip, r5, #1
  70:	f89d 300d 	ldrb.w	r3, [sp, #13]
  74:	429a      	cmp	r2, r3
  76:	d1e6      	bne.n	46 <smalloc_is_alloc+0x46>
  78:	f81c 2f01 	ldrb.w	r2, [ip, #1]!
  7c:	f89d 300e 	ldrb.w	r3, [sp, #14]
  80:	429a      	cmp	r2, r3
  82:	d1e0      	bne.n	46 <smalloc_is_alloc+0x46>
  84:	f89c 2001 	ldrb.w	r2, [ip, #1]
  88:	f89d 300f 	ldrb.w	r3, [sp, #15]
  8c:	429a      	cmp	r2, r3
  8e:	d1da      	bne.n	46 <smalloc_is_alloc+0x46>
  90:	3504      	adds	r5, #4
  92:	42b5      	cmp	r5, r6
  94:	d1e0      	bne.n	58 <smalloc_is_alloc+0x58>
  96:	e9d1 3200 	ldrd	r3, r2, [r1]
  9a:	1a9b      	subs	r3, r3, r2
  9c:	d00a      	beq.n	b4 <smalloc_is_alloc+0xb4>
  9e:	f103 020b 	add.w	r2, r3, #11
  a2:	f104 030b 	add.w	r3, r4, #11
  a6:	18a1      	adds	r1, r4, r2
  a8:	f813 2f01 	ldrb.w	r2, [r3, #1]!
  ac:	2aff      	cmp	r2, #255	; 0xff
  ae:	d1ca      	bne.n	46 <smalloc_is_alloc+0x46>
  b0:	428b      	cmp	r3, r1
  b2:	d1f9      	bne.n	a8 <smalloc_is_alloc+0xa8>
  b4:	2001      	movs	r0, #1
  b6:	e7c7      	b.n	48 <smalloc_is_alloc+0x48>
  b8:	aaaaaaab 	.word	0xaaaaaaab
  bc:	15555555 	.word	0x15555555
