
build/./teensy4/tempmon.c.o:     file format elf32-littlearm

SYMBOL TABLE:
00000000 l    df *ABS*	00000000 tempmon.c
00000000 l    d  .text	00000000 .text
00000000 l    d  .data	00000000 .data
00000000 l    d  .bss	00000000 .bss
00000000 l    d  .text.Panic_Temp_isr	00000000 .text.Panic_Temp_isr
00000000 l    d  .flashmem	00000000 .flashmem
00000000 l    d  .text.tempmonGetTemp	00000000 .text.tempmonGetTemp
00000000 l    d  .text.tempmon_Start	00000000 .text.tempmon_Start
00000000 l    d  .text.tempmon_Stop	00000000 .text.tempmon_Stop
00000000 l    d  .text.tempmon_PwrDwn	00000000 .text.tempmon_PwrDwn
00000000 l    d  .bss.s_hotCount	00000000 .bss.s_hotCount
00000000 l     O .bss.s_hotCount	00000004 s_hotCount
00000000 l    d  .bss.s_hotTemp	00000000 .bss.s_hotTemp
00000000 l     O .bss.s_hotTemp	00000004 s_hotTemp
00000000 l    d  .bss.s_hot_ROOM	00000000 .bss.s_hot_ROOM
00000000 l     O .bss.s_hot_ROOM	00000004 s_hot_ROOM
00000000 l    d  .bss.s_roomC_hotC	00000000 .bss.s_roomC_hotC
00000000 l     O .bss.s_roomC_hotC	00000004 s_roomC_hotC
00000000 l    d  .comment	00000000 .comment
00000000 l    d  .ARM.attributes	00000000 .ARM.attributes
00000000 g     F .text.Panic_Temp_isr	00000004 Panic_Temp_isr
00000000         *UND*	00000000 unused_interrupt_vector
00000000 g     F .flashmem	00000130 tempmon_init
00000000         *UND*	00000000 _VectorsRam
00000000 g     F .text.tempmonGetTemp	00000060 tempmonGetTemp
00000000 g     F .text.tempmon_Start	00000014 tempmon_Start
00000000 g     F .text.tempmon_Stop	00000014 tempmon_Stop
00000000 g     F .text.tempmon_PwrDwn	00000014 tempmon_PwrDwn


Contents of section .text.Panic_Temp_isr:
 0000 fff7febf                             ....            
Contents of section .flashmem:
 0000 3f4a0320 3f49f3ee 095ad2f8 80304ff0  ?J. ?I...Z...0O.
 0010 000c9fed 3d6a23f0 01039fed 3c5a30b4  ....=j#.....<Z0.
 0020 c2f88030 c2f89000 d1f8e010 384dcbb2  ...0........8M..
 0030 384c3948 2b6007ee 903a0b0d c1f30b21  8L9H+`...:.....!
 0040 f8eee77a 06ee903a 07ee101a 334bb8ee  ...z...:....3K..
 0050 c77a2160 f8eee66a 314937ee c66a37ee  .z!`...j1I7..j7.
 0060 c55a76ee c76a77ee e57a26ee 266ac3ed  .Zv..jw..z&.&j..
 0070 006a25ee 265ad2f8 803067ee a64ac0ed  .j%.&Z...0g..J..
 0080 007ac6ee 275a2748 85ee276a c4eea76a  .z..'Z'H..'j...j
 0090 75ee875a fceee55a 36ee076a 15ee904a  u..Z...Z6..j...J
 00a0 bceec66a 43ea0453 76ee877a c2f88030  ...jC..Sv..z...0
 00b0 16ee103a d2f89041 fceee77a 01ea0341  ...:...A...z...A
 00c0 214317ee 903ac2f8 9011c3f3 0b03d2f8  !C...:..........
 00d0 90110b43 1449c2f8 9031d2f8 803043f0  ...C.I...1...0C.
 00e0 0203c2f8 8030114b 80f840c0 c1f84031  .....0.K..@...@1
 00f0 4ff0e023 012230bc c3f80821 704700bf  O..#."0....!pG..
 0100 00810d40 00441f40 0000aa42 0000b442  ...@.D.@...B...B
 0110 00000000 00000000 00000000 00000000  ................
 0120 0000ff0f 00e400e0 00000000 00000000  ................
Contents of section .text.tempmonGetTemp:
 0000 124ad2f8 80305b07 fbd5d2f8 80301048  .J...0[......0.H
 0010 c3f30b23 0f4990ed 007a07ee 903a91ed  ...#.I...z...:..
 0020 006ab8ee 477a0c4a f8eee77a 0b4bd2ed  .j..Gz.J...z.K..
 0030 006a77ee c77a93ed 007ab8ee 477a67ee  .jw..z...z..Gzg.
 0040 867a87ee a60a37ee 400a7047 00810d40  .z....7.@.pG...@
 0050 00000000 00000000 00000000 00000000  ................
Contents of section .text.tempmon_Start:
 0000 034ad2f8 803043f0 0203c2f8 80307047  .J...0C......0pG
 0010 00810d40                             ...@            
Contents of section .text.tempmon_Stop:
 0000 034ad2f8 803023f0 0203c2f8 80307047  .J...0#......0pG
 0010 00810d40                             ...@            
Contents of section .text.tempmon_PwrDwn:
 0000 034ad2f8 803043f0 0103c2f8 80307047  .J...0C......0pG
 0010 00810d40                             ...@            
Contents of section .comment:
 0000 00474343 3a202841 726d2047 4e552054  .GCC: (Arm GNU T
 0010 6f6f6c63 6861696e 2031312e 332e5265  oolchain 11.3.Re
 0020 6c312920 31312e33 2e312032 30323230  l1) 11.3.1 20220
 0030 37313200                             712.            
Contents of section .ARM.attributes:
 0000 41310000 00616561 62690001 27000000  A1...aeabi..'...
 0010 0537452d 4d00060d 074d0902 0a081204  .7E-M....M......
 0020 14011501 17031801 19011a01 1c011e02  ................
 0030 2201                                 ".              

Disassembly of section .text.Panic_Temp_isr:

00000000 <Panic_Temp_isr>:
   0:	f7ff bffe 	b.w	0 <unused_interrupt_vector>

Disassembly of section .flashmem:

00000000 <tempmon_init>:
   0:	4a3f      	ldr	r2, [pc, #252]	; (100 <tempmon_init+0x100>)
   2:	2003      	movs	r0, #3
   4:	493f      	ldr	r1, [pc, #252]	; (104 <tempmon_init+0x104>)
   6:	eef3 5a09 	vmov.f32	s11, #57	; 0x41c80000  25.0
   a:	f8d2 3080 	ldr.w	r3, [r2, #128]	; 0x80
   e:	f04f 0c00 	mov.w	ip, #0
  12:	ed9f 6a3d 	vldr	s12, [pc, #244]	; 108 <tempmon_init+0x108>
  16:	f023 0301 	bic.w	r3, r3, #1
  1a:	ed9f 5a3c 	vldr	s10, [pc, #240]	; 10c <tempmon_init+0x10c>
  1e:	b430      	push	{r4, r5}
  20:	f8c2 3080 	str.w	r3, [r2, #128]	; 0x80
  24:	f8c2 0090 	str.w	r0, [r2, #144]	; 0x90
  28:	f8d1 10e0 	ldr.w	r1, [r1, #224]	; 0xe0
  2c:	4d38      	ldr	r5, [pc, #224]	; (110 <tempmon_init+0x110>)
  2e:	b2cb      	uxtb	r3, r1
  30:	4c38      	ldr	r4, [pc, #224]	; (114 <tempmon_init+0x114>)
  32:	4839      	ldr	r0, [pc, #228]	; (118 <tempmon_init+0x118>)
  34:	602b      	str	r3, [r5, #0]
  36:	ee07 3a90 	vmov	s15, r3
  3a:	0d0b      	lsrs	r3, r1, #20
  3c:	f3c1 210b 	ubfx	r1, r1, #8, #12
  40:	eef8 7ae7 	vcvt.f32.s32	s15, s15
  44:	ee06 3a90 	vmov	s13, r3
  48:	ee07 1a10 	vmov	s14, r1
  4c:	4b33      	ldr	r3, [pc, #204]	; (11c <tempmon_init+0x11c>)
  4e:	eeb8 7ac7 	vcvt.f32.s32	s14, s14
  52:	6021      	str	r1, [r4, #0]
  54:	eef8 6ae6 	vcvt.f32.s32	s13, s13
  58:	4931      	ldr	r1, [pc, #196]	; (120 <tempmon_init+0x120>)
  5a:	ee37 6ac6 	vsub.f32	s12, s15, s12
  5e:	ee37 5ac5 	vsub.f32	s10, s15, s10
  62:	ee76 6ac7 	vsub.f32	s13, s13, s14
  66:	ee77 7ae5 	vsub.f32	s15, s15, s11
  6a:	ee26 6a26 	vmul.f32	s12, s12, s13
  6e:	edc3 6a00 	vstr	s13, [r3]
  72:	ee25 5a26 	vmul.f32	s10, s10, s13
  76:	f8d2 3080 	ldr.w	r3, [r2, #128]	; 0x80
  7a:	ee67 4aa6 	vmul.f32	s9, s15, s13
  7e:	edc0 7a00 	vstr	s15, [r0]
  82:	eec6 5a27 	vdiv.f32	s11, s12, s15
  86:	4827      	ldr	r0, [pc, #156]	; (124 <tempmon_init+0x124>)
  88:	ee85 6a27 	vdiv.f32	s12, s10, s15
  8c:	eec4 6aa7 	vdiv.f32	s13, s9, s15
  90:	ee75 5a87 	vadd.f32	s11, s11, s14
  94:	eefc 5ae5 	vcvt.u32.f32	s11, s11
  98:	ee36 6a07 	vadd.f32	s12, s12, s14
  9c:	ee15 4a90 	vmov	r4, s11
  a0:	eebc 6ac6 	vcvt.u32.f32	s12, s12
  a4:	ea43 5304 	orr.w	r3, r3, r4, lsl #20
  a8:	ee76 7a87 	vadd.f32	s15, s13, s14
  ac:	f8c2 3080 	str.w	r3, [r2, #128]	; 0x80
  b0:	ee16 3a10 	vmov	r3, s12
  b4:	f8d2 4190 	ldr.w	r4, [r2, #400]	; 0x190
  b8:	eefc 7ae7 	vcvt.u32.f32	s15, s15
  bc:	ea01 4103 	and.w	r1, r1, r3, lsl #16
  c0:	4321      	orrs	r1, r4
  c2:	ee17 3a90 	vmov	r3, s15
  c6:	f8c2 1190 	str.w	r1, [r2, #400]	; 0x190
  ca:	f3c3 030b 	ubfx	r3, r3, #0, #12
  ce:	f8d2 1190 	ldr.w	r1, [r2, #400]	; 0x190
  d2:	430b      	orrs	r3, r1
  d4:	4914      	ldr	r1, [pc, #80]	; (128 <tempmon_init+0x128>)
  d6:	f8c2 3190 	str.w	r3, [r2, #400]	; 0x190
  da:	f8d2 3080 	ldr.w	r3, [r2, #128]	; 0x80
  de:	f043 0302 	orr.w	r3, r3, #2
  e2:	f8c2 3080 	str.w	r3, [r2, #128]	; 0x80
  e6:	4b11      	ldr	r3, [pc, #68]	; (12c <tempmon_init+0x12c>)
  e8:	f880 c040 	strb.w	ip, [r0, #64]	; 0x40
  ec:	f8c1 3140 	str.w	r3, [r1, #320]	; 0x140
  f0:	f04f 23e0 	mov.w	r3, #3758153728	; 0xe000e000
  f4:	2201      	movs	r2, #1
  f6:	bc30      	pop	{r4, r5}
  f8:	f8c3 2108 	str.w	r2, [r3, #264]	; 0x108
  fc:	4770      	bx	lr
  fe:	bf00      	nop
 100:	400d8100 	.word	0x400d8100
 104:	401f4400 	.word	0x401f4400
 108:	42aa0000 	.word	0x42aa0000
 10c:	42b40000 	.word	0x42b40000
 110:	00000000 	.word	0x00000000
 114:	00000000 	.word	0x00000000
 118:	00000000 	.word	0x00000000
 11c:	00000000 	.word	0x00000000
 120:	0fff0000 	.word	0x0fff0000
 124:	e000e400 	.word	0xe000e400
 128:	00000000 	.word	0x00000000
 12c:	00000000 	.word	0x00000000

Disassembly of section .text.tempmonGetTemp:

00000000 <tempmonGetTemp>:
   0:	4a12      	ldr	r2, [pc, #72]	; (4c <tempmonGetTemp+0x4c>)
   2:	f8d2 3080 	ldr.w	r3, [r2, #128]	; 0x80
   6:	075b      	lsls	r3, r3, #29
   8:	d5fb      	bpl.n	2 <tempmonGetTemp+0x2>
   a:	f8d2 3080 	ldr.w	r3, [r2, #128]	; 0x80
   e:	4810      	ldr	r0, [pc, #64]	; (50 <tempmonGetTemp+0x50>)
  10:	f3c3 230b 	ubfx	r3, r3, #8, #12
  14:	490f      	ldr	r1, [pc, #60]	; (54 <tempmonGetTemp+0x54>)
  16:	ed90 7a00 	vldr	s14, [r0]
  1a:	ee07 3a90 	vmov	s15, r3
  1e:	ed91 6a00 	vldr	s12, [r1]
  22:	eeb8 7a47 	vcvt.f32.u32	s14, s14
  26:	4a0c      	ldr	r2, [pc, #48]	; (58 <tempmonGetTemp+0x58>)
  28:	eef8 7ae7 	vcvt.f32.s32	s15, s15
  2c:	4b0b      	ldr	r3, [pc, #44]	; (5c <tempmonGetTemp+0x5c>)
  2e:	edd2 6a00 	vldr	s13, [r2]
  32:	ee77 7ac7 	vsub.f32	s15, s15, s14
  36:	ed93 7a00 	vldr	s14, [r3]
  3a:	eeb8 7a47 	vcvt.f32.u32	s14, s14
  3e:	ee67 7a86 	vmul.f32	s15, s15, s12
  42:	ee87 0aa6 	vdiv.f32	s0, s15, s13
  46:	ee37 0a40 	vsub.f32	s0, s14, s0
  4a:	4770      	bx	lr
  4c:	400d8100 	.word	0x400d8100
  50:	00000000 	.word	0x00000000
  54:	00000000 	.word	0x00000000
  58:	00000000 	.word	0x00000000
  5c:	00000000 	.word	0x00000000

Disassembly of section .text.tempmon_Start:

00000000 <tempmon_Start>:
   0:	4a03      	ldr	r2, [pc, #12]	; (10 <tempmon_Start+0x10>)
   2:	f8d2 3080 	ldr.w	r3, [r2, #128]	; 0x80
   6:	f043 0302 	orr.w	r3, r3, #2
   a:	f8c2 3080 	str.w	r3, [r2, #128]	; 0x80
   e:	4770      	bx	lr
  10:	400d8100 	.word	0x400d8100

Disassembly of section .text.tempmon_Stop:

00000000 <tempmon_Stop>:
   0:	4a03      	ldr	r2, [pc, #12]	; (10 <tempmon_Stop+0x10>)
   2:	f8d2 3080 	ldr.w	r3, [r2, #128]	; 0x80
   6:	f023 0302 	bic.w	r3, r3, #2
   a:	f8c2 3080 	str.w	r3, [r2, #128]	; 0x80
   e:	4770      	bx	lr
  10:	400d8100 	.word	0x400d8100

Disassembly of section .text.tempmon_PwrDwn:

00000000 <tempmon_PwrDwn>:
   0:	4a03      	ldr	r2, [pc, #12]	; (10 <tempmon_PwrDwn+0x10>)
   2:	f8d2 3080 	ldr.w	r3, [r2, #128]	; 0x80
   6:	f043 0301 	orr.w	r3, r3, #1
   a:	f8c2 3080 	str.w	r3, [r2, #128]	; 0x80
   e:	4770      	bx	lr
  10:	400d8100 	.word	0x400d8100
