
build/./teensy4/usb.c.o:     file format elf32-littlearm

SYMBOL TABLE:
00000000 l    df *ABS*	00000000 usb.c
00000000 l    d  .text	00000000 .text
00000000 l    d  .data	00000000 .data
00000000 l    d  .bss	00000000 .bss
00000000 l    d  .text.schedule_transfer	00000000 .text.schedule_transfer
00000000 l     F .text.schedule_transfer	00000088 schedule_transfer
00000000 l    d  .text.run_callbacks	00000000 .text.run_callbacks
00000000 l     F .text.run_callbacks	00000036 run_callbacks
00000000 l    d  .text.endpoint0_transmit.constprop.0	00000000 .text.endpoint0_transmit.constprop.0
00000000 l     F .text.endpoint0_transmit.constprop.0	00000098 endpoint0_transmit.constprop.0
00000000 l    d  .flashmem	00000000 .flashmem
00000000 l    d  .text.usb_start_sof_interrupts	00000000 .text.usb_start_sof_interrupts
00000000 l    d  .text.usb_stop_sof_interrupts	00000000 .text.usb_stop_sof_interrupts
00000000 l    d  .text.usb_isr	00000000 .text.usb_isr
00000000 l    d  .text.usb_config_rx	00000000 .text.usb_config_rx
00000000 l    d  .text.usb_config_tx	00000000 .text.usb_config_tx
00000000 l    d  .text.usb_config_rx_iso	00000000 .text.usb_config_rx_iso
00000000 l    d  .text.usb_config_tx_iso	00000000 .text.usb_config_tx_iso
00000000 l    d  .text.usb_prepare_transfer	00000000 .text.usb_prepare_transfer
00000000 l    d  .text.usb_transmit	00000000 .text.usb_transmit
00000000 l    d  .text.usb_receive	00000000 .text.usb_receive
00000000 l    d  .text.usb_transfer_status	00000000 .text.usb_transfer_status
00000000 l    d  .bss.endpoint0_buffer	00000000 .bss.endpoint0_buffer
00000000 l     O .bss.endpoint0_buffer	00000008 endpoint0_buffer
00000000 l    d  .bss.endpoint0_notify_mask	00000000 .bss.endpoint0_notify_mask
00000000 l     O .bss.endpoint0_notify_mask	00000004 endpoint0_notify_mask
00000000 l    d  .bss.endpoint0_setupdata	00000000 .bss.endpoint0_setupdata
00000000 l     O .bss.endpoint0_setupdata	00000008 endpoint0_setupdata
00000000 l    d  .bss.endpoint0_transfer_ack	00000000 .bss.endpoint0_transfer_ack
00000000 l    d  .bss.endpoint0_transfer_data	00000000 .bss.endpoint0_transfer_data
00000000 l    d  .bss.endpointN_notify_mask	00000000 .bss.endpointN_notify_mask
00000000 l     O .bss.endpointN_notify_mask	00000004 endpointN_notify_mask
00000000 l    d  .bss.reply_buffer	00000000 .bss.reply_buffer
00000000 l     O .bss.reply_buffer	00000008 reply_buffer
00000000 l    d  .bss.sof_usage	00000000 .bss.sof_usage
00000000 l     O .bss.sof_usage	00000001 sof_usage
00000000 l    d  .bss.usb_configuration	00000000 .bss.usb_configuration
00000000 l    d  .bss.usb_high_speed	00000000 .bss.usb_high_speed
00000000 l    d  .bss.usb_reboot_timer	00000000 .bss.usb_reboot_timer
00000000 l     O .bss.usb_reboot_timer	00000001 usb_reboot_timer
00000000 l    d  .bss.usb_timer0_callback	00000000 .bss.usb_timer0_callback
00000000 l    d  .bss.usb_timer1_callback	00000000 .bss.usb_timer1_callback
00000000 l    d  .endpoint_queue	00000000 .endpoint_queue
00000000 l    d  .comment	00000000 .comment
00000000 l    d  .ARM.attributes	00000000 .ARM.attributes
00000000 g     F .flashmem	000000e8 usb_init
00000000         *UND*	00000000 usb_init_serialnumber
00000000         *UND*	00000000 delay
00000000         *UND*	00000000 memset
00000000         *UND*	00000000 _VectorsRam
00000000 g     F .text.usb_isr	00000644 usb_isr
000000e8 g     F .flashmem	00000054 _reboot_Teensyduino_
00000000 g     F .text.usb_start_sof_interrupts	00000038 usb_start_sof_interrupts
00000000 g     F .text.usb_stop_sof_interrupts	0000002c usb_stop_sof_interrupts
00000000         *UND*	00000000 usb_serial_reset
00000000         *UND*	00000000 usb_serial_configure
00000000         *UND*	00000000 usb_serial2_configure
00000000         *UND*	00000000 usb_rawhid_configure
00000000         *UND*	00000000 memcpy
00000000         *UND*	00000000 systick_millis_count
00000000         *UND*	00000000 usb_cdc2_line_rtsdtr_millis
00000000         *UND*	00000000 usb_cdc2_line_rtsdtr
00000000         *UND*	00000000 usb_descriptor_list
00000000         *UND*	00000000 usb_config_descriptor_12
00000000         *UND*	00000000 usb_config_descriptor_480
00000000         *UND*	00000000 usb_descriptor_buffer
00000000         *UND*	00000000 usb_cdc_line_rtsdtr_millis
00000000         *UND*	00000000 usb_cdc_line_rtsdtr
00000000         *UND*	00000000 usb_cdc2_line_coding
00000000         *UND*	00000000 usb_cdc_line_coding
00000000 g     F .text.usb_config_rx	00000064 usb_config_rx
00000000 g     F .text.usb_config_tx	00000064 usb_config_tx
00000000 g     F .text.usb_config_rx_iso	00000064 usb_config_rx_iso
00000000 g     F .text.usb_config_tx_iso	0000006c usb_config_tx_iso
00000000 g     F .text.usb_prepare_transfer	00000030 usb_prepare_transfer
00000000 g     F .text.usb_transmit	00000028 usb_transmit
00000000 g     F .text.usb_receive	0000001c usb_receive
00000000 g     F .text.usb_transfer_status	00000004 usb_transfer_status
00000000 g     O .bss.usb_timer1_callback	00000004 usb_timer1_callback
00000000 g     O .bss.usb_timer0_callback	00000004 usb_timer0_callback
00000000 g     O .bss.usb_high_speed	00000001 usb_high_speed
00000000 g     O .bss.usb_configuration	00000001 usb_configuration
00000000 g     O .bss.endpoint0_transfer_ack	00000020 endpoint0_transfer_ack
00000000 g     O .bss.endpoint0_transfer_data	00000020 endpoint0_transfer_data
00000000 g     O .endpoint_queue	00000380 endpoint_queue_head


Contents of section .text.schedule_transfer:
 0000 836bf0b4 1bb15368 43f40043 536072b6  .k....ShC..CS`r.
 0010 446b3cb3 1a4b2260 d3f8b041 0c421dd1  Dk<..K"`...A.B..
 0020 184e7768 04e07468 e41bb4f5 166f0bd2  .Nwh..th.....o..
 0030 d3f84041 44f48044 c3f84041 d3f8b851  ..@AD..D..@A...Q
 0040 d3f84041 6404eed5 0d4007d1 0c4cc0e9  ..@Ad....@...L..
 0050 0225d4f8 b0310b43 c4f8b031 426362b6  .%...1.C...1Bcb.
 0060 f0bc7047 064dc0e9 0224d5f8 b0310b43  ..pG.M...$...1.C
 0070 c5f8b031 02634263 62b6f0bc 704700bf  ...1.cBcb...pG..
 0080 00002e40 001000e0                    ...@....        
Contents of section .text.run_callbacks:
 0000 70b5056b 9db10646 2a460024 03e01268  p..k...F*F.$...h
 0010 0134012a 0cd05368 13f08003 f7d03263  .4.*..Sh......2c
 0020 2cb12846 b36b2d68 9847013c f9d170bd  ,.(F.k-h.G.<..p.
 0030 c6e90c33 f4e700bf                    ...3....        
Contents of section .text.endpoint0_transmit.constprop.0:
 0000 30b4d9b9 1f4c204b 0021204a 01254ff0  0....L K.! J.%O.
 0010 01109960 1d60c4e9 02318024 5c60c2f8  ...`.`...1.$\`..
 0020 bc01d2f8 b0311a48 2b43c2f8 b0310160  .....1.H+C...1.`
 0030 d2f8b031 002bfbd1 30bc7047 0904154b  ...1.+..0.pG...K
 0040 104c0125 41f08001 9860104a 596000f5  .L.%A....`.JY`..
 0050 80511d60 d96000f5 0051a364 196100f5  .Q.`.`...Q.d.a..
 0060 405100f5 80405961 00219861 e164d2f8  @Q...@Ya.!.a.d..
 0070 b03143f4 8033c2f8 b031d2f8 b031002b  .1C..3...1...1.+
 0080 fbd1c0e7 00000000 00000000 00002e40  ...............@
 0090 00000000 00000000                    ........        
Contents of section .flashmem:
 0000 314b40f6 617210b5 c3f82021 40f20444  1K@.ar.... !@..D
 0010 fff7feff 2d4a2e49 d2f88030 2d4843f0  ....-J.I...0-HC.
 0020 0303c2f8 80302c4b c1f86041 02681a42  .....0,K..`A.h.B
 0030 03d1d1f8 a8319a07 1bd0254a 4ff00041  .....1....%JO..A
 0040 244b5963 d2f84031 43f00203 c2f84031  $KYc..@1C.....@1
 0050 d2f84031 9b07fbd4 4ff40030 4ff0e021  ..@1....O..0O..!
 0060 1c4b4ff0 0042c1f8 8c021920 9a63fff7  .KO..B..... .c..
 0070 feff184a 4ff08040 154c0021 90630a20  ...JO..@.L.!.c. 
 0080 164b1160 4ff46072 c4f8a801 1846fff7  .K.`O.`r.....F..
 0090 feff4ff4 80020346 4ff48100 40f24311  ..O....FO...@.C.
 00a0 1860c4f8 58311a64 0d4b0e4a c4f84811  .`..X1.d.K.J..H.
 00b0 c3f80422 4ff0e022 4ff40031 0123c2f8  ..."O.."O..1.#..
 00c0 0c11c4f8 403110bd 00800d40 00c00f40  ....@1.....@...@
 00d0 00002e40 00900d40 001c1e00 00000000  ...@...@........
 00e0 00000000 00000000 08b50e4b 1b6e9b07  ...........K.n..
 00f0 00d4fbbe 72b60c4b 00200c4a c3f84001  ....r..K. .J..@.
 0100 03f16043 0a49a3f5 5f231164 9d46bff3  ..`C.I.._#.d.F..
 0110 4f8f4ff4 00130748 074adb69 02609b68  O.O....H.J.i.`.h
 0120 984700bf 00441f40 00002e40 00c00a40  .G...D.@...@...@
 0130 03002000 00802020 000012eb           .. ...  ....    
Contents of section .text.usb_start_sof_interrupts:
 0000 10b472b6 0a4c0122 0a492378 02fa00f0  ..r..L.".I#x....
 0010 18432070 d1f84831 1a0605d4 80221343  .C p..H1.....".C
 0020 c1f84421 c1f84831 62b65df8 044b7047  ..D!..H1b.]..KpG
 0030 00000000 00002e40                    .......@        
Contents of section .text.usb_stop_sof_interrupts:
 0000 08490122 0b7802fa 00f023ea 00000870  .I.".x....#....p
 0010 30b9054a d2f84831 23f08003 c2f84831  0..J..H1#.....H1
 0020 704700bf 00000000 00002e40           pG.........@    
Contents of section .text.usb_isr:
 0000 2de9f04f 994c83b0 d4f84461 f107c4f8  -..O.L....Da....
 0010 44616ad5 d4f8ac31 002b61d0 dff87882  Daj....1.+a...x.
 0020 934ddff8 6cb208f5 805adff8 7092914f  .M..l....Z..p..O
 0030 c4f8ac31 d5e90a20 d4f84031 43f40053  ...1... ..@1C..S
 0040 c4f84031 d4f84031 9b04f5d5 d4f84031  ..@1..@1......@1
 0050 23f40053 c4f84031 4ff00113 c4f8b431  #..S..@1O......1
 0060 d4f8b431 13f00113 fad191b2 40f2816c  ...1........@..l
 0070 cbf80030 614500f2 d480b1f5 d06f80f0  ...0aE.......o..
 0080 6681b1f5 817f00f0 948140f2 a68040f2  f.........@...@.
 0090 023c6145 00f0b781 b1f5a06f 40f0bc80  .<aE.......o@...
 00a0 7549eb64 8b600123 a9640b60 80234b60  uI.d.`.#.d.`.#K`
 00b0 4ff00113 c4f8bc31 d4f8b031 43f48033  O......1...1C..3
 00c0 c4f8b031 d4f8b031 002bfbd1 130c5b06  ...1...1.+....[.
 00d0 43f08073 c4f85431 d4f8ac31 002ba7d1  C..s..T1...1.+..
 00e0 624bd3f8 bc71002f 45d17206 16d55f4b  bK...q./E.r..._K
 00f0 d3f8ac21 c3f8ac21 d3f8bc21 c3f8bc21  ...!...!...!...!
 0100 d3f8b041 002cfbd1 4ff0ff32 c3f8b421  ...A.,..O..2...!
 0110 d3f88431 fff7feff 584b1c60 f40103d5  ...1....XK.`....
 0120 574b1b68 03b19847 b00103d5 554b1b68  WK.h...G....UK.h
 0130 03b19847 710708d5 4c4bd3f8 843113f4  ...Gq...LK...1..
 0140 007315d0 504b0122 1a70484b d3f84831  .s..PK.".pHK..H1
 0150 1a060ad5 330608d5 4c4a1378 2bb1013b  ....3...LJ.x+..;
 0160 dbb21370 002b00f0 5c8203b0 bde8f08f  ...p.+..\.......
 0170 454a1370 e9e74649 c3f8bc71 08680742  EJ.p..FI...q.h.B
 0180 40f07481 3d4b1b68 1f40aed0 5fea1748  @.t.=K.h.@.._..H
 0190 10d0374d 4ff00109 98faa8f4 b4fa84f4  ..7MO...........
 01a0 05ebc410 09fa04f4 4030fff7 feff38ea  ........@0....8.
 01b0 0408f1d1 bfb2002f 97d02d4d 4ff00108  ......./..-MO...
 01c0 97faa7f4 b4fa84f4 05ebc410 08fa04f4  ................
 01d0 fff7feff a743f3d1 87e78029 00f0b180  .....C.....)....
 01e0 822919d1 83b210f0 780015d1 03f07f02  .)......x.......
 01f0 57f82210 274a1080 180600f1 0282cb07  W.".'J..........
 0200 01d50123 13700221 2248fff7 feff63e7  ...#.p.!"H....c.
 0210 010c0729 00f05b81 4ff00113 c4f8c031  ...)..[.O......1
 0220 5ae742f2 210c6145 f2d039d9 42f22123  Z.B.!.aE..9.B.!#
 0230 99426fd0 42f22133 9942edd1 0e4b0022  .Bo.B.!3.B...K."
 0240 9a60ea64 0122ab64 1a608022 5a604ff0  .`.d.".d.`."Z`O.
 0250 0113c4f8 bc31d4f8 b03143f4 8033c4f8  .....1...1C..3..
 0260 b031d4f8 b031002b fbd135e7 00002e40  .1...1.+..5....@
 0270 00000000 c0012e40 00000000 00000000  .......@........
 0280 00000000 00000000 00000000 00000000  ................
 0290 00000000 00000000 00000000 00000000  ................
 02a0 b1f5086f 45d0b1f5 106fb5d1 c2f3074c  ...oE....o.....L
 02b0 a64aa749 4ff0c810 82f800c0 a54a0093  .J.IO........J..
 02c0 c4f8c801 c4f8cc11 c4f8d001 c4f8d411  ................
 02d0 c4f8d821 fff7feff fff7feff fff7feff  ...!............
 02e0 9d4a0121 009baa64 11608021 93605160  .J.!...d.`.!.`Q`
 02f0 4ff00112 eb64c4f8 bc21d4f8 b02142f4  O....d...!...!B.
 0300 8032c4f8 b021cbf8 0030d4f8 b031002b  .2...!...0...1.+
 0310 fbd1e1e6 80b20028 00f09f80 02288dd1  .......(.....(..
 0320 8e4bc2f3 07421968 8d4b1960 8d4b1a70  .K...B.h.K.`.K.p
 0330 84e7864b 01218c48 1b780370 fff7feff  ...K.!.H.x.p....
 0340 cae68948 02210380 fff7feff c4e6874b  ...H.!.........K
 0350 59680029 3ff460af 4fea124e 82b204e0  Yh.)?.`.O..N....
 0360 19690c33 00293ff4 57afb3f8 00c0f445  .i.3.)?.W......E
 0370 f6d1b3f8 02c09445 f2d14fea 1e22032a  .......E..O..".*
 0380 00f01081 1a89000c 824228bf 0246bef5  .........B(..F..
 0390 007f40f0 0c81764b 76491878 764b0092  ..@...vKvI.xvK..
 03a0 002818bf 19467548 fff7feff 734b009a  .(...FuH....sK..
 03b0 12e110f0 780f83b2 7ff42eaf 03f07f02  ....x...........
 03c0 13f0800f 57f82230 14bf23f4 803323f0  ....W."0..#..3#.
 03d0 010347f8 22300022 5f4bea64 9a600122  ..G."0."_K.d.`."
 03e0 ab641a60 80225a60 4ff00113 c4f8bc31  .d.`."Z`O......1
 03f0 d4f8b031 43f48033 c4f8b031 d4f8b031  ...1C..3...1...1
 0400 002bfbd1 68e610f0 780f83b2 7ff404af  .+..h...x.......
 0410 03f07f02 13f0800f 57f82230 14bf43f4  ........W."0..C.
 0420 803343f0 010347f8 22300022 4a4bea64  .3C...G."0."JK.d
 0430 9a600122 ab641a60 80225a60 4ff00113  .`.".d.`."Z`O...
 0440 c4f8bc31 d4f8b031 43f48033 c4f8b031  ...1...1C..3...1
 0450 d4f8b031 002bfbd1 3ee6404b c2f30742  ...1.+..>.@K...B
 0460 1968474b 1960474b 1a70e7e6 00200860  .hGK.`GK.p... .`
 0470 45480488 416842f2 21008442 7ff482ae  EH..AhB.!..B....
 0480 89b20029 00f0ca80 02297ff4 7bae3f49  ...).....)..{.?I
 0490 3f4c03c9 a1808628 4fea1141 2060a171  ?L.....(O..A `.q
 04a0 7ff470ae 72b63b48 017841f0 20010170  ..p.r.;H.xA. ..p
 04b0 d3f84811 0d0605d4 80200143 c3f84401  ..H...... .C..D.
 04c0 c3f84811 62b6344b 50211970 5ae6eb60  ..H.b.4KP!.pZ..`
 04d0 01232d49 c9f80030 304b0a60 c9f80430  .#-I...00K.`...0
 04e0 2f4b4860 c9f81030 c5f80890 c9e9028a  /KH`...0........
 04f0 d4f8b021 42f00102 c4f8b021 03f58052  ...!B......!...R
 0500 03f50053 c9f81420 c9f81830 d4f8b031  ...S... ...0...1
 0510 002bfbd1 104aeb64 93600123 aa641360  .+...J.d.`.#.d.`
 0520 48f28003 53604ff0 0113c4f8 bc31d4f8  H...S`O......1..
 0530 b03143f4 8033c4f8 b0314ff4 8033cbf8  .1C..3...1O..3..
 0540 0030d4f8 b031002b fbd1c5e5 00000000  .0...1.+........
 0550 0200cc00 cc000200 00000000 00000000  ................
 0560 00000000 00000000 00000000 00000000  ................
 0570 00000000 00000000 00000000 00000000  ................
 0580 00000000 00000000 00000000 00000000  ................
 0590 00000000 00000000 00000000 80000700  ................
 05a0 00200000 000c0a78 824228bf 0246bef5  . .....x.B(..F..
 05b0 e06f2ad1 1d4b1e48 93f800c0 1d491e4b  .o*..K.H.....I.K
 05c0 bcf1000f 18bf0146 00921846 fff7feff  .......F...F....
 05d0 07210346 4170009a 23f01f01 1344bff3  .!.FAp..#....D..
 05e0 4f8f4ff0 e020c0f8 701f2031 8b42fad8  O.O.. ..p. 1.B..
 05f0 bff34f8f bff36f8f 0f481146 fff7feff  ..O...o..H.F....
 0600 6ae5c903 3ff5fdad fde50b4b 1846cde9  j...?......K.F..
 0610 0023fff7 feffdde9 0023dde7 0749084c  .#.......#...I.L
 0620 37e70520 fff7feff fff7feff 00000000  7.. ............
 0630 00000000 00000000 00000000 00000000  ................
 0640 00000000                             ....            
Contents of section .text.usb_config_rx:
 0000 2de9f047 1f46831e 042b01d9 bde8f087  -..G.F...+......
 0010 dff84c90 15460c46 3c2209eb c0180646  ..L..F.F<".....F
 0020 4feac01a 002108f1 04002404 fff7feff  O....!....$.....
 0030 b5fa85f2 01235209 44ea4274 49f80a40  .....#R.D.BtI..@
 0040 c8f83870 c8f80830 002fdfd0 034ab340  ..8p...0./...J.@
 0050 11680b43 1360bde8 f08700bf 00000000  .h.C.`..........
 0060 00000000                             ....            
Contents of section .text.usb_config_tx:
 0000 2de9f047 0d46811e 042901d9 bde8f087  -..G.F...)......
 0010 c701dff8 4c909246 04464037 3c220021  ....L..F.F@7<".!
 0020 1e4609eb 07082d04 08f10400 fff7feff  .F....-.........
 0030 bafa8af2 520945ea 427249f8 07200122  ....R.E.BrI.. ."
 0040 c8f83860 c8f80820 002edfd0 034b1034  ..8`... .....K.4
 0050 1968a240 0a431a60 bde8f087 00000000  .h.@.C.`........
 0060 00000000                             ....            
Contents of section .text.usb_config_rx_iso:
 0000 2de9f047 1446013a 022a04d8 1d46831e  -..G.F.:.*...F..
 0010 0746042b 01d9bde8 f087dff8 44900e46  .F.+........D..F
 0020 a4073c22 09ebc018 00214fea c01a08f1  ..<".....!O.....
 0030 040044ea 0644fff7 feff0123 49f80a40  ..D..D.....#I..@
 0040 c8f83850 c8f80830 002de4d0 034abb40  ..8P...0.-...J.@
 0050 11680b43 1360bde8 f08700bf 00000000  .h.C.`..........
 0060 00000000                             ....            
Contents of section .text.usb_config_tx_iso:
 0000 2de9f047 1446013a 022a04d8 1d46831e  -..G.F.:.*...F..
 0010 0746042b 01d9bde8 f0874fea c018dff8  .F.+......O.....
 0020 48a00e46 a40708f1 40083c22 002144ea  H..F....@.<".!D.
 0030 06440aeb 080909f1 0400fff7 feff0123  .D.............#
 0040 4af80840 c9f83850 c9f80830 002de2d0  J..@..8P...0.-..
 0050 044a07f1 10001168 83400b43 1360bde8  .J.....h.@.C.`..
 0060 f08700bf 00000000 00000000           ............    
Contents of section .text.usb_prepare_transfer:
 0000 12048160 c36101f5 405342f0 800210b4  ...`.a..@SB.....
 0010 01244260 01f50052 046001f5 805401f5  .$B`...R.`...T..
 0020 8041c460 81615df8 044bc0e9 04237047  .A.`.a]..K...#pG
Contents of section .text.usb_transmit:
 0000 831e0a46 042b00d9 7047064b 00f11001  ...F.+..pG.K....
 0010 4ff0010c 03ebc010 0cfa01f1 4030fff7  O...........@0..
 0020 febf00bf 00000000                    ........        
Contents of section .text.usb_receive:
 0000 831e0a46 042b00d9 70470121 024b8140  ...F.+..pG.!.K.@
 0010 03ebc010 fff7febf 00000000           ............    
Contents of section .text.usb_transfer_status:
 0000 40687047                             @hpG            
Contents of section .endpoint_queue:
 0000 00000000 00000000 00000000 00000000  ................
 0010 00000000 00000000 00000000 00000000  ................
 0020 00000000 00000000 00000000 00000000  ................
 0030 00000000 00000000 00000000 00000000  ................
 0040 00000000 00000000 00000000 00000000  ................
 0050 00000000 00000000 00000000 00000000  ................
 0060 00000000 00000000 00000000 00000000  ................
 0070 00000000 00000000 00000000 00000000  ................
 0080 00000000 00000000 00000000 00000000  ................
 0090 00000000 00000000 00000000 00000000  ................
 00a0 00000000 00000000 00000000 00000000  ................
 00b0 00000000 00000000 00000000 00000000  ................
 00c0 00000000 00000000 00000000 00000000  ................
 00d0 00000000 00000000 00000000 00000000  ................
 00e0 00000000 00000000 00000000 00000000  ................
 00f0 00000000 00000000 00000000 00000000  ................
 0100 00000000 00000000 00000000 00000000  ................
 0110 00000000 00000000 00000000 00000000  ................
 0120 00000000 00000000 00000000 00000000  ................
 0130 00000000 00000000 00000000 00000000  ................
 0140 00000000 00000000 00000000 00000000  ................
 0150 00000000 00000000 00000000 00000000  ................
 0160 00000000 00000000 00000000 00000000  ................
 0170 00000000 00000000 00000000 00000000  ................
 0180 00000000 00000000 00000000 00000000  ................
 0190 00000000 00000000 00000000 00000000  ................
 01a0 00000000 00000000 00000000 00000000  ................
 01b0 00000000 00000000 00000000 00000000  ................
 01c0 00000000 00000000 00000000 00000000  ................
 01d0 00000000 00000000 00000000 00000000  ................
 01e0 00000000 00000000 00000000 00000000  ................
 01f0 00000000 00000000 00000000 00000000  ................
 0200 00000000 00000000 00000000 00000000  ................
 0210 00000000 00000000 00000000 00000000  ................
 0220 00000000 00000000 00000000 00000000  ................
 0230 00000000 00000000 00000000 00000000  ................
 0240 00000000 00000000 00000000 00000000  ................
 0250 00000000 00000000 00000000 00000000  ................
 0260 00000000 00000000 00000000 00000000  ................
 0270 00000000 00000000 00000000 00000000  ................
 0280 00000000 00000000 00000000 00000000  ................
 0290 00000000 00000000 00000000 00000000  ................
 02a0 00000000 00000000 00000000 00000000  ................
 02b0 00000000 00000000 00000000 00000000  ................
 02c0 00000000 00000000 00000000 00000000  ................
 02d0 00000000 00000000 00000000 00000000  ................
 02e0 00000000 00000000 00000000 00000000  ................
 02f0 00000000 00000000 00000000 00000000  ................
 0300 00000000 00000000 00000000 00000000  ................
 0310 00000000 00000000 00000000 00000000  ................
 0320 00000000 00000000 00000000 00000000  ................
 0330 00000000 00000000 00000000 00000000  ................
 0340 00000000 00000000 00000000 00000000  ................
 0350 00000000 00000000 00000000 00000000  ................
 0360 00000000 00000000 00000000 00000000  ................
 0370 00000000 00000000 00000000 00000000  ................
Contents of section .comment:
 0000 00474343 3a202841 726d2047 4e552054  .GCC: (Arm GNU T
 0010 6f6f6c63 6861696e 2031312e 332e5265  oolchain 11.3.Re
 0020 6c312920 31312e33 2e312032 30323230  l1) 11.3.1 20220
 0030 37313200                             712.            
Contents of section .ARM.attributes:
 0000 41310000 00616561 62690001 27000000  A1...aeabi..'...
 0010 0537452d 4d00060d 074d0902 0a081204  .7E-M....M......
 0020 14011501 17031801 19011a01 1c011e02  ................
 0030 2201                                 ".              

Disassembly of section .text.schedule_transfer:

00000000 <schedule_transfer>:
   0:	6b83      	ldr	r3, [r0, #56]	; 0x38
   2:	b4f0      	push	{r4, r5, r6, r7}
   4:	b11b      	cbz	r3, e <schedule_transfer+0xe>
   6:	6853      	ldr	r3, [r2, #4]
   8:	f443 4300 	orr.w	r3, r3, #32768	; 0x8000
   c:	6053      	str	r3, [r2, #4]
   e:	b672      	cpsid	i
  10:	6b44      	ldr	r4, [r0, #52]	; 0x34
  12:	b33c      	cbz	r4, 64 <schedule_transfer+0x64>
  14:	4b1a      	ldr	r3, [pc, #104]	; (80 <schedule_transfer+0x80>)
  16:	6022      	str	r2, [r4, #0]
  18:	f8d3 41b0 	ldr.w	r4, [r3, #432]	; 0x1b0
  1c:	420c      	tst	r4, r1
  1e:	d11d      	bne.n	5c <schedule_transfer+0x5c>
  20:	4e18      	ldr	r6, [pc, #96]	; (84 <schedule_transfer+0x84>)
  22:	6877      	ldr	r7, [r6, #4]
  24:	e004      	b.n	30 <schedule_transfer+0x30>
  26:	6874      	ldr	r4, [r6, #4]
  28:	1be4      	subs	r4, r4, r7
  2a:	f5b4 6f16 	cmp.w	r4, #2400	; 0x960
  2e:	d20b      	bcs.n	48 <schedule_transfer+0x48>
  30:	f8d3 4140 	ldr.w	r4, [r3, #320]	; 0x140
  34:	f444 4480 	orr.w	r4, r4, #16384	; 0x4000
  38:	f8c3 4140 	str.w	r4, [r3, #320]	; 0x140
  3c:	f8d3 51b8 	ldr.w	r5, [r3, #440]	; 0x1b8
  40:	f8d3 4140 	ldr.w	r4, [r3, #320]	; 0x140
  44:	0464      	lsls	r4, r4, #17
  46:	d5ee      	bpl.n	26 <schedule_transfer+0x26>
  48:	400d      	ands	r5, r1
  4a:	d107      	bne.n	5c <schedule_transfer+0x5c>
  4c:	4c0c      	ldr	r4, [pc, #48]	; (80 <schedule_transfer+0x80>)
  4e:	e9c0 2502 	strd	r2, r5, [r0, #8]
  52:	f8d4 31b0 	ldr.w	r3, [r4, #432]	; 0x1b0
  56:	430b      	orrs	r3, r1
  58:	f8c4 31b0 	str.w	r3, [r4, #432]	; 0x1b0
  5c:	6342      	str	r2, [r0, #52]	; 0x34
  5e:	b662      	cpsie	i
  60:	bcf0      	pop	{r4, r5, r6, r7}
  62:	4770      	bx	lr
  64:	4d06      	ldr	r5, [pc, #24]	; (80 <schedule_transfer+0x80>)
  66:	e9c0 2402 	strd	r2, r4, [r0, #8]
  6a:	f8d5 31b0 	ldr.w	r3, [r5, #432]	; 0x1b0
  6e:	430b      	orrs	r3, r1
  70:	f8c5 31b0 	str.w	r3, [r5, #432]	; 0x1b0
  74:	6302      	str	r2, [r0, #48]	; 0x30
  76:	6342      	str	r2, [r0, #52]	; 0x34
  78:	b662      	cpsie	i
  7a:	bcf0      	pop	{r4, r5, r6, r7}
  7c:	4770      	bx	lr
  7e:	bf00      	nop
  80:	402e0000 	.word	0x402e0000
  84:	e0001000 	.word	0xe0001000

Disassembly of section .text.run_callbacks:

00000000 <run_callbacks>:
   0:	b570      	push	{r4, r5, r6, lr}
   2:	6b05      	ldr	r5, [r0, #48]	; 0x30
   4:	b19d      	cbz	r5, 2e <run_callbacks+0x2e>
   6:	4606      	mov	r6, r0
   8:	462a      	mov	r2, r5
   a:	2400      	movs	r4, #0
   c:	e003      	b.n	16 <run_callbacks+0x16>
   e:	6812      	ldr	r2, [r2, #0]
  10:	3401      	adds	r4, #1
  12:	2a01      	cmp	r2, #1
  14:	d00c      	beq.n	30 <run_callbacks+0x30>
  16:	6853      	ldr	r3, [r2, #4]
  18:	f013 0380 	ands.w	r3, r3, #128	; 0x80
  1c:	d0f7      	beq.n	e <run_callbacks+0xe>
  1e:	6332      	str	r2, [r6, #48]	; 0x30
  20:	b12c      	cbz	r4, 2e <run_callbacks+0x2e>
  22:	4628      	mov	r0, r5
  24:	6bb3      	ldr	r3, [r6, #56]	; 0x38
  26:	682d      	ldr	r5, [r5, #0]
  28:	4798      	blx	r3
  2a:	3c01      	subs	r4, #1
  2c:	d1f9      	bne.n	22 <run_callbacks+0x22>
  2e:	bd70      	pop	{r4, r5, r6, pc}
  30:	e9c6 330c 	strd	r3, r3, [r6, #48]	; 0x30
  34:	e7f4      	b.n	20 <run_callbacks+0x20>
  36:	bf00      	nop

Disassembly of section .text.endpoint0_transmit.constprop.0:

00000000 <endpoint0_transmit.constprop.0>:
   0:	b430      	push	{r4, r5}
   2:	b9d9      	cbnz	r1, 3c <endpoint0_transmit.constprop.0+0x3c>
   4:	4c1f      	ldr	r4, [pc, #124]	; (84 <endpoint0_transmit.constprop.0+0x84>)
   6:	4b20      	ldr	r3, [pc, #128]	; (88 <endpoint0_transmit.constprop.0+0x88>)
   8:	2100      	movs	r1, #0
   a:	4a20      	ldr	r2, [pc, #128]	; (8c <endpoint0_transmit.constprop.0+0x8c>)
   c:	2501      	movs	r5, #1
   e:	f04f 1001 	mov.w	r0, #65537	; 0x10001
  12:	6099      	str	r1, [r3, #8]
  14:	601d      	str	r5, [r3, #0]
  16:	e9c4 3102 	strd	r3, r1, [r4, #8]
  1a:	2480      	movs	r4, #128	; 0x80
  1c:	605c      	str	r4, [r3, #4]
  1e:	f8c2 01bc 	str.w	r0, [r2, #444]	; 0x1bc
  22:	f8d2 31b0 	ldr.w	r3, [r2, #432]	; 0x1b0
  26:	481a      	ldr	r0, [pc, #104]	; (90 <endpoint0_transmit.constprop.0+0x90>)
  28:	432b      	orrs	r3, r5
  2a:	f8c2 31b0 	str.w	r3, [r2, #432]	; 0x1b0
  2e:	6001      	str	r1, [r0, #0]
  30:	f8d2 31b0 	ldr.w	r3, [r2, #432]	; 0x1b0
  34:	2b00      	cmp	r3, #0
  36:	d1fb      	bne.n	30 <endpoint0_transmit.constprop.0+0x30>
  38:	bc30      	pop	{r4, r5}
  3a:	4770      	bx	lr
  3c:	0409      	lsls	r1, r1, #16
  3e:	4b15      	ldr	r3, [pc, #84]	; (94 <endpoint0_transmit.constprop.0+0x94>)
  40:	4c10      	ldr	r4, [pc, #64]	; (84 <endpoint0_transmit.constprop.0+0x84>)
  42:	2501      	movs	r5, #1
  44:	f041 0180 	orr.w	r1, r1, #128	; 0x80
  48:	6098      	str	r0, [r3, #8]
  4a:	4a10      	ldr	r2, [pc, #64]	; (8c <endpoint0_transmit.constprop.0+0x8c>)
  4c:	6059      	str	r1, [r3, #4]
  4e:	f500 5180 	add.w	r1, r0, #4096	; 0x1000
  52:	601d      	str	r5, [r3, #0]
  54:	60d9      	str	r1, [r3, #12]
  56:	f500 5100 	add.w	r1, r0, #8192	; 0x2000
  5a:	64a3      	str	r3, [r4, #72]	; 0x48
  5c:	6119      	str	r1, [r3, #16]
  5e:	f500 5140 	add.w	r1, r0, #12288	; 0x3000
  62:	f500 4080 	add.w	r0, r0, #16384	; 0x4000
  66:	6159      	str	r1, [r3, #20]
  68:	2100      	movs	r1, #0
  6a:	6198      	str	r0, [r3, #24]
  6c:	64e1      	str	r1, [r4, #76]	; 0x4c
  6e:	f8d2 31b0 	ldr.w	r3, [r2, #432]	; 0x1b0
  72:	f443 3380 	orr.w	r3, r3, #65536	; 0x10000
  76:	f8c2 31b0 	str.w	r3, [r2, #432]	; 0x1b0
  7a:	f8d2 31b0 	ldr.w	r3, [r2, #432]	; 0x1b0
  7e:	2b00      	cmp	r3, #0
  80:	d1fb      	bne.n	7a <endpoint0_transmit.constprop.0+0x7a>
  82:	e7c0      	b.n	6 <endpoint0_transmit.constprop.0+0x6>
  84:	00000000 	.word	0x00000000
  88:	00000000 	.word	0x00000000
  8c:	402e0000 	.word	0x402e0000
  90:	00000000 	.word	0x00000000
  94:	00000000 	.word	0x00000000

Disassembly of section .flashmem:

00000000 <usb_init>:
   0:	4b31      	ldr	r3, [pc, #196]	; (c8 <usb_init+0xc8>)
   2:	f640 7261 	movw	r2, #3937	; 0xf61
   6:	b510      	push	{r4, lr}
   8:	f8c3 2120 	str.w	r2, [r3, #288]	; 0x120
   c:	f240 4404 	movw	r4, #1028	; 0x404
  10:	f7ff fffe 	bl	0 <usb_init_serialnumber>
  14:	4a2d      	ldr	r2, [pc, #180]	; (cc <usb_init+0xcc>)
  16:	492e      	ldr	r1, [pc, #184]	; (d0 <usb_init+0xd0>)
  18:	f8d2 3080 	ldr.w	r3, [r2, #128]	; 0x80
  1c:	482d      	ldr	r0, [pc, #180]	; (d4 <usb_init+0xd4>)
  1e:	f043 0303 	orr.w	r3, r3, #3
  22:	f8c2 3080 	str.w	r3, [r2, #128]	; 0x80
  26:	4b2c      	ldr	r3, [pc, #176]	; (d8 <usb_init+0xd8>)
  28:	f8c1 4160 	str.w	r4, [r1, #352]	; 0x160
  2c:	6802      	ldr	r2, [r0, #0]
  2e:	421a      	tst	r2, r3
  30:	d103      	bne.n	3a <usb_init+0x3a>
  32:	f8d1 31a8 	ldr.w	r3, [r1, #424]	; 0x1a8
  36:	079a      	lsls	r2, r3, #30
  38:	d01b      	beq.n	72 <usb_init+0x72>
  3a:	4a25      	ldr	r2, [pc, #148]	; (d0 <usb_init+0xd0>)
  3c:	f04f 4100 	mov.w	r1, #2147483648	; 0x80000000
  40:	4b24      	ldr	r3, [pc, #144]	; (d4 <usb_init+0xd4>)
  42:	6359      	str	r1, [r3, #52]	; 0x34
  44:	f8d2 3140 	ldr.w	r3, [r2, #320]	; 0x140
  48:	f043 0302 	orr.w	r3, r3, #2
  4c:	f8c2 3140 	str.w	r3, [r2, #320]	; 0x140
  50:	f8d2 3140 	ldr.w	r3, [r2, #320]	; 0x140
  54:	079b      	lsls	r3, r3, #30
  56:	d4fb      	bmi.n	50 <usb_init+0x50>
  58:	f44f 3000 	mov.w	r0, #131072	; 0x20000
  5c:	f04f 21e0 	mov.w	r1, #3758153728	; 0xe000e000
  60:	4b1c      	ldr	r3, [pc, #112]	; (d4 <usb_init+0xd4>)
  62:	f04f 4200 	mov.w	r2, #2147483648	; 0x80000000
  66:	f8c1 028c 	str.w	r0, [r1, #652]	; 0x28c
  6a:	2019      	movs	r0, #25
  6c:	639a      	str	r2, [r3, #56]	; 0x38
  6e:	f7ff fffe 	bl	0 <delay>
  72:	4a18      	ldr	r2, [pc, #96]	; (d4 <usb_init+0xd4>)
  74:	f04f 4080 	mov.w	r0, #1073741824	; 0x40000000
  78:	4c15      	ldr	r4, [pc, #84]	; (d0 <usb_init+0xd0>)
  7a:	2100      	movs	r1, #0
  7c:	6390      	str	r0, [r2, #56]	; 0x38
  7e:	200a      	movs	r0, #10
  80:	4b16      	ldr	r3, [pc, #88]	; (dc <usb_init+0xdc>)
  82:	6011      	str	r1, [r2, #0]
  84:	f44f 7260 	mov.w	r2, #896	; 0x380
  88:	f8c4 01a8 	str.w	r0, [r4, #424]	; 0x1a8
  8c:	4618      	mov	r0, r3
  8e:	f7ff fffe 	bl	0 <memset>
  92:	f44f 0280 	mov.w	r2, #4194304	; 0x400000
  96:	4603      	mov	r3, r0
  98:	f44f 0081 	mov.w	r0, #4227072	; 0x408000
  9c:	f240 1143 	movw	r1, #323	; 0x143
  a0:	6018      	str	r0, [r3, #0]
  a2:	f8c4 3158 	str.w	r3, [r4, #344]	; 0x158
  a6:	641a      	str	r2, [r3, #64]	; 0x40
  a8:	4b0d      	ldr	r3, [pc, #52]	; (e0 <usb_init+0xe0>)
  aa:	4a0e      	ldr	r2, [pc, #56]	; (e4 <usb_init+0xe4>)
  ac:	f8c4 1148 	str.w	r1, [r4, #328]	; 0x148
  b0:	f8c3 2204 	str.w	r2, [r3, #516]	; 0x204
  b4:	f04f 22e0 	mov.w	r2, #3758153728	; 0xe000e000
  b8:	f44f 3100 	mov.w	r1, #131072	; 0x20000
  bc:	2301      	movs	r3, #1
  be:	f8c2 110c 	str.w	r1, [r2, #268]	; 0x10c
  c2:	f8c4 3140 	str.w	r3, [r4, #320]	; 0x140
  c6:	bd10      	pop	{r4, pc}
  c8:	400d8000 	.word	0x400d8000
  cc:	400fc000 	.word	0x400fc000
  d0:	402e0000 	.word	0x402e0000
  d4:	400d9000 	.word	0x400d9000
  d8:	001e1c00 	.word	0x001e1c00
  dc:	00000000 	.word	0x00000000
  e0:	00000000 	.word	0x00000000
  e4:	00000000 	.word	0x00000000

000000e8 <_reboot_Teensyduino_>:
  e8:	b508      	push	{r3, lr}
  ea:	4b0e      	ldr	r3, [pc, #56]	; (124 <_reboot_Teensyduino_+0x3c>)
  ec:	6e1b      	ldr	r3, [r3, #96]	; 0x60
  ee:	079b      	lsls	r3, r3, #30
  f0:	d400      	bmi.n	f4 <_reboot_Teensyduino_+0xc>
  f2:	befb      	bkpt	0x00fb
  f4:	b672      	cpsid	i
  f6:	4b0c      	ldr	r3, [pc, #48]	; (128 <_reboot_Teensyduino_+0x40>)
  f8:	2000      	movs	r0, #0
  fa:	4a0c      	ldr	r2, [pc, #48]	; (12c <_reboot_Teensyduino_+0x44>)
  fc:	f8c3 0140 	str.w	r0, [r3, #320]	; 0x140
 100:	f103 4360 	add.w	r3, r3, #3758096384	; 0xe0000000
 104:	490a      	ldr	r1, [pc, #40]	; (130 <_reboot_Teensyduino_+0x48>)
 106:	f5a3 235f 	sub.w	r3, r3, #913408	; 0xdf000
 10a:	6411      	str	r1, [r2, #64]	; 0x40
 10c:	469d      	mov	sp, r3
 10e:	f3bf 8f4f 	dsb	sy
 112:	f44f 1300 	mov.w	r3, #2097152	; 0x200000
 116:	4807      	ldr	r0, [pc, #28]	; (134 <_reboot_Teensyduino_+0x4c>)
 118:	4a07      	ldr	r2, [pc, #28]	; (138 <_reboot_Teensyduino_+0x50>)
 11a:	69db      	ldr	r3, [r3, #28]
 11c:	6002      	str	r2, [r0, #0]
 11e:	689b      	ldr	r3, [r3, #8]
 120:	4798      	blx	r3
 122:	bf00      	nop
 124:	401f4400 	.word	0x401f4400
 128:	402e0000 	.word	0x402e0000
 12c:	400ac000 	.word	0x400ac000
 130:	00200003 	.word	0x00200003
 134:	20208000 	.word	0x20208000
 138:	eb120000 	.word	0xeb120000

Disassembly of section .text.usb_start_sof_interrupts:

00000000 <usb_start_sof_interrupts>:
   0:	b410      	push	{r4}
   2:	b672      	cpsid	i
   4:	4c0a      	ldr	r4, [pc, #40]	; (30 <usb_start_sof_interrupts+0x30>)
   6:	2201      	movs	r2, #1
   8:	490a      	ldr	r1, [pc, #40]	; (34 <usb_start_sof_interrupts+0x34>)
   a:	7823      	ldrb	r3, [r4, #0]
   c:	fa02 f000 	lsl.w	r0, r2, r0
  10:	4318      	orrs	r0, r3
  12:	7020      	strb	r0, [r4, #0]
  14:	f8d1 3148 	ldr.w	r3, [r1, #328]	; 0x148
  18:	061a      	lsls	r2, r3, #24
  1a:	d405      	bmi.n	28 <usb_start_sof_interrupts+0x28>
  1c:	2280      	movs	r2, #128	; 0x80
  1e:	4313      	orrs	r3, r2
  20:	f8c1 2144 	str.w	r2, [r1, #324]	; 0x144
  24:	f8c1 3148 	str.w	r3, [r1, #328]	; 0x148
  28:	b662      	cpsie	i
  2a:	f85d 4b04 	ldr.w	r4, [sp], #4
  2e:	4770      	bx	lr
  30:	00000000 	.word	0x00000000
  34:	402e0000 	.word	0x402e0000

Disassembly of section .text.usb_stop_sof_interrupts:

00000000 <usb_stop_sof_interrupts>:
   0:	4908      	ldr	r1, [pc, #32]	; (24 <usb_stop_sof_interrupts+0x24>)
   2:	2201      	movs	r2, #1
   4:	780b      	ldrb	r3, [r1, #0]
   6:	fa02 f000 	lsl.w	r0, r2, r0
   a:	ea23 0000 	bic.w	r0, r3, r0
   e:	7008      	strb	r0, [r1, #0]
  10:	b930      	cbnz	r0, 20 <usb_stop_sof_interrupts+0x20>
  12:	4a05      	ldr	r2, [pc, #20]	; (28 <usb_stop_sof_interrupts+0x28>)
  14:	f8d2 3148 	ldr.w	r3, [r2, #328]	; 0x148
  18:	f023 0380 	bic.w	r3, r3, #128	; 0x80
  1c:	f8c2 3148 	str.w	r3, [r2, #328]	; 0x148
  20:	4770      	bx	lr
  22:	bf00      	nop
  24:	00000000 	.word	0x00000000
  28:	402e0000 	.word	0x402e0000

Disassembly of section .text.usb_isr:

00000000 <usb_isr>:
   0:	e92d 4ff0 	stmdb	sp!, {r4, r5, r6, r7, r8, r9, sl, fp, lr}
   4:	4c99      	ldr	r4, [pc, #612]	; (26c <usb_isr+0x26c>)
   6:	b083      	sub	sp, #12
   8:	f8d4 6144 	ldr.w	r6, [r4, #324]	; 0x144
   c:	07f1      	lsls	r1, r6, #31
   e:	f8c4 6144 	str.w	r6, [r4, #324]	; 0x144
  12:	d56a      	bpl.n	ea <usb_isr+0xea>
  14:	f8d4 31ac 	ldr.w	r3, [r4, #428]	; 0x1ac
  18:	2b00      	cmp	r3, #0
  1a:	d061      	beq.n	e0 <usb_isr+0xe0>
  1c:	f8df 8278 	ldr.w	r8, [pc, #632]	; 298 <usb_isr+0x298>
  20:	4d93      	ldr	r5, [pc, #588]	; (270 <usb_isr+0x270>)
  22:	f8df b26c 	ldr.w	fp, [pc, #620]	; 290 <usb_isr+0x290>
  26:	f508 5a80 	add.w	sl, r8, #4096	; 0x1000
  2a:	f8df 9270 	ldr.w	r9, [pc, #624]	; 29c <usb_isr+0x29c>
  2e:	4f91      	ldr	r7, [pc, #580]	; (274 <usb_isr+0x274>)
  30:	f8c4 31ac 	str.w	r3, [r4, #428]	; 0x1ac
  34:	e9d5 200a 	ldrd	r2, r0, [r5, #40]	; 0x28
  38:	f8d4 3140 	ldr.w	r3, [r4, #320]	; 0x140
  3c:	f443 5300 	orr.w	r3, r3, #8192	; 0x2000
  40:	f8c4 3140 	str.w	r3, [r4, #320]	; 0x140
  44:	f8d4 3140 	ldr.w	r3, [r4, #320]	; 0x140
  48:	049b      	lsls	r3, r3, #18
  4a:	d5f5      	bpl.n	38 <usb_isr+0x38>
  4c:	f8d4 3140 	ldr.w	r3, [r4, #320]	; 0x140
  50:	f423 5300 	bic.w	r3, r3, #8192	; 0x2000
  54:	f8c4 3140 	str.w	r3, [r4, #320]	; 0x140
  58:	f04f 1301 	mov.w	r3, #65537	; 0x10001
  5c:	f8c4 31b4 	str.w	r3, [r4, #436]	; 0x1b4
  60:	f8d4 31b4 	ldr.w	r3, [r4, #436]	; 0x1b4
  64:	f013 1301 	ands.w	r3, r3, #65537	; 0x10001
  68:	d1fa      	bne.n	60 <usb_isr+0x60>
  6a:	b291      	uxth	r1, r2
  6c:	f240 6c81 	movw	ip, #1665	; 0x681
  70:	f8cb 3000 	str.w	r3, [fp]
  74:	4561      	cmp	r1, ip
  76:	f200 80d4 	bhi.w	222 <usb_isr+0x222>
  7a:	f5b1 6fd0 	cmp.w	r1, #1664	; 0x680
  7e:	f080 8166 	bcs.w	34e <usb_isr+0x34e>
  82:	f5b1 7f81 	cmp.w	r1, #258	; 0x102
  86:	f000 8194 	beq.w	3b2 <usb_isr+0x3b2>
  8a:	f240 80a6 	bls.w	1da <usb_isr+0x1da>
  8e:	f240 3c02 	movw	ip, #770	; 0x302
  92:	4561      	cmp	r1, ip
  94:	f000 81b7 	beq.w	406 <usb_isr+0x406>
  98:	f5b1 6fa0 	cmp.w	r1, #1280	; 0x500
  9c:	f040 80bc 	bne.w	218 <usb_isr+0x218>
  a0:	4975      	ldr	r1, [pc, #468]	; (278 <usb_isr+0x278>)
  a2:	64eb      	str	r3, [r5, #76]	; 0x4c
  a4:	608b      	str	r3, [r1, #8]
  a6:	2301      	movs	r3, #1
  a8:	64a9      	str	r1, [r5, #72]	; 0x48
  aa:	600b      	str	r3, [r1, #0]
  ac:	2380      	movs	r3, #128	; 0x80
  ae:	604b      	str	r3, [r1, #4]
  b0:	f04f 1301 	mov.w	r3, #65537	; 0x10001
  b4:	f8c4 31bc 	str.w	r3, [r4, #444]	; 0x1bc
  b8:	f8d4 31b0 	ldr.w	r3, [r4, #432]	; 0x1b0
  bc:	f443 3380 	orr.w	r3, r3, #65536	; 0x10000
  c0:	f8c4 31b0 	str.w	r3, [r4, #432]	; 0x1b0
  c4:	f8d4 31b0 	ldr.w	r3, [r4, #432]	; 0x1b0
  c8:	2b00      	cmp	r3, #0
  ca:	d1fb      	bne.n	c4 <usb_isr+0xc4>
  cc:	0c13      	lsrs	r3, r2, #16
  ce:	065b      	lsls	r3, r3, #25
  d0:	f043 7380 	orr.w	r3, r3, #16777216	; 0x1000000
  d4:	f8c4 3154 	str.w	r3, [r4, #340]	; 0x154
  d8:	f8d4 31ac 	ldr.w	r3, [r4, #428]	; 0x1ac
  dc:	2b00      	cmp	r3, #0
  de:	d1a7      	bne.n	30 <usb_isr+0x30>
  e0:	4b62      	ldr	r3, [pc, #392]	; (26c <usb_isr+0x26c>)
  e2:	f8d3 71bc 	ldr.w	r7, [r3, #444]	; 0x1bc
  e6:	2f00      	cmp	r7, #0
  e8:	d145      	bne.n	176 <usb_isr+0x176>
  ea:	0672      	lsls	r2, r6, #25
  ec:	d516      	bpl.n	11c <usb_isr+0x11c>
  ee:	4b5f      	ldr	r3, [pc, #380]	; (26c <usb_isr+0x26c>)
  f0:	f8d3 21ac 	ldr.w	r2, [r3, #428]	; 0x1ac
  f4:	f8c3 21ac 	str.w	r2, [r3, #428]	; 0x1ac
  f8:	f8d3 21bc 	ldr.w	r2, [r3, #444]	; 0x1bc
  fc:	f8c3 21bc 	str.w	r2, [r3, #444]	; 0x1bc
 100:	f8d3 41b0 	ldr.w	r4, [r3, #432]	; 0x1b0
 104:	2c00      	cmp	r4, #0
 106:	d1fb      	bne.n	100 <usb_isr+0x100>
 108:	f04f 32ff 	mov.w	r2, #4294967295	; 0xffffffff
 10c:	f8c3 21b4 	str.w	r2, [r3, #436]	; 0x1b4
 110:	f8d3 3184 	ldr.w	r3, [r3, #388]	; 0x184
 114:	f7ff fffe 	bl	0 <usb_serial_reset>
 118:	4b58      	ldr	r3, [pc, #352]	; (27c <usb_isr+0x27c>)
 11a:	601c      	str	r4, [r3, #0]
 11c:	01f4      	lsls	r4, r6, #7
 11e:	d503      	bpl.n	128 <usb_isr+0x128>
 120:	4b57      	ldr	r3, [pc, #348]	; (280 <usb_isr+0x280>)
 122:	681b      	ldr	r3, [r3, #0]
 124:	b103      	cbz	r3, 128 <usb_isr+0x128>
 126:	4798      	blx	r3
 128:	01b0      	lsls	r0, r6, #6
 12a:	d503      	bpl.n	134 <usb_isr+0x134>
 12c:	4b55      	ldr	r3, [pc, #340]	; (284 <usb_isr+0x284>)
 12e:	681b      	ldr	r3, [r3, #0]
 130:	b103      	cbz	r3, 134 <usb_isr+0x134>
 132:	4798      	blx	r3
 134:	0771      	lsls	r1, r6, #29
 136:	d508      	bpl.n	14a <usb_isr+0x14a>
 138:	4b4c      	ldr	r3, [pc, #304]	; (26c <usb_isr+0x26c>)
 13a:	f8d3 3184 	ldr.w	r3, [r3, #388]	; 0x184
 13e:	f413 7300 	ands.w	r3, r3, #512	; 0x200
 142:	d015      	beq.n	170 <usb_isr+0x170>
 144:	4b50      	ldr	r3, [pc, #320]	; (288 <usb_isr+0x288>)
 146:	2201      	movs	r2, #1
 148:	701a      	strb	r2, [r3, #0]
 14a:	4b48      	ldr	r3, [pc, #288]	; (26c <usb_isr+0x26c>)
 14c:	f8d3 3148 	ldr.w	r3, [r3, #328]	; 0x148
 150:	061a      	lsls	r2, r3, #24
 152:	d50a      	bpl.n	16a <usb_isr+0x16a>
 154:	0633      	lsls	r3, r6, #24
 156:	d508      	bpl.n	16a <usb_isr+0x16a>
 158:	4a4c      	ldr	r2, [pc, #304]	; (28c <usb_isr+0x28c>)
 15a:	7813      	ldrb	r3, [r2, #0]
 15c:	b12b      	cbz	r3, 16a <usb_isr+0x16a>
 15e:	3b01      	subs	r3, #1
 160:	b2db      	uxtb	r3, r3
 162:	7013      	strb	r3, [r2, #0]
 164:	2b00      	cmp	r3, #0
 166:	f000 825c 	beq.w	622 <usb_isr+0x622>
 16a:	b003      	add	sp, #12
 16c:	e8bd 8ff0 	ldmia.w	sp!, {r4, r5, r6, r7, r8, r9, sl, fp, pc}
 170:	4a45      	ldr	r2, [pc, #276]	; (288 <usb_isr+0x288>)
 172:	7013      	strb	r3, [r2, #0]
 174:	e7e9      	b.n	14a <usb_isr+0x14a>
 176:	4946      	ldr	r1, [pc, #280]	; (290 <usb_isr+0x290>)
 178:	f8c3 71bc 	str.w	r7, [r3, #444]	; 0x1bc
 17c:	6808      	ldr	r0, [r1, #0]
 17e:	4207      	tst	r7, r0
 180:	f040 8174 	bne.w	46c <usb_isr+0x46c>
 184:	4b3d      	ldr	r3, [pc, #244]	; (27c <usb_isr+0x27c>)
 186:	681b      	ldr	r3, [r3, #0]
 188:	401f      	ands	r7, r3
 18a:	d0ae      	beq.n	ea <usb_isr+0xea>
 18c:	ea5f 4817 	movs.w	r8, r7, lsr #16
 190:	d010      	beq.n	1b4 <usb_isr+0x1b4>
 192:	4d37      	ldr	r5, [pc, #220]	; (270 <usb_isr+0x270>)
 194:	f04f 0901 	mov.w	r9, #1
 198:	fa98 f4a8 	rbit	r4, r8
 19c:	fab4 f484 	clz	r4, r4
 1a0:	eb05 10c4 	add.w	r0, r5, r4, lsl #7
 1a4:	fa09 f404 	lsl.w	r4, r9, r4
 1a8:	3040      	adds	r0, #64	; 0x40
 1aa:	f7ff fffe 	bl	0 <usb_isr>
 1ae:	ea38 0804 	bics.w	r8, r8, r4
 1b2:	d1f1      	bne.n	198 <usb_isr+0x198>
 1b4:	b2bf      	uxth	r7, r7
 1b6:	2f00      	cmp	r7, #0
 1b8:	d097      	beq.n	ea <usb_isr+0xea>
 1ba:	4d2d      	ldr	r5, [pc, #180]	; (270 <usb_isr+0x270>)
 1bc:	f04f 0801 	mov.w	r8, #1
 1c0:	fa97 f4a7 	rbit	r4, r7
 1c4:	fab4 f484 	clz	r4, r4
 1c8:	eb05 10c4 	add.w	r0, r5, r4, lsl #7
 1cc:	fa08 f404 	lsl.w	r4, r8, r4
 1d0:	f7ff fffe 	bl	0 <usb_isr>
 1d4:	43a7      	bics	r7, r4
 1d6:	d1f3      	bne.n	1c0 <usb_isr+0x1c0>
 1d8:	e787      	b.n	ea <usb_isr+0xea>
 1da:	2980      	cmp	r1, #128	; 0x80
 1dc:	f000 80b1 	beq.w	342 <usb_isr+0x342>
 1e0:	2982      	cmp	r1, #130	; 0x82
 1e2:	d119      	bne.n	218 <usb_isr+0x218>
 1e4:	b283      	uxth	r3, r0
 1e6:	f010 0078 	ands.w	r0, r0, #120	; 0x78
 1ea:	d115      	bne.n	218 <usb_isr+0x218>
 1ec:	f003 027f 	and.w	r2, r3, #127	; 0x7f
 1f0:	f857 1022 	ldr.w	r1, [r7, r2, lsl #2]
 1f4:	4a27      	ldr	r2, [pc, #156]	; (294 <usb_isr+0x294>)
 1f6:	8010      	strh	r0, [r2, #0]
 1f8:	0618      	lsls	r0, r3, #24
 1fa:	f100 8202 	bmi.w	602 <usb_isr+0x602>
 1fe:	07cb      	lsls	r3, r1, #31
 200:	d501      	bpl.n	206 <usb_isr+0x206>
 202:	2301      	movs	r3, #1
 204:	7013      	strb	r3, [r2, #0]
 206:	2102      	movs	r1, #2
 208:	4822      	ldr	r0, [pc, #136]	; (294 <usb_isr+0x294>)
 20a:	f7ff fffe 	bl	0 <usb_isr>
 20e:	e763      	b.n	d8 <usb_isr+0xd8>
 210:	0c01      	lsrs	r1, r0, #16
 212:	2907      	cmp	r1, #7
 214:	f000 815b 	beq.w	4ce <usb_isr+0x4ce>
 218:	f04f 1301 	mov.w	r3, #65537	; 0x10001
 21c:	f8c4 31c0 	str.w	r3, [r4, #448]	; 0x1c0
 220:	e75a      	b.n	d8 <usb_isr+0xd8>
 222:	f242 0c21 	movw	ip, #8225	; 0x2021
 226:	4561      	cmp	r1, ip
 228:	d0f2      	beq.n	210 <usb_isr+0x210>
 22a:	d939      	bls.n	2a0 <usb_isr+0x2a0>
 22c:	f242 2321 	movw	r3, #8737	; 0x2221
 230:	4299      	cmp	r1, r3
 232:	d06f      	beq.n	314 <usb_isr+0x314>
 234:	f242 3321 	movw	r3, #8993	; 0x2321
 238:	4299      	cmp	r1, r3
 23a:	d1ed      	bne.n	218 <usb_isr+0x218>
 23c:	4b0e      	ldr	r3, [pc, #56]	; (278 <usb_isr+0x278>)
 23e:	2200      	movs	r2, #0
 240:	609a      	str	r2, [r3, #8]
 242:	64ea      	str	r2, [r5, #76]	; 0x4c
 244:	2201      	movs	r2, #1
 246:	64ab      	str	r3, [r5, #72]	; 0x48
 248:	601a      	str	r2, [r3, #0]
 24a:	2280      	movs	r2, #128	; 0x80
 24c:	605a      	str	r2, [r3, #4]
 24e:	f04f 1301 	mov.w	r3, #65537	; 0x10001
 252:	f8c4 31bc 	str.w	r3, [r4, #444]	; 0x1bc
 256:	f8d4 31b0 	ldr.w	r3, [r4, #432]	; 0x1b0
 25a:	f443 3380 	orr.w	r3, r3, #65536	; 0x10000
 25e:	f8c4 31b0 	str.w	r3, [r4, #432]	; 0x1b0
 262:	f8d4 31b0 	ldr.w	r3, [r4, #432]	; 0x1b0
 266:	2b00      	cmp	r3, #0
 268:	d1fb      	bne.n	262 <usb_isr+0x262>
 26a:	e735      	b.n	d8 <usb_isr+0xd8>
 26c:	402e0000 	.word	0x402e0000
 270:	00000000 	.word	0x00000000
 274:	402e01c0 	.word	0x402e01c0
 278:	00000000 	.word	0x00000000
 27c:	00000000 	.word	0x00000000
 280:	00000000 	.word	0x00000000
 284:	00000000 	.word	0x00000000
 288:	00000000 	.word	0x00000000
 28c:	00000000 	.word	0x00000000
 290:	00000000 	.word	0x00000000
 294:	00000000 	.word	0x00000000
 298:	00000000 	.word	0x00000000
 29c:	00000000 	.word	0x00000000
 2a0:	f5b1 6f08 	cmp.w	r1, #2176	; 0x880
 2a4:	d045      	beq.n	332 <usb_isr+0x332>
 2a6:	f5b1 6f10 	cmp.w	r1, #2304	; 0x900
 2aa:	d1b5      	bne.n	218 <usb_isr+0x218>
 2ac:	f3c2 4c07 	ubfx	ip, r2, #16, #8
 2b0:	4aa6      	ldr	r2, [pc, #664]	; (54c <usb_isr+0x54c>)
 2b2:	49a7      	ldr	r1, [pc, #668]	; (550 <usb_isr+0x550>)
 2b4:	f04f 10c8 	mov.w	r0, #13107400	; 0xc800c8
 2b8:	f882 c000 	strb.w	ip, [r2]
 2bc:	4aa5      	ldr	r2, [pc, #660]	; (554 <usb_isr+0x554>)
 2be:	9300      	str	r3, [sp, #0]
 2c0:	f8c4 01c8 	str.w	r0, [r4, #456]	; 0x1c8
 2c4:	f8c4 11cc 	str.w	r1, [r4, #460]	; 0x1cc
 2c8:	f8c4 01d0 	str.w	r0, [r4, #464]	; 0x1d0
 2cc:	f8c4 11d4 	str.w	r1, [r4, #468]	; 0x1d4
 2d0:	f8c4 21d8 	str.w	r2, [r4, #472]	; 0x1d8
 2d4:	f7ff fffe 	bl	0 <usb_serial_configure>
 2d8:	f7ff fffe 	bl	0 <usb_serial2_configure>
 2dc:	f7ff fffe 	bl	0 <usb_rawhid_configure>
 2e0:	4a9d      	ldr	r2, [pc, #628]	; (558 <usb_isr+0x558>)
 2e2:	2101      	movs	r1, #1
 2e4:	9b00      	ldr	r3, [sp, #0]
 2e6:	64aa      	str	r2, [r5, #72]	; 0x48
 2e8:	6011      	str	r1, [r2, #0]
 2ea:	2180      	movs	r1, #128	; 0x80
 2ec:	6093      	str	r3, [r2, #8]
 2ee:	6051      	str	r1, [r2, #4]
 2f0:	f04f 1201 	mov.w	r2, #65537	; 0x10001
 2f4:	64eb      	str	r3, [r5, #76]	; 0x4c
 2f6:	f8c4 21bc 	str.w	r2, [r4, #444]	; 0x1bc
 2fa:	f8d4 21b0 	ldr.w	r2, [r4, #432]	; 0x1b0
 2fe:	f442 3280 	orr.w	r2, r2, #65536	; 0x10000
 302:	f8c4 21b0 	str.w	r2, [r4, #432]	; 0x1b0
 306:	f8cb 3000 	str.w	r3, [fp]
 30a:	f8d4 31b0 	ldr.w	r3, [r4, #432]	; 0x1b0
 30e:	2b00      	cmp	r3, #0
 310:	d1fb      	bne.n	30a <usb_isr+0x30a>
 312:	e6e1      	b.n	d8 <usb_isr+0xd8>
 314:	b280      	uxth	r0, r0
 316:	2800      	cmp	r0, #0
 318:	f000 809f 	beq.w	45a <usb_isr+0x45a>
 31c:	2802      	cmp	r0, #2
 31e:	d18d      	bne.n	23c <usb_isr+0x23c>
 320:	4b8e      	ldr	r3, [pc, #568]	; (55c <usb_isr+0x55c>)
 322:	f3c2 4207 	ubfx	r2, r2, #16, #8
 326:	6819      	ldr	r1, [r3, #0]
 328:	4b8d      	ldr	r3, [pc, #564]	; (560 <usb_isr+0x560>)
 32a:	6019      	str	r1, [r3, #0]
 32c:	4b8d      	ldr	r3, [pc, #564]	; (564 <usb_isr+0x564>)
 32e:	701a      	strb	r2, [r3, #0]
 330:	e784      	b.n	23c <usb_isr+0x23c>
 332:	4b86      	ldr	r3, [pc, #536]	; (54c <usb_isr+0x54c>)
 334:	2101      	movs	r1, #1
 336:	488c      	ldr	r0, [pc, #560]	; (568 <usb_isr+0x568>)
 338:	781b      	ldrb	r3, [r3, #0]
 33a:	7003      	strb	r3, [r0, #0]
 33c:	f7ff fffe 	bl	0 <usb_isr>
 340:	e6ca      	b.n	d8 <usb_isr+0xd8>
 342:	4889      	ldr	r0, [pc, #548]	; (568 <usb_isr+0x568>)
 344:	2102      	movs	r1, #2
 346:	8003      	strh	r3, [r0, #0]
 348:	f7ff fffe 	bl	0 <usb_isr>
 34c:	e6c4      	b.n	d8 <usb_isr+0xd8>
 34e:	4b87      	ldr	r3, [pc, #540]	; (56c <usb_isr+0x56c>)
 350:	6859      	ldr	r1, [r3, #4]
 352:	2900      	cmp	r1, #0
 354:	f43f af60 	beq.w	218 <usb_isr+0x218>
 358:	ea4f 4e12 	mov.w	lr, r2, lsr #16
 35c:	b282      	uxth	r2, r0
 35e:	e004      	b.n	36a <usb_isr+0x36a>
 360:	6919      	ldr	r1, [r3, #16]
 362:	330c      	adds	r3, #12
 364:	2900      	cmp	r1, #0
 366:	f43f af57 	beq.w	218 <usb_isr+0x218>
 36a:	f8b3 c000 	ldrh.w	ip, [r3]
 36e:	45f4      	cmp	ip, lr
 370:	d1f6      	bne.n	360 <usb_isr+0x360>
 372:	f8b3 c002 	ldrh.w	ip, [r3, #2]
 376:	4594      	cmp	ip, r2
 378:	d1f2      	bne.n	360 <usb_isr+0x360>
 37a:	ea4f 221e 	mov.w	r2, lr, lsr #8
 37e:	2a03      	cmp	r2, #3
 380:	f000 8110 	beq.w	5a4 <usb_isr+0x5a4>
 384:	891a      	ldrh	r2, [r3, #8]
 386:	0c00      	lsrs	r0, r0, #16
 388:	4282      	cmp	r2, r0
 38a:	bf28      	it	cs
 38c:	4602      	movcs	r2, r0
 38e:	f5be 7f00 	cmp.w	lr, #512	; 0x200
 392:	f040 810c 	bne.w	5ae <usb_isr+0x5ae>
 396:	4b76      	ldr	r3, [pc, #472]	; (570 <usb_isr+0x570>)
 398:	4976      	ldr	r1, [pc, #472]	; (574 <usb_isr+0x574>)
 39a:	7818      	ldrb	r0, [r3, #0]
 39c:	4b76      	ldr	r3, [pc, #472]	; (578 <usb_isr+0x578>)
 39e:	9200      	str	r2, [sp, #0]
 3a0:	2800      	cmp	r0, #0
 3a2:	bf18      	it	ne
 3a4:	4619      	movne	r1, r3
 3a6:	4875      	ldr	r0, [pc, #468]	; (57c <usb_isr+0x57c>)
 3a8:	f7ff fffe 	bl	0 <memcpy>
 3ac:	4b73      	ldr	r3, [pc, #460]	; (57c <usb_isr+0x57c>)
 3ae:	9a00      	ldr	r2, [sp, #0]
 3b0:	e112      	b.n	5d8 <usb_isr+0x5d8>
 3b2:	f010 0f78 	tst.w	r0, #120	; 0x78
 3b6:	b283      	uxth	r3, r0
 3b8:	f47f af2e 	bne.w	218 <usb_isr+0x218>
 3bc:	f003 027f 	and.w	r2, r3, #127	; 0x7f
 3c0:	f013 0f80 	tst.w	r3, #128	; 0x80
 3c4:	f857 3022 	ldr.w	r3, [r7, r2, lsl #2]
 3c8:	bf14      	ite	ne
 3ca:	f423 3380 	bicne.w	r3, r3, #65536	; 0x10000
 3ce:	f023 0301 	biceq.w	r3, r3, #1
 3d2:	f847 3022 	str.w	r3, [r7, r2, lsl #2]
 3d6:	2200      	movs	r2, #0
 3d8:	4b5f      	ldr	r3, [pc, #380]	; (558 <usb_isr+0x558>)
 3da:	64ea      	str	r2, [r5, #76]	; 0x4c
 3dc:	609a      	str	r2, [r3, #8]
 3de:	2201      	movs	r2, #1
 3e0:	64ab      	str	r3, [r5, #72]	; 0x48
 3e2:	601a      	str	r2, [r3, #0]
 3e4:	2280      	movs	r2, #128	; 0x80
 3e6:	605a      	str	r2, [r3, #4]
 3e8:	f04f 1301 	mov.w	r3, #65537	; 0x10001
 3ec:	f8c4 31bc 	str.w	r3, [r4, #444]	; 0x1bc
 3f0:	f8d4 31b0 	ldr.w	r3, [r4, #432]	; 0x1b0
 3f4:	f443 3380 	orr.w	r3, r3, #65536	; 0x10000
 3f8:	f8c4 31b0 	str.w	r3, [r4, #432]	; 0x1b0
 3fc:	f8d4 31b0 	ldr.w	r3, [r4, #432]	; 0x1b0
 400:	2b00      	cmp	r3, #0
 402:	d1fb      	bne.n	3fc <usb_isr+0x3fc>
 404:	e668      	b.n	d8 <usb_isr+0xd8>
 406:	f010 0f78 	tst.w	r0, #120	; 0x78
 40a:	b283      	uxth	r3, r0
 40c:	f47f af04 	bne.w	218 <usb_isr+0x218>
 410:	f003 027f 	and.w	r2, r3, #127	; 0x7f
 414:	f013 0f80 	tst.w	r3, #128	; 0x80
 418:	f857 3022 	ldr.w	r3, [r7, r2, lsl #2]
 41c:	bf14      	ite	ne
 41e:	f443 3380 	orrne.w	r3, r3, #65536	; 0x10000
 422:	f043 0301 	orreq.w	r3, r3, #1
 426:	f847 3022 	str.w	r3, [r7, r2, lsl #2]
 42a:	2200      	movs	r2, #0
 42c:	4b4a      	ldr	r3, [pc, #296]	; (558 <usb_isr+0x558>)
 42e:	64ea      	str	r2, [r5, #76]	; 0x4c
 430:	609a      	str	r2, [r3, #8]
 432:	2201      	movs	r2, #1
 434:	64ab      	str	r3, [r5, #72]	; 0x48
 436:	601a      	str	r2, [r3, #0]
 438:	2280      	movs	r2, #128	; 0x80
 43a:	605a      	str	r2, [r3, #4]
 43c:	f04f 1301 	mov.w	r3, #65537	; 0x10001
 440:	f8c4 31bc 	str.w	r3, [r4, #444]	; 0x1bc
 444:	f8d4 31b0 	ldr.w	r3, [r4, #432]	; 0x1b0
 448:	f443 3380 	orr.w	r3, r3, #65536	; 0x10000
 44c:	f8c4 31b0 	str.w	r3, [r4, #432]	; 0x1b0
 450:	f8d4 31b0 	ldr.w	r3, [r4, #432]	; 0x1b0
 454:	2b00      	cmp	r3, #0
 456:	d1fb      	bne.n	450 <usb_isr+0x450>
 458:	e63e      	b.n	d8 <usb_isr+0xd8>
 45a:	4b40      	ldr	r3, [pc, #256]	; (55c <usb_isr+0x55c>)
 45c:	f3c2 4207 	ubfx	r2, r2, #16, #8
 460:	6819      	ldr	r1, [r3, #0]
 462:	4b47      	ldr	r3, [pc, #284]	; (580 <usb_isr+0x580>)
 464:	6019      	str	r1, [r3, #0]
 466:	4b47      	ldr	r3, [pc, #284]	; (584 <usb_isr+0x584>)
 468:	701a      	strb	r2, [r3, #0]
 46a:	e6e7      	b.n	23c <usb_isr+0x23c>
 46c:	2000      	movs	r0, #0
 46e:	6008      	str	r0, [r1, #0]
 470:	4845      	ldr	r0, [pc, #276]	; (588 <usb_isr+0x588>)
 472:	8804      	ldrh	r4, [r0, #0]
 474:	6841      	ldr	r1, [r0, #4]
 476:	f242 0021 	movw	r0, #8225	; 0x2021
 47a:	4284      	cmp	r4, r0
 47c:	f47f ae82 	bne.w	184 <usb_isr+0x184>
 480:	b289      	uxth	r1, r1
 482:	2900      	cmp	r1, #0
 484:	f000 80ca 	beq.w	61c <usb_isr+0x61c>
 488:	2902      	cmp	r1, #2
 48a:	f47f ae7b 	bne.w	184 <usb_isr+0x184>
 48e:	493f      	ldr	r1, [pc, #252]	; (58c <usb_isr+0x58c>)
 490:	4c3f      	ldr	r4, [pc, #252]	; (590 <usb_isr+0x590>)
 492:	c903      	ldmia	r1, {r0, r1}
 494:	80a1      	strh	r1, [r4, #4]
 496:	2886      	cmp	r0, #134	; 0x86
 498:	ea4f 4111 	mov.w	r1, r1, lsr #16
 49c:	6020      	str	r0, [r4, #0]
 49e:	71a1      	strb	r1, [r4, #6]
 4a0:	f47f ae70 	bne.w	184 <usb_isr+0x184>
 4a4:	b672      	cpsid	i
 4a6:	483b      	ldr	r0, [pc, #236]	; (594 <usb_isr+0x594>)
 4a8:	7801      	ldrb	r1, [r0, #0]
 4aa:	f041 0120 	orr.w	r1, r1, #32
 4ae:	7001      	strb	r1, [r0, #0]
 4b0:	f8d3 1148 	ldr.w	r1, [r3, #328]	; 0x148
 4b4:	060d      	lsls	r5, r1, #24
 4b6:	d405      	bmi.n	4c4 <usb_isr+0x4c4>
 4b8:	2080      	movs	r0, #128	; 0x80
 4ba:	4301      	orrs	r1, r0
 4bc:	f8c3 0144 	str.w	r0, [r3, #324]	; 0x144
 4c0:	f8c3 1148 	str.w	r1, [r3, #328]	; 0x148
 4c4:	b662      	cpsie	i
 4c6:	4b34      	ldr	r3, [pc, #208]	; (598 <usb_isr+0x598>)
 4c8:	2150      	movs	r1, #80	; 0x50
 4ca:	7019      	strb	r1, [r3, #0]
 4cc:	e65a      	b.n	184 <usb_isr+0x184>
 4ce:	60eb      	str	r3, [r5, #12]
 4d0:	2301      	movs	r3, #1
 4d2:	492d      	ldr	r1, [pc, #180]	; (588 <usb_isr+0x588>)
 4d4:	f8c9 3000 	str.w	r3, [r9]
 4d8:	4b30      	ldr	r3, [pc, #192]	; (59c <usb_isr+0x59c>)
 4da:	600a      	str	r2, [r1, #0]
 4dc:	f8c9 3004 	str.w	r3, [r9, #4]
 4e0:	4b2f      	ldr	r3, [pc, #188]	; (5a0 <usb_isr+0x5a0>)
 4e2:	6048      	str	r0, [r1, #4]
 4e4:	f8c9 3010 	str.w	r3, [r9, #16]
 4e8:	f8c5 9008 	str.w	r9, [r5, #8]
 4ec:	e9c9 8a02 	strd	r8, sl, [r9, #8]
 4f0:	f8d4 21b0 	ldr.w	r2, [r4, #432]	; 0x1b0
 4f4:	f042 0201 	orr.w	r2, r2, #1
 4f8:	f8c4 21b0 	str.w	r2, [r4, #432]	; 0x1b0
 4fc:	f503 5280 	add.w	r2, r3, #4096	; 0x1000
 500:	f503 5300 	add.w	r3, r3, #8192	; 0x2000
 504:	f8c9 2014 	str.w	r2, [r9, #20]
 508:	f8c9 3018 	str.w	r3, [r9, #24]
 50c:	f8d4 31b0 	ldr.w	r3, [r4, #432]	; 0x1b0
 510:	2b00      	cmp	r3, #0
 512:	d1fb      	bne.n	50c <usb_isr+0x50c>
 514:	4a10      	ldr	r2, [pc, #64]	; (558 <usb_isr+0x558>)
 516:	64eb      	str	r3, [r5, #76]	; 0x4c
 518:	6093      	str	r3, [r2, #8]
 51a:	2301      	movs	r3, #1
 51c:	64aa      	str	r2, [r5, #72]	; 0x48
 51e:	6013      	str	r3, [r2, #0]
 520:	f248 0380 	movw	r3, #32896	; 0x8080
 524:	6053      	str	r3, [r2, #4]
 526:	f04f 1301 	mov.w	r3, #65537	; 0x10001
 52a:	f8c4 31bc 	str.w	r3, [r4, #444]	; 0x1bc
 52e:	f8d4 31b0 	ldr.w	r3, [r4, #432]	; 0x1b0
 532:	f443 3380 	orr.w	r3, r3, #65536	; 0x10000
 536:	f8c4 31b0 	str.w	r3, [r4, #432]	; 0x1b0
 53a:	f44f 3380 	mov.w	r3, #65536	; 0x10000
 53e:	f8cb 3000 	str.w	r3, [fp]
 542:	f8d4 31b0 	ldr.w	r3, [r4, #432]	; 0x1b0
 546:	2b00      	cmp	r3, #0
 548:	d1fb      	bne.n	542 <usb_isr+0x542>
 54a:	e5c5      	b.n	d8 <usb_isr+0xd8>
 54c:	00000000 	.word	0x00000000
 550:	00cc0002 	.word	0x00cc0002
 554:	000200cc 	.word	0x000200cc
 558:	00000000 	.word	0x00000000
 55c:	00000000 	.word	0x00000000
 560:	00000000 	.word	0x00000000
 564:	00000000 	.word	0x00000000
 568:	00000000 	.word	0x00000000
 56c:	00000000 	.word	0x00000000
 570:	00000000 	.word	0x00000000
 574:	00000000 	.word	0x00000000
 578:	00000000 	.word	0x00000000
 57c:	00000000 	.word	0x00000000
 580:	00000000 	.word	0x00000000
 584:	00000000 	.word	0x00000000
 588:	00000000 	.word	0x00000000
 58c:	00000000 	.word	0x00000000
 590:	00000000 	.word	0x00000000
 594:	00000000 	.word	0x00000000
 598:	00000000 	.word	0x00000000
 59c:	00070080 	.word	0x00070080
 5a0:	00002000 	.word	0x00002000
 5a4:	0c00      	lsrs	r0, r0, #16
 5a6:	780a      	ldrb	r2, [r1, #0]
 5a8:	4282      	cmp	r2, r0
 5aa:	bf28      	it	cs
 5ac:	4602      	movcs	r2, r0
 5ae:	f5be 6fe0 	cmp.w	lr, #1792	; 0x700
 5b2:	d12a      	bne.n	60a <usb_isr+0x60a>
 5b4:	4b1d      	ldr	r3, [pc, #116]	; (62c <usb_isr+0x62c>)
 5b6:	481e      	ldr	r0, [pc, #120]	; (630 <usb_isr+0x630>)
 5b8:	f893 c000 	ldrb.w	ip, [r3]
 5bc:	491d      	ldr	r1, [pc, #116]	; (634 <usb_isr+0x634>)
 5be:	4b1e      	ldr	r3, [pc, #120]	; (638 <usb_isr+0x638>)
 5c0:	f1bc 0f00 	cmp.w	ip, #0
 5c4:	bf18      	it	ne
 5c6:	4601      	movne	r1, r0
 5c8:	9200      	str	r2, [sp, #0]
 5ca:	4618      	mov	r0, r3
 5cc:	f7ff fffe 	bl	0 <memcpy>
 5d0:	2107      	movs	r1, #7
 5d2:	4603      	mov	r3, r0
 5d4:	7041      	strb	r1, [r0, #1]
 5d6:	9a00      	ldr	r2, [sp, #0]
 5d8:	f023 011f 	bic.w	r1, r3, #31
 5dc:	4413      	add	r3, r2
 5de:	f3bf 8f4f 	dsb	sy
 5e2:	f04f 20e0 	mov.w	r0, #3758153728	; 0xe000e000
 5e6:	f8c0 1f70 	str.w	r1, [r0, #3952]	; 0xf70
 5ea:	3120      	adds	r1, #32
 5ec:	428b      	cmp	r3, r1
 5ee:	d8fa      	bhi.n	5e6 <usb_isr+0x5e6>
 5f0:	f3bf 8f4f 	dsb	sy
 5f4:	f3bf 8f6f 	isb	sy
 5f8:	480f      	ldr	r0, [pc, #60]	; (638 <usb_isr+0x638>)
 5fa:	4611      	mov	r1, r2
 5fc:	f7ff fffe 	bl	0 <usb_isr>
 600:	e56a      	b.n	d8 <usb_isr+0xd8>
 602:	03c9      	lsls	r1, r1, #15
 604:	f53f adfd 	bmi.w	202 <usb_isr+0x202>
 608:	e5fd      	b.n	206 <usb_isr+0x206>
 60a:	4b0b      	ldr	r3, [pc, #44]	; (638 <usb_isr+0x638>)
 60c:	4618      	mov	r0, r3
 60e:	e9cd 2300 	strd	r2, r3, [sp]
 612:	f7ff fffe 	bl	0 <memcpy>
 616:	e9dd 2300 	ldrd	r2, r3, [sp]
 61a:	e7dd      	b.n	5d8 <usb_isr+0x5d8>
 61c:	4907      	ldr	r1, [pc, #28]	; (63c <usb_isr+0x63c>)
 61e:	4c08      	ldr	r4, [pc, #32]	; (640 <usb_isr+0x640>)
 620:	e737      	b.n	492 <usb_isr+0x492>
 622:	2005      	movs	r0, #5
 624:	f7ff fffe 	bl	0 <usb_isr>
 628:	f7ff fffe 	bl	e8 <usb_isr+0xe8>
 62c:	00000000 	.word	0x00000000
 630:	00000000 	.word	0x00000000
 634:	00000000 	.word	0x00000000
 638:	00000000 	.word	0x00000000
 63c:	00000000 	.word	0x00000000
 640:	00000000 	.word	0x00000000

Disassembly of section .text.usb_config_rx:

00000000 <usb_config_rx>:
   0:	e92d 47f0 	stmdb	sp!, {r4, r5, r6, r7, r8, r9, sl, lr}
   4:	461f      	mov	r7, r3
   6:	1e83      	subs	r3, r0, #2
   8:	2b04      	cmp	r3, #4
   a:	d901      	bls.n	10 <usb_config_rx+0x10>
   c:	e8bd 87f0 	ldmia.w	sp!, {r4, r5, r6, r7, r8, r9, sl, pc}
  10:	f8df 904c 	ldr.w	r9, [pc, #76]	; 60 <usb_config_rx+0x60>
  14:	4615      	mov	r5, r2
  16:	460c      	mov	r4, r1
  18:	223c      	movs	r2, #60	; 0x3c
  1a:	eb09 18c0 	add.w	r8, r9, r0, lsl #7
  1e:	4606      	mov	r6, r0
  20:	ea4f 1ac0 	mov.w	sl, r0, lsl #7
  24:	2100      	movs	r1, #0
  26:	f108 0004 	add.w	r0, r8, #4
  2a:	0424      	lsls	r4, r4, #16
  2c:	f7ff fffe 	bl	0 <memset>
  30:	fab5 f285 	clz	r2, r5
  34:	2301      	movs	r3, #1
  36:	0952      	lsrs	r2, r2, #5
  38:	ea44 7442 	orr.w	r4, r4, r2, lsl #29
  3c:	f849 400a 	str.w	r4, [r9, sl]
  40:	f8c8 7038 	str.w	r7, [r8, #56]	; 0x38
  44:	f8c8 3008 	str.w	r3, [r8, #8]
  48:	2f00      	cmp	r7, #0
  4a:	d0df      	beq.n	c <usb_config_rx+0xc>
  4c:	4a03      	ldr	r2, [pc, #12]	; (5c <usb_config_rx+0x5c>)
  4e:	40b3      	lsls	r3, r6
  50:	6811      	ldr	r1, [r2, #0]
  52:	430b      	orrs	r3, r1
  54:	6013      	str	r3, [r2, #0]
  56:	e8bd 87f0 	ldmia.w	sp!, {r4, r5, r6, r7, r8, r9, sl, pc}
  5a:	bf00      	nop
  5c:	00000000 	.word	0x00000000
  60:	00000000 	.word	0x00000000

Disassembly of section .text.usb_config_tx:

00000000 <usb_config_tx>:
   0:	e92d 47f0 	stmdb	sp!, {r4, r5, r6, r7, r8, r9, sl, lr}
   4:	460d      	mov	r5, r1
   6:	1e81      	subs	r1, r0, #2
   8:	2904      	cmp	r1, #4
   a:	d901      	bls.n	10 <usb_config_tx+0x10>
   c:	e8bd 87f0 	ldmia.w	sp!, {r4, r5, r6, r7, r8, r9, sl, pc}
  10:	01c7      	lsls	r7, r0, #7
  12:	f8df 904c 	ldr.w	r9, [pc, #76]	; 60 <usb_config_tx+0x60>
  16:	4692      	mov	sl, r2
  18:	4604      	mov	r4, r0
  1a:	3740      	adds	r7, #64	; 0x40
  1c:	223c      	movs	r2, #60	; 0x3c
  1e:	2100      	movs	r1, #0
  20:	461e      	mov	r6, r3
  22:	eb09 0807 	add.w	r8, r9, r7
  26:	042d      	lsls	r5, r5, #16
  28:	f108 0004 	add.w	r0, r8, #4
  2c:	f7ff fffe 	bl	0 <memset>
  30:	faba f28a 	clz	r2, sl
  34:	0952      	lsrs	r2, r2, #5
  36:	ea45 7242 	orr.w	r2, r5, r2, lsl #29
  3a:	f849 2007 	str.w	r2, [r9, r7]
  3e:	2201      	movs	r2, #1
  40:	f8c8 6038 	str.w	r6, [r8, #56]	; 0x38
  44:	f8c8 2008 	str.w	r2, [r8, #8]
  48:	2e00      	cmp	r6, #0
  4a:	d0df      	beq.n	c <usb_config_tx+0xc>
  4c:	4b03      	ldr	r3, [pc, #12]	; (5c <usb_config_tx+0x5c>)
  4e:	3410      	adds	r4, #16
  50:	6819      	ldr	r1, [r3, #0]
  52:	40a2      	lsls	r2, r4
  54:	430a      	orrs	r2, r1
  56:	601a      	str	r2, [r3, #0]
  58:	e8bd 87f0 	ldmia.w	sp!, {r4, r5, r6, r7, r8, r9, sl, pc}
  5c:	00000000 	.word	0x00000000
  60:	00000000 	.word	0x00000000

Disassembly of section .text.usb_config_rx_iso:

00000000 <usb_config_rx_iso>:
   0:	e92d 47f0 	stmdb	sp!, {r4, r5, r6, r7, r8, r9, sl, lr}
   4:	4614      	mov	r4, r2
   6:	3a01      	subs	r2, #1
   8:	2a02      	cmp	r2, #2
   a:	d804      	bhi.n	16 <usb_config_rx_iso+0x16>
   c:	461d      	mov	r5, r3
   e:	1e83      	subs	r3, r0, #2
  10:	4607      	mov	r7, r0
  12:	2b04      	cmp	r3, #4
  14:	d901      	bls.n	1a <usb_config_rx_iso+0x1a>
  16:	e8bd 87f0 	ldmia.w	sp!, {r4, r5, r6, r7, r8, r9, sl, pc}
  1a:	f8df 9044 	ldr.w	r9, [pc, #68]	; 60 <usb_config_rx_iso+0x60>
  1e:	460e      	mov	r6, r1
  20:	07a4      	lsls	r4, r4, #30
  22:	223c      	movs	r2, #60	; 0x3c
  24:	eb09 18c0 	add.w	r8, r9, r0, lsl #7
  28:	2100      	movs	r1, #0
  2a:	ea4f 1ac0 	mov.w	sl, r0, lsl #7
  2e:	f108 0004 	add.w	r0, r8, #4
  32:	ea44 4406 	orr.w	r4, r4, r6, lsl #16
  36:	f7ff fffe 	bl	0 <memset>
  3a:	2301      	movs	r3, #1
  3c:	f849 400a 	str.w	r4, [r9, sl]
  40:	f8c8 5038 	str.w	r5, [r8, #56]	; 0x38
  44:	f8c8 3008 	str.w	r3, [r8, #8]
  48:	2d00      	cmp	r5, #0
  4a:	d0e4      	beq.n	16 <usb_config_rx_iso+0x16>
  4c:	4a03      	ldr	r2, [pc, #12]	; (5c <usb_config_rx_iso+0x5c>)
  4e:	40bb      	lsls	r3, r7
  50:	6811      	ldr	r1, [r2, #0]
  52:	430b      	orrs	r3, r1
  54:	6013      	str	r3, [r2, #0]
  56:	e8bd 87f0 	ldmia.w	sp!, {r4, r5, r6, r7, r8, r9, sl, pc}
  5a:	bf00      	nop
  5c:	00000000 	.word	0x00000000
  60:	00000000 	.word	0x00000000

Disassembly of section .text.usb_config_tx_iso:

00000000 <usb_config_tx_iso>:
   0:	e92d 47f0 	stmdb	sp!, {r4, r5, r6, r7, r8, r9, sl, lr}
   4:	4614      	mov	r4, r2
   6:	3a01      	subs	r2, #1
   8:	2a02      	cmp	r2, #2
   a:	d804      	bhi.n	16 <usb_config_tx_iso+0x16>
   c:	461d      	mov	r5, r3
   e:	1e83      	subs	r3, r0, #2
  10:	4607      	mov	r7, r0
  12:	2b04      	cmp	r3, #4
  14:	d901      	bls.n	1a <usb_config_tx_iso+0x1a>
  16:	e8bd 87f0 	ldmia.w	sp!, {r4, r5, r6, r7, r8, r9, sl, pc}
  1a:	ea4f 18c0 	mov.w	r8, r0, lsl #7
  1e:	f8df a048 	ldr.w	sl, [pc, #72]	; 68 <usb_config_tx_iso+0x68>
  22:	460e      	mov	r6, r1
  24:	07a4      	lsls	r4, r4, #30
  26:	f108 0840 	add.w	r8, r8, #64	; 0x40
  2a:	223c      	movs	r2, #60	; 0x3c
  2c:	2100      	movs	r1, #0
  2e:	ea44 4406 	orr.w	r4, r4, r6, lsl #16
  32:	eb0a 0908 	add.w	r9, sl, r8
  36:	f109 0004 	add.w	r0, r9, #4
  3a:	f7ff fffe 	bl	0 <memset>
  3e:	2301      	movs	r3, #1
  40:	f84a 4008 	str.w	r4, [sl, r8]
  44:	f8c9 5038 	str.w	r5, [r9, #56]	; 0x38
  48:	f8c9 3008 	str.w	r3, [r9, #8]
  4c:	2d00      	cmp	r5, #0
  4e:	d0e2      	beq.n	16 <usb_config_tx_iso+0x16>
  50:	4a04      	ldr	r2, [pc, #16]	; (64 <usb_config_tx_iso+0x64>)
  52:	f107 0010 	add.w	r0, r7, #16
  56:	6811      	ldr	r1, [r2, #0]
  58:	4083      	lsls	r3, r0
  5a:	430b      	orrs	r3, r1
  5c:	6013      	str	r3, [r2, #0]
  5e:	e8bd 87f0 	ldmia.w	sp!, {r4, r5, r6, r7, r8, r9, sl, pc}
  62:	bf00      	nop
  64:	00000000 	.word	0x00000000
  68:	00000000 	.word	0x00000000

Disassembly of section .text.usb_prepare_transfer:

00000000 <usb_prepare_transfer>:
   0:	0412      	lsls	r2, r2, #16
   2:	6081      	str	r1, [r0, #8]
   4:	61c3      	str	r3, [r0, #28]
   6:	f501 5340 	add.w	r3, r1, #12288	; 0x3000
   a:	f042 0280 	orr.w	r2, r2, #128	; 0x80
   e:	b410      	push	{r4}
  10:	2401      	movs	r4, #1
  12:	6042      	str	r2, [r0, #4]
  14:	f501 5200 	add.w	r2, r1, #8192	; 0x2000
  18:	6004      	str	r4, [r0, #0]
  1a:	f501 5480 	add.w	r4, r1, #4096	; 0x1000
  1e:	f501 4180 	add.w	r1, r1, #16384	; 0x4000
  22:	60c4      	str	r4, [r0, #12]
  24:	6181      	str	r1, [r0, #24]
  26:	f85d 4b04 	ldr.w	r4, [sp], #4
  2a:	e9c0 2304 	strd	r2, r3, [r0, #16]
  2e:	4770      	bx	lr

Disassembly of section .text.usb_transmit:

00000000 <usb_transmit>:
   0:	1e83      	subs	r3, r0, #2
   2:	460a      	mov	r2, r1
   4:	2b04      	cmp	r3, #4
   6:	d900      	bls.n	a <usb_transmit+0xa>
   8:	4770      	bx	lr
   a:	4b06      	ldr	r3, [pc, #24]	; (24 <usb_transmit+0x24>)
   c:	f100 0110 	add.w	r1, r0, #16
  10:	f04f 0c01 	mov.w	ip, #1
  14:	eb03 10c0 	add.w	r0, r3, r0, lsl #7
  18:	fa0c f101 	lsl.w	r1, ip, r1
  1c:	3040      	adds	r0, #64	; 0x40
  1e:	f7ff bffe 	b.w	0 <usb_transmit>
  22:	bf00      	nop
  24:	00000000 	.word	0x00000000

Disassembly of section .text.usb_receive:

00000000 <usb_receive>:
   0:	1e83      	subs	r3, r0, #2
   2:	460a      	mov	r2, r1
   4:	2b04      	cmp	r3, #4
   6:	d900      	bls.n	a <usb_receive+0xa>
   8:	4770      	bx	lr
   a:	2101      	movs	r1, #1
   c:	4b02      	ldr	r3, [pc, #8]	; (18 <usb_receive+0x18>)
   e:	4081      	lsls	r1, r0
  10:	eb03 10c0 	add.w	r0, r3, r0, lsl #7
  14:	f7ff bffe 	b.w	0 <usb_receive>
  18:	00000000 	.word	0x00000000

Disassembly of section .text.usb_transfer_status:

00000000 <usb_transfer_status>:
   0:	6840      	ldr	r0, [r0, #4]
   2:	4770      	bx	lr
