
build/./teensy4/usb_serial2.c.o:     file format elf32-littlearm

SYMBOL TABLE:
00000000 l    df *ABS*	00000000 usb_serial2.c
00000000 l    d  .text	00000000 .text
00000000 l    d  .data	00000000 .data
00000000 l    d  .bss	00000000 .bss
00000000 l    d  .text.rx_queue_transfer	00000000 .text.rx_queue_transfer
00000000 l     F .text.rx_queue_transfer	00000060 rx_queue_transfer
00000000 l     O .dmabuffers	00001000 rx_buffer
00000000 l    d  .text.rx_event	00000000 .text.rx_event
00000000 l     F .text.rx_event	000000b4 rx_event
00000000 l    d  .text.usb_serial2_flush_callback	00000000 .text.usb_serial2_flush_callback
00000000 l     F .text.usb_serial2_flush_callback	00000090 usb_serial2_flush_callback
00001000 l     O .dmabuffers	00002000 txbuffer
00000000 l    d  .text.usb_serial2_write.part.0	00000000 .text.usb_serial2_write.part.0
00000000 l     F .text.usb_serial2_write.part.0	00000190 usb_serial2_write.part.0
00000000 l    d  .text.usb_serial2_configure	00000000 .text.usb_serial2_configure
00000000 l    d  .text.usb_serial2_read	00000000 .text.usb_serial2_read
00000000 l    d  .text.usb_serial2_peekchar	00000000 .text.usb_serial2_peekchar
00000000 l    d  .text.usb_serial2_available	00000000 .text.usb_serial2_available
00000000 l    d  .text.usb_serial2_flush_input	00000000 .text.usb_serial2_flush_input
00000000 l    d  .text.usb_serial2_getchar	00000000 .text.usb_serial2_getchar
00000000 l    d  .text.usb_serial2_putchar	00000000 .text.usb_serial2_putchar
00000000 l    d  .text.usb_serial2_write	00000000 .text.usb_serial2_write
00000000 l    d  .text.usb_serial2_write_buffer_free	00000000 .text.usb_serial2_write_buffer_free
00000000 l    d  .text.usb_serial2_flush_output	00000000 .text.usb_serial2_flush_output
00000000 l    d  .bss.rx_available	00000000 .bss.rx_available
00000000 l     O .bss.rx_available	00000004 rx_available
00000000 l    d  .bss.rx_count	00000000 .bss.rx_count
00000000 l     O .bss.rx_count	00000010 rx_count
00000000 l    d  .bss.rx_head	00000000 .bss.rx_head
00000000 l     O .bss.rx_head	00000001 rx_head
00000000 l    d  .bss.rx_index	00000000 .bss.rx_index
00000000 l     O .bss.rx_index	00000010 rx_index
00000000 l    d  .bss.rx_list	00000000 .bss.rx_list
00000000 l     O .bss.rx_list	00000009 rx_list
00000000 l    d  .bss.rx_packet_size	00000000 .bss.rx_packet_size
00000000 l     O .bss.rx_packet_size	00000002 rx_packet_size
00000000 l    d  .bss.rx_tail	00000000 .bss.rx_tail
00000000 l     O .bss.rx_tail	00000001 rx_tail
00000000 l    d  .bss.rx_transfer	00000000 .bss.rx_transfer
00000000 l     O .bss.rx_transfer	00000100 rx_transfer
00000000 l    d  .bss.transmit_previous_timeout	00000000 .bss.transmit_previous_timeout
00000000 l     O .bss.transmit_previous_timeout	00000001 transmit_previous_timeout
00000000 l    d  .bss.tx_available	00000000 .bss.tx_available
00000000 l     O .bss.tx_available	00000002 tx_available
00000000 l    d  .bss.tx_head	00000000 .bss.tx_head
00000000 l     O .bss.tx_head	00000001 tx_head
00000000 l    d  .bss.tx_noautoflush	00000000 .bss.tx_noautoflush
00000000 l     O .bss.tx_noautoflush	00000001 tx_noautoflush
00000000 l    d  .bss.tx_packet_size	00000000 .bss.tx_packet_size
00000000 l     O .bss.tx_packet_size	00000002 tx_packet_size
00000000 l    d  .bss.tx_transfer	00000000 .bss.tx_transfer
00000000 l     O .bss.tx_transfer	00000080 tx_transfer
00000000 l    d  .bss.usb_cdc2_line_coding	00000000 .bss.usb_cdc2_line_coding
00000000 l    d  .bss.usb_cdc2_line_rtsdtr	00000000 .bss.usb_cdc2_line_rtsdtr
00000000 l    d  .bss.usb_cdc2_line_rtsdtr_millis	00000000 .bss.usb_cdc2_line_rtsdtr_millis
00000000 l    d  .bss.usb_cdc2_transmit_flush_timer	00000000 .bss.usb_cdc2_transmit_flush_timer
00000000 l    d  .dmabuffers	00000000 .dmabuffers
00000000 l    d  .comment	00000000 .comment
00000000 l    d  .ARM.attributes	00000000 .ARM.attributes
00000000         *UND*	00000000 usb_prepare_transfer
00000000         *UND*	00000000 usb_receive
00000000         *UND*	00000000 memcpy
00000000         *UND*	00000000 usb_transmit
00000000         *UND*	00000000 usb_configuration
00000000         *UND*	00000000 yield
00000000         *UND*	00000000 usb_transfer_status
00000000         *UND*	00000000 systick_millis_count
00000000 g     F .text.usb_serial2_configure	00000100 usb_serial2_configure
00000000         *UND*	00000000 memset
00000000         *UND*	00000000 usb_config_tx
00000000         *UND*	00000000 usb_config_rx
00000000         *UND*	00000000 usb_high_speed
00000000         *UND*	00000000 usb_timer1_callback
00000000  w      *UND*	00000000 serialEventUSB1
00000000         *UND*	00000000 yield_active_check_flags
00000000 g     F .text.usb_serial2_read	000000e0 usb_serial2_read
00000000 g     F .text.usb_serial2_peekchar	00000044 usb_serial2_peekchar
00000000 g     F .text.usb_serial2_available	00000018 usb_serial2_available
00000000 g     F .text.usb_serial2_flush_input	00000070 usb_serial2_flush_input
00000000 g     F .text.usb_serial2_getchar	00000020 usb_serial2_getchar
00000000 g     F .text.usb_serial2_putchar	0000002c usb_serial2_putchar
00000000 g     F .text.usb_serial2_write	00000018 usb_serial2_write
00000000 g     F .text.usb_serial2_write_buffer_free	0000004c usb_serial2_write_buffer_free
00000000 g     F .text.usb_serial2_flush_output	00000090 usb_serial2_flush_output
00000000 g     O .bss.usb_cdc2_transmit_flush_timer	00000001 usb_cdc2_transmit_flush_timer
00000000 g     O .bss.usb_cdc2_line_rtsdtr	00000001 usb_cdc2_line_rtsdtr
00000000 g     O .bss.usb_cdc2_line_rtsdtr_millis	00000004 usb_cdc2_line_rtsdtr_millis
00000000 g     O .bss.usb_cdc2_line_coding	00000008 usb_cdc2_line_coding


Contents of section .text.rx_queue_transfer:
 0000 f8b5144c 4ff0e025 134e4ff4 003204eb  ...LO..%.NO..2..
 0010 4024124f 06eb4016 0346c5f8 8c212146  @$.O..@..F...!!F
 0020 3a883046 fff7feff 3b882344 bff34f8f  :.0F....;.#D..O.
 0030 c5f85c4f 2034a342 fad8bff3 4f8fbff3  ..\O 4.B....O...
 0040 6f8f0420 3146fff7 feff4ff4 0033c5f8  o.. 1F....O..3..
 0050 0c31f8bd 00000000 00000000 00000000  .1..............
Contents of section .text.rx_event:
 0000 244b2de9 f0411c88 4368c569 c3f30e43  $K-..A..Ch.i...C
 0010 e41a002c 24dd2049 20480a78 0078d3b2  ...,$. I H.x.x..
 0020 1f4e8242 1f4807d0 10f80380 36f81870  .N.B.H......6..p
 0030 c7f50072 944218d9 01330022 26f81540  ...r.B...3."&..@
 0040 082b194e 88bf1346 26f81520 98bfdab2  .+.N...F&.. ....
 0050 c554164b 0a701a68 14441c60 bde8f081  .T.K.p.h.D.`....
 0060 2846bde8 f041fff7 febf07eb 48201049  (F...A......H .I
 0070 22462744 084401eb 4521fff7 feff0b4a  "F'D.D..E!.....J
 0080 284626f8 18701368 2344bde8 f0411360  (F&..p.h#D...A.`
 0090 fff7febf 00000000 00000000 00000000  ................
 00a0 00000000 00000000 00000000 00000000  ................
 00b0 00000000                             ....            
Contents of section .text.usb_serial2_flush_callback:
 0000 1d4b1a78 002a36d1 02f0ff03 1b4a1278  .K.x.*6......J.x
 0010 8ab32de9 f0411a4d 2a8852b3 194ec2f5  ..-..A.M*.R..N..
 0020 0068194f 3278194c 07eb4217 04ebc224  .h.O2x.L..B....$
 0030 42463846 2146fff7 feff04eb 0802bff3  BF8F!F..........
 0040 4f8f4ff0 e023c3f8 704f2034 a242fad8  O.O..#..pO 4.B..
 0050 bff34f8f bff36f8f 04203946 fff7feff  ..O...o.. 9F....
 0060 33780133 dbb2032b 88bf0023 33700023  3x.3...+...#3p.#
 0070 2b80bde8 f0817047 00000000 00000000  +.....pG........
 0080 00000000 00000000 00000000 00100000  ................
Contents of section .text.usb_serial2_write.part.0:
 0000 2de9f04f 85b08b46 02900029 00f0ad80  -..O...F...)....
 0010 0023dff8 7081dff8 70910193 544eb8f8  .#..p...p...TN..
 0020 0030dff8 68a1534a 1178534a 02eb4117  .0..h.SJ.xSJ..A.
 0030 002b40f0 96801d46 1c4614e0 99f80030  .+@....F.F.....0
 0040 04b93568 0124002b 7ad13368 5b1b782b  ..5h.$.+z.3h[.x+
 0050 7ad89af8 0030002b 72d0fff7 feffb8f8  z....0.+r.......
 0060 0030002b 77d13846 fff7feff 10f08000  .0.+w.8F........
 0070 e4d14ff4 00623f4b 89f80000 19781346  ..O..b?K.....x.F
 0080 a8f80020 00ebc120 3c4c9345 4feac121  ... ... <L.EO..!
 0090 204413d2 5a460299 0393fff7 feff039b   D..ZF..........
 00a0 0198a3eb 0b03364a 5844a8f8 00304ff0  ......6JXD...0O.
 00b0 4043c2f8 8c3005b0 bde8f08f 0c190299  @C...0..........
 00c0 fff7feff 00234ff4 00622146 3846fff7  .....#O..b!F8F..
 00d0 feffbff3 4f8f04f1 200204f5 00639342  ....O... ....c.B
 00e0 34bf0123 40234ff0 e02204eb 4313c2f8  4..#@#O.."..C...
 00f0 704f2034 a342fad1 bff34f8f bff36f8f  pO 4.B....O...o.
 0100 04203946 fff7feff 1a4a1d49 13780133  . 9F.....J.I.x.3
 0110 dbb2032b 84bf0023 164a1370 b8f80020  ...+...#.J.p... 
 0120 019bbbeb 020b1344 0193029b 13440293  .......D.....D..
 0130 4ff00003 a8f80030 c1f88c30 7ff473af  O......0...0..s.
 0140 019805b0 bde8f08f 01230198 89f80030  .........#.....0
 0150 05b0bde8 f08f074a c3f50060 11781a46  .......J...`.x.F
 0160 90e71a46 c3f50060 8ce70846 e9e700bf  ...F...`...F....
 0170 00000000 00000000 00000000 00100000  ................
 0180 00002e40 00000000 00000000 00000000  ...@............
Contents of section .text.usb_serial2_configure:
 0000 2d4b0021 80222d48 70b51b78 00242c4d  -K.!."-Hp..x.$,M
 0010 8b422c4e 0cbf4023 4ff40073 2b803380  .B,N..@#O..s+.3.
 0020 fff7feff 284a2146 284b1470 4ff48072  ....(J!F(K.pO..r
 0030 27481c80 fff7feff 264a1021 264b0320  'H......&J.!&K. 
 0040 c2e90044 c2e90244 244ac3e9 00441470  ...D...D$J...D.p
 0050 234ac3e9 0244234b 1c702346 14602246  #J...D#K.p#F.`"F
 0060 fff7feff 22463188 04201f4b fff7feff  ...."F1.. .K....
 0070 23460122 29880420 fff7feff 20460134  #F.").. .... F.4
 0080 fff7feff 082cf9d1 184b0021 4a221848  .....,...K.!J".H
 0090 184c0460 c3f88c10 c3f88820 d3f84821  .L.`....... ..H!
 00a0 154942f0 0072c3f8 482121b1 134a1378  .IB..r..H!!..J.x
 00b0 43f00803 137070bd 00000000 00000000  C....pp.........
 00c0 00000000 00000000 00000000 00000000  ................
 00d0 00000000 00000000 00000000 00000000  ................
 00e0 00000000 00000000 00000000 00002e40  ...............@
 00f0 00000000 00000000 00000000 00000000  ................
Contents of section .text.usb_serial2_read:
 0000 2de9f04f 4ff0e023 4ff40032 dff8c8a0  -..OO..#O..2....
 0010 83b0c3f8 8c218b46 9af80040 00294fd0  .....!.F...@.)O.
 0020 8046e4b2 0027dff8 b490264b abeb0702  .F...'....&K....
 0030 25491b78 a34204f1 01043fd0 092c234b  %I.x.B....?..,#K
 0040 404628bf 00241e5d 39f816c0 0ceb4623  @F(..$.]9.....F#
 0050 19441f4b 33f81650 a5eb0c05 aa421cd2  .D.K3..P.....B..
 0060 0ceb462c 18491b4c 61440192 fff7feff  ..F,.I.LaD......
 0070 216839f8 16505846 019aa1eb 0b012a44  !h9..PXF......*D
 0080 394429f8 16202160 4ff0e023 4ff40032  9D).. !`O..#O..2
 0090 c3f80c21 03b0bde8 f08f2a46 2f44fff7  ...!......*F/D..
 00a0 feff0c49 e3b23046 0a68a844 521b0a60  ...I..0F.h.DR..`
 00b0 8af80030 fff7feff bb45b6d8 3846e3e7  ...0.....E..8F..
 00c0 0846e1e7 00000000 00000000 00000000  .F..............
 00d0 00000000 00000000 00000000 00000000  ................
Contents of section .text.usb_serial2_peekchar:
 0000 0b4b0c4a 12781978 d3b28a42 0dd00133  .K.J.x.x...B...3
 0010 09480a4a 092b0a49 28bf0023 c35c31f8  .H.J.+.I(..#.\1.
 0020 131002eb 4323585c 70474ff0 ff307047  ....C#X\pGO..0pG
 0030 00000000 00000000 00000000 00000000  ................
 0040 00000000                             ....            
Contents of section .text.usb_serial2_available:
 0000 044b10b5 1c680cb1 204610bd fff7feff  .K...h.. F......
 0010 204610bd 00000000                     F......        
Contents of section .text.usb_serial2_flush_input:
 0000 2de9f84f 144e154d 33782a78 934221d0  -..O.N.M3x*x.B!.
 0010 dcb2dff8 5090dff8 50b0dff8 5080104f  ....P...P...P..O
 0020 0134082c 5ffa84fa 01d90024 a24619f8  .4.,_......$.F..
 0030 0400dbf8 003038f8 102037f8 1010521a  .....08.. 7...R.
 0040 9b1acbf8 0030fff7 feff86f8 00a02b78  .....0........+x
 0050 a342e5d1 bde8f88f 00000000 00000000  .B..............
 0060 00000000 00000000 00000000 00000000  ................
Contents of section .text.usb_serial2_getchar:
 0000 00b583b0 01210df1 0700fff7 feff20b1  .....!........ .
 0010 9df80700 03b05df8 04fb4ff0 ff30f9e7  ......]...O..0..
Contents of section .text.usb_serial2_putchar:
 0000 094b00b5 83b01b78 8df80700 3bb10121  .K.....x....;..!
 0010 0df10700 fff7feff 03b05df8 04fb03f0  ..........].....
 0020 ff0003b0 5df804fb 00000000           ....].......    
Contents of section .text.usb_serial2_write:
 0000 044b1b78 03f0ff02 0bb1fff7 febf1046  .K.x...........F
 0010 704700bf 00000000                    pG......        
Contents of section .text.usb_serial2_write_buffer_free:
 0000 2de9f041 0024dff8 40800123 0c4d2746  -..A.$..@..#.M'F
 0010 0c4e88f8 00303378 28462035 a34204f1  .N...03x(F 5.B..
 0020 010405d0 fff7feff 030658bf 07f50067  ..........X....g
 0030 042cf0d1 00233846 88f80030 bde8f081  .,...#8F...0....
 0040 00000000 00000000 00000000           ............    
Contents of section .text.usb_serial2_flush_output:
 0000 2de9f843 1c4b1b78 13b11c4d 2a880ab9  -..C.K.x...M*...
 0010 bde8f883 1a4ec2f5 00691a49 33784a46  .....N...i.I3xJF
 0020 194c01eb 4318194f 04ebc324 01234046  .L..C..O...$.#@F
 0030 3b702146 0023fff7 feff04eb 0902bff3  ;p!F.#..........
 0040 4f8f4ff0 e023c3f8 704f2034 a242fad8  O.O..#..pO 4.B..
 0050 bff34f8f bff36f8f 04204146 fff7feff  ..O...o.. AF....
 0060 33780133 dbb2032b 88bf0023 33700023  3x.3...+...#3p.#
 0070 2b803b70 bde8f883 00000000 00000000  +.;p............
 0080 00000000 00000000 00100000 00000000  ................
Contents of section .dmabuffers:
 0000 00000000 00000000 00000000 00000000  ................
 0010 00000000 00000000 00000000 00000000  ................
 0020 00000000 00000000 00000000 00000000  ................
 0030 00000000 00000000 00000000 00000000  ................
 0040 00000000 00000000 00000000 00000000  ................
 0050 00000000 00000000 00000000 00000000  ................
 0060 00000000 00000000 00000000 00000000  ................
 0070 00000000 00000000 00000000 00000000  ................
 0080 00000000 00000000 00000000 00000000  ................
 0090 00000000 00000000 00000000 00000000  ................
 00a0 00000000 00000000 00000000 00000000  ................
 00b0 00000000 00000000 00000000 00000000  ................
 00c0 00000000 00000000 00000000 00000000  ................
 00d0 00000000 00000000 00000000 00000000  ................
 00e0 00000000 00000000 00000000 00000000  ................
 00f0 00000000 00000000 00000000 00000000  ................
 0100 00000000 00000000 00000000 00000000  ................
 0110 00000000 00000000 00000000 00000000  ................
 0120 00000000 00000000 00000000 00000000  ................
 0130 00000000 00000000 00000000 00000000  ................
 0140 00000000 00000000 00000000 00000000  ................
 0150 00000000 00000000 00000000 00000000  ................
 0160 00000000 00000000 00000000 00000000  ................
 0170 00000000 00000000 00000000 00000000  ................
 0180 00000000 00000000 00000000 00000000  ................
 0190 00000000 00000000 00000000 00000000  ................
 01a0 00000000 00000000 00000000 00000000  ................
 01b0 00000000 00000000 00000000 00000000  ................
 01c0 00000000 00000000 00000000 00000000  ................
 01d0 00000000 00000000 00000000 00000000  ................
 01e0 00000000 00000000 00000000 00000000  ................
 01f0 00000000 00000000 00000000 00000000  ................
 0200 00000000 00000000 00000000 00000000  ................
 0210 00000000 00000000 00000000 00000000  ................
 0220 00000000 00000000 00000000 00000000  ................
 0230 00000000 00000000 00000000 00000000  ................
 0240 00000000 00000000 00000000 00000000  ................
 0250 00000000 00000000 00000000 00000000  ................
 0260 00000000 00000000 00000000 00000000  ................
 0270 00000000 00000000 00000000 00000000  ................
 0280 00000000 00000000 00000000 00000000  ................
 0290 00000000 00000000 00000000 00000000  ................
 02a0 00000000 00000000 00000000 00000000  ................
 02b0 00000000 00000000 00000000 00000000  ................
 02c0 00000000 00000000 00000000 00000000  ................
 02d0 00000000 00000000 00000000 00000000  ................
 02e0 00000000 00000000 00000000 00000000  ................
 02f0 00000000 00000000 00000000 00000000  ................
 0300 00000000 00000000 00000000 00000000  ................
 0310 00000000 00000000 00000000 00000000  ................
 0320 00000000 00000000 00000000 00000000  ................
 0330 00000000 00000000 00000000 00000000  ................
 0340 00000000 00000000 00000000 00000000  ................
 0350 00000000 00000000 00000000 00000000  ................
 0360 00000000 00000000 00000000 00000000  ................
 0370 00000000 00000000 00000000 00000000  ................
 0380 00000000 00000000 00000000 00000000  ................
 0390 00000000 00000000 00000000 00000000  ................
 03a0 00000000 00000000 00000000 00000000  ................
 03b0 00000000 00000000 00000000 00000000  ................
 03c0 00000000 00000000 00000000 00000000  ................
 03d0 00000000 00000000 00000000 00000000  ................
 03e0 00000000 00000000 00000000 00000000  ................
 03f0 00000000 00000000 00000000 00000000  ................
 0400 00000000 00000000 00000000 00000000  ................
 0410 00000000 00000000 00000000 00000000  ................
 0420 00000000 00000000 00000000 00000000  ................
 0430 00000000 00000000 00000000 00000000  ................
 0440 00000000 00000000 00000000 00000000  ................
 0450 00000000 00000000 00000000 00000000  ................
 0460 00000000 00000000 00000000 00000000  ................
 0470 00000000 00000000 00000000 00000000  ................
 0480 00000000 00000000 00000000 00000000  ................
 0490 00000000 00000000 00000000 00000000  ................
 04a0 00000000 00000000 00000000 00000000  ................
 04b0 00000000 00000000 00000000 00000000  ................
 04c0 00000000 00000000 00000000 00000000  ................
 04d0 00000000 00000000 00000000 00000000  ................
 04e0 00000000 00000000 00000000 00000000  ................
 04f0 00000000 00000000 00000000 00000000  ................
 0500 00000000 00000000 00000000 00000000  ................
 0510 00000000 00000000 00000000 00000000  ................
 0520 00000000 00000000 00000000 00000000  ................
 0530 00000000 00000000 00000000 00000000  ................
 0540 00000000 00000000 00000000 00000000  ................
 0550 00000000 00000000 00000000 00000000  ................
 0560 00000000 00000000 00000000 00000000  ................
 0570 00000000 00000000 00000000 00000000  ................
 0580 00000000 00000000 00000000 00000000  ................
 0590 00000000 00000000 00000000 00000000  ................
 05a0 00000000 00000000 00000000 00000000  ................
 05b0 00000000 00000000 00000000 00000000  ................
 05c0 00000000 00000000 00000000 00000000  ................
 05d0 00000000 00000000 00000000 00000000  ................
 05e0 00000000 00000000 00000000 00000000  ................
 05f0 00000000 00000000 00000000 00000000  ................
 0600 00000000 00000000 00000000 00000000  ................
 0610 00000000 00000000 00000000 00000000  ................
 0620 00000000 00000000 00000000 00000000  ................
 0630 00000000 00000000 00000000 00000000  ................
 0640 00000000 00000000 00000000 00000000  ................
 0650 00000000 00000000 00000000 00000000  ................
 0660 00000000 00000000 00000000 00000000  ................
 0670 00000000 00000000 00000000 00000000  ................
 0680 00000000 00000000 00000000 00000000  ................
 0690 00000000 00000000 00000000 00000000  ................
 06a0 00000000 00000000 00000000 00000000  ................
 06b0 00000000 00000000 00000000 00000000  ................
 06c0 00000000 00000000 00000000 00000000  ................
 06d0 00000000 00000000 00000000 00000000  ................
 06e0 00000000 00000000 00000000 00000000  ................
 06f0 00000000 00000000 00000000 00000000  ................
 0700 00000000 00000000 00000000 00000000  ................
 0710 00000000 00000000 00000000 00000000  ................
 0720 00000000 00000000 00000000 00000000  ................
 0730 00000000 00000000 00000000 00000000  ................
 0740 00000000 00000000 00000000 00000000  ................
 0750 00000000 00000000 00000000 00000000  ................
 0760 00000000 00000000 00000000 00000000  ................
 0770 00000000 00000000 00000000 00000000  ................
 0780 00000000 00000000 00000000 00000000  ................
 0790 00000000 00000000 00000000 00000000  ................
 07a0 00000000 00000000 00000000 00000000  ................
 07b0 00000000 00000000 00000000 00000000  ................
 07c0 00000000 00000000 00000000 00000000  ................
 07d0 00000000 00000000 00000000 00000000  ................
 07e0 00000000 00000000 00000000 00000000  ................
 07f0 00000000 00000000 00000000 00000000  ................
 0800 00000000 00000000 00000000 00000000  ................
 0810 00000000 00000000 00000000 00000000  ................
 0820 00000000 00000000 00000000 00000000  ................
 0830 00000000 00000000 00000000 00000000  ................
 0840 00000000 00000000 00000000 00000000  ................
 0850 00000000 00000000 00000000 00000000  ................
 0860 00000000 00000000 00000000 00000000  ................
 0870 00000000 00000000 00000000 00000000  ................
 0880 00000000 00000000 00000000 00000000  ................
 0890 00000000 00000000 00000000 00000000  ................
 08a0 00000000 00000000 00000000 00000000  ................
 08b0 00000000 00000000 00000000 00000000  ................
 08c0 00000000 00000000 00000000 00000000  ................
 08d0 00000000 00000000 00000000 00000000  ................
 08e0 00000000 00000000 00000000 00000000  ................
 08f0 00000000 00000000 00000000 00000000  ................
 0900 00000000 00000000 00000000 00000000  ................
 0910 00000000 00000000 00000000 00000000  ................
 0920 00000000 00000000 00000000 00000000  ................
 0930 00000000 00000000 00000000 00000000  ................
 0940 00000000 00000000 00000000 00000000  ................
 0950 00000000 00000000 00000000 00000000  ................
 0960 00000000 00000000 00000000 00000000  ................
 0970 00000000 00000000 00000000 00000000  ................
 0980 00000000 00000000 00000000 00000000  ................
 0990 00000000 00000000 00000000 00000000  ................
 09a0 00000000 00000000 00000000 00000000  ................
 09b0 00000000 00000000 00000000 00000000  ................
 09c0 00000000 00000000 00000000 00000000  ................
 09d0 00000000 00000000 00000000 00000000  ................
 09e0 00000000 00000000 00000000 00000000  ................
 09f0 00000000 00000000 00000000 00000000  ................
 0a00 00000000 00000000 00000000 00000000  ................
 0a10 00000000 00000000 00000000 00000000  ................
 0a20 00000000 00000000 00000000 00000000  ................
 0a30 00000000 00000000 00000000 00000000  ................
 0a40 00000000 00000000 00000000 00000000  ................
 0a50 00000000 00000000 00000000 00000000  ................
 0a60 00000000 00000000 00000000 00000000  ................
 0a70 00000000 00000000 00000000 00000000  ................
 0a80 00000000 00000000 00000000 00000000  ................
 0a90 00000000 00000000 00000000 00000000  ................
 0aa0 00000000 00000000 00000000 00000000  ................
 0ab0 00000000 00000000 00000000 00000000  ................
 0ac0 00000000 00000000 00000000 00000000  ................
 0ad0 00000000 00000000 00000000 00000000  ................
 0ae0 00000000 00000000 00000000 00000000  ................
 0af0 00000000 00000000 00000000 00000000  ................
 0b00 00000000 00000000 00000000 00000000  ................
 0b10 00000000 00000000 00000000 00000000  ................
 0b20 00000000 00000000 00000000 00000000  ................
 0b30 00000000 00000000 00000000 00000000  ................
 0b40 00000000 00000000 00000000 00000000  ................
 0b50 00000000 00000000 00000000 00000000  ................
 0b60 00000000 00000000 00000000 00000000  ................
 0b70 00000000 00000000 00000000 00000000  ................
 0b80 00000000 00000000 00000000 00000000  ................
 0b90 00000000 00000000 00000000 00000000  ................
 0ba0 00000000 00000000 00000000 00000000  ................
 0bb0 00000000 00000000 00000000 00000000  ................
 0bc0 00000000 00000000 00000000 00000000  ................
 0bd0 00000000 00000000 00000000 00000000  ................
 0be0 00000000 00000000 00000000 00000000  ................
 0bf0 00000000 00000000 00000000 00000000  ................
 0c00 00000000 00000000 00000000 00000000  ................
 0c10 00000000 00000000 00000000 00000000  ................
 0c20 00000000 00000000 00000000 00000000  ................
 0c30 00000000 00000000 00000000 00000000  ................
 0c40 00000000 00000000 00000000 00000000  ................
 0c50 00000000 00000000 00000000 00000000  ................
 0c60 00000000 00000000 00000000 00000000  ................
 0c70 00000000 00000000 00000000 00000000  ................
 0c80 00000000 00000000 00000000 00000000  ................
 0c90 00000000 00000000 00000000 00000000  ................
 0ca0 00000000 00000000 00000000 00000000  ................
 0cb0 00000000 00000000 00000000 00000000  ................
 0cc0 00000000 00000000 00000000 00000000  ................
 0cd0 00000000 00000000 00000000 00000000  ................
 0ce0 00000000 00000000 00000000 00000000  ................
 0cf0 00000000 00000000 00000000 00000000  ................
 0d00 00000000 00000000 00000000 00000000  ................
 0d10 00000000 00000000 00000000 00000000  ................
 0d20 00000000 00000000 00000000 00000000  ................
 0d30 00000000 00000000 00000000 00000000  ................
 0d40 00000000 00000000 00000000 00000000  ................
 0d50 00000000 00000000 00000000 00000000  ................
 0d60 00000000 00000000 00000000 00000000  ................
 0d70 00000000 00000000 00000000 00000000  ................
 0d80 00000000 00000000 00000000 00000000  ................
 0d90 00000000 00000000 00000000 00000000  ................
 0da0 00000000 00000000 00000000 00000000  ................
 0db0 00000000 00000000 00000000 00000000  ................
 0dc0 00000000 00000000 00000000 00000000  ................
 0dd0 00000000 00000000 00000000 00000000  ................
 0de0 00000000 00000000 00000000 00000000  ................
 0df0 00000000 00000000 00000000 00000000  ................
 0e00 00000000 00000000 00000000 00000000  ................
 0e10 00000000 00000000 00000000 00000000  ................
 0e20 00000000 00000000 00000000 00000000  ................
 0e30 00000000 00000000 00000000 00000000  ................
 0e40 00000000 00000000 00000000 00000000  ................
 0e50 00000000 00000000 00000000 00000000  ................
 0e60 00000000 00000000 00000000 00000000  ................
 0e70 00000000 00000000 00000000 00000000  ................
 0e80 00000000 00000000 00000000 00000000  ................
 0e90 00000000 00000000 00000000 00000000  ................
 0ea0 00000000 00000000 00000000 00000000  ................
 0eb0 00000000 00000000 00000000 00000000  ................
 0ec0 00000000 00000000 00000000 00000000  ................
 0ed0 00000000 00000000 00000000 00000000  ................
 0ee0 00000000 00000000 00000000 00000000  ................
 0ef0 00000000 00000000 00000000 00000000  ................
 0f00 00000000 00000000 00000000 00000000  ................
 0f10 00000000 00000000 00000000 00000000  ................
 0f20 00000000 00000000 00000000 00000000  ................
 0f30 00000000 00000000 00000000 00000000  ................
 0f40 00000000 00000000 00000000 00000000  ................
 0f50 00000000 00000000 00000000 00000000  ................
 0f60 00000000 00000000 00000000 00000000  ................
 0f70 00000000 00000000 00000000 00000000  ................
 0f80 00000000 00000000 00000000 00000000  ................
 0f90 00000000 00000000 00000000 00000000  ................
 0fa0 00000000 00000000 00000000 00000000  ................
 0fb0 00000000 00000000 00000000 00000000  ................
 0fc0 00000000 00000000 00000000 00000000  ................
 0fd0 00000000 00000000 00000000 00000000  ................
 0fe0 00000000 00000000 00000000 00000000  ................
 0ff0 00000000 00000000 00000000 00000000  ................
 1000 00000000 00000000 00000000 00000000  ................
 1010 00000000 00000000 00000000 00000000  ................
 1020 00000000 00000000 00000000 00000000  ................
 1030 00000000 00000000 00000000 00000000  ................
 1040 00000000 00000000 00000000 00000000  ................
 1050 00000000 00000000 00000000 00000000  ................
 1060 00000000 00000000 00000000 00000000  ................
 1070 00000000 00000000 00000000 00000000  ................
 1080 00000000 00000000 00000000 00000000  ................
 1090 00000000 00000000 00000000 00000000  ................
 10a0 00000000 00000000 00000000 00000000  ................
 10b0 00000000 00000000 00000000 00000000  ................
 10c0 00000000 00000000 00000000 00000000  ................
 10d0 00000000 00000000 00000000 00000000  ................
 10e0 00000000 00000000 00000000 00000000  ................
 10f0 00000000 00000000 00000000 00000000  ................
 1100 00000000 00000000 00000000 00000000  ................
 1110 00000000 00000000 00000000 00000000  ................
 1120 00000000 00000000 00000000 00000000  ................
 1130 00000000 00000000 00000000 00000000  ................
 1140 00000000 00000000 00000000 00000000  ................
 1150 00000000 00000000 00000000 00000000  ................
 1160 00000000 00000000 00000000 00000000  ................
 1170 00000000 00000000 00000000 00000000  ................
 1180 00000000 00000000 00000000 00000000  ................
 1190 00000000 00000000 00000000 00000000  ................
 11a0 00000000 00000000 00000000 00000000  ................
 11b0 00000000 00000000 00000000 00000000  ................
 11c0 00000000 00000000 00000000 00000000  ................
 11d0 00000000 00000000 00000000 00000000  ................
 11e0 00000000 00000000 00000000 00000000  ................
 11f0 00000000 00000000 00000000 00000000  ................
 1200 00000000 00000000 00000000 00000000  ................
 1210 00000000 00000000 00000000 00000000  ................
 1220 00000000 00000000 00000000 00000000  ................
 1230 00000000 00000000 00000000 00000000  ................
 1240 00000000 00000000 00000000 00000000  ................
 1250 00000000 00000000 00000000 00000000  ................
 1260 00000000 00000000 00000000 00000000  ................
 1270 00000000 00000000 00000000 00000000  ................
 1280 00000000 00000000 00000000 00000000  ................
 1290 00000000 00000000 00000000 00000000  ................
 12a0 00000000 00000000 00000000 00000000  ................
 12b0 00000000 00000000 00000000 00000000  ................
 12c0 00000000 00000000 00000000 00000000  ................
 12d0 00000000 00000000 00000000 00000000  ................
 12e0 00000000 00000000 00000000 00000000  ................
 12f0 00000000 00000000 00000000 00000000  ................
 1300 00000000 00000000 00000000 00000000  ................
 1310 00000000 00000000 00000000 00000000  ................
 1320 00000000 00000000 00000000 00000000  ................
 1330 00000000 00000000 00000000 00000000  ................
 1340 00000000 00000000 00000000 00000000  ................
 1350 00000000 00000000 00000000 00000000  ................
 1360 00000000 00000000 00000000 00000000  ................
 1370 00000000 00000000 00000000 00000000  ................
 1380 00000000 00000000 00000000 00000000  ................
 1390 00000000 00000000 00000000 00000000  ................
 13a0 00000000 00000000 00000000 00000000  ................
 13b0 00000000 00000000 00000000 00000000  ................
 13c0 00000000 00000000 00000000 00000000  ................
 13d0 00000000 00000000 00000000 00000000  ................
 13e0 00000000 00000000 00000000 00000000  ................
 13f0 00000000 00000000 00000000 00000000  ................
 1400 00000000 00000000 00000000 00000000  ................
 1410 00000000 00000000 00000000 00000000  ................
 1420 00000000 00000000 00000000 00000000  ................
 1430 00000000 00000000 00000000 00000000  ................
 1440 00000000 00000000 00000000 00000000  ................
 1450 00000000 00000000 00000000 00000000  ................
 1460 00000000 00000000 00000000 00000000  ................
 1470 00000000 00000000 00000000 00000000  ................
 1480 00000000 00000000 00000000 00000000  ................
 1490 00000000 00000000 00000000 00000000  ................
 14a0 00000000 00000000 00000000 00000000  ................
 14b0 00000000 00000000 00000000 00000000  ................
 14c0 00000000 00000000 00000000 00000000  ................
 14d0 00000000 00000000 00000000 00000000  ................
 14e0 00000000 00000000 00000000 00000000  ................
 14f0 00000000 00000000 00000000 00000000  ................
 1500 00000000 00000000 00000000 00000000  ................
 1510 00000000 00000000 00000000 00000000  ................
 1520 00000000 00000000 00000000 00000000  ................
 1530 00000000 00000000 00000000 00000000  ................
 1540 00000000 00000000 00000000 00000000  ................
 1550 00000000 00000000 00000000 00000000  ................
 1560 00000000 00000000 00000000 00000000  ................
 1570 00000000 00000000 00000000 00000000  ................
 1580 00000000 00000000 00000000 00000000  ................
 1590 00000000 00000000 00000000 00000000  ................
 15a0 00000000 00000000 00000000 00000000  ................
 15b0 00000000 00000000 00000000 00000000  ................
 15c0 00000000 00000000 00000000 00000000  ................
 15d0 00000000 00000000 00000000 00000000  ................
 15e0 00000000 00000000 00000000 00000000  ................
 15f0 00000000 00000000 00000000 00000000  ................
 1600 00000000 00000000 00000000 00000000  ................
 1610 00000000 00000000 00000000 00000000  ................
 1620 00000000 00000000 00000000 00000000  ................
 1630 00000000 00000000 00000000 00000000  ................
 1640 00000000 00000000 00000000 00000000  ................
 1650 00000000 00000000 00000000 00000000  ................
 1660 00000000 00000000 00000000 00000000  ................
 1670 00000000 00000000 00000000 00000000  ................
 1680 00000000 00000000 00000000 00000000  ................
 1690 00000000 00000000 00000000 00000000  ................
 16a0 00000000 00000000 00000000 00000000  ................
 16b0 00000000 00000000 00000000 00000000  ................
 16c0 00000000 00000000 00000000 00000000  ................
 16d0 00000000 00000000 00000000 00000000  ................
 16e0 00000000 00000000 00000000 00000000  ................
 16f0 00000000 00000000 00000000 00000000  ................
 1700 00000000 00000000 00000000 00000000  ................
 1710 00000000 00000000 00000000 00000000  ................
 1720 00000000 00000000 00000000 00000000  ................
 1730 00000000 00000000 00000000 00000000  ................
 1740 00000000 00000000 00000000 00000000  ................
 1750 00000000 00000000 00000000 00000000  ................
 1760 00000000 00000000 00000000 00000000  ................
 1770 00000000 00000000 00000000 00000000  ................
 1780 00000000 00000000 00000000 00000000  ................
 1790 00000000 00000000 00000000 00000000  ................
 17a0 00000000 00000000 00000000 00000000  ................
 17b0 00000000 00000000 00000000 00000000  ................
 17c0 00000000 00000000 00000000 00000000  ................
 17d0 00000000 00000000 00000000 00000000  ................
 17e0 00000000 00000000 00000000 00000000  ................
 17f0 00000000 00000000 00000000 00000000  ................
 1800 00000000 00000000 00000000 00000000  ................
 1810 00000000 00000000 00000000 00000000  ................
 1820 00000000 00000000 00000000 00000000  ................
 1830 00000000 00000000 00000000 00000000  ................
 1840 00000000 00000000 00000000 00000000  ................
 1850 00000000 00000000 00000000 00000000  ................
 1860 00000000 00000000 00000000 00000000  ................
 1870 00000000 00000000 00000000 00000000  ................
 1880 00000000 00000000 00000000 00000000  ................
 1890 00000000 00000000 00000000 00000000  ................
 18a0 00000000 00000000 00000000 00000000  ................
 18b0 00000000 00000000 00000000 00000000  ................
 18c0 00000000 00000000 00000000 00000000  ................
 18d0 00000000 00000000 00000000 00000000  ................
 18e0 00000000 00000000 00000000 00000000  ................
 18f0 00000000 00000000 00000000 00000000  ................
 1900 00000000 00000000 00000000 00000000  ................
 1910 00000000 00000000 00000000 00000000  ................
 1920 00000000 00000000 00000000 00000000  ................
 1930 00000000 00000000 00000000 00000000  ................
 1940 00000000 00000000 00000000 00000000  ................
 1950 00000000 00000000 00000000 00000000  ................
 1960 00000000 00000000 00000000 00000000  ................
 1970 00000000 00000000 00000000 00000000  ................
 1980 00000000 00000000 00000000 00000000  ................
 1990 00000000 00000000 00000000 00000000  ................
 19a0 00000000 00000000 00000000 00000000  ................
 19b0 00000000 00000000 00000000 00000000  ................
 19c0 00000000 00000000 00000000 00000000  ................
 19d0 00000000 00000000 00000000 00000000  ................
 19e0 00000000 00000000 00000000 00000000  ................
 19f0 00000000 00000000 00000000 00000000  ................
 1a00 00000000 00000000 00000000 00000000  ................
 1a10 00000000 00000000 00000000 00000000  ................
 1a20 00000000 00000000 00000000 00000000  ................
 1a30 00000000 00000000 00000000 00000000  ................
 1a40 00000000 00000000 00000000 00000000  ................
 1a50 00000000 00000000 00000000 00000000  ................
 1a60 00000000 00000000 00000000 00000000  ................
 1a70 00000000 00000000 00000000 00000000  ................
 1a80 00000000 00000000 00000000 00000000  ................
 1a90 00000000 00000000 00000000 00000000  ................
 1aa0 00000000 00000000 00000000 00000000  ................
 1ab0 00000000 00000000 00000000 00000000  ................
 1ac0 00000000 00000000 00000000 00000000  ................
 1ad0 00000000 00000000 00000000 00000000  ................
 1ae0 00000000 00000000 00000000 00000000  ................
 1af0 00000000 00000000 00000000 00000000  ................
 1b00 00000000 00000000 00000000 00000000  ................
 1b10 00000000 00000000 00000000 00000000  ................
 1b20 00000000 00000000 00000000 00000000  ................
 1b30 00000000 00000000 00000000 00000000  ................
 1b40 00000000 00000000 00000000 00000000  ................
 1b50 00000000 00000000 00000000 00000000  ................
 1b60 00000000 00000000 00000000 00000000  ................
 1b70 00000000 00000000 00000000 00000000  ................
 1b80 00000000 00000000 00000000 00000000  ................
 1b90 00000000 00000000 00000000 00000000  ................
 1ba0 00000000 00000000 00000000 00000000  ................
 1bb0 00000000 00000000 00000000 00000000  ................
 1bc0 00000000 00000000 00000000 00000000  ................
 1bd0 00000000 00000000 00000000 00000000  ................
 1be0 00000000 00000000 00000000 00000000  ................
 1bf0 00000000 00000000 00000000 00000000  ................
 1c00 00000000 00000000 00000000 00000000  ................
 1c10 00000000 00000000 00000000 00000000  ................
 1c20 00000000 00000000 00000000 00000000  ................
 1c30 00000000 00000000 00000000 00000000  ................
 1c40 00000000 00000000 00000000 00000000  ................
 1c50 00000000 00000000 00000000 00000000  ................
 1c60 00000000 00000000 00000000 00000000  ................
 1c70 00000000 00000000 00000000 00000000  ................
 1c80 00000000 00000000 00000000 00000000  ................
 1c90 00000000 00000000 00000000 00000000  ................
 1ca0 00000000 00000000 00000000 00000000  ................
 1cb0 00000000 00000000 00000000 00000000  ................
 1cc0 00000000 00000000 00000000 00000000  ................
 1cd0 00000000 00000000 00000000 00000000  ................
 1ce0 00000000 00000000 00000000 00000000  ................
 1cf0 00000000 00000000 00000000 00000000  ................
 1d00 00000000 00000000 00000000 00000000  ................
 1d10 00000000 00000000 00000000 00000000  ................
 1d20 00000000 00000000 00000000 00000000  ................
 1d30 00000000 00000000 00000000 00000000  ................
 1d40 00000000 00000000 00000000 00000000  ................
 1d50 00000000 00000000 00000000 00000000  ................
 1d60 00000000 00000000 00000000 00000000  ................
 1d70 00000000 00000000 00000000 00000000  ................
 1d80 00000000 00000000 00000000 00000000  ................
 1d90 00000000 00000000 00000000 00000000  ................
 1da0 00000000 00000000 00000000 00000000  ................
 1db0 00000000 00000000 00000000 00000000  ................
 1dc0 00000000 00000000 00000000 00000000  ................
 1dd0 00000000 00000000 00000000 00000000  ................
 1de0 00000000 00000000 00000000 00000000  ................
 1df0 00000000 00000000 00000000 00000000  ................
 1e00 00000000 00000000 00000000 00000000  ................
 1e10 00000000 00000000 00000000 00000000  ................
 1e20 00000000 00000000 00000000 00000000  ................
 1e30 00000000 00000000 00000000 00000000  ................
 1e40 00000000 00000000 00000000 00000000  ................
 1e50 00000000 00000000 00000000 00000000  ................
 1e60 00000000 00000000 00000000 00000000  ................
 1e70 00000000 00000000 00000000 00000000  ................
 1e80 00000000 00000000 00000000 00000000  ................
 1e90 00000000 00000000 00000000 00000000  ................
 1ea0 00000000 00000000 00000000 00000000  ................
 1eb0 00000000 00000000 00000000 00000000  ................
 1ec0 00000000 00000000 00000000 00000000  ................
 1ed0 00000000 00000000 00000000 00000000  ................
 1ee0 00000000 00000000 00000000 00000000  ................
 1ef0 00000000 00000000 00000000 00000000  ................
 1f00 00000000 00000000 00000000 00000000  ................
 1f10 00000000 00000000 00000000 00000000  ................
 1f20 00000000 00000000 00000000 00000000  ................
 1f30 00000000 00000000 00000000 00000000  ................
 1f40 00000000 00000000 00000000 00000000  ................
 1f50 00000000 00000000 00000000 00000000  ................
 1f60 00000000 00000000 00000000 00000000  ................
 1f70 00000000 00000000 00000000 00000000  ................
 1f80 00000000 00000000 00000000 00000000  ................
 1f90 00000000 00000000 00000000 00000000  ................
 1fa0 00000000 00000000 00000000 00000000  ................
 1fb0 00000000 00000000 00000000 00000000  ................
 1fc0 00000000 00000000 00000000 00000000  ................
 1fd0 00000000 00000000 00000000 00000000  ................
 1fe0 00000000 00000000 00000000 00000000  ................
 1ff0 00000000 00000000 00000000 00000000  ................
 2000 00000000 00000000 00000000 00000000  ................
 2010 00000000 00000000 00000000 00000000  ................
 2020 00000000 00000000 00000000 00000000  ................
 2030 00000000 00000000 00000000 00000000  ................
 2040 00000000 00000000 00000000 00000000  ................
 2050 00000000 00000000 00000000 00000000  ................
 2060 00000000 00000000 00000000 00000000  ................
 2070 00000000 00000000 00000000 00000000  ................
 2080 00000000 00000000 00000000 00000000  ................
 2090 00000000 00000000 00000000 00000000  ................
 20a0 00000000 00000000 00000000 00000000  ................
 20b0 00000000 00000000 00000000 00000000  ................
 20c0 00000000 00000000 00000000 00000000  ................
 20d0 00000000 00000000 00000000 00000000  ................
 20e0 00000000 00000000 00000000 00000000  ................
 20f0 00000000 00000000 00000000 00000000  ................
 2100 00000000 00000000 00000000 00000000  ................
 2110 00000000 00000000 00000000 00000000  ................
 2120 00000000 00000000 00000000 00000000  ................
 2130 00000000 00000000 00000000 00000000  ................
 2140 00000000 00000000 00000000 00000000  ................
 2150 00000000 00000000 00000000 00000000  ................
 2160 00000000 00000000 00000000 00000000  ................
 2170 00000000 00000000 00000000 00000000  ................
 2180 00000000 00000000 00000000 00000000  ................
 2190 00000000 00000000 00000000 00000000  ................
 21a0 00000000 00000000 00000000 00000000  ................
 21b0 00000000 00000000 00000000 00000000  ................
 21c0 00000000 00000000 00000000 00000000  ................
 21d0 00000000 00000000 00000000 00000000  ................
 21e0 00000000 00000000 00000000 00000000  ................
 21f0 00000000 00000000 00000000 00000000  ................
 2200 00000000 00000000 00000000 00000000  ................
 2210 00000000 00000000 00000000 00000000  ................
 2220 00000000 00000000 00000000 00000000  ................
 2230 00000000 00000000 00000000 00000000  ................
 2240 00000000 00000000 00000000 00000000  ................
 2250 00000000 00000000 00000000 00000000  ................
 2260 00000000 00000000 00000000 00000000  ................
 2270 00000000 00000000 00000000 00000000  ................
 2280 00000000 00000000 00000000 00000000  ................
 2290 00000000 00000000 00000000 00000000  ................
 22a0 00000000 00000000 00000000 00000000  ................
 22b0 00000000 00000000 00000000 00000000  ................
 22c0 00000000 00000000 00000000 00000000  ................
 22d0 00000000 00000000 00000000 00000000  ................
 22e0 00000000 00000000 00000000 00000000  ................
 22f0 00000000 00000000 00000000 00000000  ................
 2300 00000000 00000000 00000000 00000000  ................
 2310 00000000 00000000 00000000 00000000  ................
 2320 00000000 00000000 00000000 00000000  ................
 2330 00000000 00000000 00000000 00000000  ................
 2340 00000000 00000000 00000000 00000000  ................
 2350 00000000 00000000 00000000 00000000  ................
 2360 00000000 00000000 00000000 00000000  ................
 2370 00000000 00000000 00000000 00000000  ................
 2380 00000000 00000000 00000000 00000000  ................
 2390 00000000 00000000 00000000 00000000  ................
 23a0 00000000 00000000 00000000 00000000  ................
 23b0 00000000 00000000 00000000 00000000  ................
 23c0 00000000 00000000 00000000 00000000  ................
 23d0 00000000 00000000 00000000 00000000  ................
 23e0 00000000 00000000 00000000 00000000  ................
 23f0 00000000 00000000 00000000 00000000  ................
 2400 00000000 00000000 00000000 00000000  ................
 2410 00000000 00000000 00000000 00000000  ................
 2420 00000000 00000000 00000000 00000000  ................
 2430 00000000 00000000 00000000 00000000  ................
 2440 00000000 00000000 00000000 00000000  ................
 2450 00000000 00000000 00000000 00000000  ................
 2460 00000000 00000000 00000000 00000000  ................
 2470 00000000 00000000 00000000 00000000  ................
 2480 00000000 00000000 00000000 00000000  ................
 2490 00000000 00000000 00000000 00000000  ................
 24a0 00000000 00000000 00000000 00000000  ................
 24b0 00000000 00000000 00000000 00000000  ................
 24c0 00000000 00000000 00000000 00000000  ................
 24d0 00000000 00000000 00000000 00000000  ................
 24e0 00000000 00000000 00000000 00000000  ................
 24f0 00000000 00000000 00000000 00000000  ................
 2500 00000000 00000000 00000000 00000000  ................
 2510 00000000 00000000 00000000 00000000  ................
 2520 00000000 00000000 00000000 00000000  ................
 2530 00000000 00000000 00000000 00000000  ................
 2540 00000000 00000000 00000000 00000000  ................
 2550 00000000 00000000 00000000 00000000  ................
 2560 00000000 00000000 00000000 00000000  ................
 2570 00000000 00000000 00000000 00000000  ................
 2580 00000000 00000000 00000000 00000000  ................
 2590 00000000 00000000 00000000 00000000  ................
 25a0 00000000 00000000 00000000 00000000  ................
 25b0 00000000 00000000 00000000 00000000  ................
 25c0 00000000 00000000 00000000 00000000  ................
 25d0 00000000 00000000 00000000 00000000  ................
 25e0 00000000 00000000 00000000 00000000  ................
 25f0 00000000 00000000 00000000 00000000  ................
 2600 00000000 00000000 00000000 00000000  ................
 2610 00000000 00000000 00000000 00000000  ................
 2620 00000000 00000000 00000000 00000000  ................
 2630 00000000 00000000 00000000 00000000  ................
 2640 00000000 00000000 00000000 00000000  ................
 2650 00000000 00000000 00000000 00000000  ................
 2660 00000000 00000000 00000000 00000000  ................
 2670 00000000 00000000 00000000 00000000  ................
 2680 00000000 00000000 00000000 00000000  ................
 2690 00000000 00000000 00000000 00000000  ................
 26a0 00000000 00000000 00000000 00000000  ................
 26b0 00000000 00000000 00000000 00000000  ................
 26c0 00000000 00000000 00000000 00000000  ................
 26d0 00000000 00000000 00000000 00000000  ................
 26e0 00000000 00000000 00000000 00000000  ................
 26f0 00000000 00000000 00000000 00000000  ................
 2700 00000000 00000000 00000000 00000000  ................
 2710 00000000 00000000 00000000 00000000  ................
 2720 00000000 00000000 00000000 00000000  ................
 2730 00000000 00000000 00000000 00000000  ................
 2740 00000000 00000000 00000000 00000000  ................
 2750 00000000 00000000 00000000 00000000  ................
 2760 00000000 00000000 00000000 00000000  ................
 2770 00000000 00000000 00000000 00000000  ................
 2780 00000000 00000000 00000000 00000000  ................
 2790 00000000 00000000 00000000 00000000  ................
 27a0 00000000 00000000 00000000 00000000  ................
 27b0 00000000 00000000 00000000 00000000  ................
 27c0 00000000 00000000 00000000 00000000  ................
 27d0 00000000 00000000 00000000 00000000  ................
 27e0 00000000 00000000 00000000 00000000  ................
 27f0 00000000 00000000 00000000 00000000  ................
 2800 00000000 00000000 00000000 00000000  ................
 2810 00000000 00000000 00000000 00000000  ................
 2820 00000000 00000000 00000000 00000000  ................
 2830 00000000 00000000 00000000 00000000  ................
 2840 00000000 00000000 00000000 00000000  ................
 2850 00000000 00000000 00000000 00000000  ................
 2860 00000000 00000000 00000000 00000000  ................
 2870 00000000 00000000 00000000 00000000  ................
 2880 00000000 00000000 00000000 00000000  ................
 2890 00000000 00000000 00000000 00000000  ................
 28a0 00000000 00000000 00000000 00000000  ................
 28b0 00000000 00000000 00000000 00000000  ................
 28c0 00000000 00000000 00000000 00000000  ................
 28d0 00000000 00000000 00000000 00000000  ................
 28e0 00000000 00000000 00000000 00000000  ................
 28f0 00000000 00000000 00000000 00000000  ................
 2900 00000000 00000000 00000000 00000000  ................
 2910 00000000 00000000 00000000 00000000  ................
 2920 00000000 00000000 00000000 00000000  ................
 2930 00000000 00000000 00000000 00000000  ................
 2940 00000000 00000000 00000000 00000000  ................
 2950 00000000 00000000 00000000 00000000  ................
 2960 00000000 00000000 00000000 00000000  ................
 2970 00000000 00000000 00000000 00000000  ................
 2980 00000000 00000000 00000000 00000000  ................
 2990 00000000 00000000 00000000 00000000  ................
 29a0 00000000 00000000 00000000 00000000  ................
 29b0 00000000 00000000 00000000 00000000  ................
 29c0 00000000 00000000 00000000 00000000  ................
 29d0 00000000 00000000 00000000 00000000  ................
 29e0 00000000 00000000 00000000 00000000  ................
 29f0 00000000 00000000 00000000 00000000  ................
 2a00 00000000 00000000 00000000 00000000  ................
 2a10 00000000 00000000 00000000 00000000  ................
 2a20 00000000 00000000 00000000 00000000  ................
 2a30 00000000 00000000 00000000 00000000  ................
 2a40 00000000 00000000 00000000 00000000  ................
 2a50 00000000 00000000 00000000 00000000  ................
 2a60 00000000 00000000 00000000 00000000  ................
 2a70 00000000 00000000 00000000 00000000  ................
 2a80 00000000 00000000 00000000 00000000  ................
 2a90 00000000 00000000 00000000 00000000  ................
 2aa0 00000000 00000000 00000000 00000000  ................
 2ab0 00000000 00000000 00000000 00000000  ................
 2ac0 00000000 00000000 00000000 00000000  ................
 2ad0 00000000 00000000 00000000 00000000  ................
 2ae0 00000000 00000000 00000000 00000000  ................
 2af0 00000000 00000000 00000000 00000000  ................
 2b00 00000000 00000000 00000000 00000000  ................
 2b10 00000000 00000000 00000000 00000000  ................
 2b20 00000000 00000000 00000000 00000000  ................
 2b30 00000000 00000000 00000000 00000000  ................
 2b40 00000000 00000000 00000000 00000000  ................
 2b50 00000000 00000000 00000000 00000000  ................
 2b60 00000000 00000000 00000000 00000000  ................
 2b70 00000000 00000000 00000000 00000000  ................
 2b80 00000000 00000000 00000000 00000000  ................
 2b90 00000000 00000000 00000000 00000000  ................
 2ba0 00000000 00000000 00000000 00000000  ................
 2bb0 00000000 00000000 00000000 00000000  ................
 2bc0 00000000 00000000 00000000 00000000  ................
 2bd0 00000000 00000000 00000000 00000000  ................
 2be0 00000000 00000000 00000000 00000000  ................
 2bf0 00000000 00000000 00000000 00000000  ................
 2c00 00000000 00000000 00000000 00000000  ................
 2c10 00000000 00000000 00000000 00000000  ................
 2c20 00000000 00000000 00000000 00000000  ................
 2c30 00000000 00000000 00000000 00000000  ................
 2c40 00000000 00000000 00000000 00000000  ................
 2c50 00000000 00000000 00000000 00000000  ................
 2c60 00000000 00000000 00000000 00000000  ................
 2c70 00000000 00000000 00000000 00000000  ................
 2c80 00000000 00000000 00000000 00000000  ................
 2c90 00000000 00000000 00000000 00000000  ................
 2ca0 00000000 00000000 00000000 00000000  ................
 2cb0 00000000 00000000 00000000 00000000  ................
 2cc0 00000000 00000000 00000000 00000000  ................
 2cd0 00000000 00000000 00000000 00000000  ................
 2ce0 00000000 00000000 00000000 00000000  ................
 2cf0 00000000 00000000 00000000 00000000  ................
 2d00 00000000 00000000 00000000 00000000  ................
 2d10 00000000 00000000 00000000 00000000  ................
 2d20 00000000 00000000 00000000 00000000  ................
 2d30 00000000 00000000 00000000 00000000  ................
 2d40 00000000 00000000 00000000 00000000  ................
 2d50 00000000 00000000 00000000 00000000  ................
 2d60 00000000 00000000 00000000 00000000  ................
 2d70 00000000 00000000 00000000 00000000  ................
 2d80 00000000 00000000 00000000 00000000  ................
 2d90 00000000 00000000 00000000 00000000  ................
 2da0 00000000 00000000 00000000 00000000  ................
 2db0 00000000 00000000 00000000 00000000  ................
 2dc0 00000000 00000000 00000000 00000000  ................
 2dd0 00000000 00000000 00000000 00000000  ................
 2de0 00000000 00000000 00000000 00000000  ................
 2df0 00000000 00000000 00000000 00000000  ................
 2e00 00000000 00000000 00000000 00000000  ................
 2e10 00000000 00000000 00000000 00000000  ................
 2e20 00000000 00000000 00000000 00000000  ................
 2e30 00000000 00000000 00000000 00000000  ................
 2e40 00000000 00000000 00000000 00000000  ................
 2e50 00000000 00000000 00000000 00000000  ................
 2e60 00000000 00000000 00000000 00000000  ................
 2e70 00000000 00000000 00000000 00000000  ................
 2e80 00000000 00000000 00000000 00000000  ................
 2e90 00000000 00000000 00000000 00000000  ................
 2ea0 00000000 00000000 00000000 00000000  ................
 2eb0 00000000 00000000 00000000 00000000  ................
 2ec0 00000000 00000000 00000000 00000000  ................
 2ed0 00000000 00000000 00000000 00000000  ................
 2ee0 00000000 00000000 00000000 00000000  ................
 2ef0 00000000 00000000 00000000 00000000  ................
 2f00 00000000 00000000 00000000 00000000  ................
 2f10 00000000 00000000 00000000 00000000  ................
 2f20 00000000 00000000 00000000 00000000  ................
 2f30 00000000 00000000 00000000 00000000  ................
 2f40 00000000 00000000 00000000 00000000  ................
 2f50 00000000 00000000 00000000 00000000  ................
 2f60 00000000 00000000 00000000 00000000  ................
 2f70 00000000 00000000 00000000 00000000  ................
 2f80 00000000 00000000 00000000 00000000  ................
 2f90 00000000 00000000 00000000 00000000  ................
 2fa0 00000000 00000000 00000000 00000000  ................
 2fb0 00000000 00000000 00000000 00000000  ................
 2fc0 00000000 00000000 00000000 00000000  ................
 2fd0 00000000 00000000 00000000 00000000  ................
 2fe0 00000000 00000000 00000000 00000000  ................
 2ff0 00000000 00000000 00000000 00000000  ................
Contents of section .comment:
 0000 00474343 3a202841 726d2047 4e552054  .GCC: (Arm GNU T
 0010 6f6f6c63 6861696e 2031312e 332e5265  oolchain 11.3.Re
 0020 6c312920 31312e33 2e312032 30323230  l1) 11.3.1 20220
 0030 37313200                             712.            
Contents of section .ARM.attributes:
 0000 41310000 00616561 62690001 27000000  A1...aeabi..'...
 0010 0537452d 4d00060d 074d0902 0a081204  .7E-M....M......
 0020 14011501 17031801 19011a01 1c011e02  ................
 0030 2201                                 ".              

Disassembly of section .text.rx_queue_transfer:

00000000 <rx_queue_transfer>:
   0:	b5f8      	push	{r3, r4, r5, r6, r7, lr}
   2:	4c14      	ldr	r4, [pc, #80]	; (54 <rx_queue_transfer+0x54>)
   4:	f04f 25e0 	mov.w	r5, #3758153728	; 0xe000e000
   8:	4e13      	ldr	r6, [pc, #76]	; (58 <rx_queue_transfer+0x58>)
   a:	f44f 3200 	mov.w	r2, #131072	; 0x20000
   e:	eb04 2440 	add.w	r4, r4, r0, lsl #9
  12:	4f12      	ldr	r7, [pc, #72]	; (5c <rx_queue_transfer+0x5c>)
  14:	eb06 1640 	add.w	r6, r6, r0, lsl #5
  18:	4603      	mov	r3, r0
  1a:	f8c5 218c 	str.w	r2, [r5, #396]	; 0x18c
  1e:	4621      	mov	r1, r4
  20:	883a      	ldrh	r2, [r7, #0]
  22:	4630      	mov	r0, r6
  24:	f7ff fffe 	bl	0 <usb_prepare_transfer>
  28:	883b      	ldrh	r3, [r7, #0]
  2a:	4423      	add	r3, r4
  2c:	f3bf 8f4f 	dsb	sy
  30:	f8c5 4f5c 	str.w	r4, [r5, #3932]	; 0xf5c
  34:	3420      	adds	r4, #32
  36:	42a3      	cmp	r3, r4
  38:	d8fa      	bhi.n	30 <rx_queue_transfer+0x30>
  3a:	f3bf 8f4f 	dsb	sy
  3e:	f3bf 8f6f 	isb	sy
  42:	2004      	movs	r0, #4
  44:	4631      	mov	r1, r6
  46:	f7ff fffe 	bl	0 <usb_receive>
  4a:	f44f 3300 	mov.w	r3, #131072	; 0x20000
  4e:	f8c5 310c 	str.w	r3, [r5, #268]	; 0x10c
  52:	bdf8      	pop	{r3, r4, r5, r6, r7, pc}
  54:	00000000 	.word	0x00000000
  58:	00000000 	.word	0x00000000
  5c:	00000000 	.word	0x00000000

Disassembly of section .text.rx_event:

00000000 <rx_event>:
   0:	4b24      	ldr	r3, [pc, #144]	; (94 <rx_event+0x94>)
   2:	e92d 41f0 	stmdb	sp!, {r4, r5, r6, r7, r8, lr}
   6:	881c      	ldrh	r4, [r3, #0]
   8:	6843      	ldr	r3, [r0, #4]
   a:	69c5      	ldr	r5, [r0, #28]
   c:	f3c3 430e 	ubfx	r3, r3, #16, #15
  10:	1ae4      	subs	r4, r4, r3
  12:	2c00      	cmp	r4, #0
  14:	dd24      	ble.n	60 <rx_event+0x60>
  16:	4920      	ldr	r1, [pc, #128]	; (98 <rx_event+0x98>)
  18:	4820      	ldr	r0, [pc, #128]	; (9c <rx_event+0x9c>)
  1a:	780a      	ldrb	r2, [r1, #0]
  1c:	7800      	ldrb	r0, [r0, #0]
  1e:	b2d3      	uxtb	r3, r2
  20:	4e1f      	ldr	r6, [pc, #124]	; (a0 <rx_event+0xa0>)
  22:	4282      	cmp	r2, r0
  24:	481f      	ldr	r0, [pc, #124]	; (a4 <rx_event+0xa4>)
  26:	d007      	beq.n	38 <rx_event+0x38>
  28:	f810 8003 	ldrb.w	r8, [r0, r3]
  2c:	f836 7018 	ldrh.w	r7, [r6, r8, lsl #1]
  30:	f5c7 7200 	rsb	r2, r7, #512	; 0x200
  34:	4294      	cmp	r4, r2
  36:	d918      	bls.n	6a <rx_event+0x6a>
  38:	3301      	adds	r3, #1
  3a:	2200      	movs	r2, #0
  3c:	f826 4015 	strh.w	r4, [r6, r5, lsl #1]
  40:	2b08      	cmp	r3, #8
  42:	4e19      	ldr	r6, [pc, #100]	; (a8 <rx_event+0xa8>)
  44:	bf88      	it	hi
  46:	4613      	movhi	r3, r2
  48:	f826 2015 	strh.w	r2, [r6, r5, lsl #1]
  4c:	bf98      	it	ls
  4e:	b2da      	uxtbls	r2, r3
  50:	54c5      	strb	r5, [r0, r3]
  52:	4b16      	ldr	r3, [pc, #88]	; (ac <rx_event+0xac>)
  54:	700a      	strb	r2, [r1, #0]
  56:	681a      	ldr	r2, [r3, #0]
  58:	4414      	add	r4, r2
  5a:	601c      	str	r4, [r3, #0]
  5c:	e8bd 81f0 	ldmia.w	sp!, {r4, r5, r6, r7, r8, pc}
  60:	4628      	mov	r0, r5
  62:	e8bd 41f0 	ldmia.w	sp!, {r4, r5, r6, r7, r8, lr}
  66:	f7ff bffe 	b.w	0 <rx_event>
  6a:	eb07 2048 	add.w	r0, r7, r8, lsl #9
  6e:	4910      	ldr	r1, [pc, #64]	; (b0 <rx_event+0xb0>)
  70:	4622      	mov	r2, r4
  72:	4427      	add	r7, r4
  74:	4408      	add	r0, r1
  76:	eb01 2145 	add.w	r1, r1, r5, lsl #9
  7a:	f7ff fffe 	bl	0 <memcpy>
  7e:	4a0b      	ldr	r2, [pc, #44]	; (ac <rx_event+0xac>)
  80:	4628      	mov	r0, r5
  82:	f826 7018 	strh.w	r7, [r6, r8, lsl #1]
  86:	6813      	ldr	r3, [r2, #0]
  88:	4423      	add	r3, r4
  8a:	e8bd 41f0 	ldmia.w	sp!, {r4, r5, r6, r7, r8, lr}
  8e:	6013      	str	r3, [r2, #0]
  90:	f7ff bffe 	b.w	0 <rx_event>
  94:	00000000 	.word	0x00000000
  98:	00000000 	.word	0x00000000
  9c:	00000000 	.word	0x00000000
  a0:	00000000 	.word	0x00000000
  a4:	00000000 	.word	0x00000000
  a8:	00000000 	.word	0x00000000
  ac:	00000000 	.word	0x00000000
  b0:	00000000 	.word	0x00000000

Disassembly of section .text.usb_serial2_flush_callback:

00000000 <usb_serial2_flush_callback>:
   0:	4b1d      	ldr	r3, [pc, #116]	; (78 <usb_serial2_flush_callback+0x78>)
   2:	781a      	ldrb	r2, [r3, #0]
   4:	2a00      	cmp	r2, #0
   6:	d136      	bne.n	76 <usb_serial2_flush_callback+0x76>
   8:	f002 03ff 	and.w	r3, r2, #255	; 0xff
   c:	4a1b      	ldr	r2, [pc, #108]	; (7c <usb_serial2_flush_callback+0x7c>)
   e:	7812      	ldrb	r2, [r2, #0]
  10:	b38a      	cbz	r2, 76 <usb_serial2_flush_callback+0x76>
  12:	e92d 41f0 	stmdb	sp!, {r4, r5, r6, r7, r8, lr}
  16:	4d1a      	ldr	r5, [pc, #104]	; (80 <usb_serial2_flush_callback+0x80>)
  18:	882a      	ldrh	r2, [r5, #0]
  1a:	b352      	cbz	r2, 72 <usb_serial2_flush_callback+0x72>
  1c:	4e19      	ldr	r6, [pc, #100]	; (84 <usb_serial2_flush_callback+0x84>)
  1e:	f5c2 6800 	rsb	r8, r2, #2048	; 0x800
  22:	4f19      	ldr	r7, [pc, #100]	; (88 <usb_serial2_flush_callback+0x88>)
  24:	7832      	ldrb	r2, [r6, #0]
  26:	4c19      	ldr	r4, [pc, #100]	; (8c <usb_serial2_flush_callback+0x8c>)
  28:	eb07 1742 	add.w	r7, r7, r2, lsl #5
  2c:	eb04 24c2 	add.w	r4, r4, r2, lsl #11
  30:	4642      	mov	r2, r8
  32:	4638      	mov	r0, r7
  34:	4621      	mov	r1, r4
  36:	f7ff fffe 	bl	0 <usb_prepare_transfer>
  3a:	eb04 0208 	add.w	r2, r4, r8
  3e:	f3bf 8f4f 	dsb	sy
  42:	f04f 23e0 	mov.w	r3, #3758153728	; 0xe000e000
  46:	f8c3 4f70 	str.w	r4, [r3, #3952]	; 0xf70
  4a:	3420      	adds	r4, #32
  4c:	42a2      	cmp	r2, r4
  4e:	d8fa      	bhi.n	46 <usb_serial2_flush_callback+0x46>
  50:	f3bf 8f4f 	dsb	sy
  54:	f3bf 8f6f 	isb	sy
  58:	2004      	movs	r0, #4
  5a:	4639      	mov	r1, r7
  5c:	f7ff fffe 	bl	0 <usb_transmit>
  60:	7833      	ldrb	r3, [r6, #0]
  62:	3301      	adds	r3, #1
  64:	b2db      	uxtb	r3, r3
  66:	2b03      	cmp	r3, #3
  68:	bf88      	it	hi
  6a:	2300      	movhi	r3, #0
  6c:	7033      	strb	r3, [r6, #0]
  6e:	2300      	movs	r3, #0
  70:	802b      	strh	r3, [r5, #0]
  72:	e8bd 81f0 	ldmia.w	sp!, {r4, r5, r6, r7, r8, pc}
  76:	4770      	bx	lr
  78:	00000000 	.word	0x00000000
  7c:	00000000 	.word	0x00000000
  80:	00000000 	.word	0x00000000
  84:	00000000 	.word	0x00000000
  88:	00000000 	.word	0x00000000
  8c:	00001000 	.word	0x00001000

Disassembly of section .text.usb_serial2_write.part.0:

00000000 <usb_serial2_write.part.0>:
   0:	e92d 4ff0 	stmdb	sp!, {r4, r5, r6, r7, r8, r9, sl, fp, lr}
   4:	b085      	sub	sp, #20
   6:	468b      	mov	fp, r1
   8:	9002      	str	r0, [sp, #8]
   a:	2900      	cmp	r1, #0
   c:	f000 80ad 	beq.w	16a <usb_serial2_write.part.0+0x16a>
  10:	2300      	movs	r3, #0
  12:	f8df 8170 	ldr.w	r8, [pc, #368]	; 184 <usb_serial2_write.part.0+0x184>
  16:	f8df 9170 	ldr.w	r9, [pc, #368]	; 188 <usb_serial2_write.part.0+0x188>
  1a:	9301      	str	r3, [sp, #4]
  1c:	4e54      	ldr	r6, [pc, #336]	; (170 <usb_serial2_write.part.0+0x170>)
  1e:	f8b8 3000 	ldrh.w	r3, [r8]
  22:	f8df a168 	ldr.w	sl, [pc, #360]	; 18c <usb_serial2_write.part.0+0x18c>
  26:	4a53      	ldr	r2, [pc, #332]	; (174 <usb_serial2_write.part.0+0x174>)
  28:	7811      	ldrb	r1, [r2, #0]
  2a:	4a53      	ldr	r2, [pc, #332]	; (178 <usb_serial2_write.part.0+0x178>)
  2c:	eb02 1741 	add.w	r7, r2, r1, lsl #5
  30:	2b00      	cmp	r3, #0
  32:	f040 8096 	bne.w	162 <usb_serial2_write.part.0+0x162>
  36:	461d      	mov	r5, r3
  38:	461c      	mov	r4, r3
  3a:	e014      	b.n	66 <usb_serial2_write.part.0+0x66>
  3c:	f899 3000 	ldrb.w	r3, [r9]
  40:	b904      	cbnz	r4, 44 <usb_serial2_write.part.0+0x44>
  42:	6835      	ldr	r5, [r6, #0]
  44:	2401      	movs	r4, #1
  46:	2b00      	cmp	r3, #0
  48:	d17a      	bne.n	140 <usb_serial2_write.part.0+0x140>
  4a:	6833      	ldr	r3, [r6, #0]
  4c:	1b5b      	subs	r3, r3, r5
  4e:	2b78      	cmp	r3, #120	; 0x78
  50:	d87a      	bhi.n	148 <usb_serial2_write.part.0+0x148>
  52:	f89a 3000 	ldrb.w	r3, [sl]
  56:	2b00      	cmp	r3, #0
  58:	d072      	beq.n	140 <usb_serial2_write.part.0+0x140>
  5a:	f7ff fffe 	bl	0 <yield>
  5e:	f8b8 3000 	ldrh.w	r3, [r8]
  62:	2b00      	cmp	r3, #0
  64:	d177      	bne.n	156 <usb_serial2_write.part.0+0x156>
  66:	4638      	mov	r0, r7
  68:	f7ff fffe 	bl	0 <usb_transfer_status>
  6c:	f010 0080 	ands.w	r0, r0, #128	; 0x80
  70:	d1e4      	bne.n	3c <usb_serial2_write.part.0+0x3c>
  72:	f44f 6200 	mov.w	r2, #2048	; 0x800
  76:	4b3f      	ldr	r3, [pc, #252]	; (174 <usb_serial2_write.part.0+0x174>)
  78:	f889 0000 	strb.w	r0, [r9]
  7c:	7819      	ldrb	r1, [r3, #0]
  7e:	4613      	mov	r3, r2
  80:	f8a8 2000 	strh.w	r2, [r8]
  84:	eb00 20c1 	add.w	r0, r0, r1, lsl #11
  88:	4c3c      	ldr	r4, [pc, #240]	; (17c <usb_serial2_write.part.0+0x17c>)
  8a:	4593      	cmp	fp, r2
  8c:	ea4f 21c1 	mov.w	r1, r1, lsl #11
  90:	4420      	add	r0, r4
  92:	d213      	bcs.n	bc <usb_serial2_write.part.0+0xbc>
  94:	465a      	mov	r2, fp
  96:	9902      	ldr	r1, [sp, #8]
  98:	9303      	str	r3, [sp, #12]
  9a:	f7ff fffe 	bl	0 <memcpy>
  9e:	9b03      	ldr	r3, [sp, #12]
  a0:	9801      	ldr	r0, [sp, #4]
  a2:	eba3 030b 	sub.w	r3, r3, fp
  a6:	4a36      	ldr	r2, [pc, #216]	; (180 <usb_serial2_write.part.0+0x180>)
  a8:	4458      	add	r0, fp
  aa:	f8a8 3000 	strh.w	r3, [r8]
  ae:	f04f 4340 	mov.w	r3, #3221225472	; 0xc0000000
  b2:	f8c2 308c 	str.w	r3, [r2, #140]	; 0x8c
  b6:	b005      	add	sp, #20
  b8:	e8bd 8ff0 	ldmia.w	sp!, {r4, r5, r6, r7, r8, r9, sl, fp, pc}
  bc:	190c      	adds	r4, r1, r4
  be:	9902      	ldr	r1, [sp, #8]
  c0:	f7ff fffe 	bl	0 <memcpy>
  c4:	2300      	movs	r3, #0
  c6:	f44f 6200 	mov.w	r2, #2048	; 0x800
  ca:	4621      	mov	r1, r4
  cc:	4638      	mov	r0, r7
  ce:	f7ff fffe 	bl	0 <usb_prepare_transfer>
  d2:	f3bf 8f4f 	dsb	sy
  d6:	f104 0220 	add.w	r2, r4, #32
  da:	f504 6300 	add.w	r3, r4, #2048	; 0x800
  de:	4293      	cmp	r3, r2
  e0:	bf34      	ite	cc
  e2:	2301      	movcc	r3, #1
  e4:	2340      	movcs	r3, #64	; 0x40
  e6:	f04f 22e0 	mov.w	r2, #3758153728	; 0xe000e000
  ea:	eb04 1343 	add.w	r3, r4, r3, lsl #5
  ee:	f8c2 4f70 	str.w	r4, [r2, #3952]	; 0xf70
  f2:	3420      	adds	r4, #32
  f4:	42a3      	cmp	r3, r4
  f6:	d1fa      	bne.n	ee <usb_serial2_write.part.0+0xee>
  f8:	f3bf 8f4f 	dsb	sy
  fc:	f3bf 8f6f 	isb	sy
 100:	2004      	movs	r0, #4
 102:	4639      	mov	r1, r7
 104:	f7ff fffe 	bl	0 <usb_transmit>
 108:	4a1a      	ldr	r2, [pc, #104]	; (174 <usb_serial2_write.part.0+0x174>)
 10a:	491d      	ldr	r1, [pc, #116]	; (180 <usb_serial2_write.part.0+0x180>)
 10c:	7813      	ldrb	r3, [r2, #0]
 10e:	3301      	adds	r3, #1
 110:	b2db      	uxtb	r3, r3
 112:	2b03      	cmp	r3, #3
 114:	bf84      	itt	hi
 116:	2300      	movhi	r3, #0
 118:	4a16      	ldrhi	r2, [pc, #88]	; (174 <usb_serial2_write.part.0+0x174>)
 11a:	7013      	strb	r3, [r2, #0]
 11c:	f8b8 2000 	ldrh.w	r2, [r8]
 120:	9b01      	ldr	r3, [sp, #4]
 122:	ebbb 0b02 	subs.w	fp, fp, r2
 126:	4413      	add	r3, r2
 128:	9301      	str	r3, [sp, #4]
 12a:	9b02      	ldr	r3, [sp, #8]
 12c:	4413      	add	r3, r2
 12e:	9302      	str	r3, [sp, #8]
 130:	f04f 0300 	mov.w	r3, #0
 134:	f8a8 3000 	strh.w	r3, [r8]
 138:	f8c1 308c 	str.w	r3, [r1, #140]	; 0x8c
 13c:	f47f af73 	bne.w	26 <usb_serial2_write.part.0+0x26>
 140:	9801      	ldr	r0, [sp, #4]
 142:	b005      	add	sp, #20
 144:	e8bd 8ff0 	ldmia.w	sp!, {r4, r5, r6, r7, r8, r9, sl, fp, pc}
 148:	2301      	movs	r3, #1
 14a:	9801      	ldr	r0, [sp, #4]
 14c:	f889 3000 	strb.w	r3, [r9]
 150:	b005      	add	sp, #20
 152:	e8bd 8ff0 	ldmia.w	sp!, {r4, r5, r6, r7, r8, r9, sl, fp, pc}
 156:	4a07      	ldr	r2, [pc, #28]	; (174 <usb_serial2_write.part.0+0x174>)
 158:	f5c3 6000 	rsb	r0, r3, #2048	; 0x800
 15c:	7811      	ldrb	r1, [r2, #0]
 15e:	461a      	mov	r2, r3
 160:	e790      	b.n	84 <usb_serial2_write.part.0+0x84>
 162:	461a      	mov	r2, r3
 164:	f5c3 6000 	rsb	r0, r3, #2048	; 0x800
 168:	e78c      	b.n	84 <usb_serial2_write.part.0+0x84>
 16a:	4608      	mov	r0, r1
 16c:	e7e9      	b.n	142 <usb_serial2_write.part.0+0x142>
 16e:	bf00      	nop
 170:	00000000 	.word	0x00000000
 174:	00000000 	.word	0x00000000
 178:	00000000 	.word	0x00000000
 17c:	00001000 	.word	0x00001000
 180:	402e0000 	.word	0x402e0000
 184:	00000000 	.word	0x00000000
 188:	00000000 	.word	0x00000000
 18c:	00000000 	.word	0x00000000

Disassembly of section .text.usb_serial2_configure:

00000000 <usb_serial2_configure>:
   0:	4b2d      	ldr	r3, [pc, #180]	; (b8 <usb_serial2_configure+0xb8>)
   2:	2100      	movs	r1, #0
   4:	2280      	movs	r2, #128	; 0x80
   6:	482d      	ldr	r0, [pc, #180]	; (bc <usb_serial2_configure+0xbc>)
   8:	b570      	push	{r4, r5, r6, lr}
   a:	781b      	ldrb	r3, [r3, #0]
   c:	2400      	movs	r4, #0
   e:	4d2c      	ldr	r5, [pc, #176]	; (c0 <usb_serial2_configure+0xc0>)
  10:	428b      	cmp	r3, r1
  12:	4e2c      	ldr	r6, [pc, #176]	; (c4 <usb_serial2_configure+0xc4>)
  14:	bf0c      	ite	eq
  16:	2340      	moveq	r3, #64	; 0x40
  18:	f44f 7300 	movne.w	r3, #512	; 0x200
  1c:	802b      	strh	r3, [r5, #0]
  1e:	8033      	strh	r3, [r6, #0]
  20:	f7ff fffe 	bl	0 <memset>
  24:	4a28      	ldr	r2, [pc, #160]	; (c8 <usb_serial2_configure+0xc8>)
  26:	4621      	mov	r1, r4
  28:	4b28      	ldr	r3, [pc, #160]	; (cc <usb_serial2_configure+0xcc>)
  2a:	7014      	strb	r4, [r2, #0]
  2c:	f44f 7280 	mov.w	r2, #256	; 0x100
  30:	4827      	ldr	r0, [pc, #156]	; (d0 <usb_serial2_configure+0xd0>)
  32:	801c      	strh	r4, [r3, #0]
  34:	f7ff fffe 	bl	0 <memset>
  38:	4a26      	ldr	r2, [pc, #152]	; (d4 <usb_serial2_configure+0xd4>)
  3a:	2110      	movs	r1, #16
  3c:	4b26      	ldr	r3, [pc, #152]	; (d8 <usb_serial2_configure+0xd8>)
  3e:	2003      	movs	r0, #3
  40:	e9c2 4400 	strd	r4, r4, [r2]
  44:	e9c2 4402 	strd	r4, r4, [r2, #8]
  48:	4a24      	ldr	r2, [pc, #144]	; (dc <usb_serial2_configure+0xdc>)
  4a:	e9c3 4400 	strd	r4, r4, [r3]
  4e:	7014      	strb	r4, [r2, #0]
  50:	4a23      	ldr	r2, [pc, #140]	; (e0 <usb_serial2_configure+0xe0>)
  52:	e9c3 4402 	strd	r4, r4, [r3, #8]
  56:	4b23      	ldr	r3, [pc, #140]	; (e4 <usb_serial2_configure+0xe4>)
  58:	701c      	strb	r4, [r3, #0]
  5a:	4623      	mov	r3, r4
  5c:	6014      	str	r4, [r2, #0]
  5e:	4622      	mov	r2, r4
  60:	f7ff fffe 	bl	0 <usb_config_tx>
  64:	4622      	mov	r2, r4
  66:	8831      	ldrh	r1, [r6, #0]
  68:	2004      	movs	r0, #4
  6a:	4b1f      	ldr	r3, [pc, #124]	; (e8 <usb_serial2_configure+0xe8>)
  6c:	f7ff fffe 	bl	0 <usb_config_rx>
  70:	4623      	mov	r3, r4
  72:	2201      	movs	r2, #1
  74:	8829      	ldrh	r1, [r5, #0]
  76:	2004      	movs	r0, #4
  78:	f7ff fffe 	bl	0 <usb_config_tx>
  7c:	4620      	mov	r0, r4
  7e:	3401      	adds	r4, #1
  80:	f7ff fffe 	bl	0 <usb_serial2_configure>
  84:	2c08      	cmp	r4, #8
  86:	d1f9      	bne.n	7c <usb_serial2_configure+0x7c>
  88:	4b18      	ldr	r3, [pc, #96]	; (ec <usb_serial2_configure+0xec>)
  8a:	2100      	movs	r1, #0
  8c:	224a      	movs	r2, #74	; 0x4a
  8e:	4818      	ldr	r0, [pc, #96]	; (f0 <usb_serial2_configure+0xf0>)
  90:	4c18      	ldr	r4, [pc, #96]	; (f4 <usb_serial2_configure+0xf4>)
  92:	6004      	str	r4, [r0, #0]
  94:	f8c3 108c 	str.w	r1, [r3, #140]	; 0x8c
  98:	f8c3 2088 	str.w	r2, [r3, #136]	; 0x88
  9c:	f8d3 2148 	ldr.w	r2, [r3, #328]	; 0x148
  a0:	4915      	ldr	r1, [pc, #84]	; (f8 <usb_serial2_configure+0xf8>)
  a2:	f042 7200 	orr.w	r2, r2, #33554432	; 0x2000000
  a6:	f8c3 2148 	str.w	r2, [r3, #328]	; 0x148
  aa:	b121      	cbz	r1, b6 <usb_serial2_configure+0xb6>
  ac:	4a13      	ldr	r2, [pc, #76]	; (fc <usb_serial2_configure+0xfc>)
  ae:	7813      	ldrb	r3, [r2, #0]
  b0:	f043 0308 	orr.w	r3, r3, #8
  b4:	7013      	strb	r3, [r2, #0]
  b6:	bd70      	pop	{r4, r5, r6, pc}
  b8:	00000000 	.word	0x00000000
  bc:	00000000 	.word	0x00000000
  c0:	00000000 	.word	0x00000000
  c4:	00000000 	.word	0x00000000
  c8:	00000000 	.word	0x00000000
  cc:	00000000 	.word	0x00000000
  d0:	00000000 	.word	0x00000000
  d4:	00000000 	.word	0x00000000
  d8:	00000000 	.word	0x00000000
  dc:	00000000 	.word	0x00000000
  e0:	00000000 	.word	0x00000000
  e4:	00000000 	.word	0x00000000
  e8:	00000000 	.word	0x00000000
  ec:	402e0000 	.word	0x402e0000
  f0:	00000000 	.word	0x00000000
  f4:	00000000 	.word	0x00000000
  f8:	00000000 	.word	0x00000000
  fc:	00000000 	.word	0x00000000

Disassembly of section .text.usb_serial2_read:

00000000 <usb_serial2_read>:
   0:	e92d 4ff0 	stmdb	sp!, {r4, r5, r6, r7, r8, r9, sl, fp, lr}
   4:	f04f 23e0 	mov.w	r3, #3758153728	; 0xe000e000
   8:	f44f 3200 	mov.w	r2, #131072	; 0x20000
   c:	f8df a0c8 	ldr.w	sl, [pc, #200]	; d8 <usb_serial2_read+0xd8>
  10:	b083      	sub	sp, #12
  12:	f8c3 218c 	str.w	r2, [r3, #396]	; 0x18c
  16:	468b      	mov	fp, r1
  18:	f89a 4000 	ldrb.w	r4, [sl]
  1c:	2900      	cmp	r1, #0
  1e:	d04f      	beq.n	c0 <usb_serial2_read+0xc0>
  20:	4680      	mov	r8, r0
  22:	b2e4      	uxtb	r4, r4
  24:	2700      	movs	r7, #0
  26:	f8df 90b4 	ldr.w	r9, [pc, #180]	; dc <usb_serial2_read+0xdc>
  2a:	4b26      	ldr	r3, [pc, #152]	; (c4 <usb_serial2_read+0xc4>)
  2c:	ebab 0207 	sub.w	r2, fp, r7
  30:	4925      	ldr	r1, [pc, #148]	; (c8 <usb_serial2_read+0xc8>)
  32:	781b      	ldrb	r3, [r3, #0]
  34:	42a3      	cmp	r3, r4
  36:	f104 0401 	add.w	r4, r4, #1
  3a:	d03f      	beq.n	bc <usb_serial2_read+0xbc>
  3c:	2c09      	cmp	r4, #9
  3e:	4b23      	ldr	r3, [pc, #140]	; (cc <usb_serial2_read+0xcc>)
  40:	4640      	mov	r0, r8
  42:	bf28      	it	cs
  44:	2400      	movcs	r4, #0
  46:	5d1e      	ldrb	r6, [r3, r4]
  48:	f839 c016 	ldrh.w	ip, [r9, r6, lsl #1]
  4c:	eb0c 2346 	add.w	r3, ip, r6, lsl #9
  50:	4419      	add	r1, r3
  52:	4b1f      	ldr	r3, [pc, #124]	; (d0 <usb_serial2_read+0xd0>)
  54:	f833 5016 	ldrh.w	r5, [r3, r6, lsl #1]
  58:	eba5 050c 	sub.w	r5, r5, ip
  5c:	42aa      	cmp	r2, r5
  5e:	d21c      	bcs.n	9a <usb_serial2_read+0x9a>
  60:	eb0c 2c46 	add.w	ip, ip, r6, lsl #9
  64:	4918      	ldr	r1, [pc, #96]	; (c8 <usb_serial2_read+0xc8>)
  66:	4c1b      	ldr	r4, [pc, #108]	; (d4 <usb_serial2_read+0xd4>)
  68:	4461      	add	r1, ip
  6a:	9201      	str	r2, [sp, #4]
  6c:	f7ff fffe 	bl	0 <memcpy>
  70:	6821      	ldr	r1, [r4, #0]
  72:	f839 5016 	ldrh.w	r5, [r9, r6, lsl #1]
  76:	4658      	mov	r0, fp
  78:	9a01      	ldr	r2, [sp, #4]
  7a:	eba1 010b 	sub.w	r1, r1, fp
  7e:	442a      	add	r2, r5
  80:	4439      	add	r1, r7
  82:	f829 2016 	strh.w	r2, [r9, r6, lsl #1]
  86:	6021      	str	r1, [r4, #0]
  88:	f04f 23e0 	mov.w	r3, #3758153728	; 0xe000e000
  8c:	f44f 3200 	mov.w	r2, #131072	; 0x20000
  90:	f8c3 210c 	str.w	r2, [r3, #268]	; 0x10c
  94:	b003      	add	sp, #12
  96:	e8bd 8ff0 	ldmia.w	sp!, {r4, r5, r6, r7, r8, r9, sl, fp, pc}
  9a:	462a      	mov	r2, r5
  9c:	442f      	add	r7, r5
  9e:	f7ff fffe 	bl	0 <memcpy>
  a2:	490c      	ldr	r1, [pc, #48]	; (d4 <usb_serial2_read+0xd4>)
  a4:	b2e3      	uxtb	r3, r4
  a6:	4630      	mov	r0, r6
  a8:	680a      	ldr	r2, [r1, #0]
  aa:	44a8      	add	r8, r5
  ac:	1b52      	subs	r2, r2, r5
  ae:	600a      	str	r2, [r1, #0]
  b0:	f88a 3000 	strb.w	r3, [sl]
  b4:	f7ff fffe 	bl	0 <usb_serial2_read>
  b8:	45bb      	cmp	fp, r7
  ba:	d8b6      	bhi.n	2a <usb_serial2_read+0x2a>
  bc:	4638      	mov	r0, r7
  be:	e7e3      	b.n	88 <usb_serial2_read+0x88>
  c0:	4608      	mov	r0, r1
  c2:	e7e1      	b.n	88 <usb_serial2_read+0x88>
  c4:	00000000 	.word	0x00000000
  c8:	00000000 	.word	0x00000000
  cc:	00000000 	.word	0x00000000
  d0:	00000000 	.word	0x00000000
  d4:	00000000 	.word	0x00000000
  d8:	00000000 	.word	0x00000000
  dc:	00000000 	.word	0x00000000

Disassembly of section .text.usb_serial2_peekchar:

00000000 <usb_serial2_peekchar>:
   0:	4b0b      	ldr	r3, [pc, #44]	; (30 <usb_serial2_peekchar+0x30>)
   2:	4a0c      	ldr	r2, [pc, #48]	; (34 <usb_serial2_peekchar+0x34>)
   4:	7812      	ldrb	r2, [r2, #0]
   6:	7819      	ldrb	r1, [r3, #0]
   8:	b2d3      	uxtb	r3, r2
   a:	428a      	cmp	r2, r1
   c:	d00d      	beq.n	2a <usb_serial2_peekchar+0x2a>
   e:	3301      	adds	r3, #1
  10:	4809      	ldr	r0, [pc, #36]	; (38 <usb_serial2_peekchar+0x38>)
  12:	4a0a      	ldr	r2, [pc, #40]	; (3c <usb_serial2_peekchar+0x3c>)
  14:	2b09      	cmp	r3, #9
  16:	490a      	ldr	r1, [pc, #40]	; (40 <usb_serial2_peekchar+0x40>)
  18:	bf28      	it	cs
  1a:	2300      	movcs	r3, #0
  1c:	5cc3      	ldrb	r3, [r0, r3]
  1e:	f831 1013 	ldrh.w	r1, [r1, r3, lsl #1]
  22:	eb02 2343 	add.w	r3, r2, r3, lsl #9
  26:	5c58      	ldrb	r0, [r3, r1]
  28:	4770      	bx	lr
  2a:	f04f 30ff 	mov.w	r0, #4294967295	; 0xffffffff
  2e:	4770      	bx	lr
  30:	00000000 	.word	0x00000000
  34:	00000000 	.word	0x00000000
  38:	00000000 	.word	0x00000000
  3c:	00000000 	.word	0x00000000
  40:	00000000 	.word	0x00000000

Disassembly of section .text.usb_serial2_available:

00000000 <usb_serial2_available>:
   0:	4b04      	ldr	r3, [pc, #16]	; (14 <usb_serial2_available+0x14>)
   2:	b510      	push	{r4, lr}
   4:	681c      	ldr	r4, [r3, #0]
   6:	b10c      	cbz	r4, c <usb_serial2_available+0xc>
   8:	4620      	mov	r0, r4
   a:	bd10      	pop	{r4, pc}
   c:	f7ff fffe 	bl	0 <yield>
  10:	4620      	mov	r0, r4
  12:	bd10      	pop	{r4, pc}
  14:	00000000 	.word	0x00000000

Disassembly of section .text.usb_serial2_flush_input:

00000000 <usb_serial2_flush_input>:
   0:	e92d 4ff8 	stmdb	sp!, {r3, r4, r5, r6, r7, r8, r9, sl, fp, lr}
   4:	4e14      	ldr	r6, [pc, #80]	; (58 <usb_serial2_flush_input+0x58>)
   6:	4d15      	ldr	r5, [pc, #84]	; (5c <usb_serial2_flush_input+0x5c>)
   8:	7833      	ldrb	r3, [r6, #0]
   a:	782a      	ldrb	r2, [r5, #0]
   c:	4293      	cmp	r3, r2
   e:	d021      	beq.n	54 <usb_serial2_flush_input+0x54>
  10:	b2dc      	uxtb	r4, r3
  12:	f8df 9050 	ldr.w	r9, [pc, #80]	; 64 <usb_serial2_flush_input+0x64>
  16:	f8df b050 	ldr.w	fp, [pc, #80]	; 68 <usb_serial2_flush_input+0x68>
  1a:	f8df 8050 	ldr.w	r8, [pc, #80]	; 6c <usb_serial2_flush_input+0x6c>
  1e:	4f10      	ldr	r7, [pc, #64]	; (60 <usb_serial2_flush_input+0x60>)
  20:	3401      	adds	r4, #1
  22:	2c08      	cmp	r4, #8
  24:	fa5f fa84 	uxtb.w	sl, r4
  28:	d901      	bls.n	2e <usb_serial2_flush_input+0x2e>
  2a:	2400      	movs	r4, #0
  2c:	46a2      	mov	sl, r4
  2e:	f819 0004 	ldrb.w	r0, [r9, r4]
  32:	f8db 3000 	ldr.w	r3, [fp]
  36:	f838 2010 	ldrh.w	r2, [r8, r0, lsl #1]
  3a:	f837 1010 	ldrh.w	r1, [r7, r0, lsl #1]
  3e:	1a52      	subs	r2, r2, r1
  40:	1a9b      	subs	r3, r3, r2
  42:	f8cb 3000 	str.w	r3, [fp]
  46:	f7ff fffe 	bl	0 <usb_serial2_flush_input>
  4a:	f886 a000 	strb.w	sl, [r6]
  4e:	782b      	ldrb	r3, [r5, #0]
  50:	42a3      	cmp	r3, r4
  52:	d1e5      	bne.n	20 <usb_serial2_flush_input+0x20>
  54:	e8bd 8ff8 	ldmia.w	sp!, {r3, r4, r5, r6, r7, r8, r9, sl, fp, pc}
  58:	00000000 	.word	0x00000000
  5c:	00000000 	.word	0x00000000
  60:	00000000 	.word	0x00000000
  64:	00000000 	.word	0x00000000
  68:	00000000 	.word	0x00000000
  6c:	00000000 	.word	0x00000000

Disassembly of section .text.usb_serial2_getchar:

00000000 <usb_serial2_getchar>:
   0:	b500      	push	{lr}
   2:	b083      	sub	sp, #12
   4:	2101      	movs	r1, #1
   6:	f10d 0007 	add.w	r0, sp, #7
   a:	f7ff fffe 	bl	0 <usb_serial2_getchar>
   e:	b120      	cbz	r0, 1a <usb_serial2_getchar+0x1a>
  10:	f89d 0007 	ldrb.w	r0, [sp, #7]
  14:	b003      	add	sp, #12
  16:	f85d fb04 	ldr.w	pc, [sp], #4
  1a:	f04f 30ff 	mov.w	r0, #4294967295	; 0xffffffff
  1e:	e7f9      	b.n	14 <usb_serial2_getchar+0x14>

Disassembly of section .text.usb_serial2_putchar:

00000000 <usb_serial2_putchar>:
   0:	4b09      	ldr	r3, [pc, #36]	; (28 <usb_serial2_putchar+0x28>)
   2:	b500      	push	{lr}
   4:	b083      	sub	sp, #12
   6:	781b      	ldrb	r3, [r3, #0]
   8:	f88d 0007 	strb.w	r0, [sp, #7]
   c:	b13b      	cbz	r3, 1e <usb_serial2_putchar+0x1e>
   e:	2101      	movs	r1, #1
  10:	f10d 0007 	add.w	r0, sp, #7
  14:	f7ff fffe 	bl	0 <usb_serial2_putchar>
  18:	b003      	add	sp, #12
  1a:	f85d fb04 	ldr.w	pc, [sp], #4
  1e:	f003 00ff 	and.w	r0, r3, #255	; 0xff
  22:	b003      	add	sp, #12
  24:	f85d fb04 	ldr.w	pc, [sp], #4
  28:	00000000 	.word	0x00000000

Disassembly of section .text.usb_serial2_write:

00000000 <usb_serial2_write>:
   0:	4b04      	ldr	r3, [pc, #16]	; (14 <usb_serial2_write+0x14>)
   2:	781b      	ldrb	r3, [r3, #0]
   4:	f003 02ff 	and.w	r2, r3, #255	; 0xff
   8:	b10b      	cbz	r3, e <usb_serial2_write+0xe>
   a:	f7ff bffe 	b.w	0 <usb_serial2_write>
   e:	4610      	mov	r0, r2
  10:	4770      	bx	lr
  12:	bf00      	nop
  14:	00000000 	.word	0x00000000

Disassembly of section .text.usb_serial2_write_buffer_free:

00000000 <usb_serial2_write_buffer_free>:
   0:	e92d 41f0 	stmdb	sp!, {r4, r5, r6, r7, r8, lr}
   4:	2400      	movs	r4, #0
   6:	f8df 8040 	ldr.w	r8, [pc, #64]	; 48 <usb_serial2_write_buffer_free+0x48>
   a:	2301      	movs	r3, #1
   c:	4d0c      	ldr	r5, [pc, #48]	; (40 <usb_serial2_write_buffer_free+0x40>)
   e:	4627      	mov	r7, r4
  10:	4e0c      	ldr	r6, [pc, #48]	; (44 <usb_serial2_write_buffer_free+0x44>)
  12:	f888 3000 	strb.w	r3, [r8]
  16:	7833      	ldrb	r3, [r6, #0]
  18:	4628      	mov	r0, r5
  1a:	3520      	adds	r5, #32
  1c:	42a3      	cmp	r3, r4
  1e:	f104 0401 	add.w	r4, r4, #1
  22:	d005      	beq.n	30 <usb_serial2_write_buffer_free+0x30>
  24:	f7ff fffe 	bl	0 <usb_transfer_status>
  28:	0603      	lsls	r3, r0, #24
  2a:	bf58      	it	pl
  2c:	f507 6700 	addpl.w	r7, r7, #2048	; 0x800
  30:	2c04      	cmp	r4, #4
  32:	d1f0      	bne.n	16 <usb_serial2_write_buffer_free+0x16>
  34:	2300      	movs	r3, #0
  36:	4638      	mov	r0, r7
  38:	f888 3000 	strb.w	r3, [r8]
  3c:	e8bd 81f0 	ldmia.w	sp!, {r4, r5, r6, r7, r8, pc}
  40:	00000000 	.word	0x00000000
  44:	00000000 	.word	0x00000000
  48:	00000000 	.word	0x00000000

Disassembly of section .text.usb_serial2_flush_output:

00000000 <usb_serial2_flush_output>:
   0:	e92d 43f8 	stmdb	sp!, {r3, r4, r5, r6, r7, r8, r9, lr}
   4:	4b1c      	ldr	r3, [pc, #112]	; (78 <usb_serial2_flush_output+0x78>)
   6:	781b      	ldrb	r3, [r3, #0]
   8:	b113      	cbz	r3, 10 <usb_serial2_flush_output+0x10>
   a:	4d1c      	ldr	r5, [pc, #112]	; (7c <usb_serial2_flush_output+0x7c>)
   c:	882a      	ldrh	r2, [r5, #0]
   e:	b90a      	cbnz	r2, 14 <usb_serial2_flush_output+0x14>
  10:	e8bd 83f8 	ldmia.w	sp!, {r3, r4, r5, r6, r7, r8, r9, pc}
  14:	4e1a      	ldr	r6, [pc, #104]	; (80 <usb_serial2_flush_output+0x80>)
  16:	f5c2 6900 	rsb	r9, r2, #2048	; 0x800
  1a:	491a      	ldr	r1, [pc, #104]	; (84 <usb_serial2_flush_output+0x84>)
  1c:	7833      	ldrb	r3, [r6, #0]
  1e:	464a      	mov	r2, r9
  20:	4c19      	ldr	r4, [pc, #100]	; (88 <usb_serial2_flush_output+0x88>)
  22:	eb01 1843 	add.w	r8, r1, r3, lsl #5
  26:	4f19      	ldr	r7, [pc, #100]	; (8c <usb_serial2_flush_output+0x8c>)
  28:	eb04 24c3 	add.w	r4, r4, r3, lsl #11
  2c:	2301      	movs	r3, #1
  2e:	4640      	mov	r0, r8
  30:	703b      	strb	r3, [r7, #0]
  32:	4621      	mov	r1, r4
  34:	2300      	movs	r3, #0
  36:	f7ff fffe 	bl	0 <usb_prepare_transfer>
  3a:	eb04 0209 	add.w	r2, r4, r9
  3e:	f3bf 8f4f 	dsb	sy
  42:	f04f 23e0 	mov.w	r3, #3758153728	; 0xe000e000
  46:	f8c3 4f70 	str.w	r4, [r3, #3952]	; 0xf70
  4a:	3420      	adds	r4, #32
  4c:	42a2      	cmp	r2, r4
  4e:	d8fa      	bhi.n	46 <usb_serial2_flush_output+0x46>
  50:	f3bf 8f4f 	dsb	sy
  54:	f3bf 8f6f 	isb	sy
  58:	2004      	movs	r0, #4
  5a:	4641      	mov	r1, r8
  5c:	f7ff fffe 	bl	0 <usb_transmit>
  60:	7833      	ldrb	r3, [r6, #0]
  62:	3301      	adds	r3, #1
  64:	b2db      	uxtb	r3, r3
  66:	2b03      	cmp	r3, #3
  68:	bf88      	it	hi
  6a:	2300      	movhi	r3, #0
  6c:	7033      	strb	r3, [r6, #0]
  6e:	2300      	movs	r3, #0
  70:	802b      	strh	r3, [r5, #0]
  72:	703b      	strb	r3, [r7, #0]
  74:	e8bd 83f8 	ldmia.w	sp!, {r3, r4, r5, r6, r7, r8, r9, pc}
  78:	00000000 	.word	0x00000000
  7c:	00000000 	.word	0x00000000
  80:	00000000 	.word	0x00000000
  84:	00000000 	.word	0x00000000
  88:	00001000 	.word	0x00001000
  8c:	00000000 	.word	0x00000000
