
build/./teensy4/WMath.cpp.o:     file format elf32-littlearm

SYMBOL TABLE:
00000000 l    df *ABS*	00000000 WMath.cpp
00000000 l    d  .text	00000000 .text
00000000 l    d  .data	00000000 .data
00000000 l    d  .bss	00000000 .bss
00000000 l    d  .text._Z10randomSeedm	00000000 .text._Z10randomSeedm
00000000 l    d  .text._Z7srandomj	00000000 .text._Z7srandomj
00000000 l    d  .text._Z6randomv	00000000 .text._Z6randomv
00000000 l    d  .text._Z6randomm	00000000 .text._Z6randomm
00000000 l    d  .text._Z6randomll	00000000 .text._Z6randomll
00000000 l    d  .text._Z8makeWordt	00000000 .text._Z8makeWordt
00000000 l    d  .text._Z8makeWordhh	00000000 .text._Z8makeWordhh
00000000 l    d  .bss._ZL4seed	00000000 .bss._ZL4seed
00000000 l     O .bss._ZL4seed	00000004 _ZL4seed
00000000 l    d  .comment	00000000 .comment
00000000 l    d  .ARM.attributes	00000000 .ARM.attributes
00000000 g     F .text._Z10randomSeedm	0000000c _Z10randomSeedm
00000000 g     F .text._Z7srandomj	0000000c _Z7srandomj
00000000 g     F .text._Z6randomv	0000005c _Z6randomv
00000000 g     F .text._Z6randomm	0000006c _Z6randomm
00000000 g     F .text._Z6randomll	00000068 _Z6randomll
00000000 g     F .text._Z8makeWordt	00000002 _Z8makeWordt
00000000 g     F .text._Z8makeWordhh	00000006 _Z8makeWordhh


Contents of section .text._Z10randomSeedm:
 0000 08b1014b 18607047 00000000           ...K.`pG....    
Contents of section .text._Z7srandomj:
 0000 014b1860 704700bf 00000000           .K.`pG......    
Contents of section .text._Z6randomv:
 0000 114a1368 dbb11149 d81781fb 03c11944  .J.h...I.......D
 0010 10b4c0eb 21400e4c 44f2a711 04fb1033  ....!@.LD......3
 0020 0c4c04fb 00f05df8 044b01fb 03000028  .L....]..K.....(
 0030 bcbf00f1 004000f1 ff301060 7047064b  .....@...0.`pG.K
 0040 18461360 704700bf 00000000 5f0b4e83  .F.`pG......_.N.
 0050 1df30100 ecf4ffff 42ce0c1f           ........B...    
Contents of section .text._Z6randomm:
 0000 00b97047 14490a68 eab1d317 30b4134c  ..pG.I.h....0..L
 0010 134d84fb 024c134c 9444c3eb 2c4304fb  .M...L.L.D..,C..
 0020 132244f2 a71405fb 03f304fb 0233002b  ."D..........3.+
 0030 10da6ff0 00421a44 0a60b2fb f0f330bc  ..o..B.D.`....0.
 0040 00fb1320 7047084a b2fbf0f3 0a6000fb  ... pG.J.....`..
 0050 13207047 1a46efe7 00000000 5f0b4e83  . pG.F......_.N.
 0060 ecf4ffff 1df30100 42ce0c1f           ........B...    
Contents of section .text._Z6randomll:
 0000 884200db 704730b4 124c091a 2368ebb1  .B..pG0..L..#h..
 0010 114a124d 82fb032c da179c44 c2eb2c42  .J.M...,...D..,B
 0020 44f2a71c 05fb1233 0d4d05fb 02f20cfb  D......3.M......
 0030 0322002a 0cda6ff0 00431344 2360b3fb  .".*..o..C.D#`..
 0040 f1f201fb 123330bc 18447047 054bf5e7  .....30..DpG.K..
 0050 1346f3e7 00000000 5f0b4e83 1df30100  .F......_.N.....
 0060 ecf4ffff 42ce0c1f                    ....B...        
Contents of section .text._Z8makeWordt:
 0000 704700bf                             pG..            
Contents of section .text._Z8makeWordhh:
 0000 41ea0020 704700bf                    A.. pG..        
Contents of section .comment:
 0000 00474343 3a202841 726d2047 4e552054  .GCC: (Arm GNU T
 0010 6f6f6c63 6861696e 2031312e 332e5265  oolchain 11.3.Re
 0020 6c312920 31312e33 2e312032 30323230  l1) 11.3.1 20220
 0030 37313200                             712.            
Contents of section .ARM.attributes:
 0000 41310000 00616561 62690001 27000000  A1...aeabi..'...
 0010 0537452d 4d00060d 074d0902 0a081204  .7E-M....M......
 0020 14011501 17031801 19011a01 1c011e02  ................
 0030 2201                                 ".              

Disassembly of section .text._Z10randomSeedm:

00000000 <_Z10randomSeedm>:
   0:	b108      	cbz	r0, 6 <_Z10randomSeedm+0x6>
   2:	4b01      	ldr	r3, [pc, #4]	; (8 <_Z10randomSeedm+0x8>)
   4:	6018      	str	r0, [r3, #0]
   6:	4770      	bx	lr
   8:	00000000 	.word	0x00000000

Disassembly of section .text._Z7srandomj:

00000000 <_Z7srandomj>:
   0:	4b01      	ldr	r3, [pc, #4]	; (8 <_Z7srandomj+0x8>)
   2:	6018      	str	r0, [r3, #0]
   4:	4770      	bx	lr
   6:	bf00      	nop
   8:	00000000 	.word	0x00000000

Disassembly of section .text._Z6randomv:

00000000 <_Z6randomv>:
   0:	4a11      	ldr	r2, [pc, #68]	; (48 <_Z6randomv+0x48>)
   2:	6813      	ldr	r3, [r2, #0]
   4:	b1db      	cbz	r3, 3e <_Z6randomv+0x3e>
   6:	4911      	ldr	r1, [pc, #68]	; (4c <_Z6randomv+0x4c>)
   8:	17d8      	asrs	r0, r3, #31
   a:	fb81 c103 	smull	ip, r1, r1, r3
   e:	4419      	add	r1, r3
  10:	b410      	push	{r4}
  12:	ebc0 4021 	rsb	r0, r0, r1, asr #16
  16:	4c0e      	ldr	r4, [pc, #56]	; (50 <_Z6randomv+0x50>)
  18:	f244 11a7 	movw	r1, #16807	; 0x41a7
  1c:	fb04 3310 	mls	r3, r4, r0, r3
  20:	4c0c      	ldr	r4, [pc, #48]	; (54 <_Z6randomv+0x54>)
  22:	fb04 f000 	mul.w	r0, r4, r0
  26:	f85d 4b04 	ldr.w	r4, [sp], #4
  2a:	fb01 0003 	mla	r0, r1, r3, r0
  2e:	2800      	cmp	r0, #0
  30:	bfbc      	itt	lt
  32:	f100 4000 	addlt.w	r0, r0, #2147483648	; 0x80000000
  36:	f100 30ff 	addlt.w	r0, r0, #4294967295	; 0xffffffff
  3a:	6010      	str	r0, [r2, #0]
  3c:	4770      	bx	lr
  3e:	4b06      	ldr	r3, [pc, #24]	; (58 <_Z6randomv+0x58>)
  40:	4618      	mov	r0, r3
  42:	6013      	str	r3, [r2, #0]
  44:	4770      	bx	lr
  46:	bf00      	nop
  48:	00000000 	.word	0x00000000
  4c:	834e0b5f 	.word	0x834e0b5f
  50:	0001f31d 	.word	0x0001f31d
  54:	fffff4ec 	.word	0xfffff4ec
  58:	1f0cce42 	.word	0x1f0cce42

Disassembly of section .text._Z6randomm:

00000000 <_Z6randomm>:
   0:	b900      	cbnz	r0, 4 <_Z6randomm+0x4>
   2:	4770      	bx	lr
   4:	4914      	ldr	r1, [pc, #80]	; (58 <_Z6randomm+0x58>)
   6:	680a      	ldr	r2, [r1, #0]
   8:	b1ea      	cbz	r2, 46 <_Z6randomm+0x46>
   a:	17d3      	asrs	r3, r2, #31
   c:	b430      	push	{r4, r5}
   e:	4c13      	ldr	r4, [pc, #76]	; (5c <_Z6randomm+0x5c>)
  10:	4d13      	ldr	r5, [pc, #76]	; (60 <_Z6randomm+0x60>)
  12:	fb84 4c02 	smull	r4, ip, r4, r2
  16:	4c13      	ldr	r4, [pc, #76]	; (64 <_Z6randomm+0x64>)
  18:	4494      	add	ip, r2
  1a:	ebc3 432c 	rsb	r3, r3, ip, asr #16
  1e:	fb04 2213 	mls	r2, r4, r3, r2
  22:	f244 14a7 	movw	r4, #16807	; 0x41a7
  26:	fb05 f303 	mul.w	r3, r5, r3
  2a:	fb04 3302 	mla	r3, r4, r2, r3
  2e:	2b00      	cmp	r3, #0
  30:	da10      	bge.n	54 <_Z6randomm+0x54>
  32:	f06f 4200 	mvn.w	r2, #2147483648	; 0x80000000
  36:	441a      	add	r2, r3
  38:	600a      	str	r2, [r1, #0]
  3a:	fbb2 f3f0 	udiv	r3, r2, r0
  3e:	bc30      	pop	{r4, r5}
  40:	fb00 2013 	mls	r0, r0, r3, r2
  44:	4770      	bx	lr
  46:	4a08      	ldr	r2, [pc, #32]	; (68 <_Z6randomm+0x68>)
  48:	fbb2 f3f0 	udiv	r3, r2, r0
  4c:	600a      	str	r2, [r1, #0]
  4e:	fb00 2013 	mls	r0, r0, r3, r2
  52:	4770      	bx	lr
  54:	461a      	mov	r2, r3
  56:	e7ef      	b.n	38 <_Z6randomm+0x38>
  58:	00000000 	.word	0x00000000
  5c:	834e0b5f 	.word	0x834e0b5f
  60:	fffff4ec 	.word	0xfffff4ec
  64:	0001f31d 	.word	0x0001f31d
  68:	1f0cce42 	.word	0x1f0cce42

Disassembly of section .text._Z6randomll:

00000000 <_Z6randomll>:
   0:	4288      	cmp	r0, r1
   2:	db00      	blt.n	6 <_Z6randomll+0x6>
   4:	4770      	bx	lr
   6:	b430      	push	{r4, r5}
   8:	4c12      	ldr	r4, [pc, #72]	; (54 <_Z6randomll+0x54>)
   a:	1a09      	subs	r1, r1, r0
   c:	6823      	ldr	r3, [r4, #0]
   e:	b1eb      	cbz	r3, 4c <_Z6randomll+0x4c>
  10:	4a11      	ldr	r2, [pc, #68]	; (58 <_Z6randomll+0x58>)
  12:	4d12      	ldr	r5, [pc, #72]	; (5c <_Z6randomll+0x5c>)
  14:	fb82 2c03 	smull	r2, ip, r2, r3
  18:	17da      	asrs	r2, r3, #31
  1a:	449c      	add	ip, r3
  1c:	ebc2 422c 	rsb	r2, r2, ip, asr #16
  20:	f244 1ca7 	movw	ip, #16807	; 0x41a7
  24:	fb05 3312 	mls	r3, r5, r2, r3
  28:	4d0d      	ldr	r5, [pc, #52]	; (60 <_Z6randomll+0x60>)
  2a:	fb05 f202 	mul.w	r2, r5, r2
  2e:	fb0c 2203 	mla	r2, ip, r3, r2
  32:	2a00      	cmp	r2, #0
  34:	da0c      	bge.n	50 <_Z6randomll+0x50>
  36:	f06f 4300 	mvn.w	r3, #2147483648	; 0x80000000
  3a:	4413      	add	r3, r2
  3c:	6023      	str	r3, [r4, #0]
  3e:	fbb3 f2f1 	udiv	r2, r3, r1
  42:	fb01 3312 	mls	r3, r1, r2, r3
  46:	bc30      	pop	{r4, r5}
  48:	4418      	add	r0, r3
  4a:	4770      	bx	lr
  4c:	4b05      	ldr	r3, [pc, #20]	; (64 <_Z6randomll+0x64>)
  4e:	e7f5      	b.n	3c <_Z6randomll+0x3c>
  50:	4613      	mov	r3, r2
  52:	e7f3      	b.n	3c <_Z6randomll+0x3c>
  54:	00000000 	.word	0x00000000
  58:	834e0b5f 	.word	0x834e0b5f
  5c:	0001f31d 	.word	0x0001f31d
  60:	fffff4ec 	.word	0xfffff4ec
  64:	1f0cce42 	.word	0x1f0cce42

Disassembly of section .text._Z8makeWordt:

00000000 <_Z8makeWordt>:
   0:	4770      	bx	lr
   2:	bf00      	nop

Disassembly of section .text._Z8makeWordhh:

00000000 <_Z8makeWordhh>:
   0:	ea41 2000 	orr.w	r0, r1, r0, lsl #8
   4:	4770      	bx	lr
   6:	bf00      	nop
