
build/./teensy4/WString.cpp.o:     file format elf32-littlearm

SYMBOL TABLE:
00000000 l    df *ABS*	00000000 WString.cpp
00000000 l    d  .text	00000000 .text
00000000 l    d  .data	00000000 .data
00000000 l    d  .bss	00000000 .bss
00000000 l    d  .text._ZN6StringC2EPKc	00000000 .text._ZN6StringC2EPKc
00000000 l    d  .text._ZN6StringC2EPK19__FlashStringHelper	00000000 .text._ZN6StringC2EPK19__FlashStringHelper
00000000 l    d  .text._ZN6StringC2ERKS_	00000000 .text._ZN6StringC2ERKS_
00000000 l    d  .text._ZN6StringC2EOS_	00000000 .text._ZN6StringC2EOS_
00000000 l    d  .text._ZN6StringC2EO15StringSumHelper	00000000 .text._ZN6StringC2EO15StringSumHelper
00000000 l    d  .text._ZN6StringC2Ec	00000000 .text._ZN6StringC2Ec
00000000 l    d  .text._ZN6StringD2Ev	00000000 .text._ZN6StringD2Ev
00000000 l    d  .text._ZN6String7reserveEj	00000000 .text._ZN6String7reserveEj
00000000 l    d  .text._ZN6String12changeBufferEj	00000000 .text._ZN6String12changeBufferEj
00000000 l    d  .text._ZN6String4copyEPKcj	00000000 .text._ZN6String4copyEPKcj
00000000 l    d  .text._ZN6StringC2Eh	00000000 .text._ZN6StringC2Eh
00000000 l    d  .text._ZN6StringC2Eih	00000000 .text._ZN6StringC2Eih
00000000 l    d  .text._ZN6StringC2Ejh	00000000 .text._ZN6StringC2Ejh
00000000 l    d  .text._ZN6StringC2Elh	00000000 .text._ZN6StringC2Elh
00000000 l    d  .text._ZN6StringC2Emh	00000000 .text._ZN6StringC2Emh
00000000 l    d  .text._ZN6StringC2Exh	00000000 .text._ZN6StringC2Exh
00000000 l    d  .text._ZN6StringC2Eyh	00000000 .text._ZN6StringC2Eyh
00000000 l    d  .text._ZN6StringC2Efh	00000000 .text._ZN6StringC2Efh
00000000 l    d  .text._ZN6String4moveERS_	00000000 .text._ZN6String4moveERS_
00000000 l    d  .text._ZN6StringaSERKS_	00000000 .text._ZN6StringaSERKS_
00000000 l    d  .text._ZN6StringaSEOS_	00000000 .text._ZN6StringaSEOS_
00000000 l    d  .text._ZN6StringaSEO15StringSumHelper	00000000 .text._ZN6StringaSEO15StringSumHelper
00000000 l    d  .text._ZN6StringaSEPKc	00000000 .text._ZN6StringaSEPKc
00000000 l    d  .text._ZN6StringaSEPK19__FlashStringHelper	00000000 .text._ZN6StringaSEPK19__FlashStringHelper
00000000 l    d  .text._ZN6StringaSEc	00000000 .text._ZN6StringaSEc
00000000 l    d  .text._ZN6String6appendEPKcj	00000000 .text._ZN6String6appendEPKcj
00000000 l    d  .text._ZN6String6appendERKS_	00000000 .text._ZN6String6appendERKS_
00000000 l    d  .text._ZN6String6appendEPKc	00000000 .text._ZN6String6appendEPKc
00000000 l    d  .text._ZN6String6appendEc	00000000 .text._ZN6String6appendEc
00000000 l    d  .text._ZN6String6appendEi	00000000 .text._ZN6String6appendEi
00000000 l    d  .text._ZN6String6appendEj	00000000 .text._ZN6String6appendEj
00000000 l    d  .text._ZN6String6appendEl	00000000 .text._ZN6String6appendEl
00000000 l    d  .text._ZN6String6appendEm	00000000 .text._ZN6String6appendEm
00000000 l    d  .text._ZN6String6appendEx	00000000 .text._ZN6String6appendEx
00000000 l    d  .text._ZN6String6appendEy	00000000 .text._ZN6String6appendEy
00000000 l    d  .text._ZN6String6appendEf	00000000 .text._ZN6String6appendEf
00000000 l    d  .text._ZplRK15StringSumHelperRK6String	00000000 .text._ZplRK15StringSumHelperRK6String
00000000 l    d  .text._ZplRK15StringSumHelperPKc	00000000 .text._ZplRK15StringSumHelperPKc
00000000 l    d  .text._ZplRK15StringSumHelperPK19__FlashStringHelper	00000000 .text._ZplRK15StringSumHelperPK19__FlashStringHelper
00000000 l    d  .text._ZplRK15StringSumHelperc	00000000 .text._ZplRK15StringSumHelperc
00000000 l    d  .text._ZplRK15StringSumHelperh	00000000 .text._ZplRK15StringSumHelperh
00000000 l    d  .text._ZplRK15StringSumHelperi	00000000 .text._ZplRK15StringSumHelperi
00000000 l    d  .text._ZplRK15StringSumHelperj	00000000 .text._ZplRK15StringSumHelperj
00000000 l    d  .text._ZplRK15StringSumHelperl	00000000 .text._ZplRK15StringSumHelperl
00000000 l    d  .text._ZplRK15StringSumHelperm	00000000 .text._ZplRK15StringSumHelperm
00000000 l    d  .text._ZplRK15StringSumHelperx	00000000 .text._ZplRK15StringSumHelperx
00000000 l    d  .text._ZplRK15StringSumHelpery	00000000 .text._ZplRK15StringSumHelpery
00000000 l    d  .text._ZplRK15StringSumHelperf	00000000 .text._ZplRK15StringSumHelperf
00000000 l    d  .text._ZplRK15StringSumHelperd	00000000 .text._ZplRK15StringSumHelperd
00000000 l    d  .text._ZNK6String9compareToERKS_	00000000 .text._ZNK6String9compareToERKS_
00000000 l    d  .text._ZNK6String6equalsERKS_	00000000 .text._ZNK6String6equalsERKS_
00000000 l    d  .text._ZNK6String6equalsEPKc	00000000 .text._ZNK6String6equalsEPKc
00000000 l    d  .text._ZNK6StringltERKS_	00000000 .text._ZNK6StringltERKS_
00000000 l    d  .text._ZNK6StringgtERKS_	00000000 .text._ZNK6StringgtERKS_
00000000 l    d  .text._ZNK6StringleERKS_	00000000 .text._ZNK6StringleERKS_
00000000 l    d  .text._ZNK6StringgeERKS_	00000000 .text._ZNK6StringgeERKS_
00000000 l    d  .text._ZNK6String16equalsIgnoreCaseERKS_	00000000 .text._ZNK6String16equalsIgnoreCaseERKS_
00000000 l    d  .text._ZNK6String10startsWithERKS_	00000000 .text._ZNK6String10startsWithERKS_
00000000 l    d  .text._ZNK6String10startsWithERKS_j	00000000 .text._ZNK6String10startsWithERKS_j
00000000 l    d  .text._ZNK6String8endsWithERKS_	00000000 .text._ZNK6String8endsWithERKS_
00000000 l    d  .text._ZNK6String6charAtEj	00000000 .text._ZNK6String6charAtEj
00000000 l    d  .text._ZN6String9setCharAtEjc	00000000 .text._ZN6String9setCharAtEjc
00000000 l    d  .text._ZN6StringixEj	00000000 .text._ZN6StringixEj
00000000 l    d  .text._ZNK6StringixEj	00000000 .text._ZNK6StringixEj
00000000 l    d  .text._ZNK6String8getBytesEPhjj	00000000 .text._ZNK6String8getBytesEPhjj
00000000 l    d  .text._ZNK6String7indexOfEc	00000000 .text._ZNK6String7indexOfEc
00000000 l    d  .text._ZNK6String7indexOfEcj	00000000 .text._ZNK6String7indexOfEcj
00000000 l    d  .text._ZNK6String7indexOfERKS_	00000000 .text._ZNK6String7indexOfERKS_
00000000 l    d  .text._ZNK6String7indexOfERKS_j	00000000 .text._ZNK6String7indexOfERKS_j
00000000 l    d  .text._ZNK6String11lastIndexOfEc	00000000 .text._ZNK6String11lastIndexOfEc
00000000 l    d  .text._ZNK6String11lastIndexOfEcj	00000000 .text._ZNK6String11lastIndexOfEcj
00000000 l    d  .text._ZNK6String11lastIndexOfERKS_j	00000000 .text._ZNK6String11lastIndexOfERKS_j
00000000 l    d  .text._ZNK6String11lastIndexOfERKS_	00000000 .text._ZNK6String11lastIndexOfERKS_
00000000 l    d  .text._ZNK6String9substringEj	00000000 .text._ZNK6String9substringEj
00000000 l    d  .text._ZNK6String9substringEjj	00000000 .text._ZNK6String9substringEjj
00000000 l    d  .text._ZN6String7replaceEcc	00000000 .text._ZN6String7replaceEcc
00000000 l    d  .text._ZN6String7replaceERKS_S1_	00000000 .text._ZN6String7replaceERKS_S1_
00000000 l    d  .text._ZN6String6removeEj	00000000 .text._ZN6String6removeEj
00000000 l    d  .text._ZN6String6removeEjj	00000000 .text._ZN6String6removeEjj
00000000 l    d  .text._ZN6String11toLowerCaseEv	00000000 .text._ZN6String11toLowerCaseEv
00000000 l    d  .text._ZN6String11toUpperCaseEv	00000000 .text._ZN6String11toUpperCaseEv
00000000 l    d  .text._ZN6String4trimEv	00000000 .text._ZN6String4trimEv
00000000 l    d  .text._ZNK6String5toIntEv	00000000 .text._ZNK6String5toIntEv
00000000 l    d  .text._ZNK6String7toFloatEv	00000000 .text._ZNK6String7toFloatEv
00000000 l    d  .bss._ZZN6StringixEjE19dummy_writable_char	00000000 .bss._ZZN6StringixEjE19dummy_writable_char
00000000 l     O .bss._ZZN6StringixEjE19dummy_writable_char	00000001 _ZZN6StringixEjE19dummy_writable_char
00000000 l    d  .rodata._ZN6String15zeroterminationE	00000000 .rodata._ZN6String15zeroterminationE
00000000 l    d  .comment	00000000 .comment
00000000 l    d  .ARM.attributes	00000000 .ARM.attributes
00000000 g     F .text._ZN6StringC2EPKc	0000003a _ZN6StringC2EPKc
00000000         *UND*	00000000 strlen
00000000         *UND*	00000000 malloc
00000000         *UND*	00000000 strcpy
00000000 g     F .text._ZN6StringC2EPKc	0000003a _ZN6StringC1EPKc
00000000 g     F .text._ZN6StringC2EPK19__FlashStringHelper	00000038 _ZN6StringC2EPK19__FlashStringHelper
00000000 g     F .text._ZN6StringC2EPK19__FlashStringHelper	00000038 _ZN6StringC1EPK19__FlashStringHelper
00000000 g     F .text._ZN6StringC2ERKS_	00000038 _ZN6StringC2ERKS_
00000000 g     F .text._ZN6StringC2ERKS_	00000038 _ZN6StringC1ERKS_
00000000 g     F .text._ZN6StringC2EOS_	00000028 _ZN6StringC2EOS_
00000000 g     F .text._ZN6StringC2EOS_	00000028 _ZN6StringC1EOS_
00000000 g     F .text._ZN6StringC2EO15StringSumHelper	00000028 _ZN6StringC2EO15StringSumHelper
00000000 g     F .text._ZN6StringC2EO15StringSumHelper	00000028 _ZN6StringC1EO15StringSumHelper
00000000 g     F .text._ZN6StringC2Ec	0000003a _ZN6StringC2Ec
00000000 g     F .text._ZN6StringC2Ec	0000003a _ZN6StringC1Ec
00000000 g     F .text._ZN6StringD2Ev	0000000e _ZN6StringD2Ev
00000000         *UND*	00000000 free
00000000 g     F .text._ZN6StringD2Ev	0000000e _ZN6StringD1Ev
00000000 g     F .text._ZN6String7reserveEj	0000002e _ZN6String7reserveEj
00000000         *UND*	00000000 realloc
00000000 g     F .text._ZN6String12changeBufferEj	0000001a _ZN6String12changeBufferEj
00000000 g     F .text._ZN6String4copyEPKcj	00000066 _ZN6String4copyEPKcj
00000000 g     F .text._ZN6StringC2Eh	0000002e _ZN6StringC2Eh
00000000         *UND*	00000000 utoa
00000000 g     F .text._ZN6StringC2Eh	0000002e _ZN6StringC1Eh
00000000 g     F .text._ZN6StringC2Eih	0000002c _ZN6StringC2Eih
00000000         *UND*	00000000 itoa
00000000 g     F .text._ZN6StringC2Eih	0000002c _ZN6StringC1Eih
00000000 g     F .text._ZN6StringC2Ejh	0000002c _ZN6StringC2Ejh
00000000 g     F .text._ZN6StringC2Ejh	0000002c _ZN6StringC1Ejh
00000000 g     F .text._ZN6StringC2Elh	0000002c _ZN6StringC2Elh
00000000         *UND*	00000000 ltoa
00000000 g     F .text._ZN6StringC2Elh	0000002c _ZN6StringC1Elh
00000000 g     F .text._ZN6StringC2Emh	0000002c _ZN6StringC2Emh
00000000         *UND*	00000000 ultoa
00000000 g     F .text._ZN6StringC2Emh	0000002c _ZN6StringC1Emh
00000000 g     F .text._ZN6StringC2Exh	00000032 _ZN6StringC2Exh
00000000         *UND*	00000000 lltoa
00000000 g     F .text._ZN6StringC2Exh	00000032 _ZN6StringC1Exh
00000000 g     F .text._ZN6StringC2Eyh	00000032 _ZN6StringC2Eyh
00000000         *UND*	00000000 ulltoa
00000000 g     F .text._ZN6StringC2Eyh	00000032 _ZN6StringC1Eyh
00000000 g     F .text._ZN6StringC2Efh	00000036 _ZN6StringC2Efh
00000000         *UND*	00000000 dtostrf
00000000 g     F .text._ZN6StringC2Efh	00000036 _ZN6StringC1Efh
00000000 g     F .text._ZN6String4moveERS_	0000002a _ZN6String4moveERS_
00000000 g     F .text._ZN6StringaSERKS_	0000000e _ZN6StringaSERKS_
00000000 g     F .text._ZN6StringaSEOS_	0000002a _ZN6StringaSEOS_
00000000 g     F .text._ZN6StringaSEO15StringSumHelper	0000002a _ZN6StringaSEO15StringSumHelper
00000000 g     F .text._ZN6StringaSEPKc	00000022 _ZN6StringaSEPKc
00000000 g     F .text._ZN6StringaSEPK19__FlashStringHelper	0000001e _ZN6StringaSEPK19__FlashStringHelper
00000000 g     F .text._ZN6StringaSEc	0000005c _ZN6StringaSEc
00000000 g     F .text._ZN6String6appendEPKcj	0000007e _ZN6String6appendEPKcj
00000000         *UND*	00000000 memcpy
00000000 g     F .text._ZN6String6appendERKS_	00000008 _ZN6String6appendERKS_
00000000 g     F .text._ZN6String6appendEPKc	0000001c _ZN6String6appendEPKc
00000000 g     F .text._ZN6String6appendEc	0000001e _ZN6String6appendEc
00000000 g     F .text._ZN6String6appendEi	00000028 _ZN6String6appendEi
00000000 g     F .text._ZN6String6appendEj	00000028 _ZN6String6appendEj
00000000 g     F .text._ZN6String6appendEl	00000028 _ZN6String6appendEl
00000000 g     F .text._ZN6String6appendEm	00000028 _ZN6String6appendEm
00000000 g     F .text._ZN6String6appendEx	0000002a _ZN6String6appendEx
00000000 g     F .text._ZN6String6appendEy	0000002a _ZN6String6appendEy
00000000 g     F .text._ZN6String6appendEf	00000026 _ZN6String6appendEf
00000000 g     F .text._ZplRK15StringSumHelperRK6String	00000010 _ZplRK15StringSumHelperRK6String
00000000 g     F .text._ZplRK15StringSumHelperPKc	0000001c _ZplRK15StringSumHelperPKc
00000000 g     F .text._ZplRK15StringSumHelperPK19__FlashStringHelper	0000001e _ZplRK15StringSumHelperPK19__FlashStringHelper
00000000 g     F .text._ZplRK15StringSumHelperc	0000001e _ZplRK15StringSumHelperc
00000000 g     F .text._ZplRK15StringSumHelperh	00000028 _ZplRK15StringSumHelperh
00000000 g     F .text._ZplRK15StringSumHelperi	00000028 _ZplRK15StringSumHelperi
00000000 g     F .text._ZplRK15StringSumHelperj	00000028 _ZplRK15StringSumHelperj
00000000 g     F .text._ZplRK15StringSumHelperl	00000028 _ZplRK15StringSumHelperl
00000000 g     F .text._ZplRK15StringSumHelperm	00000028 _ZplRK15StringSumHelperm
00000000 g     F .text._ZplRK15StringSumHelperx	0000002a _ZplRK15StringSumHelperx
00000000 g     F .text._ZplRK15StringSumHelpery	0000002a _ZplRK15StringSumHelpery
00000000 g     F .text._ZplRK15StringSumHelperf	00000026 _ZplRK15StringSumHelperf
00000000 g     F .text._ZplRK15StringSumHelperd	0000002a _ZplRK15StringSumHelperd
00000000 g     F .text._ZNK6String9compareToERKS_	0000002a _ZNK6String9compareToERKS_
00000000         *UND*	00000000 strcmp
00000000 g     F .text._ZNK6String6equalsERKS_	00000038 _ZNK6String6equalsERKS_
00000000 g     F .text._ZNK6String6equalsEPKc	0000002c _ZNK6String6equalsEPKc
00000000 g     F .text._ZNK6StringltERKS_	0000002e _ZNK6StringltERKS_
00000000 g     F .text._ZNK6StringgtERKS_	0000002e _ZNK6StringgtERKS_
00000000 g     F .text._ZNK6StringleERKS_	0000002c _ZNK6StringleERKS_
00000000 g     F .text._ZNK6StringgeERKS_	0000002e _ZNK6StringgeERKS_
00000000 g     F .text._ZNK6String16equalsIgnoreCaseERKS_	00000042 _ZNK6String16equalsIgnoreCaseERKS_
00000000         *UND*	00000000 tolower
00000000 g     F .text._ZNK6String10startsWithERKS_	00000026 _ZNK6String10startsWithERKS_
00000000         *UND*	00000000 strncmp
00000000 g     F .text._ZNK6String10startsWithERKS_j	00000030 _ZNK6String10startsWithERKS_j
00000000 g     F .text._ZNK6String8endsWithERKS_	0000002a _ZNK6String8endsWithERKS_
00000000 g     F .text._ZNK6String6charAtEj	00000012 _ZNK6String6charAtEj
00000000 g     F .text._ZN6String9setCharAtEjc	0000000c _ZN6String9setCharAtEjc
00000000 g     F .text._ZN6StringixEj	0000001c _ZN6StringixEj
00000000 g     F .text._ZNK6StringixEj	00000012 _ZNK6StringixEj
00000000 g     F .text._ZNK6String8getBytesEPhjj	00000036 _ZNK6String8getBytesEPhjj
00000000         *UND*	00000000 strncpy
00000000 g     F .text._ZNK6String7indexOfEc	00000020 _ZNK6String7indexOfEc
00000000         *UND*	00000000 strchr
00000000 g     F .text._ZNK6String7indexOfEcj	00000022 _ZNK6String7indexOfEcj
00000000 g     F .text._ZNK6String7indexOfERKS_	00000022 _ZNK6String7indexOfERKS_
00000000         *UND*	00000000 strstr
00000000 g     F .text._ZNK6String7indexOfERKS_j	00000024 _ZNK6String7indexOfERKS_j
00000000 g     F .text._ZNK6String11lastIndexOfEc	00000028 _ZNK6String11lastIndexOfEc
00000000         *UND*	00000000 strrchr
00000000 g     F .text._ZNK6String11lastIndexOfEcj	0000002c _ZNK6String11lastIndexOfEcj
00000000 g     F .text._ZNK6String11lastIndexOfERKS_j	00000050 _ZNK6String11lastIndexOfERKS_j
00000000 g     F .text._ZNK6String11lastIndexOfERKS_	0000000a _ZNK6String11lastIndexOfERKS_
00000000 g     F .text._ZNK6String9substringEj	00000056 _ZNK6String9substringEj
00000000 g     F .text._ZNK6String9substringEjj	00000054 _ZNK6String9substringEjj
00000000 g     F .text._ZN6String7replaceEcc	0000001e _ZN6String7replaceEcc
00000000 g     F .text._ZN6String7replaceERKS_S1_	0000011c _ZN6String7replaceERKS_S1_
00000000         *UND*	00000000 memmove
00000000 g     F .text._ZN6String6removeEj	00000010 _ZN6String6removeEj
00000000 g     F .text._ZN6String6removeEjj	0000003e _ZN6String6removeEjj
00000000 g     F .text._ZN6String11toLowerCaseEv	0000001e _ZN6String11toLowerCaseEv
00000000 g     F .text._ZN6String11toUpperCaseEv	0000001e _ZN6String11toUpperCaseEv
00000000         *UND*	00000000 toupper
00000000 g     F .text._ZN6String4trimEv	00000058 _ZN6String4trimEv
00000000         *UND*	00000000 isspace
00000000 g     F .text._ZNK6String5toIntEv	0000000a _ZNK6String5toIntEv
00000000         *UND*	00000000 atol
00000000 g     F .text._ZNK6String7toFloatEv	00000014 _ZNK6String7toFloatEv
00000000         *UND*	00000000 strtof
00000000 g     O .rodata._ZN6String15zeroterminationE	00000001 _ZN6String15zeroterminationE


Contents of section .text._ZN6StringC2EPKc:
 0000 f8b50026 0446c0e9 00668660 29b10846  ...&.F...f.`)..F
 0010 0d46fff7 feff0746 08b92046 f8bd0130  .F.....F.. F...0
 0020 fff7feff 0028f8d0 29460670 2060c4e9  .....(..)F.p `..
 0030 0177fff7 feff2046 f8bd00bf           .w.... F....    
Contents of section .text._ZN6StringC2EPK19__FlashStringHelper:
 0000 f8b50027 04460e46 07600846 c4e90177  ...'.F.F.`.F...w
 0010 fff7feff 08b92046 f8bd0546 0130fff7  ...... F...F.0..
 0020 feff0028 f7d03146 07702060 c4e90155  ...(..1F.p `...U
 0030 fff7feff 2046f8bd                    .... F..        
Contents of section .text._ZN6StringC2ERKS_:
 0000 f8b58842 4ff00005 04468560 c0e90055  ...BO....F.`...U
 0010 02d08e68 0f680eb9 2046f8bd 701cfff7  ...h.h.. F..p...
 0020 feff0028 f8d03946 05702060 c4e90166  ...(..9F.p `...f
 0030 fff7feff 2046f8bd                    .... F..        
Contents of section .text._ZN6StringC2EOS_:
 0000 00238842 c0e90033 83600cd0 10b4d1e9  .#.B...3.`......
 0010 0042c1e9 0033c0e9 00428a68 5df8044b  .B...3...B.h]..K
 0020 8b608260 70477047                    .`.`pGpG        
Contents of section .text._ZN6StringC2EO15StringSumHelper:
 0000 00238142 c0e90033 83600cd0 10b4d1e9  .#.B...3.`......
 0010 0042c1e9 0033c0e9 00428a68 5df8044b  .B...3...B.h]..K
 0020 8b608260 70477047                    .`.`pGpG        
Contents of section .text._ZN6StringC2Ec:
 0000 30b50446 002583b0 02202560 a5608df8  0..F.%... %`.`..
 0010 05508df8 0410fff7 feff50b1 012201a9  .P........P.."..
 0020 20600570 c4e90122 fff7feff 204603b0   `.p...".... F..
 0030 30bd6060 204603b0 30bd00bf           0.`` F..0...    
Contents of section .text._ZN6StringD2Ev:
 0000 10b50446 0068fff7 feff2046 10bd00bf  ...F.h.... F....
Contents of section .text._ZN6String7reserveEj:
 0000 38b54368 8b4201d3 012038bd 04460d46  8.Ch.B... 8..F.F
 0010 00680131 fff7feff 03460028 f5d0a268  .h.1.....F.(...h
 0020 c4e90005 002aefd1 01201a70 38bd00bf  .....*... .p8...
Contents of section .text._ZN6String12changeBufferEj:
 0000 38b50446 0d460068 0131fff7 feff0346  8..F.F.h.1.....F
 0010 10b10120 c4e90035 38bd00bf           ... ...58...    
Contents of section .text._ZN6String4copyEPKcj:
 0000 f8b50446 154632b9 036803b1 1a700023  ...F.F2..h...p.#
 0010 2046a360 f8bd4368 0e469a42 1cd9511c   F.`..Ch.F.B..Q.
 0020 0068fff7 feff0746 60b1a368 c4e90005  .h.....F`..h....
 0030 0bb90370 27683146 3846a560 fff7feff  ...p'h1F8F.`....
 0040 2046f8bd 206810b1 fff7feff 27600023   F.. h......'`.#
 0050 2046c4e9 0133f8bd 07683146 a5603846   F...3...h1F.`8F
 0060 fff7feff ece700bf                    ........        
Contents of section .text._ZN6StringC2Eh:
 0000 10b50023 82b00446 0a220846 01a9a360  ...#...F.".F...`
 0010 c4e90033 fff7feff 01a8fff7 feff01a9  ...3............
 0020 02462046 fff7feff 204602b0 10bd00bf  .F F.... F......
Contents of section .text._ZN6StringC2Eih:
 0000 10b50023 8ab00446 084601a9 a360c4e9  ...#...F.F...`..
 0010 0033fff7 feff01a8 fff7feff 01a90246  .3.............F
 0020 2046fff7 feff2046 0ab010bd            F.... F....    
Contents of section .text._ZN6StringC2Ejh:
 0000 10b50023 8ab00446 084601a9 a360c4e9  ...#...F.F...`..
 0010 0033fff7 feff01a8 fff7feff 01a90246  .3.............F
 0020 2046fff7 feff2046 0ab010bd            F.... F....    
Contents of section .text._ZN6StringC2Elh:
 0000 10b50023 8ab00446 084601a9 a360c4e9  ...#...F.F...`..
 0010 0033fff7 feff01a8 fff7feff 01a90246  .3.............F
 0020 2046fff7 feff2046 0ab010bd            F.... F....    
Contents of section .text._ZN6StringC2Emh:
 0000 10b50023 8ab00446 084601a9 a360c4e9  ...#...F.F...`..
 0010 0033fff7 feff01a8 fff7feff 01a90246  .3.............F
 0020 2046fff7 feff2046 0ab010bd            F.... F....    
Contents of section .text._ZN6StringC2Exh:
 0000 10b51946 92b00446 00231046 01aaa360  ...F...F.#.F...`
 0010 c4e90033 9df85030 fff7feff 01a8fff7  ...3..P0........
 0020 feff01a9 02462046 fff7feff 204612b0  .....F F.... F..
 0030 10bd00bf                             ....            
Contents of section .text._ZN6StringC2Eyh:
 0000 10b51946 92b00446 00231046 01aaa360  ...F...F.#.F...`
 0010 c4e90033 9df85030 fff7feff 01a8fff7  ...3..P0........
 0020 feff01a9 02462046 fff7feff 204612b0  .....F F.... F..
 0030 10bd00bf                             ....            
Contents of section .text._ZN6StringC2Efh:
 0000 30b50023 04468bb0 881ca360 6a46c4e9  0..#.F.....`jF..
 0010 0033fff7 feff0546 48b1fff7 feff2946  .3.....FH.....)F
 0020 02462046 fff7feff 20460bb0 30bda060  .F F.... F..0..`
 0030 20460bb0 30bd00bf                     F..0...        
Contents of section .text._ZN6String4moveERS_:
 0000 814211d0 38b50546 00680c46 08b1fff7  .B..8..F.h.F....
 0010 feffa068 0023d4e9 0012a860 c5e90012  ...h.#.....`....
 0020 c4e90033 a36038bd 704700bf           ...3.`8.pG..    
Contents of section .text._ZN6StringaSERKS_:
 0000 814203d0 8a680968 fff7febf 704700bf  .B...h.h....pG..
Contents of section .text._ZN6StringaSEOS_:
 0000 884238b5 05460ed0 00680c46 08b1fff7  .B8..F...h.F....
 0010 feffa068 0023d4e9 0012a860 c5e90012  ...h.#.....`....
 0020 c4e90033 a3602846 38bd00bf           ...3.`(F8...    
Contents of section .text._ZN6StringaSEO15StringSumHelper:
 0000 814238b5 05460ed0 00680c46 08b1fff7  .B8..F...h.F....
 0010 feffa068 0023d4e9 0012a860 c5e90012  ...h.#.....`....
 0020 c4e90033 a3602846 38bd00bf           ...3.`(F8...    
Contents of section .text._ZN6StringaSEPKc:
 0000 38b50546 0c4649b1 0846fff7 feff2146  8..F.FI..F....!F
 0010 02462846 fff7feff 284638bd 2846a960  .F(F....(F8.(F.`
 0020 38bd00bf                             8...            
Contents of section .text._ZN6StringaSEPK19__FlashStringHelper:
 0000 10b50446 82b00846 0191fff7 feff0199  ...F...F........
 0010 02462046 fff7feff 204602b0 10bd00bf  .F F.... F......
Contents of section .text._ZN6StringaSEc:
 0000 30b50023 83b00446 8df80530 43688df8  0..#...F...0Ch..
 0010 04104bb1 05680123 01a92846 a360fff7  ..K..h.#..(F.`..
 0020 feff2046 03b030bd 02210068 fff7feff  .. F..0..!.h....
 0030 054640b1 0122a368 c4e90002 002bead1  .F@..".h.....+..
 0040 03702568 e7e72068 10b1fff7 feff2560  .p%h.. h......%`
 0050 00232046 c4e90133 03b030bd           .# F...3..0.    
Contents of section .text._ZN6String6appendEPKcj:
 0000 2de9f843 04460068 0d461646 8842a368  -..C.F.h.F.F.B.h
 0010 09d8c218 914206d2 0f1a4ff0 010936b9  .....B....O...6.
 0020 2046bde8 f8834ff0 0009002e f8d003eb   F....O.........
 0030 06086268 90450cd9 08f10101 fff7feff  ..bh.E..........
 0040 0028edd0 a368c4e9 000813b9 03702068  .(...h.......p h
 0050 a368b9f1 000f08d1 29461844 fff7feff  .h......)F.D....
 0060 2046c4f8 0880bde8 f8833246 c1191844   F........2F...D
 0070 fff7feff 23680022 03f80820 f0e700bf  ....#h."... ....
Contents of section .text._ZN6String6appendERKS_:
 0000 8a680968 fff7febf                    .h.h....        
Contents of section .text._ZN6String6appendEPKc:
 0000 38b50546 41b10c46 0846fff7 feff0246  8..FA..F.F.....F
 0010 21462846 fff7feff 284638bd           !F(F....(F8.    
Contents of section .text._ZN6String6appendEc:
 0000 10b582b0 00230446 01228df8 041001a9  .....#.F."......
 0010 8df80530 fff7feff 204602b0 10bd00bf  ...0.... F......
Contents of section .text._ZN6String6appendEi:
 0000 10b50b46 84b00446 0a2201a9 1846fff7  ...F...F."...F..
 0010 feff01a8 fff7feff 01a90246 2046fff7  ...........F F..
 0020 feff2046 04b010bd                    .. F....        
Contents of section .text._ZN6String6appendEj:
 0000 10b50b46 84b00446 0a2201a9 1846fff7  ...F...F."...F..
 0010 feff01a8 fff7feff 01a90246 2046fff7  ...........F F..
 0020 feff2046 04b010bd                    .. F....        
Contents of section .text._ZN6String6appendEl:
 0000 10b50b46 84b00446 0a2201a9 1846fff7  ...F...F."...F..
 0010 feff01a8 fff7feff 01a90246 2046fff7  ...........F F..
 0020 feff2046 04b010bd                    .. F....        
Contents of section .text._ZN6String6appendEm:
 0000 10b50b46 84b00446 0a2201a9 1846fff7  ...F...F."...F..
 0010 feff01a8 fff7feff 01a90246 2046fff7  ...........F F..
 0020 feff2046 04b010bd                    .. F....        
Contents of section .text._ZN6String6appendEx:
 0000 d0b51f46 86b00446 0a233946 10466a46  ...F...F.#9F.FjF
 0010 fff7feff 6846fff7 feff6946 02462046  ....hF....iF.F F
 0020 fff7feff 204606b0 d0bd00bf           .... F......    
Contents of section .text._ZN6String6appendEy:
 0000 d0b51f46 86b00446 0a233946 10466a46  ...F...F.#9F.FjF
 0010 fff7feff 6846fff7 feff6946 02462046  ....hF....iF.F F
 0020 fff7feff 204606b0 d0bd00bf           .... F......    
Contents of section .text._ZN6String6appendEf:
 0000 10b588b0 04460221 04206a46 fff7feff  .....F.!. jF....
 0010 6846fff7 feff6946 02462046 fff7feff  hF....iF.F F....
 0020 204608b0 10bd00bf                     F......        
Contents of section .text._ZplRK15StringSumHelperRK6String:
 0000 10b50446 8a680968 fff7feff 204610bd  ...F.h.h.... F..
Contents of section .text._ZplRK15StringSumHelperPKc:
 0000 38b50546 41b10c46 0846fff7 feff0246  8..FA..F.F.....F
 0010 21462846 fff7feff 284638bd           !F(F....(F8.    
Contents of section .text._ZplRK15StringSumHelperPK19__FlashStringHelper:
 0000 10b50446 82b00846 0191fff7 feff0199  ...F...F........
 0010 02462046 fff7feff 204602b0 10bd00bf  .F F.... F......
Contents of section .text._ZplRK15StringSumHelperc:
 0000 10b582b0 00230446 01228df8 041001a9  .....#.F."......
 0010 8df80530 fff7feff 204602b0 10bd00bf  ...0.... F......
Contents of section .text._ZplRK15StringSumHelperh:
 0000 10b50b46 84b00446 0a2201a9 1846fff7  ...F...F."...F..
 0010 feff01a8 fff7feff 01a90246 2046fff7  ...........F F..
 0020 feff2046 04b010bd                    .. F....        
Contents of section .text._ZplRK15StringSumHelperi:
 0000 10b50b46 84b00446 0a2201a9 1846fff7  ...F...F."...F..
 0010 feff01a8 fff7feff 01a90246 2046fff7  ...........F F..
 0020 feff2046 04b010bd                    .. F....        
Contents of section .text._ZplRK15StringSumHelperj:
 0000 10b50b46 84b00446 0a2201a9 1846fff7  ...F...F."...F..
 0010 feff01a8 fff7feff 01a90246 2046fff7  ...........F F..
 0020 feff2046 04b010bd                    .. F....        
Contents of section .text._ZplRK15StringSumHelperl:
 0000 10b50b46 84b00446 0a2201a9 1846fff7  ...F...F."...F..
 0010 feff01a8 fff7feff 01a90246 2046fff7  ...........F F..
 0020 feff2046 04b010bd                    .. F....        
Contents of section .text._ZplRK15StringSumHelperm:
 0000 10b50b46 84b00446 0a2201a9 1846fff7  ...F...F."...F..
 0010 feff01a8 fff7feff 01a90246 2046fff7  ...........F F..
 0020 feff2046 04b010bd                    .. F....        
Contents of section .text._ZplRK15StringSumHelperx:
 0000 d0b51f46 86b00446 0a233946 10466a46  ...F...F.#9F.FjF
 0010 fff7feff 6846fff7 feff6946 02462046  ....hF....iF.F F
 0020 fff7feff 204606b0 d0bd00bf           .... F......    
Contents of section .text._ZplRK15StringSumHelpery:
 0000 d0b51f46 86b00446 0a233946 10466a46  ...F...F.#9F.FjF
 0010 fff7feff 6846fff7 feff6946 02462046  ....hF....iF.F F
 0020 fff7feff 204606b0 d0bd00bf           .... F......    
Contents of section .text._ZplRK15StringSumHelperf:
 0000 10b588b0 04460221 04206a46 fff7feff  .....F.!. jF....
 0010 6846fff7 feff6946 02462046 fff7feff  hF....iF.F F....
 0020 204608b0 10bd00bf                     F......        
Contents of section .text._ZplRK15StringSumHelperd:
 0000 10b588b0 b7eec00b 04460221 6a460420  .........F.!jF. 
 0010 fff7feff 6846fff7 feff6946 02462046  ....hF....iF.F F
 0020 fff7feff 204608b0 10bd00bf           .... F......    
Contents of section .text._ZNK6String9compareToERKS_:
 0000 026842b1 096811b1 1046fff7 febf8068  .hB..h...F.....h
 0010 50b11078 70470868 28b18b68 13b10078  P..xpG.h(..h...x
 0020 40427047 18467047 704700bf           @BpG.FpGpG..    
Contents of section .text._ZNK6String6equalsERKS_:
 0000 8a6808b5 83689342 01d00020 08bd0068  .h...h.B... ...h
 0010 50b10968 29b1fff7 feffb0fa 80f04009  P..h).........@.
 0020 08bd3bb1 0078f8e7 0a681ab1 13b11078  ..;..x...h.....x
 0030 4042f2e7 012008bd                    @B... ..        
Contents of section .text._ZNK6String6equalsEPKc:
 0000 826808b5 0b463ab1 61b10068 fff7feff  .h...F:.a..h....
 0010 b0fa80f0 400908bd 31b11878 b0fa80f0  ....@...1..x....
 0020 400908bd 0368f8e7 012008bd           @....h... ..    
Contents of section .text._ZNK6StringltERKS_:
 0000 006808b5 38b10968 19b1fff7 feffc00f  .h..8..h........
 0010 08bd0846 08bd0868 0028f9d0 8b6823b1  ...F...h.(...h#.
 0020 00780038 18bf0120 08bd1846 08bd00bf  .x.8... ...F....
Contents of section .text._ZNK6StringgtERKS_:
 0000 08b50368 8bb10968 39b11846 fff7feff  ...h...h9..F....
 0010 0028d4bf 00200120 08bd8068 0028fbd0  .(... . ...h.(..
 0020 18780038 18bf0120 08bd1846 08bd00bf  .x.8... ...F....
Contents of section .text._ZNK6StringleERKS_:
 0000 08b50368 83b10968 39b11846 fff7feff  ...h...h9..F....
 0010 0028ccbf 00200120 08bd8268 22b11878  .(... . ...h"..x
 0020 b0fa80f0 400908bd 012008bd           ....@.... ..    
Contents of section .text._ZNK6StringgeERKS_:
 0000 006808b5 40b10968 21b1fff7 feffc043  .h..@..h!......C
 0010 c00f08bd 012008bd 0b68002b fad08a68  ..... ...h.+...h
 0020 002af7d0 1878b0fa 80f04009 08bd00bf  .*...x....@.....
Contents of section .text._ZNK6String16equalsIgnoreCaseERKS_:
 0000 88421ad0 83688a68 934214d1 abb170b5  .B...h.h.B....p.
 0010 05680e68 013d08e0 fff7feff 044616f8  .h.h.=.......F..
 0020 010bfff7 feff8442 09d115f8 010f0028  .......B.......(
 0030 f2d10120 70bd0020 70470120 70470020  ... p.. pG. pG. 
 0040 70bd00bf                             p...            
Contents of section .text._ZNK6String10startsWithERKS_:
 0000 8a6808b5 83689342 09d30068 30b10968  .h...h.B...h0..h
 0010 39b1fff7 feffb0fa 80f04009 08bd0020  9.........@.... 
 0020 08bd0846 08bd00bf                    ...F....        
Contents of section .text._ZNK6String10startsWithERKS_j:
 0000 03461046 8a6810b5 9c68a4eb 020c8445  .F.F.h...h.....E
 0010 0ad31b68 43b10968 41b11844 fff7feff  ...hC..hA..D....
 0020 b0fa80f0 400910bd 002010bd 084610bd  ....@.... ...F..
Contents of section .text._ZNK6String8endsWithERKS_:
 0000 8a6808b5 83689342 0bd30068 40b10968  .h...h.B...h@..h
 0010 49b19b1a 1844fff7 feffb0fa 80f04009  I....D........@.
 0020 08bd0020 08bd0846 08bd00bf           ... ...F....    
Contents of section .text._ZNK6String6charAtEj:
 0000 83689942 03d20068 10b1405c 70470020  .h.B...h..@\pG. 
 0010 704700bf                             pG..            
Contents of section .text._ZN6String9setCharAtEjc:
 0000 83688b42 01d90368 5a547047           .h.B...hZTpG    
Contents of section .text._ZN6StringixEj:
 0000 83688b42 03d90068 08b10844 7047024b  .h.B...h...DpG.K
 0010 00221846 1a707047 00000000           .".F.ppG....    
Contents of section .text._ZNK6StringixEj:
 0000 83688b42 03d90068 10b1405c 70470020  .h.B...h..@\pG. 
 0010 704700bf                             pG..            
Contents of section .text._ZNK6String8getBytesEPhjj:
 0000 c2b170b5 b1fa81f6 0c467609 19b18568  ..p......Fv....h
 0010 9d4201d8 0e7070bd ed1a02f1 ff3c0168  .B...pp......<.h
 0020 20466545 194428bf 65462a46 fff7feff   FeE.D(.eF*F....
 0030 665570bd 704700bf                    fUp.pG..        
Contents of section .text._ZNK6String7indexOfEc:
 0000 83683bb1 10b50468 2046fff7 feff20b1  .h;....h F.... .
 0010 001b10bd 4ff0ff30 70474ff0 ff3010bd  ....O..0pGO..0..
Contents of section .text._ZNK6String7indexOfEcj:
 0000 83689342 07d910b5 0468a018 fff7feff  .h.B.....h......
 0010 20b1001b 10bd4ff0 ff307047 4ff0ff30   .....O..0pGO..0
 0020 10bd00bf                             ....            
Contents of section .text._ZNK6String7indexOfERKS_:
 0000 836843b1 096810b5 04682046 fff7feff  .hC..h...h F....
 0010 20b1001b 10bd4ff0 ff307047 4ff0ff30   .....O..0pGO..0
 0020 10bd00bf                             ....            
Contents of section .text._ZNK6String7indexOfERKS_j:
 0000 83689342 08d90968 10b50468 a018fff7  .h.B...h...h....
 0010 feff20b1 001b10bd 4ff0ff30 70474ff0  .. .....O..0pGO.
 0020 ff3010bd                             .0..            
Contents of section .text._ZNK6String11lastIndexOfEc:
 0000 f8b58568 6db10368 00220446 5f5d5a55  ...hm..h.".F_]ZU
 0010 06683046 fff7feff 775510b1 2368c01a  .h0F....wU..#h..
 0020 f8bd4ff0 ff30f8bd                    ..O..0..        
Contents of section .text._ZNK6String11lastIndexOfEcj:
 0000 f8b58368 93420ed9 0368541c 00220546  ...h.B...hT..".F
 0010 1f5d1a55 06683046 fff7feff 375510b1  .].U.h0F....7U..
 0020 2b68c01a f8bd4ff0 ff30f8bd           +h....O..0..    
Contents of section .text._ZNK6String11lastIndexOfERKS_j:
 0000 2de9f041 15468a68 fab18368 ebb19a42  -..A.F.h...h...B
 0010 1bd8ab42 066898bf 03f1ff35 771914d2  ...B.h.....5w...
 0020 d1f80080 30464ff0 ff3406e0 831b0130  ....0FO..4.....0
 0030 ab4298bf 1c46b842 04d84146 fff7feff  .B...F.B..AF....
 0040 0028f3d1 2046bde8 f0814ff0 ff34f9e7  .(.. F....O..4..
Contents of section .text._ZNK6String11lastIndexOfERKS_:
 0000 82688b68 d21afff7 febf00bf           .h.h........    
Contents of section .text._ZNK6String9substringEj:
 0000 2de9f041 8f680e46 05469742 02d21346  -..A.h.F.F.B...F
 0010 3a461f46 0023ab60 b0689042 c5e90033  :F.F.#.`.h.B...3
 0020 14d38742 316828bf 074611f8 0780cb55  ...B1h(..F.....U
 0030 33689c18 0dd02046 fff7feff 21460246  3h.... F....!F.F
 0040 2846fff7 feff3368 03f80780 2846bde8  (F....3h....(F..
 0050 f081ac60 f8e700bf                    ...`....        
Contents of section .text._ZNK6String9substringEjj:
 0000 9a422de9 f0410546 0e4602d9 11461a46  .B-..A.F.F...F.F
 0010 0b460021 a960b768 9742c5e9 001114d3  .F.!.`.h.B......
 0020 9f4228bf 1f463368 13f80780 d9553368  .B(..F3h.....U3h
 0030 9c180dd0 2046fff7 feff2146 02462846  .... F....!F.F(F
 0040 fff7feff 336803f8 07802846 bde8f081  ....3h....(F....
 0050 ac60f8e7                             .`..            
Contents of section .text._ZN6String7replaceEcc:
 0000 10b40468 44b12378 33b19942 08bf2270  ...hD.#x3..B.."p
 0010 14f8013f 002bf8d1 5df8044b 704700bf  ...?.+..]..KpG..
Contents of section .text._ZN6String7replaceERKS_S1_:
 0000 83682de9 f04f0546 83b0002b 45d0d1f8  .h-..O.F...+E...
 0010 08a00f46 baf1000f 3fd0d2f8 08b01646  ...F....?......F
 0020 0468abeb 0a08b8f1 000f40d0 4bdbd1f8  .h........@.K...
 0030 00b09946 204601e0 c1445044 59460193  ...F F...DPDYF..
 0040 fff7feff 019b0028 f6d14b45 25d06a68  .......(..KE%.jh
 0050 4a4558d3 5a1e20d4 4ff00009 17e0bb68  JEX.Z. .O......h
 0060 29682344 aa681944 d21a01eb 0800fff7  )h#D.h.D........
 0070 feffab68 2a684344 ab6002f8 03902868  ...h*hCD.`....(h
 0080 b2682044 3168fff7 feff621e 2cb13946  .h D1h....b.,.9F
 0090 2846fff7 feff041e e1da2846 03b0bde8  (F........(F....
 00a0 f08f3168 fff7feff d6f808b0 5c442046  ..1h........\D F
 00b0 3968fff7 feff5a46 04460028 f1d12846  9h....ZF.F.(..(F
 00c0 03b0bde8 f08fa246 10e0a9eb 04029244  .......F.......D
 00d0 fff7feff b2685046 3168fff7 feffab68  .....hPF1h.....h
 00e0 b268bc68 43449244 4c44ab60 39682046  .h.hCD.DLD.`9h F
 00f0 fff7feff 81462146 5046b9f1 000fe4d1  .....F!FPF......
 0100 fff7feff c9e72046 09f10101 fff7feff  ...... F........
 0110 0028c2d0 ab68c5e9 00099be7           .(...h......    
Contents of section .text._ZN6String6removeEj:
 0000 83688b42 03d90368 00228160 5a547047  .h.B...h.".`ZTpG
Contents of section .text._ZN6String6removeEjj:
 0000 10b50446 0846a168 0ab18142 01d82046  ...F.F.h...B.. F
 0010 10bd00eb 020c6145 0ed38b1a 61461a1a  ......aE....aF..
 0020 a3602368 19441844 fff7feff 2268a368  .`#h.D.D...."h.h
 0030 00212046 d15410bd 03460022 f0e700bf  .! F.T...F."....
Contents of section .text._ZN6String11toLowerCaseEv:
 0000 38b50468 054644b1 207830b1 fff7feff  8..h.FD. x0.....
 0010 207014f8 010f0028 f8d12846 38bd00bf   p.....(..(F8...
Contents of section .text._ZN6String11toUpperCaseEv:
 0000 38b50468 054644b1 207830b1 fff7feff  8..h.FD. x0.....
 0010 207014f8 010f0028 f8d12846 38bd00bf   p.....(..(F8...
Contents of section .text._ZN6String4trimEv:
 0000 2de9f041 07680646 e7b18468 d4b1b846  -..A.h.F...h...F
 0010 454618f8 010bfff7 feff0028 f8d1013c  EF.........(...<
 0020 3c4402e0 a54205d8 013c2078 fff7feff  <D...B...< x....
 0030 0028f7d1 621caf42 a2eb0502 b26004d3  .(..b..B.....`..
 0040 0023bb54 3046bde8 f0813846 2946fff7  .#.T0F....8F)F..
 0050 feff3768 b268f3e7                    ..7h.h..        
Contents of section .text._ZNK6String5toIntEv:
 0000 006808b1 fff7febf 704700bf           .h......pG..    
Contents of section .text._ZNK6String7toFloatEv:
 0000 006810b1 0021fff7 febf9fed 010a7047  .h...!........pG
 0010 00000000                             ....            
Contents of section .rodata._ZN6String15zeroterminationE:
 0000 00                                   .               
Contents of section .comment:
 0000 00474343 3a202841 726d2047 4e552054  .GCC: (Arm GNU T
 0010 6f6f6c63 6861696e 2031312e 332e5265  oolchain 11.3.Re
 0020 6c312920 31312e33 2e312032 30323230  l1) 11.3.1 20220
 0030 37313200                             712.            
Contents of section .ARM.attributes:
 0000 41310000 00616561 62690001 27000000  A1...aeabi..'...
 0010 0537452d 4d00060d 074d0902 0a081204  .7E-M....M......
 0020 14011501 17031801 19011a01 1c011e02  ................
 0030 2201                                 ".              

Disassembly of section .text._ZN6StringC2EPKc:

00000000 <_ZN6StringC1EPKc>:
   0:	b5f8      	push	{r3, r4, r5, r6, r7, lr}
   2:	2600      	movs	r6, #0
   4:	4604      	mov	r4, r0
   6:	e9c0 6600 	strd	r6, r6, [r0]
   a:	6086      	str	r6, [r0, #8]
   c:	b129      	cbz	r1, 1a <_ZN6StringC1EPKc+0x1a>
   e:	4608      	mov	r0, r1
  10:	460d      	mov	r5, r1
  12:	f7ff fffe 	bl	0 <strlen>
  16:	4607      	mov	r7, r0
  18:	b908      	cbnz	r0, 1e <_ZN6StringC1EPKc+0x1e>
  1a:	4620      	mov	r0, r4
  1c:	bdf8      	pop	{r3, r4, r5, r6, r7, pc}
  1e:	3001      	adds	r0, #1
  20:	f7ff fffe 	bl	0 <malloc>
  24:	2800      	cmp	r0, #0
  26:	d0f8      	beq.n	1a <_ZN6StringC1EPKc+0x1a>
  28:	4629      	mov	r1, r5
  2a:	7006      	strb	r6, [r0, #0]
  2c:	6020      	str	r0, [r4, #0]
  2e:	e9c4 7701 	strd	r7, r7, [r4, #4]
  32:	f7ff fffe 	bl	0 <strcpy>
  36:	4620      	mov	r0, r4
  38:	bdf8      	pop	{r3, r4, r5, r6, r7, pc}
  3a:	bf00      	nop

Disassembly of section .text._ZN6StringC2EPK19__FlashStringHelper:

00000000 <_ZN6StringC1EPK19__FlashStringHelper>:
   0:	b5f8      	push	{r3, r4, r5, r6, r7, lr}
   2:	2700      	movs	r7, #0
   4:	4604      	mov	r4, r0
   6:	460e      	mov	r6, r1
   8:	6007      	str	r7, [r0, #0]
   a:	4608      	mov	r0, r1
   c:	e9c4 7701 	strd	r7, r7, [r4, #4]
  10:	f7ff fffe 	bl	0 <strlen>
  14:	b908      	cbnz	r0, 1a <_ZN6StringC1EPK19__FlashStringHelper+0x1a>
  16:	4620      	mov	r0, r4
  18:	bdf8      	pop	{r3, r4, r5, r6, r7, pc}
  1a:	4605      	mov	r5, r0
  1c:	3001      	adds	r0, #1
  1e:	f7ff fffe 	bl	0 <malloc>
  22:	2800      	cmp	r0, #0
  24:	d0f7      	beq.n	16 <_ZN6StringC1EPK19__FlashStringHelper+0x16>
  26:	4631      	mov	r1, r6
  28:	7007      	strb	r7, [r0, #0]
  2a:	6020      	str	r0, [r4, #0]
  2c:	e9c4 5501 	strd	r5, r5, [r4, #4]
  30:	f7ff fffe 	bl	0 <strcpy>
  34:	4620      	mov	r0, r4
  36:	bdf8      	pop	{r3, r4, r5, r6, r7, pc}

Disassembly of section .text._ZN6StringC2ERKS_:

00000000 <_ZN6StringC1ERKS_>:
   0:	b5f8      	push	{r3, r4, r5, r6, r7, lr}
   2:	4288      	cmp	r0, r1
   4:	f04f 0500 	mov.w	r5, #0
   8:	4604      	mov	r4, r0
   a:	6085      	str	r5, [r0, #8]
   c:	e9c0 5500 	strd	r5, r5, [r0]
  10:	d002      	beq.n	18 <_ZN6StringC1ERKS_+0x18>
  12:	688e      	ldr	r6, [r1, #8]
  14:	680f      	ldr	r7, [r1, #0]
  16:	b90e      	cbnz	r6, 1c <_ZN6StringC1ERKS_+0x1c>
  18:	4620      	mov	r0, r4
  1a:	bdf8      	pop	{r3, r4, r5, r6, r7, pc}
  1c:	1c70      	adds	r0, r6, #1
  1e:	f7ff fffe 	bl	0 <malloc>
  22:	2800      	cmp	r0, #0
  24:	d0f8      	beq.n	18 <_ZN6StringC1ERKS_+0x18>
  26:	4639      	mov	r1, r7
  28:	7005      	strb	r5, [r0, #0]
  2a:	6020      	str	r0, [r4, #0]
  2c:	e9c4 6601 	strd	r6, r6, [r4, #4]
  30:	f7ff fffe 	bl	0 <strcpy>
  34:	4620      	mov	r0, r4
  36:	bdf8      	pop	{r3, r4, r5, r6, r7, pc}

Disassembly of section .text._ZN6StringC2EOS_:

00000000 <_ZN6StringC1EOS_>:
   0:	2300      	movs	r3, #0
   2:	4288      	cmp	r0, r1
   4:	e9c0 3300 	strd	r3, r3, [r0]
   8:	6083      	str	r3, [r0, #8]
   a:	d00c      	beq.n	26 <_ZN6StringC1EOS_+0x26>
   c:	b410      	push	{r4}
   e:	e9d1 4200 	ldrd	r4, r2, [r1]
  12:	e9c1 3300 	strd	r3, r3, [r1]
  16:	e9c0 4200 	strd	r4, r2, [r0]
  1a:	688a      	ldr	r2, [r1, #8]
  1c:	f85d 4b04 	ldr.w	r4, [sp], #4
  20:	608b      	str	r3, [r1, #8]
  22:	6082      	str	r2, [r0, #8]
  24:	4770      	bx	lr
  26:	4770      	bx	lr

Disassembly of section .text._ZN6StringC2EO15StringSumHelper:

00000000 <_ZN6StringC1EO15StringSumHelper>:
   0:	2300      	movs	r3, #0
   2:	4281      	cmp	r1, r0
   4:	e9c0 3300 	strd	r3, r3, [r0]
   8:	6083      	str	r3, [r0, #8]
   a:	d00c      	beq.n	26 <_ZN6StringC1EO15StringSumHelper+0x26>
   c:	b410      	push	{r4}
   e:	e9d1 4200 	ldrd	r4, r2, [r1]
  12:	e9c1 3300 	strd	r3, r3, [r1]
  16:	e9c0 4200 	strd	r4, r2, [r0]
  1a:	688a      	ldr	r2, [r1, #8]
  1c:	f85d 4b04 	ldr.w	r4, [sp], #4
  20:	608b      	str	r3, [r1, #8]
  22:	6082      	str	r2, [r0, #8]
  24:	4770      	bx	lr
  26:	4770      	bx	lr

Disassembly of section .text._ZN6StringC2Ec:

00000000 <_ZN6StringC1Ec>:
   0:	b530      	push	{r4, r5, lr}
   2:	4604      	mov	r4, r0
   4:	2500      	movs	r5, #0
   6:	b083      	sub	sp, #12
   8:	2002      	movs	r0, #2
   a:	6025      	str	r5, [r4, #0]
   c:	60a5      	str	r5, [r4, #8]
   e:	f88d 5005 	strb.w	r5, [sp, #5]
  12:	f88d 1004 	strb.w	r1, [sp, #4]
  16:	f7ff fffe 	bl	0 <malloc>
  1a:	b150      	cbz	r0, 32 <_ZN6StringC1Ec+0x32>
  1c:	2201      	movs	r2, #1
  1e:	a901      	add	r1, sp, #4
  20:	6020      	str	r0, [r4, #0]
  22:	7005      	strb	r5, [r0, #0]
  24:	e9c4 2201 	strd	r2, r2, [r4, #4]
  28:	f7ff fffe 	bl	0 <strcpy>
  2c:	4620      	mov	r0, r4
  2e:	b003      	add	sp, #12
  30:	bd30      	pop	{r4, r5, pc}
  32:	6060      	str	r0, [r4, #4]
  34:	4620      	mov	r0, r4
  36:	b003      	add	sp, #12
  38:	bd30      	pop	{r4, r5, pc}
  3a:	bf00      	nop

Disassembly of section .text._ZN6StringD2Ev:

00000000 <_ZN6StringD1Ev>:
   0:	b510      	push	{r4, lr}
   2:	4604      	mov	r4, r0
   4:	6800      	ldr	r0, [r0, #0]
   6:	f7ff fffe 	bl	0 <free>
   a:	4620      	mov	r0, r4
   c:	bd10      	pop	{r4, pc}
   e:	bf00      	nop

Disassembly of section .text._ZN6String7reserveEj:

00000000 <_ZN6String7reserveEj>:
   0:	b538      	push	{r3, r4, r5, lr}
   2:	6843      	ldr	r3, [r0, #4]
   4:	428b      	cmp	r3, r1
   6:	d301      	bcc.n	c <_ZN6String7reserveEj+0xc>
   8:	2001      	movs	r0, #1
   a:	bd38      	pop	{r3, r4, r5, pc}
   c:	4604      	mov	r4, r0
   e:	460d      	mov	r5, r1
  10:	6800      	ldr	r0, [r0, #0]
  12:	3101      	adds	r1, #1
  14:	f7ff fffe 	bl	0 <realloc>
  18:	4603      	mov	r3, r0
  1a:	2800      	cmp	r0, #0
  1c:	d0f5      	beq.n	a <_ZN6String7reserveEj+0xa>
  1e:	68a2      	ldr	r2, [r4, #8]
  20:	e9c4 0500 	strd	r0, r5, [r4]
  24:	2a00      	cmp	r2, #0
  26:	d1ef      	bne.n	8 <_ZN6String7reserveEj+0x8>
  28:	2001      	movs	r0, #1
  2a:	701a      	strb	r2, [r3, #0]
  2c:	bd38      	pop	{r3, r4, r5, pc}
  2e:	bf00      	nop

Disassembly of section .text._ZN6String12changeBufferEj:

00000000 <_ZN6String12changeBufferEj>:
   0:	b538      	push	{r3, r4, r5, lr}
   2:	4604      	mov	r4, r0
   4:	460d      	mov	r5, r1
   6:	6800      	ldr	r0, [r0, #0]
   8:	3101      	adds	r1, #1
   a:	f7ff fffe 	bl	0 <realloc>
   e:	4603      	mov	r3, r0
  10:	b110      	cbz	r0, 18 <_ZN6String12changeBufferEj+0x18>
  12:	2001      	movs	r0, #1
  14:	e9c4 3500 	strd	r3, r5, [r4]
  18:	bd38      	pop	{r3, r4, r5, pc}
  1a:	bf00      	nop

Disassembly of section .text._ZN6String4copyEPKcj:

00000000 <_ZN6String4copyEPKcj>:
   0:	b5f8      	push	{r3, r4, r5, r6, r7, lr}
   2:	4604      	mov	r4, r0
   4:	4615      	mov	r5, r2
   6:	b932      	cbnz	r2, 16 <_ZN6String4copyEPKcj+0x16>
   8:	6803      	ldr	r3, [r0, #0]
   a:	b103      	cbz	r3, e <_ZN6String4copyEPKcj+0xe>
   c:	701a      	strb	r2, [r3, #0]
   e:	2300      	movs	r3, #0
  10:	4620      	mov	r0, r4
  12:	60a3      	str	r3, [r4, #8]
  14:	bdf8      	pop	{r3, r4, r5, r6, r7, pc}
  16:	6843      	ldr	r3, [r0, #4]
  18:	460e      	mov	r6, r1
  1a:	429a      	cmp	r2, r3
  1c:	d91c      	bls.n	58 <_ZN6String4copyEPKcj+0x58>
  1e:	1c51      	adds	r1, r2, #1
  20:	6800      	ldr	r0, [r0, #0]
  22:	f7ff fffe 	bl	0 <realloc>
  26:	4607      	mov	r7, r0
  28:	b160      	cbz	r0, 44 <_ZN6String4copyEPKcj+0x44>
  2a:	68a3      	ldr	r3, [r4, #8]
  2c:	e9c4 0500 	strd	r0, r5, [r4]
  30:	b90b      	cbnz	r3, 36 <_ZN6String4copyEPKcj+0x36>
  32:	7003      	strb	r3, [r0, #0]
  34:	6827      	ldr	r7, [r4, #0]
  36:	4631      	mov	r1, r6
  38:	4638      	mov	r0, r7
  3a:	60a5      	str	r5, [r4, #8]
  3c:	f7ff fffe 	bl	0 <strcpy>
  40:	4620      	mov	r0, r4
  42:	bdf8      	pop	{r3, r4, r5, r6, r7, pc}
  44:	6820      	ldr	r0, [r4, #0]
  46:	b110      	cbz	r0, 4e <_ZN6String4copyEPKcj+0x4e>
  48:	f7ff fffe 	bl	0 <free>
  4c:	6027      	str	r7, [r4, #0]
  4e:	2300      	movs	r3, #0
  50:	4620      	mov	r0, r4
  52:	e9c4 3301 	strd	r3, r3, [r4, #4]
  56:	bdf8      	pop	{r3, r4, r5, r6, r7, pc}
  58:	6807      	ldr	r7, [r0, #0]
  5a:	4631      	mov	r1, r6
  5c:	60a5      	str	r5, [r4, #8]
  5e:	4638      	mov	r0, r7
  60:	f7ff fffe 	bl	0 <strcpy>
  64:	e7ec      	b.n	40 <_ZN6String4copyEPKcj+0x40>
  66:	bf00      	nop

Disassembly of section .text._ZN6StringC2Eh:

00000000 <_ZN6StringC1Eh>:
   0:	b510      	push	{r4, lr}
   2:	2300      	movs	r3, #0
   4:	b082      	sub	sp, #8
   6:	4604      	mov	r4, r0
   8:	220a      	movs	r2, #10
   a:	4608      	mov	r0, r1
   c:	a901      	add	r1, sp, #4
   e:	60a3      	str	r3, [r4, #8]
  10:	e9c4 3300 	strd	r3, r3, [r4]
  14:	f7ff fffe 	bl	0 <utoa>
  18:	a801      	add	r0, sp, #4
  1a:	f7ff fffe 	bl	0 <strlen>
  1e:	a901      	add	r1, sp, #4
  20:	4602      	mov	r2, r0
  22:	4620      	mov	r0, r4
  24:	f7ff fffe 	bl	0 <_ZN6StringC1Eh>
  28:	4620      	mov	r0, r4
  2a:	b002      	add	sp, #8
  2c:	bd10      	pop	{r4, pc}
  2e:	bf00      	nop

Disassembly of section .text._ZN6StringC2Eih:

00000000 <_ZN6StringC1Eih>:
   0:	b510      	push	{r4, lr}
   2:	2300      	movs	r3, #0
   4:	b08a      	sub	sp, #40	; 0x28
   6:	4604      	mov	r4, r0
   8:	4608      	mov	r0, r1
   a:	a901      	add	r1, sp, #4
   c:	60a3      	str	r3, [r4, #8]
   e:	e9c4 3300 	strd	r3, r3, [r4]
  12:	f7ff fffe 	bl	0 <itoa>
  16:	a801      	add	r0, sp, #4
  18:	f7ff fffe 	bl	0 <strlen>
  1c:	a901      	add	r1, sp, #4
  1e:	4602      	mov	r2, r0
  20:	4620      	mov	r0, r4
  22:	f7ff fffe 	bl	0 <_ZN6StringC1Eih>
  26:	4620      	mov	r0, r4
  28:	b00a      	add	sp, #40	; 0x28
  2a:	bd10      	pop	{r4, pc}

Disassembly of section .text._ZN6StringC2Ejh:

00000000 <_ZN6StringC1Ejh>:
   0:	b510      	push	{r4, lr}
   2:	2300      	movs	r3, #0
   4:	b08a      	sub	sp, #40	; 0x28
   6:	4604      	mov	r4, r0
   8:	4608      	mov	r0, r1
   a:	a901      	add	r1, sp, #4
   c:	60a3      	str	r3, [r4, #8]
   e:	e9c4 3300 	strd	r3, r3, [r4]
  12:	f7ff fffe 	bl	0 <utoa>
  16:	a801      	add	r0, sp, #4
  18:	f7ff fffe 	bl	0 <strlen>
  1c:	a901      	add	r1, sp, #4
  1e:	4602      	mov	r2, r0
  20:	4620      	mov	r0, r4
  22:	f7ff fffe 	bl	0 <_ZN6StringC1Ejh>
  26:	4620      	mov	r0, r4
  28:	b00a      	add	sp, #40	; 0x28
  2a:	bd10      	pop	{r4, pc}

Disassembly of section .text._ZN6StringC2Elh:

00000000 <_ZN6StringC1Elh>:
   0:	b510      	push	{r4, lr}
   2:	2300      	movs	r3, #0
   4:	b08a      	sub	sp, #40	; 0x28
   6:	4604      	mov	r4, r0
   8:	4608      	mov	r0, r1
   a:	a901      	add	r1, sp, #4
   c:	60a3      	str	r3, [r4, #8]
   e:	e9c4 3300 	strd	r3, r3, [r4]
  12:	f7ff fffe 	bl	0 <ltoa>
  16:	a801      	add	r0, sp, #4
  18:	f7ff fffe 	bl	0 <strlen>
  1c:	a901      	add	r1, sp, #4
  1e:	4602      	mov	r2, r0
  20:	4620      	mov	r0, r4
  22:	f7ff fffe 	bl	0 <_ZN6StringC1Elh>
  26:	4620      	mov	r0, r4
  28:	b00a      	add	sp, #40	; 0x28
  2a:	bd10      	pop	{r4, pc}

Disassembly of section .text._ZN6StringC2Emh:

00000000 <_ZN6StringC1Emh>:
   0:	b510      	push	{r4, lr}
   2:	2300      	movs	r3, #0
   4:	b08a      	sub	sp, #40	; 0x28
   6:	4604      	mov	r4, r0
   8:	4608      	mov	r0, r1
   a:	a901      	add	r1, sp, #4
   c:	60a3      	str	r3, [r4, #8]
   e:	e9c4 3300 	strd	r3, r3, [r4]
  12:	f7ff fffe 	bl	0 <ultoa>
  16:	a801      	add	r0, sp, #4
  18:	f7ff fffe 	bl	0 <strlen>
  1c:	a901      	add	r1, sp, #4
  1e:	4602      	mov	r2, r0
  20:	4620      	mov	r0, r4
  22:	f7ff fffe 	bl	0 <_ZN6StringC1Emh>
  26:	4620      	mov	r0, r4
  28:	b00a      	add	sp, #40	; 0x28
  2a:	bd10      	pop	{r4, pc}

Disassembly of section .text._ZN6StringC2Exh:

00000000 <_ZN6StringC1Exh>:
   0:	b510      	push	{r4, lr}
   2:	4619      	mov	r1, r3
   4:	b092      	sub	sp, #72	; 0x48
   6:	4604      	mov	r4, r0
   8:	2300      	movs	r3, #0
   a:	4610      	mov	r0, r2
   c:	aa01      	add	r2, sp, #4
   e:	60a3      	str	r3, [r4, #8]
  10:	e9c4 3300 	strd	r3, r3, [r4]
  14:	f89d 3050 	ldrb.w	r3, [sp, #80]	; 0x50
  18:	f7ff fffe 	bl	0 <lltoa>
  1c:	a801      	add	r0, sp, #4
  1e:	f7ff fffe 	bl	0 <strlen>
  22:	a901      	add	r1, sp, #4
  24:	4602      	mov	r2, r0
  26:	4620      	mov	r0, r4
  28:	f7ff fffe 	bl	0 <_ZN6StringC1Exh>
  2c:	4620      	mov	r0, r4
  2e:	b012      	add	sp, #72	; 0x48
  30:	bd10      	pop	{r4, pc}
  32:	bf00      	nop

Disassembly of section .text._ZN6StringC2Eyh:

00000000 <_ZN6StringC1Eyh>:
   0:	b510      	push	{r4, lr}
   2:	4619      	mov	r1, r3
   4:	b092      	sub	sp, #72	; 0x48
   6:	4604      	mov	r4, r0
   8:	2300      	movs	r3, #0
   a:	4610      	mov	r0, r2
   c:	aa01      	add	r2, sp, #4
   e:	60a3      	str	r3, [r4, #8]
  10:	e9c4 3300 	strd	r3, r3, [r4]
  14:	f89d 3050 	ldrb.w	r3, [sp, #80]	; 0x50
  18:	f7ff fffe 	bl	0 <ulltoa>
  1c:	a801      	add	r0, sp, #4
  1e:	f7ff fffe 	bl	0 <strlen>
  22:	a901      	add	r1, sp, #4
  24:	4602      	mov	r2, r0
  26:	4620      	mov	r0, r4
  28:	f7ff fffe 	bl	0 <_ZN6StringC1Eyh>
  2c:	4620      	mov	r0, r4
  2e:	b012      	add	sp, #72	; 0x48
  30:	bd10      	pop	{r4, pc}
  32:	bf00      	nop

Disassembly of section .text._ZN6StringC2Efh:

00000000 <_ZN6StringC1Efh>:
   0:	b530      	push	{r4, r5, lr}
   2:	2300      	movs	r3, #0
   4:	4604      	mov	r4, r0
   6:	b08b      	sub	sp, #44	; 0x2c
   8:	1c88      	adds	r0, r1, #2
   a:	60a3      	str	r3, [r4, #8]
   c:	466a      	mov	r2, sp
   e:	e9c4 3300 	strd	r3, r3, [r4]
  12:	f7ff fffe 	bl	0 <dtostrf>
  16:	4605      	mov	r5, r0
  18:	b148      	cbz	r0, 2e <_ZN6StringC1Efh+0x2e>
  1a:	f7ff fffe 	bl	0 <strlen>
  1e:	4629      	mov	r1, r5
  20:	4602      	mov	r2, r0
  22:	4620      	mov	r0, r4
  24:	f7ff fffe 	bl	0 <_ZN6StringC1Efh>
  28:	4620      	mov	r0, r4
  2a:	b00b      	add	sp, #44	; 0x2c
  2c:	bd30      	pop	{r4, r5, pc}
  2e:	60a0      	str	r0, [r4, #8]
  30:	4620      	mov	r0, r4
  32:	b00b      	add	sp, #44	; 0x2c
  34:	bd30      	pop	{r4, r5, pc}
  36:	bf00      	nop

Disassembly of section .text._ZN6String4moveERS_:

00000000 <_ZN6String4moveERS_>:
   0:	4281      	cmp	r1, r0
   2:	d011      	beq.n	28 <_ZN6String4moveERS_+0x28>
   4:	b538      	push	{r3, r4, r5, lr}
   6:	4605      	mov	r5, r0
   8:	6800      	ldr	r0, [r0, #0]
   a:	460c      	mov	r4, r1
   c:	b108      	cbz	r0, 12 <_ZN6String4moveERS_+0x12>
   e:	f7ff fffe 	bl	0 <free>
  12:	68a0      	ldr	r0, [r4, #8]
  14:	2300      	movs	r3, #0
  16:	e9d4 1200 	ldrd	r1, r2, [r4]
  1a:	60a8      	str	r0, [r5, #8]
  1c:	e9c5 1200 	strd	r1, r2, [r5]
  20:	e9c4 3300 	strd	r3, r3, [r4]
  24:	60a3      	str	r3, [r4, #8]
  26:	bd38      	pop	{r3, r4, r5, pc}
  28:	4770      	bx	lr
  2a:	bf00      	nop

Disassembly of section .text._ZN6StringaSERKS_:

00000000 <_ZN6StringaSERKS_>:
   0:	4281      	cmp	r1, r0
   2:	d003      	beq.n	c <_ZN6StringaSERKS_+0xc>
   4:	688a      	ldr	r2, [r1, #8]
   6:	6809      	ldr	r1, [r1, #0]
   8:	f7ff bffe 	b.w	0 <_ZN6StringaSERKS_>
   c:	4770      	bx	lr
   e:	bf00      	nop

Disassembly of section .text._ZN6StringaSEOS_:

00000000 <_ZN6StringaSEOS_>:
   0:	4288      	cmp	r0, r1
   2:	b538      	push	{r3, r4, r5, lr}
   4:	4605      	mov	r5, r0
   6:	d00e      	beq.n	26 <_ZN6StringaSEOS_+0x26>
   8:	6800      	ldr	r0, [r0, #0]
   a:	460c      	mov	r4, r1
   c:	b108      	cbz	r0, 12 <_ZN6StringaSEOS_+0x12>
   e:	f7ff fffe 	bl	0 <free>
  12:	68a0      	ldr	r0, [r4, #8]
  14:	2300      	movs	r3, #0
  16:	e9d4 1200 	ldrd	r1, r2, [r4]
  1a:	60a8      	str	r0, [r5, #8]
  1c:	e9c5 1200 	strd	r1, r2, [r5]
  20:	e9c4 3300 	strd	r3, r3, [r4]
  24:	60a3      	str	r3, [r4, #8]
  26:	4628      	mov	r0, r5
  28:	bd38      	pop	{r3, r4, r5, pc}
  2a:	bf00      	nop

Disassembly of section .text._ZN6StringaSEO15StringSumHelper:

00000000 <_ZN6StringaSEO15StringSumHelper>:
   0:	4281      	cmp	r1, r0
   2:	b538      	push	{r3, r4, r5, lr}
   4:	4605      	mov	r5, r0
   6:	d00e      	beq.n	26 <_ZN6StringaSEO15StringSumHelper+0x26>
   8:	6800      	ldr	r0, [r0, #0]
   a:	460c      	mov	r4, r1
   c:	b108      	cbz	r0, 12 <_ZN6StringaSEO15StringSumHelper+0x12>
   e:	f7ff fffe 	bl	0 <free>
  12:	68a0      	ldr	r0, [r4, #8]
  14:	2300      	movs	r3, #0
  16:	e9d4 1200 	ldrd	r1, r2, [r4]
  1a:	60a8      	str	r0, [r5, #8]
  1c:	e9c5 1200 	strd	r1, r2, [r5]
  20:	e9c4 3300 	strd	r3, r3, [r4]
  24:	60a3      	str	r3, [r4, #8]
  26:	4628      	mov	r0, r5
  28:	bd38      	pop	{r3, r4, r5, pc}
  2a:	bf00      	nop

Disassembly of section .text._ZN6StringaSEPKc:

00000000 <_ZN6StringaSEPKc>:
   0:	b538      	push	{r3, r4, r5, lr}
   2:	4605      	mov	r5, r0
   4:	460c      	mov	r4, r1
   6:	b149      	cbz	r1, 1c <_ZN6StringaSEPKc+0x1c>
   8:	4608      	mov	r0, r1
   a:	f7ff fffe 	bl	0 <strlen>
   e:	4621      	mov	r1, r4
  10:	4602      	mov	r2, r0
  12:	4628      	mov	r0, r5
  14:	f7ff fffe 	bl	0 <_ZN6StringaSEPKc>
  18:	4628      	mov	r0, r5
  1a:	bd38      	pop	{r3, r4, r5, pc}
  1c:	4628      	mov	r0, r5
  1e:	60a9      	str	r1, [r5, #8]
  20:	bd38      	pop	{r3, r4, r5, pc}
  22:	bf00      	nop

Disassembly of section .text._ZN6StringaSEPK19__FlashStringHelper:

00000000 <_ZN6StringaSEPK19__FlashStringHelper>:
   0:	b510      	push	{r4, lr}
   2:	4604      	mov	r4, r0
   4:	b082      	sub	sp, #8
   6:	4608      	mov	r0, r1
   8:	9101      	str	r1, [sp, #4]
   a:	f7ff fffe 	bl	0 <strlen>
   e:	9901      	ldr	r1, [sp, #4]
  10:	4602      	mov	r2, r0
  12:	4620      	mov	r0, r4
  14:	f7ff fffe 	bl	0 <_ZN6StringaSEPK19__FlashStringHelper>
  18:	4620      	mov	r0, r4
  1a:	b002      	add	sp, #8
  1c:	bd10      	pop	{r4, pc}
  1e:	bf00      	nop

Disassembly of section .text._ZN6StringaSEc:

00000000 <_ZN6StringaSEc>:
   0:	b530      	push	{r4, r5, lr}
   2:	2300      	movs	r3, #0
   4:	b083      	sub	sp, #12
   6:	4604      	mov	r4, r0
   8:	f88d 3005 	strb.w	r3, [sp, #5]
   c:	6843      	ldr	r3, [r0, #4]
   e:	f88d 1004 	strb.w	r1, [sp, #4]
  12:	b14b      	cbz	r3, 28 <_ZN6StringaSEc+0x28>
  14:	6805      	ldr	r5, [r0, #0]
  16:	2301      	movs	r3, #1
  18:	a901      	add	r1, sp, #4
  1a:	4628      	mov	r0, r5
  1c:	60a3      	str	r3, [r4, #8]
  1e:	f7ff fffe 	bl	0 <strcpy>
  22:	4620      	mov	r0, r4
  24:	b003      	add	sp, #12
  26:	bd30      	pop	{r4, r5, pc}
  28:	2102      	movs	r1, #2
  2a:	6800      	ldr	r0, [r0, #0]
  2c:	f7ff fffe 	bl	0 <realloc>
  30:	4605      	mov	r5, r0
  32:	b140      	cbz	r0, 46 <_ZN6StringaSEc+0x46>
  34:	2201      	movs	r2, #1
  36:	68a3      	ldr	r3, [r4, #8]
  38:	e9c4 0200 	strd	r0, r2, [r4]
  3c:	2b00      	cmp	r3, #0
  3e:	d1ea      	bne.n	16 <_ZN6StringaSEc+0x16>
  40:	7003      	strb	r3, [r0, #0]
  42:	6825      	ldr	r5, [r4, #0]
  44:	e7e7      	b.n	16 <_ZN6StringaSEc+0x16>
  46:	6820      	ldr	r0, [r4, #0]
  48:	b110      	cbz	r0, 50 <_ZN6StringaSEc+0x50>
  4a:	f7ff fffe 	bl	0 <free>
  4e:	6025      	str	r5, [r4, #0]
  50:	2300      	movs	r3, #0
  52:	4620      	mov	r0, r4
  54:	e9c4 3301 	strd	r3, r3, [r4, #4]
  58:	b003      	add	sp, #12
  5a:	bd30      	pop	{r4, r5, pc}

Disassembly of section .text._ZN6String6appendEPKcj:

00000000 <_ZN6String6appendEPKcj>:
   0:	e92d 43f8 	stmdb	sp!, {r3, r4, r5, r6, r7, r8, r9, lr}
   4:	4604      	mov	r4, r0
   6:	6800      	ldr	r0, [r0, #0]
   8:	460d      	mov	r5, r1
   a:	4616      	mov	r6, r2
   c:	4288      	cmp	r0, r1
   e:	68a3      	ldr	r3, [r4, #8]
  10:	d809      	bhi.n	26 <_ZN6String6appendEPKcj+0x26>
  12:	18c2      	adds	r2, r0, r3
  14:	4291      	cmp	r1, r2
  16:	d206      	bcs.n	26 <_ZN6String6appendEPKcj+0x26>
  18:	1a0f      	subs	r7, r1, r0
  1a:	f04f 0901 	mov.w	r9, #1
  1e:	b936      	cbnz	r6, 2e <_ZN6String6appendEPKcj+0x2e>
  20:	4620      	mov	r0, r4
  22:	e8bd 83f8 	ldmia.w	sp!, {r3, r4, r5, r6, r7, r8, r9, pc}
  26:	f04f 0900 	mov.w	r9, #0
  2a:	2e00      	cmp	r6, #0
  2c:	d0f8      	beq.n	20 <_ZN6String6appendEPKcj+0x20>
  2e:	eb03 0806 	add.w	r8, r3, r6
  32:	6862      	ldr	r2, [r4, #4]
  34:	4590      	cmp	r8, r2
  36:	d90c      	bls.n	52 <_ZN6String6appendEPKcj+0x52>
  38:	f108 0101 	add.w	r1, r8, #1
  3c:	f7ff fffe 	bl	0 <realloc>
  40:	2800      	cmp	r0, #0
  42:	d0ed      	beq.n	20 <_ZN6String6appendEPKcj+0x20>
  44:	68a3      	ldr	r3, [r4, #8]
  46:	e9c4 0800 	strd	r0, r8, [r4]
  4a:	b913      	cbnz	r3, 52 <_ZN6String6appendEPKcj+0x52>
  4c:	7003      	strb	r3, [r0, #0]
  4e:	6820      	ldr	r0, [r4, #0]
  50:	68a3      	ldr	r3, [r4, #8]
  52:	f1b9 0f00 	cmp.w	r9, #0
  56:	d108      	bne.n	6a <_ZN6String6appendEPKcj+0x6a>
  58:	4629      	mov	r1, r5
  5a:	4418      	add	r0, r3
  5c:	f7ff fffe 	bl	0 <strcpy>
  60:	4620      	mov	r0, r4
  62:	f8c4 8008 	str.w	r8, [r4, #8]
  66:	e8bd 83f8 	ldmia.w	sp!, {r3, r4, r5, r6, r7, r8, r9, pc}
  6a:	4632      	mov	r2, r6
  6c:	19c1      	adds	r1, r0, r7
  6e:	4418      	add	r0, r3
  70:	f7ff fffe 	bl	0 <memcpy>
  74:	6823      	ldr	r3, [r4, #0]
  76:	2200      	movs	r2, #0
  78:	f803 2008 	strb.w	r2, [r3, r8]
  7c:	e7f0      	b.n	60 <_ZN6String6appendEPKcj+0x60>
  7e:	bf00      	nop

Disassembly of section .text._ZN6String6appendERKS_:

00000000 <_ZN6String6appendERKS_>:
   0:	688a      	ldr	r2, [r1, #8]
   2:	6809      	ldr	r1, [r1, #0]
   4:	f7ff bffe 	b.w	0 <_ZN6String6appendERKS_>

Disassembly of section .text._ZN6String6appendEPKc:

00000000 <_ZN6String6appendEPKc>:
   0:	b538      	push	{r3, r4, r5, lr}
   2:	4605      	mov	r5, r0
   4:	b141      	cbz	r1, 18 <_ZN6String6appendEPKc+0x18>
   6:	460c      	mov	r4, r1
   8:	4608      	mov	r0, r1
   a:	f7ff fffe 	bl	0 <strlen>
   e:	4602      	mov	r2, r0
  10:	4621      	mov	r1, r4
  12:	4628      	mov	r0, r5
  14:	f7ff fffe 	bl	0 <_ZN6String6appendEPKc>
  18:	4628      	mov	r0, r5
  1a:	bd38      	pop	{r3, r4, r5, pc}

Disassembly of section .text._ZN6String6appendEc:

00000000 <_ZN6String6appendEc>:
   0:	b510      	push	{r4, lr}
   2:	b082      	sub	sp, #8
   4:	2300      	movs	r3, #0
   6:	4604      	mov	r4, r0
   8:	2201      	movs	r2, #1
   a:	f88d 1004 	strb.w	r1, [sp, #4]
   e:	a901      	add	r1, sp, #4
  10:	f88d 3005 	strb.w	r3, [sp, #5]
  14:	f7ff fffe 	bl	0 <_ZN6String6appendEc>
  18:	4620      	mov	r0, r4
  1a:	b002      	add	sp, #8
  1c:	bd10      	pop	{r4, pc}
  1e:	bf00      	nop

Disassembly of section .text._ZN6String6appendEi:

00000000 <_ZN6String6appendEi>:
   0:	b510      	push	{r4, lr}
   2:	460b      	mov	r3, r1
   4:	b084      	sub	sp, #16
   6:	4604      	mov	r4, r0
   8:	220a      	movs	r2, #10
   a:	a901      	add	r1, sp, #4
   c:	4618      	mov	r0, r3
   e:	f7ff fffe 	bl	0 <ltoa>
  12:	a801      	add	r0, sp, #4
  14:	f7ff fffe 	bl	0 <strlen>
  18:	a901      	add	r1, sp, #4
  1a:	4602      	mov	r2, r0
  1c:	4620      	mov	r0, r4
  1e:	f7ff fffe 	bl	0 <_ZN6String6appendEi>
  22:	4620      	mov	r0, r4
  24:	b004      	add	sp, #16
  26:	bd10      	pop	{r4, pc}

Disassembly of section .text._ZN6String6appendEj:

00000000 <_ZN6String6appendEj>:
   0:	b510      	push	{r4, lr}
   2:	460b      	mov	r3, r1
   4:	b084      	sub	sp, #16
   6:	4604      	mov	r4, r0
   8:	220a      	movs	r2, #10
   a:	a901      	add	r1, sp, #4
   c:	4618      	mov	r0, r3
   e:	f7ff fffe 	bl	0 <ultoa>
  12:	a801      	add	r0, sp, #4
  14:	f7ff fffe 	bl	0 <strlen>
  18:	a901      	add	r1, sp, #4
  1a:	4602      	mov	r2, r0
  1c:	4620      	mov	r0, r4
  1e:	f7ff fffe 	bl	0 <_ZN6String6appendEj>
  22:	4620      	mov	r0, r4
  24:	b004      	add	sp, #16
  26:	bd10      	pop	{r4, pc}

Disassembly of section .text._ZN6String6appendEl:

00000000 <_ZN6String6appendEl>:
   0:	b510      	push	{r4, lr}
   2:	460b      	mov	r3, r1
   4:	b084      	sub	sp, #16
   6:	4604      	mov	r4, r0
   8:	220a      	movs	r2, #10
   a:	a901      	add	r1, sp, #4
   c:	4618      	mov	r0, r3
   e:	f7ff fffe 	bl	0 <ltoa>
  12:	a801      	add	r0, sp, #4
  14:	f7ff fffe 	bl	0 <strlen>
  18:	a901      	add	r1, sp, #4
  1a:	4602      	mov	r2, r0
  1c:	4620      	mov	r0, r4
  1e:	f7ff fffe 	bl	0 <_ZN6String6appendEl>
  22:	4620      	mov	r0, r4
  24:	b004      	add	sp, #16
  26:	bd10      	pop	{r4, pc}

Disassembly of section .text._ZN6String6appendEm:

00000000 <_ZN6String6appendEm>:
   0:	b510      	push	{r4, lr}
   2:	460b      	mov	r3, r1
   4:	b084      	sub	sp, #16
   6:	4604      	mov	r4, r0
   8:	220a      	movs	r2, #10
   a:	a901      	add	r1, sp, #4
   c:	4618      	mov	r0, r3
   e:	f7ff fffe 	bl	0 <ultoa>
  12:	a801      	add	r0, sp, #4
  14:	f7ff fffe 	bl	0 <strlen>
  18:	a901      	add	r1, sp, #4
  1a:	4602      	mov	r2, r0
  1c:	4620      	mov	r0, r4
  1e:	f7ff fffe 	bl	0 <_ZN6String6appendEm>
  22:	4620      	mov	r0, r4
  24:	b004      	add	sp, #16
  26:	bd10      	pop	{r4, pc}

Disassembly of section .text._ZN6String6appendEx:

00000000 <_ZN6String6appendEx>:
   0:	b5d0      	push	{r4, r6, r7, lr}
   2:	461f      	mov	r7, r3
   4:	b086      	sub	sp, #24
   6:	4604      	mov	r4, r0
   8:	230a      	movs	r3, #10
   a:	4639      	mov	r1, r7
   c:	4610      	mov	r0, r2
   e:	466a      	mov	r2, sp
  10:	f7ff fffe 	bl	0 <lltoa>
  14:	4668      	mov	r0, sp
  16:	f7ff fffe 	bl	0 <strlen>
  1a:	4669      	mov	r1, sp
  1c:	4602      	mov	r2, r0
  1e:	4620      	mov	r0, r4
  20:	f7ff fffe 	bl	0 <_ZN6String6appendEx>
  24:	4620      	mov	r0, r4
  26:	b006      	add	sp, #24
  28:	bdd0      	pop	{r4, r6, r7, pc}
  2a:	bf00      	nop

Disassembly of section .text._ZN6String6appendEy:

00000000 <_ZN6String6appendEy>:
   0:	b5d0      	push	{r4, r6, r7, lr}
   2:	461f      	mov	r7, r3
   4:	b086      	sub	sp, #24
   6:	4604      	mov	r4, r0
   8:	230a      	movs	r3, #10
   a:	4639      	mov	r1, r7
   c:	4610      	mov	r0, r2
   e:	466a      	mov	r2, sp
  10:	f7ff fffe 	bl	0 <ulltoa>
  14:	4668      	mov	r0, sp
  16:	f7ff fffe 	bl	0 <strlen>
  1a:	4669      	mov	r1, sp
  1c:	4602      	mov	r2, r0
  1e:	4620      	mov	r0, r4
  20:	f7ff fffe 	bl	0 <_ZN6String6appendEy>
  24:	4620      	mov	r0, r4
  26:	b006      	add	sp, #24
  28:	bdd0      	pop	{r4, r6, r7, pc}
  2a:	bf00      	nop

Disassembly of section .text._ZN6String6appendEf:

00000000 <_ZN6String6appendEf>:
   0:	b510      	push	{r4, lr}
   2:	b088      	sub	sp, #32
   4:	4604      	mov	r4, r0
   6:	2102      	movs	r1, #2
   8:	2004      	movs	r0, #4
   a:	466a      	mov	r2, sp
   c:	f7ff fffe 	bl	0 <dtostrf>
  10:	4668      	mov	r0, sp
  12:	f7ff fffe 	bl	0 <strlen>
  16:	4669      	mov	r1, sp
  18:	4602      	mov	r2, r0
  1a:	4620      	mov	r0, r4
  1c:	f7ff fffe 	bl	0 <_ZN6String6appendEf>
  20:	4620      	mov	r0, r4
  22:	b008      	add	sp, #32
  24:	bd10      	pop	{r4, pc}
  26:	bf00      	nop

Disassembly of section .text._ZplRK15StringSumHelperRK6String:

00000000 <_ZplRK15StringSumHelperRK6String>:
   0:	b510      	push	{r4, lr}
   2:	4604      	mov	r4, r0
   4:	688a      	ldr	r2, [r1, #8]
   6:	6809      	ldr	r1, [r1, #0]
   8:	f7ff fffe 	bl	0 <_ZplRK15StringSumHelperRK6String>
   c:	4620      	mov	r0, r4
   e:	bd10      	pop	{r4, pc}

Disassembly of section .text._ZplRK15StringSumHelperPKc:

00000000 <_ZplRK15StringSumHelperPKc>:
   0:	b538      	push	{r3, r4, r5, lr}
   2:	4605      	mov	r5, r0
   4:	b141      	cbz	r1, 18 <_ZplRK15StringSumHelperPKc+0x18>
   6:	460c      	mov	r4, r1
   8:	4608      	mov	r0, r1
   a:	f7ff fffe 	bl	0 <strlen>
   e:	4602      	mov	r2, r0
  10:	4621      	mov	r1, r4
  12:	4628      	mov	r0, r5
  14:	f7ff fffe 	bl	0 <_ZplRK15StringSumHelperPKc>
  18:	4628      	mov	r0, r5
  1a:	bd38      	pop	{r3, r4, r5, pc}

Disassembly of section .text._ZplRK15StringSumHelperPK19__FlashStringHelper:

00000000 <_ZplRK15StringSumHelperPK19__FlashStringHelper>:
   0:	b510      	push	{r4, lr}
   2:	4604      	mov	r4, r0
   4:	b082      	sub	sp, #8
   6:	4608      	mov	r0, r1
   8:	9101      	str	r1, [sp, #4]
   a:	f7ff fffe 	bl	0 <strlen>
   e:	9901      	ldr	r1, [sp, #4]
  10:	4602      	mov	r2, r0
  12:	4620      	mov	r0, r4
  14:	f7ff fffe 	bl	0 <_ZplRK15StringSumHelperPK19__FlashStringHelper>
  18:	4620      	mov	r0, r4
  1a:	b002      	add	sp, #8
  1c:	bd10      	pop	{r4, pc}
  1e:	bf00      	nop

Disassembly of section .text._ZplRK15StringSumHelperc:

00000000 <_ZplRK15StringSumHelperc>:
   0:	b510      	push	{r4, lr}
   2:	b082      	sub	sp, #8
   4:	2300      	movs	r3, #0
   6:	4604      	mov	r4, r0
   8:	2201      	movs	r2, #1
   a:	f88d 1004 	strb.w	r1, [sp, #4]
   e:	a901      	add	r1, sp, #4
  10:	f88d 3005 	strb.w	r3, [sp, #5]
  14:	f7ff fffe 	bl	0 <_ZplRK15StringSumHelperc>
  18:	4620      	mov	r0, r4
  1a:	b002      	add	sp, #8
  1c:	bd10      	pop	{r4, pc}
  1e:	bf00      	nop

Disassembly of section .text._ZplRK15StringSumHelperh:

00000000 <_ZplRK15StringSumHelperh>:
   0:	b510      	push	{r4, lr}
   2:	460b      	mov	r3, r1
   4:	b084      	sub	sp, #16
   6:	4604      	mov	r4, r0
   8:	220a      	movs	r2, #10
   a:	a901      	add	r1, sp, #4
   c:	4618      	mov	r0, r3
   e:	f7ff fffe 	bl	0 <ltoa>
  12:	a801      	add	r0, sp, #4
  14:	f7ff fffe 	bl	0 <strlen>
  18:	a901      	add	r1, sp, #4
  1a:	4602      	mov	r2, r0
  1c:	4620      	mov	r0, r4
  1e:	f7ff fffe 	bl	0 <_ZplRK15StringSumHelperh>
  22:	4620      	mov	r0, r4
  24:	b004      	add	sp, #16
  26:	bd10      	pop	{r4, pc}

Disassembly of section .text._ZplRK15StringSumHelperi:

00000000 <_ZplRK15StringSumHelperi>:
   0:	b510      	push	{r4, lr}
   2:	460b      	mov	r3, r1
   4:	b084      	sub	sp, #16
   6:	4604      	mov	r4, r0
   8:	220a      	movs	r2, #10
   a:	a901      	add	r1, sp, #4
   c:	4618      	mov	r0, r3
   e:	f7ff fffe 	bl	0 <ltoa>
  12:	a801      	add	r0, sp, #4
  14:	f7ff fffe 	bl	0 <strlen>
  18:	a901      	add	r1, sp, #4
  1a:	4602      	mov	r2, r0
  1c:	4620      	mov	r0, r4
  1e:	f7ff fffe 	bl	0 <_ZplRK15StringSumHelperi>
  22:	4620      	mov	r0, r4
  24:	b004      	add	sp, #16
  26:	bd10      	pop	{r4, pc}

Disassembly of section .text._ZplRK15StringSumHelperj:

00000000 <_ZplRK15StringSumHelperj>:
   0:	b510      	push	{r4, lr}
   2:	460b      	mov	r3, r1
   4:	b084      	sub	sp, #16
   6:	4604      	mov	r4, r0
   8:	220a      	movs	r2, #10
   a:	a901      	add	r1, sp, #4
   c:	4618      	mov	r0, r3
   e:	f7ff fffe 	bl	0 <ultoa>
  12:	a801      	add	r0, sp, #4
  14:	f7ff fffe 	bl	0 <strlen>
  18:	a901      	add	r1, sp, #4
  1a:	4602      	mov	r2, r0
  1c:	4620      	mov	r0, r4
  1e:	f7ff fffe 	bl	0 <_ZplRK15StringSumHelperj>
  22:	4620      	mov	r0, r4
  24:	b004      	add	sp, #16
  26:	bd10      	pop	{r4, pc}

Disassembly of section .text._ZplRK15StringSumHelperl:

00000000 <_ZplRK15StringSumHelperl>:
   0:	b510      	push	{r4, lr}
   2:	460b      	mov	r3, r1
   4:	b084      	sub	sp, #16
   6:	4604      	mov	r4, r0
   8:	220a      	movs	r2, #10
   a:	a901      	add	r1, sp, #4
   c:	4618      	mov	r0, r3
   e:	f7ff fffe 	bl	0 <ltoa>
  12:	a801      	add	r0, sp, #4
  14:	f7ff fffe 	bl	0 <strlen>
  18:	a901      	add	r1, sp, #4
  1a:	4602      	mov	r2, r0
  1c:	4620      	mov	r0, r4
  1e:	f7ff fffe 	bl	0 <_ZplRK15StringSumHelperl>
  22:	4620      	mov	r0, r4
  24:	b004      	add	sp, #16
  26:	bd10      	pop	{r4, pc}

Disassembly of section .text._ZplRK15StringSumHelperm:

00000000 <_ZplRK15StringSumHelperm>:
   0:	b510      	push	{r4, lr}
   2:	460b      	mov	r3, r1
   4:	b084      	sub	sp, #16
   6:	4604      	mov	r4, r0
   8:	220a      	movs	r2, #10
   a:	a901      	add	r1, sp, #4
   c:	4618      	mov	r0, r3
   e:	f7ff fffe 	bl	0 <ultoa>
  12:	a801      	add	r0, sp, #4
  14:	f7ff fffe 	bl	0 <strlen>
  18:	a901      	add	r1, sp, #4
  1a:	4602      	mov	r2, r0
  1c:	4620      	mov	r0, r4
  1e:	f7ff fffe 	bl	0 <_ZplRK15StringSumHelperm>
  22:	4620      	mov	r0, r4
  24:	b004      	add	sp, #16
  26:	bd10      	pop	{r4, pc}

Disassembly of section .text._ZplRK15StringSumHelperx:

00000000 <_ZplRK15StringSumHelperx>:
   0:	b5d0      	push	{r4, r6, r7, lr}
   2:	461f      	mov	r7, r3
   4:	b086      	sub	sp, #24
   6:	4604      	mov	r4, r0
   8:	230a      	movs	r3, #10
   a:	4639      	mov	r1, r7
   c:	4610      	mov	r0, r2
   e:	466a      	mov	r2, sp
  10:	f7ff fffe 	bl	0 <lltoa>
  14:	4668      	mov	r0, sp
  16:	f7ff fffe 	bl	0 <strlen>
  1a:	4669      	mov	r1, sp
  1c:	4602      	mov	r2, r0
  1e:	4620      	mov	r0, r4
  20:	f7ff fffe 	bl	0 <_ZplRK15StringSumHelperx>
  24:	4620      	mov	r0, r4
  26:	b006      	add	sp, #24
  28:	bdd0      	pop	{r4, r6, r7, pc}
  2a:	bf00      	nop

Disassembly of section .text._ZplRK15StringSumHelpery:

00000000 <_ZplRK15StringSumHelpery>:
   0:	b5d0      	push	{r4, r6, r7, lr}
   2:	461f      	mov	r7, r3
   4:	b086      	sub	sp, #24
   6:	4604      	mov	r4, r0
   8:	230a      	movs	r3, #10
   a:	4639      	mov	r1, r7
   c:	4610      	mov	r0, r2
   e:	466a      	mov	r2, sp
  10:	f7ff fffe 	bl	0 <ulltoa>
  14:	4668      	mov	r0, sp
  16:	f7ff fffe 	bl	0 <strlen>
  1a:	4669      	mov	r1, sp
  1c:	4602      	mov	r2, r0
  1e:	4620      	mov	r0, r4
  20:	f7ff fffe 	bl	0 <_ZplRK15StringSumHelpery>
  24:	4620      	mov	r0, r4
  26:	b006      	add	sp, #24
  28:	bdd0      	pop	{r4, r6, r7, pc}
  2a:	bf00      	nop

Disassembly of section .text._ZplRK15StringSumHelperf:

00000000 <_ZplRK15StringSumHelperf>:
   0:	b510      	push	{r4, lr}
   2:	b088      	sub	sp, #32
   4:	4604      	mov	r4, r0
   6:	2102      	movs	r1, #2
   8:	2004      	movs	r0, #4
   a:	466a      	mov	r2, sp
   c:	f7ff fffe 	bl	0 <dtostrf>
  10:	4668      	mov	r0, sp
  12:	f7ff fffe 	bl	0 <strlen>
  16:	4669      	mov	r1, sp
  18:	4602      	mov	r2, r0
  1a:	4620      	mov	r0, r4
  1c:	f7ff fffe 	bl	0 <_ZplRK15StringSumHelperf>
  20:	4620      	mov	r0, r4
  22:	b008      	add	sp, #32
  24:	bd10      	pop	{r4, pc}
  26:	bf00      	nop

Disassembly of section .text._ZplRK15StringSumHelperd:

00000000 <_ZplRK15StringSumHelperd>:
   0:	b510      	push	{r4, lr}
   2:	b088      	sub	sp, #32
   4:	eeb7 0bc0 	vcvt.f32.f64	s0, d0
   8:	4604      	mov	r4, r0
   a:	2102      	movs	r1, #2
   c:	466a      	mov	r2, sp
   e:	2004      	movs	r0, #4
  10:	f7ff fffe 	bl	0 <dtostrf>
  14:	4668      	mov	r0, sp
  16:	f7ff fffe 	bl	0 <strlen>
  1a:	4669      	mov	r1, sp
  1c:	4602      	mov	r2, r0
  1e:	4620      	mov	r0, r4
  20:	f7ff fffe 	bl	0 <_ZplRK15StringSumHelperd>
  24:	4620      	mov	r0, r4
  26:	b008      	add	sp, #32
  28:	bd10      	pop	{r4, pc}
  2a:	bf00      	nop

Disassembly of section .text._ZNK6String9compareToERKS_:

00000000 <_ZNK6String9compareToERKS_>:
   0:	6802      	ldr	r2, [r0, #0]
   2:	b142      	cbz	r2, 16 <_ZNK6String9compareToERKS_+0x16>
   4:	6809      	ldr	r1, [r1, #0]
   6:	b111      	cbz	r1, e <_ZNK6String9compareToERKS_+0xe>
   8:	4610      	mov	r0, r2
   a:	f7ff bffe 	b.w	0 <strcmp>
   e:	6880      	ldr	r0, [r0, #8]
  10:	b150      	cbz	r0, 28 <_ZNK6String9compareToERKS_+0x28>
  12:	7810      	ldrb	r0, [r2, #0]
  14:	4770      	bx	lr
  16:	6808      	ldr	r0, [r1, #0]
  18:	b128      	cbz	r0, 26 <_ZNK6String9compareToERKS_+0x26>
  1a:	688b      	ldr	r3, [r1, #8]
  1c:	b113      	cbz	r3, 24 <_ZNK6String9compareToERKS_+0x24>
  1e:	7800      	ldrb	r0, [r0, #0]
  20:	4240      	negs	r0, r0
  22:	4770      	bx	lr
  24:	4618      	mov	r0, r3
  26:	4770      	bx	lr
  28:	4770      	bx	lr
  2a:	bf00      	nop

Disassembly of section .text._ZNK6String6equalsERKS_:

00000000 <_ZNK6String6equalsERKS_>:
   0:	688a      	ldr	r2, [r1, #8]
   2:	b508      	push	{r3, lr}
   4:	6883      	ldr	r3, [r0, #8]
   6:	4293      	cmp	r3, r2
   8:	d001      	beq.n	e <_ZNK6String6equalsERKS_+0xe>
   a:	2000      	movs	r0, #0
   c:	bd08      	pop	{r3, pc}
   e:	6800      	ldr	r0, [r0, #0]
  10:	b150      	cbz	r0, 28 <_ZNK6String6equalsERKS_+0x28>
  12:	6809      	ldr	r1, [r1, #0]
  14:	b129      	cbz	r1, 22 <_ZNK6String6equalsERKS_+0x22>
  16:	f7ff fffe 	bl	0 <strcmp>
  1a:	fab0 f080 	clz	r0, r0
  1e:	0940      	lsrs	r0, r0, #5
  20:	bd08      	pop	{r3, pc}
  22:	b13b      	cbz	r3, 34 <_ZNK6String6equalsERKS_+0x34>
  24:	7800      	ldrb	r0, [r0, #0]
  26:	e7f8      	b.n	1a <_ZNK6String6equalsERKS_+0x1a>
  28:	680a      	ldr	r2, [r1, #0]
  2a:	b11a      	cbz	r2, 34 <_ZNK6String6equalsERKS_+0x34>
  2c:	b113      	cbz	r3, 34 <_ZNK6String6equalsERKS_+0x34>
  2e:	7810      	ldrb	r0, [r2, #0]
  30:	4240      	negs	r0, r0
  32:	e7f2      	b.n	1a <_ZNK6String6equalsERKS_+0x1a>
  34:	2001      	movs	r0, #1
  36:	bd08      	pop	{r3, pc}

Disassembly of section .text._ZNK6String6equalsEPKc:

00000000 <_ZNK6String6equalsEPKc>:
   0:	6882      	ldr	r2, [r0, #8]
   2:	b508      	push	{r3, lr}
   4:	460b      	mov	r3, r1
   6:	b13a      	cbz	r2, 18 <_ZNK6String6equalsEPKc+0x18>
   8:	b161      	cbz	r1, 24 <_ZNK6String6equalsEPKc+0x24>
   a:	6800      	ldr	r0, [r0, #0]
   c:	f7ff fffe 	bl	0 <strcmp>
  10:	fab0 f080 	clz	r0, r0
  14:	0940      	lsrs	r0, r0, #5
  16:	bd08      	pop	{r3, pc}
  18:	b131      	cbz	r1, 28 <_ZNK6String6equalsEPKc+0x28>
  1a:	7818      	ldrb	r0, [r3, #0]
  1c:	fab0 f080 	clz	r0, r0
  20:	0940      	lsrs	r0, r0, #5
  22:	bd08      	pop	{r3, pc}
  24:	6803      	ldr	r3, [r0, #0]
  26:	e7f8      	b.n	1a <_ZNK6String6equalsEPKc+0x1a>
  28:	2001      	movs	r0, #1
  2a:	bd08      	pop	{r3, pc}

Disassembly of section .text._ZNK6StringltERKS_:

00000000 <_ZNK6StringltERKS_>:
   0:	6800      	ldr	r0, [r0, #0]
   2:	b508      	push	{r3, lr}
   4:	b138      	cbz	r0, 16 <_ZNK6StringltERKS_+0x16>
   6:	6809      	ldr	r1, [r1, #0]
   8:	b119      	cbz	r1, 12 <_ZNK6StringltERKS_+0x12>
   a:	f7ff fffe 	bl	0 <strcmp>
   e:	0fc0      	lsrs	r0, r0, #31
  10:	bd08      	pop	{r3, pc}
  12:	4608      	mov	r0, r1
  14:	bd08      	pop	{r3, pc}
  16:	6808      	ldr	r0, [r1, #0]
  18:	2800      	cmp	r0, #0
  1a:	d0f9      	beq.n	10 <_ZNK6StringltERKS_+0x10>
  1c:	688b      	ldr	r3, [r1, #8]
  1e:	b123      	cbz	r3, 2a <_ZNK6StringltERKS_+0x2a>
  20:	7800      	ldrb	r0, [r0, #0]
  22:	3800      	subs	r0, #0
  24:	bf18      	it	ne
  26:	2001      	movne	r0, #1
  28:	bd08      	pop	{r3, pc}
  2a:	4618      	mov	r0, r3
  2c:	bd08      	pop	{r3, pc}
  2e:	bf00      	nop

Disassembly of section .text._ZNK6StringgtERKS_:

00000000 <_ZNK6StringgtERKS_>:
   0:	b508      	push	{r3, lr}
   2:	6803      	ldr	r3, [r0, #0]
   4:	b18b      	cbz	r3, 2a <_ZNK6StringgtERKS_+0x2a>
   6:	6809      	ldr	r1, [r1, #0]
   8:	b139      	cbz	r1, 1a <_ZNK6StringgtERKS_+0x1a>
   a:	4618      	mov	r0, r3
   c:	f7ff fffe 	bl	0 <strcmp>
  10:	2800      	cmp	r0, #0
  12:	bfd4      	ite	le
  14:	2000      	movle	r0, #0
  16:	2001      	movgt	r0, #1
  18:	bd08      	pop	{r3, pc}
  1a:	6880      	ldr	r0, [r0, #8]
  1c:	2800      	cmp	r0, #0
  1e:	d0fb      	beq.n	18 <_ZNK6StringgtERKS_+0x18>
  20:	7818      	ldrb	r0, [r3, #0]
  22:	3800      	subs	r0, #0
  24:	bf18      	it	ne
  26:	2001      	movne	r0, #1
  28:	bd08      	pop	{r3, pc}
  2a:	4618      	mov	r0, r3
  2c:	bd08      	pop	{r3, pc}
  2e:	bf00      	nop

Disassembly of section .text._ZNK6StringleERKS_:

00000000 <_ZNK6StringleERKS_>:
   0:	b508      	push	{r3, lr}
   2:	6803      	ldr	r3, [r0, #0]
   4:	b183      	cbz	r3, 28 <_ZNK6StringleERKS_+0x28>
   6:	6809      	ldr	r1, [r1, #0]
   8:	b139      	cbz	r1, 1a <_ZNK6StringleERKS_+0x1a>
   a:	4618      	mov	r0, r3
   c:	f7ff fffe 	bl	0 <strcmp>
  10:	2800      	cmp	r0, #0
  12:	bfcc      	ite	gt
  14:	2000      	movgt	r0, #0
  16:	2001      	movle	r0, #1
  18:	bd08      	pop	{r3, pc}
  1a:	6882      	ldr	r2, [r0, #8]
  1c:	b122      	cbz	r2, 28 <_ZNK6StringleERKS_+0x28>
  1e:	7818      	ldrb	r0, [r3, #0]
  20:	fab0 f080 	clz	r0, r0
  24:	0940      	lsrs	r0, r0, #5
  26:	bd08      	pop	{r3, pc}
  28:	2001      	movs	r0, #1
  2a:	bd08      	pop	{r3, pc}

Disassembly of section .text._ZNK6StringgeERKS_:

00000000 <_ZNK6StringgeERKS_>:
   0:	6800      	ldr	r0, [r0, #0]
   2:	b508      	push	{r3, lr}
   4:	b140      	cbz	r0, 18 <_ZNK6StringgeERKS_+0x18>
   6:	6809      	ldr	r1, [r1, #0]
   8:	b121      	cbz	r1, 14 <_ZNK6StringgeERKS_+0x14>
   a:	f7ff fffe 	bl	0 <strcmp>
   e:	43c0      	mvns	r0, r0
  10:	0fc0      	lsrs	r0, r0, #31
  12:	bd08      	pop	{r3, pc}
  14:	2001      	movs	r0, #1
  16:	bd08      	pop	{r3, pc}
  18:	680b      	ldr	r3, [r1, #0]
  1a:	2b00      	cmp	r3, #0
  1c:	d0fa      	beq.n	14 <_ZNK6StringgeERKS_+0x14>
  1e:	688a      	ldr	r2, [r1, #8]
  20:	2a00      	cmp	r2, #0
  22:	d0f7      	beq.n	14 <_ZNK6StringgeERKS_+0x14>
  24:	7818      	ldrb	r0, [r3, #0]
  26:	fab0 f080 	clz	r0, r0
  2a:	0940      	lsrs	r0, r0, #5
  2c:	bd08      	pop	{r3, pc}
  2e:	bf00      	nop

Disassembly of section .text._ZNK6String16equalsIgnoreCaseERKS_:

00000000 <_ZNK6String16equalsIgnoreCaseERKS_>:
   0:	4288      	cmp	r0, r1
   2:	d01a      	beq.n	3a <_ZNK6String16equalsIgnoreCaseERKS_+0x3a>
   4:	6883      	ldr	r3, [r0, #8]
   6:	688a      	ldr	r2, [r1, #8]
   8:	4293      	cmp	r3, r2
   a:	d114      	bne.n	36 <_ZNK6String16equalsIgnoreCaseERKS_+0x36>
   c:	b1ab      	cbz	r3, 3a <_ZNK6String16equalsIgnoreCaseERKS_+0x3a>
   e:	b570      	push	{r4, r5, r6, lr}
  10:	6805      	ldr	r5, [r0, #0]
  12:	680e      	ldr	r6, [r1, #0]
  14:	3d01      	subs	r5, #1
  16:	e008      	b.n	2a <_ZNK6String16equalsIgnoreCaseERKS_+0x2a>
  18:	f7ff fffe 	bl	0 <tolower>
  1c:	4604      	mov	r4, r0
  1e:	f816 0b01 	ldrb.w	r0, [r6], #1
  22:	f7ff fffe 	bl	0 <tolower>
  26:	4284      	cmp	r4, r0
  28:	d109      	bne.n	3e <_ZNK6String16equalsIgnoreCaseERKS_+0x3e>
  2a:	f815 0f01 	ldrb.w	r0, [r5, #1]!
  2e:	2800      	cmp	r0, #0
  30:	d1f2      	bne.n	18 <_ZNK6String16equalsIgnoreCaseERKS_+0x18>
  32:	2001      	movs	r0, #1
  34:	bd70      	pop	{r4, r5, r6, pc}
  36:	2000      	movs	r0, #0
  38:	4770      	bx	lr
  3a:	2001      	movs	r0, #1
  3c:	4770      	bx	lr
  3e:	2000      	movs	r0, #0
  40:	bd70      	pop	{r4, r5, r6, pc}
  42:	bf00      	nop

Disassembly of section .text._ZNK6String10startsWithERKS_:

00000000 <_ZNK6String10startsWithERKS_>:
   0:	688a      	ldr	r2, [r1, #8]
   2:	b508      	push	{r3, lr}
   4:	6883      	ldr	r3, [r0, #8]
   6:	4293      	cmp	r3, r2
   8:	d309      	bcc.n	1e <_ZNK6String10startsWithERKS_+0x1e>
   a:	6800      	ldr	r0, [r0, #0]
   c:	b130      	cbz	r0, 1c <_ZNK6String10startsWithERKS_+0x1c>
   e:	6809      	ldr	r1, [r1, #0]
  10:	b139      	cbz	r1, 22 <_ZNK6String10startsWithERKS_+0x22>
  12:	f7ff fffe 	bl	0 <strncmp>
  16:	fab0 f080 	clz	r0, r0
  1a:	0940      	lsrs	r0, r0, #5
  1c:	bd08      	pop	{r3, pc}
  1e:	2000      	movs	r0, #0
  20:	bd08      	pop	{r3, pc}
  22:	4608      	mov	r0, r1
  24:	bd08      	pop	{r3, pc}
  26:	bf00      	nop

Disassembly of section .text._ZNK6String10startsWithERKS_j:

00000000 <_ZNK6String10startsWithERKS_j>:
   0:	4603      	mov	r3, r0
   2:	4610      	mov	r0, r2
   4:	688a      	ldr	r2, [r1, #8]
   6:	b510      	push	{r4, lr}
   8:	689c      	ldr	r4, [r3, #8]
   a:	eba4 0c02 	sub.w	ip, r4, r2
   e:	4584      	cmp	ip, r0
  10:	d30a      	bcc.n	28 <_ZNK6String10startsWithERKS_j+0x28>
  12:	681b      	ldr	r3, [r3, #0]
  14:	b143      	cbz	r3, 28 <_ZNK6String10startsWithERKS_j+0x28>
  16:	6809      	ldr	r1, [r1, #0]
  18:	b141      	cbz	r1, 2c <_ZNK6String10startsWithERKS_j+0x2c>
  1a:	4418      	add	r0, r3
  1c:	f7ff fffe 	bl	0 <strncmp>
  20:	fab0 f080 	clz	r0, r0
  24:	0940      	lsrs	r0, r0, #5
  26:	bd10      	pop	{r4, pc}
  28:	2000      	movs	r0, #0
  2a:	bd10      	pop	{r4, pc}
  2c:	4608      	mov	r0, r1
  2e:	bd10      	pop	{r4, pc}

Disassembly of section .text._ZNK6String8endsWithERKS_:

00000000 <_ZNK6String8endsWithERKS_>:
   0:	688a      	ldr	r2, [r1, #8]
   2:	b508      	push	{r3, lr}
   4:	6883      	ldr	r3, [r0, #8]
   6:	4293      	cmp	r3, r2
   8:	d30b      	bcc.n	22 <_ZNK6String8endsWithERKS_+0x22>
   a:	6800      	ldr	r0, [r0, #0]
   c:	b140      	cbz	r0, 20 <_ZNK6String8endsWithERKS_+0x20>
   e:	6809      	ldr	r1, [r1, #0]
  10:	b149      	cbz	r1, 26 <_ZNK6String8endsWithERKS_+0x26>
  12:	1a9b      	subs	r3, r3, r2
  14:	4418      	add	r0, r3
  16:	f7ff fffe 	bl	0 <strcmp>
  1a:	fab0 f080 	clz	r0, r0
  1e:	0940      	lsrs	r0, r0, #5
  20:	bd08      	pop	{r3, pc}
  22:	2000      	movs	r0, #0
  24:	bd08      	pop	{r3, pc}
  26:	4608      	mov	r0, r1
  28:	bd08      	pop	{r3, pc}
  2a:	bf00      	nop

Disassembly of section .text._ZNK6String6charAtEj:

00000000 <_ZNK6String6charAtEj>:
   0:	6883      	ldr	r3, [r0, #8]
   2:	4299      	cmp	r1, r3
   4:	d203      	bcs.n	e <_ZNK6String6charAtEj+0xe>
   6:	6800      	ldr	r0, [r0, #0]
   8:	b110      	cbz	r0, 10 <_ZNK6String6charAtEj+0x10>
   a:	5c40      	ldrb	r0, [r0, r1]
   c:	4770      	bx	lr
   e:	2000      	movs	r0, #0
  10:	4770      	bx	lr
  12:	bf00      	nop

Disassembly of section .text._ZN6String9setCharAtEjc:

00000000 <_ZN6String9setCharAtEjc>:
   0:	6883      	ldr	r3, [r0, #8]
   2:	428b      	cmp	r3, r1
   4:	d901      	bls.n	a <_ZN6String9setCharAtEjc+0xa>
   6:	6803      	ldr	r3, [r0, #0]
   8:	545a      	strb	r2, [r3, r1]
   a:	4770      	bx	lr

Disassembly of section .text._ZN6StringixEj:

00000000 <_ZN6StringixEj>:
   0:	6883      	ldr	r3, [r0, #8]
   2:	428b      	cmp	r3, r1
   4:	d903      	bls.n	e <_ZN6StringixEj+0xe>
   6:	6800      	ldr	r0, [r0, #0]
   8:	b108      	cbz	r0, e <_ZN6StringixEj+0xe>
   a:	4408      	add	r0, r1
   c:	4770      	bx	lr
   e:	4b02      	ldr	r3, [pc, #8]	; (18 <_ZN6StringixEj+0x18>)
  10:	2200      	movs	r2, #0
  12:	4618      	mov	r0, r3
  14:	701a      	strb	r2, [r3, #0]
  16:	4770      	bx	lr
  18:	00000000 	.word	0x00000000

Disassembly of section .text._ZNK6StringixEj:

00000000 <_ZNK6StringixEj>:
   0:	6883      	ldr	r3, [r0, #8]
   2:	428b      	cmp	r3, r1
   4:	d903      	bls.n	e <_ZNK6StringixEj+0xe>
   6:	6800      	ldr	r0, [r0, #0]
   8:	b110      	cbz	r0, 10 <_ZNK6StringixEj+0x10>
   a:	5c40      	ldrb	r0, [r0, r1]
   c:	4770      	bx	lr
   e:	2000      	movs	r0, #0
  10:	4770      	bx	lr
  12:	bf00      	nop

Disassembly of section .text._ZNK6String8getBytesEPhjj:

00000000 <_ZNK6String8getBytesEPhjj>:
   0:	b1c2      	cbz	r2, 34 <_ZNK6String8getBytesEPhjj+0x34>
   2:	b570      	push	{r4, r5, r6, lr}
   4:	fab1 f681 	clz	r6, r1
   8:	460c      	mov	r4, r1
   a:	0976      	lsrs	r6, r6, #5
   c:	b119      	cbz	r1, 16 <_ZNK6String8getBytesEPhjj+0x16>
   e:	6885      	ldr	r5, [r0, #8]
  10:	429d      	cmp	r5, r3
  12:	d801      	bhi.n	18 <_ZNK6String8getBytesEPhjj+0x18>
  14:	700e      	strb	r6, [r1, #0]
  16:	bd70      	pop	{r4, r5, r6, pc}
  18:	1aed      	subs	r5, r5, r3
  1a:	f102 3cff 	add.w	ip, r2, #4294967295	; 0xffffffff
  1e:	6801      	ldr	r1, [r0, #0]
  20:	4620      	mov	r0, r4
  22:	4565      	cmp	r5, ip
  24:	4419      	add	r1, r3
  26:	bf28      	it	cs
  28:	4665      	movcs	r5, ip
  2a:	462a      	mov	r2, r5
  2c:	f7ff fffe 	bl	0 <strncpy>
  30:	5566      	strb	r6, [r4, r5]
  32:	bd70      	pop	{r4, r5, r6, pc}
  34:	4770      	bx	lr
  36:	bf00      	nop

Disassembly of section .text._ZNK6String7indexOfEc:

00000000 <_ZNK6String7indexOfEc>:
   0:	6883      	ldr	r3, [r0, #8]
   2:	b13b      	cbz	r3, 14 <_ZNK6String7indexOfEc+0x14>
   4:	b510      	push	{r4, lr}
   6:	6804      	ldr	r4, [r0, #0]
   8:	4620      	mov	r0, r4
   a:	f7ff fffe 	bl	0 <strchr>
   e:	b120      	cbz	r0, 1a <_ZNK6String7indexOfEc+0x1a>
  10:	1b00      	subs	r0, r0, r4
  12:	bd10      	pop	{r4, pc}
  14:	f04f 30ff 	mov.w	r0, #4294967295	; 0xffffffff
  18:	4770      	bx	lr
  1a:	f04f 30ff 	mov.w	r0, #4294967295	; 0xffffffff
  1e:	bd10      	pop	{r4, pc}

Disassembly of section .text._ZNK6String7indexOfEcj:

00000000 <_ZNK6String7indexOfEcj>:
   0:	6883      	ldr	r3, [r0, #8]
   2:	4293      	cmp	r3, r2
   4:	d907      	bls.n	16 <_ZNK6String7indexOfEcj+0x16>
   6:	b510      	push	{r4, lr}
   8:	6804      	ldr	r4, [r0, #0]
   a:	18a0      	adds	r0, r4, r2
   c:	f7ff fffe 	bl	0 <strchr>
  10:	b120      	cbz	r0, 1c <_ZNK6String7indexOfEcj+0x1c>
  12:	1b00      	subs	r0, r0, r4
  14:	bd10      	pop	{r4, pc}
  16:	f04f 30ff 	mov.w	r0, #4294967295	; 0xffffffff
  1a:	4770      	bx	lr
  1c:	f04f 30ff 	mov.w	r0, #4294967295	; 0xffffffff
  20:	bd10      	pop	{r4, pc}
  22:	bf00      	nop

Disassembly of section .text._ZNK6String7indexOfERKS_:

00000000 <_ZNK6String7indexOfERKS_>:
   0:	6883      	ldr	r3, [r0, #8]
   2:	b143      	cbz	r3, 16 <_ZNK6String7indexOfERKS_+0x16>
   4:	6809      	ldr	r1, [r1, #0]
   6:	b510      	push	{r4, lr}
   8:	6804      	ldr	r4, [r0, #0]
   a:	4620      	mov	r0, r4
   c:	f7ff fffe 	bl	0 <strstr>
  10:	b120      	cbz	r0, 1c <_ZNK6String7indexOfERKS_+0x1c>
  12:	1b00      	subs	r0, r0, r4
  14:	bd10      	pop	{r4, pc}
  16:	f04f 30ff 	mov.w	r0, #4294967295	; 0xffffffff
  1a:	4770      	bx	lr
  1c:	f04f 30ff 	mov.w	r0, #4294967295	; 0xffffffff
  20:	bd10      	pop	{r4, pc}
  22:	bf00      	nop

Disassembly of section .text._ZNK6String7indexOfERKS_j:

00000000 <_ZNK6String7indexOfERKS_j>:
   0:	6883      	ldr	r3, [r0, #8]
   2:	4293      	cmp	r3, r2
   4:	d908      	bls.n	18 <_ZNK6String7indexOfERKS_j+0x18>
   6:	6809      	ldr	r1, [r1, #0]
   8:	b510      	push	{r4, lr}
   a:	6804      	ldr	r4, [r0, #0]
   c:	18a0      	adds	r0, r4, r2
   e:	f7ff fffe 	bl	0 <strstr>
  12:	b120      	cbz	r0, 1e <_ZNK6String7indexOfERKS_j+0x1e>
  14:	1b00      	subs	r0, r0, r4
  16:	bd10      	pop	{r4, pc}
  18:	f04f 30ff 	mov.w	r0, #4294967295	; 0xffffffff
  1c:	4770      	bx	lr
  1e:	f04f 30ff 	mov.w	r0, #4294967295	; 0xffffffff
  22:	bd10      	pop	{r4, pc}

Disassembly of section .text._ZNK6String11lastIndexOfEc:

00000000 <_ZNK6String11lastIndexOfEc>:
   0:	b5f8      	push	{r3, r4, r5, r6, r7, lr}
   2:	6885      	ldr	r5, [r0, #8]
   4:	b16d      	cbz	r5, 22 <_ZNK6String11lastIndexOfEc+0x22>
   6:	6803      	ldr	r3, [r0, #0]
   8:	2200      	movs	r2, #0
   a:	4604      	mov	r4, r0
   c:	5d5f      	ldrb	r7, [r3, r5]
   e:	555a      	strb	r2, [r3, r5]
  10:	6806      	ldr	r6, [r0, #0]
  12:	4630      	mov	r0, r6
  14:	f7ff fffe 	bl	0 <strrchr>
  18:	5577      	strb	r7, [r6, r5]
  1a:	b110      	cbz	r0, 22 <_ZNK6String11lastIndexOfEc+0x22>
  1c:	6823      	ldr	r3, [r4, #0]
  1e:	1ac0      	subs	r0, r0, r3
  20:	bdf8      	pop	{r3, r4, r5, r6, r7, pc}
  22:	f04f 30ff 	mov.w	r0, #4294967295	; 0xffffffff
  26:	bdf8      	pop	{r3, r4, r5, r6, r7, pc}

Disassembly of section .text._ZNK6String11lastIndexOfEcj:

00000000 <_ZNK6String11lastIndexOfEcj>:
   0:	b5f8      	push	{r3, r4, r5, r6, r7, lr}
   2:	6883      	ldr	r3, [r0, #8]
   4:	4293      	cmp	r3, r2
   6:	d90e      	bls.n	26 <_ZNK6String11lastIndexOfEcj+0x26>
   8:	6803      	ldr	r3, [r0, #0]
   a:	1c54      	adds	r4, r2, #1
   c:	2200      	movs	r2, #0
   e:	4605      	mov	r5, r0
  10:	5d1f      	ldrb	r7, [r3, r4]
  12:	551a      	strb	r2, [r3, r4]
  14:	6806      	ldr	r6, [r0, #0]
  16:	4630      	mov	r0, r6
  18:	f7ff fffe 	bl	0 <strrchr>
  1c:	5537      	strb	r7, [r6, r4]
  1e:	b110      	cbz	r0, 26 <_ZNK6String11lastIndexOfEcj+0x26>
  20:	682b      	ldr	r3, [r5, #0]
  22:	1ac0      	subs	r0, r0, r3
  24:	bdf8      	pop	{r3, r4, r5, r6, r7, pc}
  26:	f04f 30ff 	mov.w	r0, #4294967295	; 0xffffffff
  2a:	bdf8      	pop	{r3, r4, r5, r6, r7, pc}

Disassembly of section .text._ZNK6String11lastIndexOfERKS_j:

00000000 <_ZNK6String11lastIndexOfERKS_j>:
   0:	e92d 41f0 	stmdb	sp!, {r4, r5, r6, r7, r8, lr}
   4:	4615      	mov	r5, r2
   6:	688a      	ldr	r2, [r1, #8]
   8:	b1fa      	cbz	r2, 4a <_ZNK6String11lastIndexOfERKS_j+0x4a>
   a:	6883      	ldr	r3, [r0, #8]
   c:	b1eb      	cbz	r3, 4a <_ZNK6String11lastIndexOfERKS_j+0x4a>
   e:	429a      	cmp	r2, r3
  10:	d81b      	bhi.n	4a <_ZNK6String11lastIndexOfERKS_j+0x4a>
  12:	42ab      	cmp	r3, r5
  14:	6806      	ldr	r6, [r0, #0]
  16:	bf98      	it	ls
  18:	f103 35ff 	addls.w	r5, r3, #4294967295	; 0xffffffff
  1c:	1977      	adds	r7, r6, r5
  1e:	d214      	bcs.n	4a <_ZNK6String11lastIndexOfERKS_j+0x4a>
  20:	f8d1 8000 	ldr.w	r8, [r1]
  24:	4630      	mov	r0, r6
  26:	f04f 34ff 	mov.w	r4, #4294967295	; 0xffffffff
  2a:	e006      	b.n	3a <_ZNK6String11lastIndexOfERKS_j+0x3a>
  2c:	1b83      	subs	r3, r0, r6
  2e:	3001      	adds	r0, #1
  30:	42ab      	cmp	r3, r5
  32:	bf98      	it	ls
  34:	461c      	movls	r4, r3
  36:	42b8      	cmp	r0, r7
  38:	d804      	bhi.n	44 <_ZNK6String11lastIndexOfERKS_j+0x44>
  3a:	4641      	mov	r1, r8
  3c:	f7ff fffe 	bl	0 <strstr>
  40:	2800      	cmp	r0, #0
  42:	d1f3      	bne.n	2c <_ZNK6String11lastIndexOfERKS_j+0x2c>
  44:	4620      	mov	r0, r4
  46:	e8bd 81f0 	ldmia.w	sp!, {r4, r5, r6, r7, r8, pc}
  4a:	f04f 34ff 	mov.w	r4, #4294967295	; 0xffffffff
  4e:	e7f9      	b.n	44 <_ZNK6String11lastIndexOfERKS_j+0x44>

Disassembly of section .text._ZNK6String11lastIndexOfERKS_:

00000000 <_ZNK6String11lastIndexOfERKS_>:
   0:	6882      	ldr	r2, [r0, #8]
   2:	688b      	ldr	r3, [r1, #8]
   4:	1ad2      	subs	r2, r2, r3
   6:	f7ff bffe 	b.w	0 <_ZNK6String11lastIndexOfERKS_>
   a:	bf00      	nop

Disassembly of section .text._ZNK6String9substringEj:

00000000 <_ZNK6String9substringEj>:
   0:	e92d 41f0 	stmdb	sp!, {r4, r5, r6, r7, r8, lr}
   4:	688f      	ldr	r7, [r1, #8]
   6:	460e      	mov	r6, r1
   8:	4605      	mov	r5, r0
   a:	4297      	cmp	r7, r2
   c:	d202      	bcs.n	14 <_ZNK6String9substringEj+0x14>
   e:	4613      	mov	r3, r2
  10:	463a      	mov	r2, r7
  12:	461f      	mov	r7, r3
  14:	2300      	movs	r3, #0
  16:	60ab      	str	r3, [r5, #8]
  18:	68b0      	ldr	r0, [r6, #8]
  1a:	4290      	cmp	r0, r2
  1c:	e9c5 3300 	strd	r3, r3, [r5]
  20:	d314      	bcc.n	4c <_ZNK6String9substringEj+0x4c>
  22:	4287      	cmp	r7, r0
  24:	6831      	ldr	r1, [r6, #0]
  26:	bf28      	it	cs
  28:	4607      	movcs	r7, r0
  2a:	f811 8007 	ldrb.w	r8, [r1, r7]
  2e:	55cb      	strb	r3, [r1, r7]
  30:	6833      	ldr	r3, [r6, #0]
  32:	189c      	adds	r4, r3, r2
  34:	d00d      	beq.n	52 <_ZNK6String9substringEj+0x52>
  36:	4620      	mov	r0, r4
  38:	f7ff fffe 	bl	0 <strlen>
  3c:	4621      	mov	r1, r4
  3e:	4602      	mov	r2, r0
  40:	4628      	mov	r0, r5
  42:	f7ff fffe 	bl	0 <_ZNK6String9substringEj>
  46:	6833      	ldr	r3, [r6, #0]
  48:	f803 8007 	strb.w	r8, [r3, r7]
  4c:	4628      	mov	r0, r5
  4e:	e8bd 81f0 	ldmia.w	sp!, {r4, r5, r6, r7, r8, pc}
  52:	60ac      	str	r4, [r5, #8]
  54:	e7f8      	b.n	48 <_ZNK6String9substringEj+0x48>
  56:	bf00      	nop

Disassembly of section .text._ZNK6String9substringEjj:

00000000 <_ZNK6String9substringEjj>:
   0:	429a      	cmp	r2, r3
   2:	e92d 41f0 	stmdb	sp!, {r4, r5, r6, r7, r8, lr}
   6:	4605      	mov	r5, r0
   8:	460e      	mov	r6, r1
   a:	d902      	bls.n	12 <_ZNK6String9substringEjj+0x12>
   c:	4611      	mov	r1, r2
   e:	461a      	mov	r2, r3
  10:	460b      	mov	r3, r1
  12:	2100      	movs	r1, #0
  14:	60a9      	str	r1, [r5, #8]
  16:	68b7      	ldr	r7, [r6, #8]
  18:	4297      	cmp	r7, r2
  1a:	e9c5 1100 	strd	r1, r1, [r5]
  1e:	d314      	bcc.n	4a <_ZNK6String9substringEjj+0x4a>
  20:	429f      	cmp	r7, r3
  22:	bf28      	it	cs
  24:	461f      	movcs	r7, r3
  26:	6833      	ldr	r3, [r6, #0]
  28:	f813 8007 	ldrb.w	r8, [r3, r7]
  2c:	55d9      	strb	r1, [r3, r7]
  2e:	6833      	ldr	r3, [r6, #0]
  30:	189c      	adds	r4, r3, r2
  32:	d00d      	beq.n	50 <_ZNK6String9substringEjj+0x50>
  34:	4620      	mov	r0, r4
  36:	f7ff fffe 	bl	0 <strlen>
  3a:	4621      	mov	r1, r4
  3c:	4602      	mov	r2, r0
  3e:	4628      	mov	r0, r5
  40:	f7ff fffe 	bl	0 <_ZNK6String9substringEjj>
  44:	6833      	ldr	r3, [r6, #0]
  46:	f803 8007 	strb.w	r8, [r3, r7]
  4a:	4628      	mov	r0, r5
  4c:	e8bd 81f0 	ldmia.w	sp!, {r4, r5, r6, r7, r8, pc}
  50:	60ac      	str	r4, [r5, #8]
  52:	e7f8      	b.n	46 <_ZNK6String9substringEjj+0x46>

Disassembly of section .text._ZN6String7replaceEcc:

00000000 <_ZN6String7replaceEcc>:
   0:	b410      	push	{r4}
   2:	6804      	ldr	r4, [r0, #0]
   4:	b144      	cbz	r4, 18 <_ZN6String7replaceEcc+0x18>
   6:	7823      	ldrb	r3, [r4, #0]
   8:	b133      	cbz	r3, 18 <_ZN6String7replaceEcc+0x18>
   a:	4299      	cmp	r1, r3
   c:	bf08      	it	eq
   e:	7022      	strbeq	r2, [r4, #0]
  10:	f814 3f01 	ldrb.w	r3, [r4, #1]!
  14:	2b00      	cmp	r3, #0
  16:	d1f8      	bne.n	a <_ZN6String7replaceEcc+0xa>
  18:	f85d 4b04 	ldr.w	r4, [sp], #4
  1c:	4770      	bx	lr
  1e:	bf00      	nop

Disassembly of section .text._ZN6String7replaceERKS_S1_:

00000000 <_ZN6String7replaceERKS_S1_>:
   0:	6883      	ldr	r3, [r0, #8]
   2:	e92d 4ff0 	stmdb	sp!, {r4, r5, r6, r7, r8, r9, sl, fp, lr}
   6:	4605      	mov	r5, r0
   8:	b083      	sub	sp, #12
   a:	2b00      	cmp	r3, #0
   c:	d045      	beq.n	9a <_ZN6String7replaceERKS_S1_+0x9a>
   e:	f8d1 a008 	ldr.w	sl, [r1, #8]
  12:	460f      	mov	r7, r1
  14:	f1ba 0f00 	cmp.w	sl, #0
  18:	d03f      	beq.n	9a <_ZN6String7replaceERKS_S1_+0x9a>
  1a:	f8d2 b008 	ldr.w	fp, [r2, #8]
  1e:	4616      	mov	r6, r2
  20:	6804      	ldr	r4, [r0, #0]
  22:	ebab 080a 	sub.w	r8, fp, sl
  26:	f1b8 0f00 	cmp.w	r8, #0
  2a:	d040      	beq.n	ae <_ZN6String7replaceERKS_S1_+0xae>
  2c:	db4b      	blt.n	c6 <_ZN6String7replaceERKS_S1_+0xc6>
  2e:	f8d1 b000 	ldr.w	fp, [r1]
  32:	4699      	mov	r9, r3
  34:	4620      	mov	r0, r4
  36:	e001      	b.n	3c <_ZN6String7replaceERKS_S1_+0x3c>
  38:	44c1      	add	r9, r8
  3a:	4450      	add	r0, sl
  3c:	4659      	mov	r1, fp
  3e:	9301      	str	r3, [sp, #4]
  40:	f7ff fffe 	bl	0 <strstr>
  44:	9b01      	ldr	r3, [sp, #4]
  46:	2800      	cmp	r0, #0
  48:	d1f6      	bne.n	38 <_ZN6String7replaceERKS_S1_+0x38>
  4a:	454b      	cmp	r3, r9
  4c:	d025      	beq.n	9a <_ZN6String7replaceERKS_S1_+0x9a>
  4e:	686a      	ldr	r2, [r5, #4]
  50:	454a      	cmp	r2, r9
  52:	d358      	bcc.n	106 <_ZN6String7replaceERKS_S1_+0x106>
  54:	1e5a      	subs	r2, r3, #1
  56:	d420      	bmi.n	9a <_ZN6String7replaceERKS_S1_+0x9a>
  58:	f04f 0900 	mov.w	r9, #0
  5c:	e017      	b.n	8e <_ZN6String7replaceERKS_S1_+0x8e>
  5e:	68bb      	ldr	r3, [r7, #8]
  60:	6829      	ldr	r1, [r5, #0]
  62:	4423      	add	r3, r4
  64:	68aa      	ldr	r2, [r5, #8]
  66:	4419      	add	r1, r3
  68:	1ad2      	subs	r2, r2, r3
  6a:	eb01 0008 	add.w	r0, r1, r8
  6e:	f7ff fffe 	bl	0 <memmove>
  72:	68ab      	ldr	r3, [r5, #8]
  74:	682a      	ldr	r2, [r5, #0]
  76:	4443      	add	r3, r8
  78:	60ab      	str	r3, [r5, #8]
  7a:	f802 9003 	strb.w	r9, [r2, r3]
  7e:	6828      	ldr	r0, [r5, #0]
  80:	68b2      	ldr	r2, [r6, #8]
  82:	4420      	add	r0, r4
  84:	6831      	ldr	r1, [r6, #0]
  86:	f7ff fffe 	bl	0 <memcpy>
  8a:	1e62      	subs	r2, r4, #1
  8c:	b12c      	cbz	r4, 9a <_ZN6String7replaceERKS_S1_+0x9a>
  8e:	4639      	mov	r1, r7
  90:	4628      	mov	r0, r5
  92:	f7ff fffe 	bl	0 <_ZN6String7replaceERKS_S1_>
  96:	1e04      	subs	r4, r0, #0
  98:	dae1      	bge.n	5e <_ZN6String7replaceERKS_S1_+0x5e>
  9a:	4628      	mov	r0, r5
  9c:	b003      	add	sp, #12
  9e:	e8bd 8ff0 	ldmia.w	sp!, {r4, r5, r6, r7, r8, r9, sl, fp, pc}
  a2:	6831      	ldr	r1, [r6, #0]
  a4:	f7ff fffe 	bl	0 <memcpy>
  a8:	f8d6 b008 	ldr.w	fp, [r6, #8]
  ac:	445c      	add	r4, fp
  ae:	4620      	mov	r0, r4
  b0:	6839      	ldr	r1, [r7, #0]
  b2:	f7ff fffe 	bl	0 <strstr>
  b6:	465a      	mov	r2, fp
  b8:	4604      	mov	r4, r0
  ba:	2800      	cmp	r0, #0
  bc:	d1f1      	bne.n	a2 <_ZN6String7replaceERKS_S1_+0xa2>
  be:	4628      	mov	r0, r5
  c0:	b003      	add	sp, #12
  c2:	e8bd 8ff0 	ldmia.w	sp!, {r4, r5, r6, r7, r8, r9, sl, fp, pc}
  c6:	46a2      	mov	sl, r4
  c8:	e010      	b.n	ec <_ZN6String7replaceERKS_S1_+0xec>
  ca:	eba9 0204 	sub.w	r2, r9, r4
  ce:	4492      	add	sl, r2
  d0:	f7ff fffe 	bl	0 <memcpy>
  d4:	68b2      	ldr	r2, [r6, #8]
  d6:	4650      	mov	r0, sl
  d8:	6831      	ldr	r1, [r6, #0]
  da:	f7ff fffe 	bl	0 <memcpy>
  de:	68ab      	ldr	r3, [r5, #8]
  e0:	68b2      	ldr	r2, [r6, #8]
  e2:	68bc      	ldr	r4, [r7, #8]
  e4:	4443      	add	r3, r8
  e6:	4492      	add	sl, r2
  e8:	444c      	add	r4, r9
  ea:	60ab      	str	r3, [r5, #8]
  ec:	6839      	ldr	r1, [r7, #0]
  ee:	4620      	mov	r0, r4
  f0:	f7ff fffe 	bl	0 <strstr>
  f4:	4681      	mov	r9, r0
  f6:	4621      	mov	r1, r4
  f8:	4650      	mov	r0, sl
  fa:	f1b9 0f00 	cmp.w	r9, #0
  fe:	d1e4      	bne.n	ca <_ZN6String7replaceERKS_S1_+0xca>
 100:	f7ff fffe 	bl	0 <strcpy>
 104:	e7c9      	b.n	9a <_ZN6String7replaceERKS_S1_+0x9a>
 106:	4620      	mov	r0, r4
 108:	f109 0101 	add.w	r1, r9, #1
 10c:	f7ff fffe 	bl	0 <realloc>
 110:	2800      	cmp	r0, #0
 112:	d0c2      	beq.n	9a <_ZN6String7replaceERKS_S1_+0x9a>
 114:	68ab      	ldr	r3, [r5, #8]
 116:	e9c5 0900 	strd	r0, r9, [r5]
 11a:	e79b      	b.n	54 <_ZN6String7replaceERKS_S1_+0x54>

Disassembly of section .text._ZN6String6removeEj:

00000000 <_ZN6String6removeEj>:
   0:	6883      	ldr	r3, [r0, #8]
   2:	428b      	cmp	r3, r1
   4:	d903      	bls.n	e <_ZN6String6removeEj+0xe>
   6:	6803      	ldr	r3, [r0, #0]
   8:	2200      	movs	r2, #0
   a:	6081      	str	r1, [r0, #8]
   c:	545a      	strb	r2, [r3, r1]
   e:	4770      	bx	lr

Disassembly of section .text._ZN6String6removeEjj:

00000000 <_ZN6String6removeEjj>:
   0:	b510      	push	{r4, lr}
   2:	4604      	mov	r4, r0
   4:	4608      	mov	r0, r1
   6:	68a1      	ldr	r1, [r4, #8]
   8:	b10a      	cbz	r2, e <_ZN6String6removeEjj+0xe>
   a:	4281      	cmp	r1, r0
   c:	d801      	bhi.n	12 <_ZN6String6removeEjj+0x12>
   e:	4620      	mov	r0, r4
  10:	bd10      	pop	{r4, pc}
  12:	eb00 0c02 	add.w	ip, r0, r2
  16:	4561      	cmp	r1, ip
  18:	d30e      	bcc.n	38 <_ZN6String6removeEjj+0x38>
  1a:	1a8b      	subs	r3, r1, r2
  1c:	4661      	mov	r1, ip
  1e:	1a1a      	subs	r2, r3, r0
  20:	60a3      	str	r3, [r4, #8]
  22:	6823      	ldr	r3, [r4, #0]
  24:	4419      	add	r1, r3
  26:	4418      	add	r0, r3
  28:	f7ff fffe 	bl	0 <memmove>
  2c:	6822      	ldr	r2, [r4, #0]
  2e:	68a3      	ldr	r3, [r4, #8]
  30:	2100      	movs	r1, #0
  32:	4620      	mov	r0, r4
  34:	54d1      	strb	r1, [r2, r3]
  36:	bd10      	pop	{r4, pc}
  38:	4603      	mov	r3, r0
  3a:	2200      	movs	r2, #0
  3c:	e7f0      	b.n	20 <_ZN6String6removeEjj+0x20>
  3e:	bf00      	nop

Disassembly of section .text._ZN6String11toLowerCaseEv:

00000000 <_ZN6String11toLowerCaseEv>:
   0:	b538      	push	{r3, r4, r5, lr}
   2:	6804      	ldr	r4, [r0, #0]
   4:	4605      	mov	r5, r0
   6:	b144      	cbz	r4, 1a <_ZN6String11toLowerCaseEv+0x1a>
   8:	7820      	ldrb	r0, [r4, #0]
   a:	b130      	cbz	r0, 1a <_ZN6String11toLowerCaseEv+0x1a>
   c:	f7ff fffe 	bl	0 <tolower>
  10:	7020      	strb	r0, [r4, #0]
  12:	f814 0f01 	ldrb.w	r0, [r4, #1]!
  16:	2800      	cmp	r0, #0
  18:	d1f8      	bne.n	c <_ZN6String11toLowerCaseEv+0xc>
  1a:	4628      	mov	r0, r5
  1c:	bd38      	pop	{r3, r4, r5, pc}
  1e:	bf00      	nop

Disassembly of section .text._ZN6String11toUpperCaseEv:

00000000 <_ZN6String11toUpperCaseEv>:
   0:	b538      	push	{r3, r4, r5, lr}
   2:	6804      	ldr	r4, [r0, #0]
   4:	4605      	mov	r5, r0
   6:	b144      	cbz	r4, 1a <_ZN6String11toUpperCaseEv+0x1a>
   8:	7820      	ldrb	r0, [r4, #0]
   a:	b130      	cbz	r0, 1a <_ZN6String11toUpperCaseEv+0x1a>
   c:	f7ff fffe 	bl	0 <toupper>
  10:	7020      	strb	r0, [r4, #0]
  12:	f814 0f01 	ldrb.w	r0, [r4, #1]!
  16:	2800      	cmp	r0, #0
  18:	d1f8      	bne.n	c <_ZN6String11toUpperCaseEv+0xc>
  1a:	4628      	mov	r0, r5
  1c:	bd38      	pop	{r3, r4, r5, pc}
  1e:	bf00      	nop

Disassembly of section .text._ZN6String4trimEv:

00000000 <_ZN6String4trimEv>:
   0:	e92d 41f0 	stmdb	sp!, {r4, r5, r6, r7, r8, lr}
   4:	6807      	ldr	r7, [r0, #0]
   6:	4606      	mov	r6, r0
   8:	b1e7      	cbz	r7, 44 <_ZN6String4trimEv+0x44>
   a:	6884      	ldr	r4, [r0, #8]
   c:	b1d4      	cbz	r4, 44 <_ZN6String4trimEv+0x44>
   e:	46b8      	mov	r8, r7
  10:	4645      	mov	r5, r8
  12:	f818 0b01 	ldrb.w	r0, [r8], #1
  16:	f7ff fffe 	bl	0 <isspace>
  1a:	2800      	cmp	r0, #0
  1c:	d1f8      	bne.n	10 <_ZN6String4trimEv+0x10>
  1e:	3c01      	subs	r4, #1
  20:	443c      	add	r4, r7
  22:	e002      	b.n	2a <_ZN6String4trimEv+0x2a>
  24:	42a5      	cmp	r5, r4
  26:	d805      	bhi.n	34 <_ZN6String4trimEv+0x34>
  28:	3c01      	subs	r4, #1
  2a:	7820      	ldrb	r0, [r4, #0]
  2c:	f7ff fffe 	bl	0 <isspace>
  30:	2800      	cmp	r0, #0
  32:	d1f7      	bne.n	24 <_ZN6String4trimEv+0x24>
  34:	1c62      	adds	r2, r4, #1
  36:	42af      	cmp	r7, r5
  38:	eba2 0205 	sub.w	r2, r2, r5
  3c:	60b2      	str	r2, [r6, #8]
  3e:	d304      	bcc.n	4a <_ZN6String4trimEv+0x4a>
  40:	2300      	movs	r3, #0
  42:	54bb      	strb	r3, [r7, r2]
  44:	4630      	mov	r0, r6
  46:	e8bd 81f0 	ldmia.w	sp!, {r4, r5, r6, r7, r8, pc}
  4a:	4638      	mov	r0, r7
  4c:	4629      	mov	r1, r5
  4e:	f7ff fffe 	bl	0 <memcpy>
  52:	6837      	ldr	r7, [r6, #0]
  54:	68b2      	ldr	r2, [r6, #8]
  56:	e7f3      	b.n	40 <_ZN6String4trimEv+0x40>

Disassembly of section .text._ZNK6String5toIntEv:

00000000 <_ZNK6String5toIntEv>:
   0:	6800      	ldr	r0, [r0, #0]
   2:	b108      	cbz	r0, 8 <_ZNK6String5toIntEv+0x8>
   4:	f7ff bffe 	b.w	0 <atol>
   8:	4770      	bx	lr
   a:	bf00      	nop

Disassembly of section .text._ZNK6String7toFloatEv:

00000000 <_ZNK6String7toFloatEv>:
   0:	6800      	ldr	r0, [r0, #0]
   2:	b110      	cbz	r0, a <_ZNK6String7toFloatEv+0xa>
   4:	2100      	movs	r1, #0
   6:	f7ff bffe 	b.w	0 <strtof>
   a:	ed9f 0a01 	vldr	s0, [pc, #4]	; 10 <_ZNK6String7toFloatEv+0x10>
   e:	4770      	bx	lr
  10:	00000000 	.word	0x00000000
