
build/./libraries/SdFat/src/ExFatLib/ExFatDbg.cpp.o:     file format elf32-littlearm

SYMBOL TABLE:
00000000 l    df *ABS*	00000000 ExFatDbg.cpp
00000000 l    d  .text	00000000 .text
00000000 l    d  .data	00000000 .data
00000000 l    d  .bss	00000000 .bss
00000000 l    d  .text._ZL8printHexP5Printt	00000000 .text._ZL8printHexP5Printt
00000000 l     F .text._ZL8printHexP5Printt	00000056 _ZL8printHexP5Printt
00000000 l    d  .text._ZL8printHexP5Printm	00000000 .text._ZL8printHexP5Printm
00000000 l     F .text._ZL8printHexP5Printm	00000058 _ZL8printHexP5Printm
00000000 l    d  .text._ZL9println64P5Printy	00000000 .text._ZL9println64P5Printy
00000000 l     F .text._ZL9println64P5Printy	0000008a _ZL9println64P5Printy
00000000 l    d  .rodata._ZN14ExFatPartition11checkUpcaseEP5Print.str1.4	00000000 .rodata._ZN14ExFatPartition11checkUpcaseEP5Print.str1.4
00000000 l    d  .text._ZN14ExFatPartition11checkUpcaseEP5Print	00000000 .text._ZN14ExFatPartition11checkUpcaseEP5Print
00000000 l    d  .rodata._ZN14ExFatPartition6dmpFatEP5Printmm.str1.4	00000000 .rodata._ZN14ExFatPartition6dmpFatEP5Printmm.str1.4
00000000 l    d  .text._ZN14ExFatPartition6dmpFatEP5Printmm	00000000 .text._ZN14ExFatPartition6dmpFatEP5Printmm
00000000 l    d  .rodata._ZN14ExFatPartition9dmpSectorEP5Printm.str1.4	00000000 .rodata._ZN14ExFatPartition9dmpSectorEP5Printm.str1.4
00000000 l    d  .text._ZN14ExFatPartition9dmpSectorEP5Printm	00000000 .text._ZN14ExFatPartition9dmpSectorEP5Printm
00000000 l    d  .rodata._ZN14ExFatPartition9dmpBitmapEP5Print.str1.4	00000000 .rodata._ZN14ExFatPartition9dmpBitmapEP5Print.str1.4
00000000 l    d  .text._ZN14ExFatPartition9dmpBitmapEP5Print	00000000 .text._ZN14ExFatPartition9dmpBitmapEP5Print
00000000 l    d  .rodata._ZN14ExFatPartition10dmpClusterEP5Printmmm.str1.4	00000000 .rodata._ZN14ExFatPartition10dmpClusterEP5Printmmm.str1.4
00000000 l    d  .text._ZN14ExFatPartition10dmpClusterEP5Printmmm	00000000 .text._ZN14ExFatPartition10dmpClusterEP5Printmmm
00000000 l    d  .rodata._ZN14ExFatPartition8printDirEP5PrintP9ExFatFile.str1.4	00000000 .rodata._ZN14ExFatPartition8printDirEP5PrintP9ExFatFile.str1.4
00000000 l    d  .text._ZN14ExFatPartition8printDirEP5PrintP9ExFatFile	00000000 .text._ZN14ExFatPartition8printDirEP5PrintP9ExFatFile
00000000 l    d  .text._ZN14ExFatPartition8printFatEP5Print	00000000 .text._ZN14ExFatPartition8printFatEP5Print
00000000 l    d  .rodata._ZN14ExFatPartition11printUpcaseEP5Print.str1.4	00000000 .rodata._ZN14ExFatPartition11printUpcaseEP5Print.str1.4
00000000 l    d  .text._ZN14ExFatPartition11printUpcaseEP5Print	00000000 .text._ZN14ExFatPartition11printUpcaseEP5Print
00000000 l    d  .rodata._ZN14ExFatPartition12printVolInfoEP5Print.str1.4	00000000 .rodata._ZN14ExFatPartition12printVolInfoEP5Print.str1.4
00000000 l    d  .text._ZN14ExFatPartition12printVolInfoEP5Print	00000000 .text._ZN14ExFatPartition12printVolInfoEP5Print
00000000 l    d  .comment	00000000 .comment
00000000 l    d  .ARM.attributes	00000000 .ARM.attributes
00000000         *UND*	00000000 _ZN5Print11printNumberEmhh
00000000         *UND*	00000000 strlen
00000000         *UND*	00000000 _ZN5Print7printlnEv
00000000 g     F .text._ZN14ExFatPartition11checkUpcaseEP5Print	000001fc _ZN14ExFatPartition11checkUpcaseEP5Print
00000000         *UND*	00000000 _ZN7FsCache7prepareEmh
00000000         *UND*	00000000 _Z8toUpcaset
00000000         *UND*	00000000 _ZN5Print5printEl
00000000 g     F .text._ZN14ExFatPartition6dmpFatEP5Printmm	000000a8 _ZN14ExFatPartition6dmpFatEP5Printmm
00000000 g     F .text._ZN14ExFatPartition9dmpSectorEP5Printm	00000088 _ZN14ExFatPartition9dmpSectorEP5Printm
00000000 g     F .text._ZN14ExFatPartition9dmpBitmapEP5Print	0000002c _ZN14ExFatPartition9dmpBitmapEP5Print
00000000 g     F .text._ZN14ExFatPartition10dmpClusterEP5Printmmm	00000058 _ZN14ExFatPartition10dmpClusterEP5Printmmm
00000000 g     F .text._ZN14ExFatPartition8printDirEP5PrintP9ExFatFile	000006ac _ZN14ExFatPartition8printDirEP5PrintP9ExFatFile
00000000         *UND*	00000000 _Z15fsPrintDateTimeP5Printmha
00000000 g     F .text._ZN14ExFatPartition8printFatEP5Print	00000070 _ZN14ExFatPartition8printFatEP5Print
00000000         *UND*	00000000 _ZN14ExFatPartition6fatGetEmPm
00000000 g     F .text._ZN14ExFatPartition11printUpcaseEP5Print	00000118 _ZN14ExFatPartition11printUpcaseEP5Print
00000000         *UND*	00000000 _Z14upcaseChecksumtm
00000000 g     F .text._ZN14ExFatPartition12printVolInfoEP5Print	000004cc _ZN14ExFatPartition12printVolInfoEP5Print


Contents of section .text._ZL8printHexP5Printt:
 0000 f8b50024 01250646 0f46c4eb 84731022  ...$.%.F.F...s."
 0010 5ffa84fc 30469b00 0c3347fa 03f313f0  _...0F...3G.....
 0020 0f0e7146 18bf4ff0 010ebcf1 030f08bf  ..qF..O.........
 0030 4ef0010e 8ef0010e 15ea0e05 2b4605d1  N...........+F..
 0040 fff7feff 0134042c dfd1f8bd 33682021  .....4.,....3h !
 0050 1b689847 f6e700bf                    .h.G....        
Contents of section .text._ZL8printHexP5Printm:
 0000 f8b50024 01250646 0f4604e0 0134fff7  ...$.%.F.F...4..
 0010 feff082c 1fd0c4eb 84731022 5ffa84fc  ...,.....s."_...
 0020 30469b00 1c3327fa 03f111f0 0f031946  0F...3'........F
 0030 18bf0123 bcf1070f 08bf43f0 010383f0  ...#......C.....
 0040 01031d40 2b46e1d0 33680134 20211b68  ...@+F..3h.4 !.h
 0050 9847082c dfd1f8bd                    .G.,....        
Contents of section .text._ZL9println64P5Printy:
 0000 2de9f041 002186b0 04469e46 8df81410  -..A.!...F.F....
 0010 05ada1f1 33314ff0 cc3712eb 0e031046  ....31O..7.....F
 0020 764643f1 000300f1 3008a1fb 032c2cf0  vFC.....0....,,.
 0030 030202eb 9c029b1a c31a6ef1 000c07fb  ..........n.....
 0040 03fea3fb 01320a28 01fb0cee 4fea530c  .....2.(....O.S.
 0050 76f10006 96444cea ce724fea 5e0e02eb  v....DL..rO.^...
 0060 8c0ca8eb 4c0805f8 018dd6d2 2846fff7  ....L.......(F..
 0070 feff2368 02462946 5b682046 98472046  ..#h.F)F[h F.G F
 0080 fff7feff 06b0bde8 f08100bf           ............    
Contents of section .rodata._ZN14ExFatPartition11checkUpcaseEP5Print.str1.4:
 0000 72656164 20726f6f 74206661 696c6564  read root failed
 0010 00000000 0a436865 636b696e 67207570  .....Checking up
 0020 63617365 20746162 6c650000 75706361  case table..upca
 0030 7365206e 6f742066 6f756e64 00000000  se not found....
 0040 72656164 20757063 61736520 6661696c  read upcase fail
 0050 65640000 736b6970 20000000 3c3c3c3c  ed..skip ...<<<<
 0060 3c3c3c3c 3c3c3c3c 3c3c3c3c 3c3c3c3c  <<<<<<<<<<<<<<<<
 0070 00000000 446f6e65 20636865 636b5570  ....Done checkUp
 0080 63617365 00                          case.           
Contents of section .text._ZN14ExFatPartition11checkUpcaseEP5Print:
 0000 d0f83434 2de9f04f 023b0c46 d0f82c14  ..44-..O.;.F..,.
 0010 064600f5 04702ded 028b90f8 352285b0  .F...p-.....5"..
 0020 08ee100a 93400022 1944fff7 feff0028  .....@.".D.....(
 0030 00f0ce80 23680546 69491622 5b682046  ....#h.FiI."[h F
 0040 98472046 fff7feff 2b4605f5 00711a78  .G F....+F...q.x
 0050 822a06d0 20338b42 f9d12368 10226149  .*.. 3.B..#h."aI
 0060 a9e0d3e9 0521931e 96f84524 9340d6f8  .....!....E$.@..
 0070 2c241344 03930029 efd04b08 029300f0  ,$.D...)..K.....
 0080 97800027 dff870b1 b8463d46 019730e0  ...'..p..F=F..0.
 0090 019b33f8 1960002d 3ed14ff6 ff739e42  ..3..`.->.O..s.B
 00a0 00f09480 4046fff7 feffb042 814618d0  ....@F.....B.F..
 00b0 41462046 fff7feff 23682c21 20461b68  AF F....#h,! F.h
 00c0 98474946 2046fff7 feff2368 2c212046  .GIF F....#h,! F
 00d0 1b689847 20463146 fff7feff 2046fff7  .h.G F1F.... F..
 00e0 feff08f1 01081ffa 88f80137 029b9f42  ...........7...B
 00f0 5ed017f0 ff09cbd1 03994a46 18ee100a  ^.........JF....
 0100 4e1cfff7 feff0190 002865d0 019b0396  N........(e.....
 0110 33f81960 002dc0d0 23680522 32492046  3..`.-..#h."2I F
 0120 5b689847 41462046 fff7feff 23682021  [h.GAF F....#h !
 0130 20461b68 98473146 2046fff7 feff2046   F.h.G1F F.... F
 0140 fff7feff 4ff6ff73 9e42ced0 46b306f1  ....O..s.B..F...
 0150 ff3908f1 01034546 13fa89f9 a9b20846  .9....EF.......F
 0160 0091fff7 feff8246 00992046 aa4505f1  .......F.. F.E..
 0170 010513d0 fff7feff 23682c21 20461b68  ........#h,! F.h
 0180 98475146 2046fff7 feff2368 14225946  .GQF F....#h."YF
 0190 5b682046 98472046 fff7feff a945ddd1  [h F.G F.....E..
 01a0 0137029b b0440025 9f421ffa 88f8a0d1  .7...D.%.B......
 01b0 23681022 0d492046 5b689847 204605b0  #h.".I F[h.G F..
 01c0 bdec028b bde8f04f fff7febf 01258ce7  .......O.....%..
 01d0 23681022 0649eee7 23681222 0549eae7  #h.".I..#h.".I..
 01e0 14000000 2c000000 54000000 74000000  ....,...T...t...
 01f0 00000000 40000000 5c000000           ....@...\...    
Contents of section .rodata._ZN14ExFatPartition6dmpFatEP5Printmm.str1.4:
 0000 4641543a 00000000 63616368 65207265  FAT:....cache re
 0010 61642066 61696c65 6400               ad failed.      
Contents of section .text._ZN14ExFatPartition6dmpFatEP5Printmm:
 0000 2de9f84f 1c46d0f8 24340d46 824602eb  -..O.F..$4.F.F..
 0010 03080b68 d7012249 5b680422 28469847  ...h.."I[h."(F.G
 0020 2846fff7 feff6cb3 0af5047a 08eb0409  (F....l....z....
 0030 00224146 5046fff7 feff28b3 061f0024  ."AFPF....(....$
 0040 07eb040b 1bf0070f 07d12846 0cb1fff7  ..........(F....
 0050 feff5946 2846fff7 feff2b68 20212846  ..YF(F....+h !(F
 0060 01341b68 984756f8 041f2846 fff7feff  .4.h.GV...(F....
 0070 802ce5d1 08f10108 2846fff7 feff8037  .,......(F.....7
 0080 c145d5d1 bde8f88f 2b682846 11220549  .E......+h(F.".I
 0090 5b689847 2846bde8 f84ffff7 febf00bf  [h.G(F...O......
 00a0 00000000 08000000                    ........        
Contents of section .rodata._ZN14ExFatPartition9dmpSectorEP5Printm.str1.4:
 0000 646d7053 6563746f 72206661 696c6564  dmpSector failed
 0010 00                                   .               
Contents of section .text._ZN14ExFatPartition9dmpSectorEP5Printm:
 0000 f8b51346 0c460022 00f50470 1946fff7  ...F.F."...p.F..
 0010 feff58b3 471e0025 15f01f0f aeb205f1  ..X.G..%........
 0020 010507d1 20460eb1 fff7feff 31462046  .... F......1F F
 0030 fff7feff 23682021 20461b68 984717f8  ....#h ! F.h.G..
 0040 016f3021 20460f2e 02d82368 1b689847  .o0! F....#h.h.G
 0050 00231022 31462046 fff7feff b5f5007f  .#."1F F........
 0060 dad12046 bde8f840 fff7febf 23682046  .. F...@....#h F
 0070 10220449 5b689847 2046bde8 f840fff7  .".I[h.G F...@..
 0080 febf00bf 00000000                    ........        
Contents of section .rodata._ZN14ExFatPartition9dmpBitmapEP5Print.str1.4:
 0000 6269746d 61703a00                    bitmap:.        
Contents of section .text._ZN14ExFatPartition9dmpBitmapEP5Print:
 0000 38b50c46 05460722 07492368 20465b68  8..F.F.".I#h F[h
 0010 98472046 fff7feff d5f82c24 21462846  .G F......,$!F(F
 0020 bde83840 fff7febf 00000000           ..8@........    
Contents of section .rodata._ZN14ExFatPartition10dmpClusterEP5Printmmm.str1.4:
 0000 0a536563 746f723a 2000               .Sector: .      
Contents of section .text._ZN14ExFatPartition10dmpClusterEP5Printmmm:
 0000 2de9f041 023a0d46 90f84514 069f8a40  -..A.:.F..E....@
 0010 d0f82c14 0b44d418 d7b10646 2744dff8  ..,..D.....F'D..
 0020 34802b68 09224146 28465b68 98472146  4.+h."AF(F[h.G!F
 0030 00231022 2846fff7 feff2846 fff7feff  .#."(F....(F....
 0040 22460134 29463046 fff7feff a742e8d1  "F.4)F0F.....B..
 0050 bde8f081 00000000                    ........        
Contents of section .rodata._ZN14ExFatPartition8printDirEP5PrintP9ExFatFile.str1.4:
 0000 446f6e65 00000000 64697242 69746d61  Done....dirBitma
 0010 703a2030 78000000 666c6167 733a2030  p: 0x...flags: 0
 0020 78000000 66697273 74436c75 73746572  x...firstCluster
 0030 3a200000 73697a65 3a200000 64697255  : ..size: ..dirU
 0040 70636173 653a2030 78000000 63686563  pcase: 0x...chec
 0050 6b73756d 3a203078 00000000 6469724c  ksum: 0x....dirL
 0060 6162656c 3a203078 00000000 6c616265  abel: 0x....labe
 0070 6c4c656e 6774683a 20000000 756e6963  lLength: ...unic
 0080 6f64653a 20000000 64697246 696c653a  ode: ...dirFile:
 0090 20307800 73657443 6f756e74 3a200000   0x.setCount: ..
 00a0 73657443 6865636b 73756d3a 20307800  setChecksum: 0x.
 00b0 61747472 69627574 65733a20 30780000  attributes: 0x..
 00c0 63726561 74655469 6d653a20 00000000  createTime: ....
 00d0 6d6f6469 66795469 6d653a20 00000000  modifyTime: ....
 00e0 61636365 73735469 6d653a20 00000000  accessTime: ....
 00f0 64697253 74726561 6d3a2030 78000000  dirStream: 0x...
 0100 6e616d65 4c656e67 74683a20 00000000  nameLength: ....
 0110 6e616d65 48617368 3a203078 00000000  nameHash: 0x....
 0120 76616c69 644c656e 6774683a 20000000  validLength: ...
 0130 64617461 4c656e67 74683a20 00000000  dataLength: ....
 0140 6469724e 616d653a 20307800 30780000  dirName: 0x.0x..
 0150 20213d20 63616c63 43686563 6b73756d   != calcChecksum
 0160 3a203078 00000000 203d3d20 63616c63  : 0x.... == calc
 0170 43686563 6b73756d 3a203078 00000000  Checksum: 0x....
 0180 20213d20 63616c63 48617368 3a203078   != calcHash: 0x
 0190 00000000 203d3d20 63616c63 48617368  .... == calcHash
 01a0 3a203078 00000000 556e6b6e 6f776e20  : 0x....Unknown 
 01b0 64697254 7970653a 20307800 556e7573  dirType: 0x.Unus
 01c0 65642064 69725479 70653a20 307800    ed dirType: 0x. 
Contents of section .text._ZN14ExFatPartition8printDirEP5PrintP9ExFatFile:
 0000 d0f83434 2de9f04f 023b90f8 45240125  ..44-..O.;..E$.%
 0010 8bb09340 04324ff0 000b0c46 05fa02f2  ...@.2O....F....
 0020 05905d46 da460192 5e46d0f8 2c24cdf8  ..]F.F..^F..,$..
 0030 10b01344 cde908bb cde902b3 1af00f02  ...D............
 0040 00f03281 20363378 002b00f0 a6802046  ..2. 63x.+.... F
 0050 fff7feff 3378852b 00f2b181 802b40f2  ....3x.+.....+@.
 0060 4981a3f1 8102042a 00f24481 dfe812f0  I......*..D.....
 0070 2a01da00 a2004201 05002368 0b22a849  *.....B...#h.".I
 0080 20465b68 98470023 10223178 2046fff7   F[h.G.#."1x F..
 0090 feff2046 fff7feff 23680a22 a1495b68  .. F....#h.".I[h
 00a0 20469847 00230a22 71782046 fff7feff   F.G.#."qx F....
 00b0 2046fff7 feff2368 0f229b49 5b682046   F....#h.".I[h F
 00c0 98470023 10227188 2046fff7 feff2046  .G.#."q. F.... F
 00d0 fff7feff 23680e22 94495b68 20469847  ....#h.".I[h F.G
 00e0 00231022 b1882046 fff7feff 2046fff7  .#.".. F.... F..
 00f0 feff2368 0c228e49 5b682046 984796f9  ..#h.".I[h F.G..
 0100 1630327d 2046b168 fff7feff 2046fff7  .02} F.h.... F..
 0110 feff2368 0c228749 5b682046 984796f9  ..#h.".I[h F.G..
 0120 1730727d 2046f168 fff7feff 2046fff7  .0r} F.h.... F..
 0130 feff2368 0c228049 5b682046 984796f9  ..#h.".I[h F.G..
 0140 18300022 31692046 fff7feff 2046fff7  .0."1i F.... F..
 0150 feff3378 72780021 a3f18500 02920d46  ..3xrx.!.......F
 0160 7288b0fa 80f00992 40091a46 01e00421  r.......@..F...!
 0170 725ceb03 012901f1 010143ea 550512fa  r\...)....C.U...
 0180 85f39db2 01d10028 f1d11f29 f0d90af1  .......(...)....
 0190 010a019b 53457ff4 51af2368 04226749  ....SE..Q.#h."gI
 01a0 20465b68 98472046 fff7feff 01200bb0   F[h.G F..... ..
 01b0 bde8f08f 23680c22 61492046 5b689847  ....#h."aI F[h.G
 01c0 00231022 31782046 fff7feff 2046fff7  .#."1x F.... F..
 01d0 feff2368 0d225b49 5b682046 98470023  ..#h."[I[h F.G.#
 01e0 0a227178 2046fff7 feff2046 fff7feff  ."qx F.... F....
 01f0 23680922 54495b68 20469847 73786bb1  #h."TI[h F.Gsxk.
 0200 4ff00008 b71c2368 204617f8 181008f1  O.....#h F......
 0210 01081b68 98477378 9845f4d3 2046fff7  ...h.Gsx.E.. F..
 0220 feff37e0 23680d22 48492046 5b689847  ..7.#h."HI F[h.G
 0230 00233178 10222046 fff7feff 2046fff7  .#1x." F.... F..
 0240 feff2368 42490c22 5b682046 98470023  ..#hBI."[h F.G.#
 0250 71681022 2046fff7 feff2046 fff7feff  qh." F.... F....
 0260 23680e22 3b495b68 20469847 00237169  #h.";I[h F.G.#qi
 0270 0a222046 fff7feff 2046fff7 feff2368  ." F.... F....#h
 0280 06223549 5b682046 98472046 d6e90623  ."5I[h F.G F...#
 0290 fff7feff 0af1010a 019b5345 3ff47daf  ..........SE?.}.
 02a0 1af00f02 7ff4ceae 0399059b 0f4603f5  .............F..
 02b0 0470fff7 feff0137 06460028 3ff477af  .p.....7.F.(?.w.
 02c0 0397c0e6 23680d22 24492046 5b689847  ....#h."$I F[h.G
 02d0 00233178 10222046 fff7feff 2046fff7  .#1x." F.... F..
 02e0 feff2368 1e490922 5b682046 98470023  ..#h.I."[h F.G.#
 02f0 7178aee7 1b0600f1 b2812368 12221949  qx........#h.".I
 0300 20465b68 9847b046 00231022 204618f8   F[h.G.F.#." F..
 0310 011b0127 fff7feff 2046fff7 feff3de0  ...'.... F....=.
 0320 88000000 94000000 a0000000 b0000000  ................
 0330 c0000000 d0000000 e0000000 00000000  ................
 0340 5c000000 6c000000 7c000000 3c000000  \...l...|...<...
 0350 4c000000 24000000 34000000 08000000  L...$...4.......
 0360 18000000 bc010000 23681b68 984798f8  ........#h.h.G..
 0370 0090b9f1 0f0f04d8 23683021 20461b68  ........#h0! F.h
 0380 98470023 10224946 2046fff7 feff1f2f  .G.#."IF F...../
 0390 3ff444af 013708f1 0108ffb2 012f4ff0  ?.D..7......./O.
 03a0 20012046 e0d198f8 0090b9f1 0f0fe3d9   . F............
 03b0 00231022 49462046 fff7feff eae7c02b  .#."IF F.......+
 03c0 00f0c880 c12b40f0 4a812368 0b22a749  .....+@.J.#h.".I
 03d0 20465b68 06f11e07 98470023 10223178   F[h.....G.#."1x
 03e0 2046b046 fff7feff 2046fff7 feff2368   F.F.... F....#h
 03f0 09229f49 5b682046 0697b146 98470795  .".I[h F...F.G..
 0400 3d4608e0 1b689847 23682021 20461b68  =F...h.G#h ! F.h
 0410 98474d45 12d039f8 027f2046 f9b26fb1  .GME..9... F..o.
 0420 7f2f2368 eed90222 92495b68 98470023  ./#h...".I[h.G.#
 0430 10223946 2046fff7 feffe5e7 2046079d  ."9F F...... F..
 0440 fff7feff 33780021 a3f18500 1a46b0fa  ....3x.!.....F..
 0450 80f04009 01e00421 725ceb03 012901f1  ..@....!r\...)..
 0460 010143ea 550512fa 85f39db2 01d10028  ..C.U..........(
 0470 f1d11f29 f0d9049f ddf81890 0f2f28bf  ...)........./(.
 0480 0f2738f8 020fa8b1 fff7feff c1454fea  .'8..........EO.
 0490 cb33c2b2 43ea5b03 4fea1020 12fa83f3  .3..C.[.O.. ....
 04a0 9ab2c3f3 4e0343ea c23310fa 83f31ffa  ....N.C..3......
 04b0 83fbe6d1 049bdf1b 029b013b 17f0ff02  ...........;....
 04c0 dbb20492 029302d0 002b7ff4 e3ae2368  .........+....#h
 04d0 0f226949 20465b68 9847099f 00231022  ."iI F[h.G...#."
 04e0 39462046 fff7feff af422368 4ff01402  9F F.....B#hO...
 04f0 18bf6249 204608bf 61495b68 98472946  ..bI F..aI[h.G)F
 0500 00231022 2046fff7 feff2046 fff7feff  .#." F.... F....
 0510 23680c22 5b495b68 20469847 089f0023  #h."[I[h F.G...#
 0520 10223946 2046fff7 feff5f45 23684ff0  ."9F F...._E#hO.
 0530 100218bf 54492046 08bf5449 5b689847  ....TI F..TI[h.G
 0540 00231022 59462046 fff7feff 2046fff7  .#."YF F.... F..
 0550 feff9fe6 23680d22 4d492046 5b689847  ....#h."MI F[h.G
 0560 00231022 31782046 fff7feff 2046fff7  .#."1x F.... F..
 0570 feff2368 09224749 5b682046 98470023  ..#h."GI[h F.G.#
 0580 10227178 2046fff7 feff2046 fff7feff  ."qx F.... F....
 0590 23680c22 40495b68 20469847 00230a22  #h."@I[h F.G.#."
 05a0 f1782046 fff7feff 2046fff7 feff2368  .x F.... F....#h
 05b0 0c223449 5b682046 98470023 1022b188  ."4I[h F.G.#."..
 05c0 2046fff7 feff2046 fff7feff 23683349   F.... F....#h3I
 05d0 0d225b68 20469847 2046d6e9 0223fff7  ."[h F.G F...#..
 05e0 feff2368 0e222e49 5b682046 98470023  ..#h.".I[h F.G.#
 05f0 0a227169 2046fff7 feff2046 fff7feff  ."qi F.... F....
 0600 23682849 0c225b68 20469847 2046d6e9  #h(I."[h F.G F..
 0610 0623fff7 feff3378 f2780021 a3f18500  .#....3x.x.!....
 0620 0492b0fa 80f0b288 40090892 1a4601e0  ........@....F..
 0630 0421725c eb030129 01f10101 43ea5505  .!r\...)....C.U.
 0640 12fa85f3 9db201d1 0028f1d1 1f29f0d9  .........(...)..
 0650 029b4ff0 000b013b dbb20293 1ae62368  ..O....;......#h
 0660 13221149 20465b68 98474ce6 40010000  .".I F[h.GL.@...
 0670 7c000000 4c010000 a0000000 50010000  |...L.......P...
 0680 68010000 10010000 80010000 94010000  h...............
 0690 f0000000 18000000 00010000 20010000  ............ ...
 06a0 24000000 30010000 a8010000           $...0.......    
Contents of section .text._ZN14ExFatPartition8printFatEP5Print:
 0000 f0b50c46 83b00422 18492368 07462046  ...F...".I#h.F F
 0010 00255b68 98472046 fff7feff 0be00199  .%[h.G F........
 0020 00231022 20460135 fff7feff 2046fff7  .#." F.5.... F..
 0030 feff102d 17d02946 01aa3846 fff7feff  ...-..)F..8F....
 0040 29460023 10220646 2046fff7 feff2368  )F.#.".F F....#h
 0050 20212046 1b689847 4ff0ff33 002eded1   ! F.h.GO..3....
 0060 19460193 dce703b0 f0bd00bf 00000000  .F..............
Contents of section .rodata._ZN14ExFatPartition11printUpcaseEP5Print.str1.4:
 0000 72656164 20726f6f 74206469 72206661  read root dir fa
 0010 696c6564 00000000 63686563 6b73756d  iled....checksum
 0020 3a2000                               : .             
Contents of section .text._ZN14ExFatPartition11printUpcaseEP5Print:
 0000 2de9f84f d0f83434 0d4690f8 452400f5  -..O..44.F..E$..
 0010 047a023b d0f82c14 04465046 93400022  .z.;..,..FPF.@."
 0020 1944fff7 feff0028 69d08046 034600f5  .D.....(i..F.F..
 0030 00711a78 822a0dd0 20339942 f9d12b68  .q.x.*.. 3.B..+h
 0040 10223149 28465b68 98472846 bde8f84f  ."1I(F[h.G(F...O
 0050 fff7febf d3e90523 a2f10209 94f84524  .......#......E$
 0060 09fa02f9 d4f82c24 9144002b e7d05fea  ......,$.D.+.._.
 0070 530b31d0 00242646 15e02307 24d02b68  S.1..$&F..#.$.+h
 0080 20212846 01341b68 984738f8 17702846   !(F.4.h.G8..p(F
 0090 a4b23946 fff7feff 31463846 fff7feff  ..9F....1F8F....
 00a0 5c450646 19d214f0 ff07e6d1 49463a46  \E.F........IF:F
 00b0 504609f1 0109fff7 feff8046 0028dcd1  PF.........F.(..
 00c0 2b681222 1149bde7 2846fff7 feff2146  +h.".I..(F....!F
 00d0 2846fff7 feffd2e7 5e462846 fff7feff  (F......^F(F....
 00e0 2b680a22 0a495b68 28469847 28463146  +h.".I[h(F.G(F1F
 00f0 fff7feff 2846bde8 f84ffff7 febf2b68  ....(F...O....+h
 0100 14220449 9ee700bf 2c000000 40000000  .".I....,...@...
 0110 18000000 00000000                    ........        
Contents of section .rodata._ZN14ExFatPartition12printVolInfoEP5Print.str1.4:
 0000 72656164 206d6272 20666169 6c656400  read mbr failed.
 0010 6d627253 69673a20 30780000 62616420  mbrSig: 0x..bad 
 0020 70617274 6974696f 6e207369 7a650000  partition size..
 0030 72656164 20706273 20666169 6c656400  read pbs failed.
 0040 62706253 69673a20 30780000 46696c65  bpbSig: 0x..File
 0050 53797374 656d4e61 6d653a20 00000000  SystemName: ....
 0060 6d757374 42655a65 726f2065 72726f72  mustBeZero error
 0070 00000000 50617274 6974696f 6e4f6666  ....PartitionOff
 0080 7365743a 20307800 566f6c75 6d654c65  set: 0x.VolumeLe
 0090 6e677468 3a200000 4661744f 66667365  ngth: ..FatOffse
 00a0 743a2030 78000000 4661744c 656e6774  t: 0x...FatLengt
 00b0 683a2000 436c7573 74657248 6561704f  h: .ClusterHeapO
 00c0 66667365 743a2030 78000000 436c7573  ffset: 0x...Clus
 00d0 74657243 6f756e74 3a200000 526f6f74  terCount: ..Root
 00e0 44697265 63746f72 79436c75 73746572  DirectoryCluster
 00f0 3a200000 566f6c75 6d655365 7269616c  : ..VolumeSerial
 0100 4e756d62 65723a20 30780000 46696c65  Number: 0x..File
 0110 53797374 656d5265 76697369 6f6e3a20  SystemRevision: 
 0120 30780000 566f6c75 6d65466c 6167733a  0x..VolumeFlags:
 0130 20307800 42797465 73506572 53656374   0x.BytesPerSect
 0140 6f725368 6966743a 20000000 53656374  orShift: ...Sect
 0150 6f727350 6572436c 75737465 72536869  orsPerClusterShi
 0160 66743a20 00000000 4e756d62 65724f66  ft: ....NumberOf
 0170 46617473 3a200000 44726976 6553656c  Fats: ..DriveSel
 0180 6563743a 20307800 50657263 656e7449  ect: 0x.PercentI
 0190 6e557365 3a2000                      nUse: .         
Contents of section .text._ZN14ExFatPartition12printVolInfoEP5Print:
 0000 2de9f04f 002200f5 04790c46 87b01146  -..O."...y.F...F
 0010 4846fff7 feff2368 80460028 00f02182  HF....#h.F.(..!.
 0020 0a225b68 5c492046 984708f2 c5170023  ."[h\I F.G.....#
 0030 1022b8f8 fe112046 08f2c115 08f2052a  .".... F.......*
 0040 fff7feff 2046fff7 feff17f8 076c0f2e  .... F.......l..
 0050 04d82368 30212046 1b689847 00233146  ..#h0! F.h.G.#1F
 0060 10222046 fff7feff 23682021 20461b68  ." F....#h ! F.h
 0070 a7f1070b 98471bf8 016f3021 20460f2e  .....G...o0! F..
 0080 02d82368 1b689847 31460023 10222046  ..#h.h.G1F.#." F
 0090 fff7feff 23682021 20461b68 98475d45  ....#h ! F.h.G]E
 00a0 e9d117f8 036c0f2e 04d82368 30212046  .....l....#h0! F
 00b0 1b689847 00233146 10222046 fff7feff  .h.G.#1F." F....
 00c0 23682021 20461b68 a7f1030b 98471bf8  #h ! F.h.....G..
 00d0 016f3021 20460f2e 02d82368 1b689847  .o0! F....#h.h.G
 00e0 31460023 10222046 fff7feff 23682021  1F.#." F....#h !
 00f0 20461b68 9847bb45 e9d11022 0023dbf8   F.h.G.E...".#..
 0100 01102046 fff7feff 23682021 20461b68  .. F....#h ! F.h
 0110 0bf11007 98471022 0023dbf8 05102046  .....G.".#.... F
 0120 1544fff7 feff2046 fff7feff ba458cd1  .D.... F.....E..
 0130 d8f8ca51 d8f8c611 002d00f0 7e810022  ...Q.....-..~.."
 0140 4846fff7 feff2368 05460028 00f07f81  HF....#h.F.(....
 0150 0a221249 5b682046 98470023 1022b5f8  .".I[h F.G.#."..
 0160 fe112046 fff7feff 2046fff7 feff2368  .. F.... F....#h
 0170 10220b49 5b682046 98472368 e91c0822  .".I[h F.G#h..."
 0180 5b682046 98472046 fff7feff 05f10a03  [h F.G F........
 0190 05f13f01 08e000bf 10000000 40000000  ..?.........@...
 01a0 4c000000 99420cd0 13f8012f 002af9d0  L....B...../.*..
 01b0 23681022 b1492046 5b689847 2046fff7  #h.".I F[h.G F..
 01c0 feff2368 1322ae49 20465b68 04af9847  ..#h.".I F[h...G
 01d0 0021d5e9 10328df8 101003f0 0f001b09  .!...2..........
 01e0 092843ea 02734fea 121200f1 370698bf  .(C..sO.....7...
 01f0 00f13006 53ea0201 07f8016d edd13846  ..0.S......m..8F
 0200 05aefff7 feff2368 02463946 5b682046  ......#h.F9F[h F
 0210 98472046 fff7feff 23689a49 0e225b68  .G F....#h.I."[h
 0220 20469847 00239849 4ff0cc3c d5f848e0   F.G.#.IO..<..H.
 0230 ef6c8df8 14301eeb 07037246 384643f1  .l...0....rF8FC.
 0240 0003a1fb 037e2ef0 030707eb 9e07db1b  .....~..........
 0250 d31a60f1 00080cfb 03f7a3fb 013e0a2a  ..`..........>.*
 0260 01fb0877 02f13008 4fea5303 70f10000  ...w..0.O.S.p...
 0270 774443ea c77e4fea 57070eeb 8303a8eb  wDC..~O.W.......
 0280 430306f8 013dd6d2 3046fff7 feff2368  C....=..0F....#h
 0290 02463146 5b682046 98472046 fff7feff  .F1F[h F.G F....
 02a0 23680d22 79495b68 20469847 00231022  #h."yI[h F.G.#."
 02b0 296d2046 fff7feff 2046fff7 feff2368  )m F.... F....#h
 02c0 0b227349 5b682046 98470023 0a22696d  ."sI[h F.G.#."im
 02d0 2046fff7 feff2046 fff7feff 23681522   F.... F....#h."
 02e0 6c495b68 20469847 00231022 a96d2046  lI[h F.G.#.".m F
 02f0 fff7feff 2046fff7 feff2368 0e226649  .... F....#h."fI
 0300 5b682046 98470023 0a22e96d 2046fff7  [h F.G.#.".m F..
 0310 feff2046 fff7feff 23681622 5f495b68  .. F....#h."_I[h
 0320 20469847 00230a22 296e2046 fff7feff   F.G.#.")n F....
 0330 2046fff7 feff2368 16225949 5b682046   F....#h."YI[h F
 0340 98470023 1022696e 2046fff7 feff2046  .G.#."in F.... F
 0350 fff7feff 23681622 52495b68 20469847  ....#h."RI[h F.G
 0360 00231022 a96e2046 fff7feff 2046fff7  .#.".n F.... F..
 0370 feff2368 0f224c49 5b682046 98470023  ..#h."LI[h F.G.#
 0380 1022b5f8 6a102046 fff7feff 2046fff7  ."..j. F.... F..
 0390 feff2368 15224549 5b682046 98470023  ..#h."EI[h F.G.#
 03a0 0a2295f8 6c102046 fff7feff 2046fff7  ."..l. F.... F..
 03b0 feff2368 18223e49 5b682046 98470023  ..#h.">I[h F.G.#
 03c0 0a2295f8 6d102046 fff7feff 2046fff7  ."..m. F.... F..
 03d0 feff2368 0e223749 5b682046 98470023  ..#h."7I[h F.G.#
 03e0 0a2295f8 6e102046 fff7feff 2046fff7  ."..n. F.... F..
 03f0 feff2368 0f223049 5b682046 98470023  ..#h."0I[h F.G.#
 0400 102295f8 6f102046 fff7feff 2046fff7  ."..o. F.... F..
 0410 feff2368 0e222949 5b682046 98470023  ..#h.")I[h F.G.#
 0420 0a2295f8 70102046 fff7feff 2046fff7  ."..p. F.... F..
 0430 feff0120 07b0bde8 f08f2368 12222049  ... ......#h." I
 0440 20465b68 98472846 07b0bde8 f08f0f22   F[h.G(F......."
 0450 1c495b68 20469847 2046fff7 feff2846  .I[h F.G F....(F
 0460 e8e70f22 18495b68 20469847 2046fff7  ...".I[h F.G F..
 0470 feff4046 07b0bde8 f08f00bf 60000000  ..@F........`...
 0480 74000000 88000000 cdcccccc 98000000  t...............
 0490 a8000000 b4000000 cc000000 dc000000  ................
 04a0 f4000000 0c010000 24010000 34010000  ........$...4...
 04b0 4c010000 68010000 78010000 88010000  L...h...x.......
 04c0 1c000000 30000000 00000000           ....0.......    
Contents of section .comment:
 0000 00474343 3a202841 726d2047 4e552054  .GCC: (Arm GNU T
 0010 6f6f6c63 6861696e 2031312e 332e5265  oolchain 11.3.Re
 0020 6c312920 31312e33 2e312032 30323230  l1) 11.3.1 20220
 0030 37313200                             712.            
Contents of section .ARM.attributes:
 0000 41310000 00616561 62690001 27000000  A1...aeabi..'...
 0010 0537452d 4d00060d 074d0902 0a081204  .7E-M....M......
 0020 14011501 17031801 19011a01 1c011e02  ................
 0030 2201                                 ".              

Disassembly of section .text._ZL8printHexP5Printt:

00000000 <_ZL8printHexP5Printt>:
   0:	b5f8      	push	{r3, r4, r5, r6, r7, lr}
   2:	2400      	movs	r4, #0
   4:	2501      	movs	r5, #1
   6:	4606      	mov	r6, r0
   8:	460f      	mov	r7, r1
   a:	ebc4 7384 	rsb	r3, r4, r4, lsl #30
   e:	2210      	movs	r2, #16
  10:	fa5f fc84 	uxtb.w	ip, r4
  14:	4630      	mov	r0, r6
  16:	009b      	lsls	r3, r3, #2
  18:	330c      	adds	r3, #12
  1a:	fa47 f303 	asr.w	r3, r7, r3
  1e:	f013 0e0f 	ands.w	lr, r3, #15
  22:	4671      	mov	r1, lr
  24:	bf18      	it	ne
  26:	f04f 0e01 	movne.w	lr, #1
  2a:	f1bc 0f03 	cmp.w	ip, #3
  2e:	bf08      	it	eq
  30:	f04e 0e01 	orreq.w	lr, lr, #1
  34:	f08e 0e01 	eor.w	lr, lr, #1
  38:	ea15 050e 	ands.w	r5, r5, lr
  3c:	462b      	mov	r3, r5
  3e:	d105      	bne.n	4c <_ZL8printHexP5Printt+0x4c>
  40:	f7ff fffe 	bl	0 <_ZN5Print11printNumberEmhh>
  44:	3401      	adds	r4, #1
  46:	2c04      	cmp	r4, #4
  48:	d1df      	bne.n	a <_ZL8printHexP5Printt+0xa>
  4a:	bdf8      	pop	{r3, r4, r5, r6, r7, pc}
  4c:	6833      	ldr	r3, [r6, #0]
  4e:	2120      	movs	r1, #32
  50:	681b      	ldr	r3, [r3, #0]
  52:	4798      	blx	r3
  54:	e7f6      	b.n	44 <_ZL8printHexP5Printt+0x44>
  56:	bf00      	nop

Disassembly of section .text._ZL8printHexP5Printm:

00000000 <_ZL8printHexP5Printm>:
   0:	b5f8      	push	{r3, r4, r5, r6, r7, lr}
   2:	2400      	movs	r4, #0
   4:	2501      	movs	r5, #1
   6:	4606      	mov	r6, r0
   8:	460f      	mov	r7, r1
   a:	e004      	b.n	16 <_ZL8printHexP5Printm+0x16>
   c:	3401      	adds	r4, #1
   e:	f7ff fffe 	bl	0 <_ZN5Print11printNumberEmhh>
  12:	2c08      	cmp	r4, #8
  14:	d01f      	beq.n	56 <_ZL8printHexP5Printm+0x56>
  16:	ebc4 7384 	rsb	r3, r4, r4, lsl #30
  1a:	2210      	movs	r2, #16
  1c:	fa5f fc84 	uxtb.w	ip, r4
  20:	4630      	mov	r0, r6
  22:	009b      	lsls	r3, r3, #2
  24:	331c      	adds	r3, #28
  26:	fa27 f103 	lsr.w	r1, r7, r3
  2a:	f011 030f 	ands.w	r3, r1, #15
  2e:	4619      	mov	r1, r3
  30:	bf18      	it	ne
  32:	2301      	movne	r3, #1
  34:	f1bc 0f07 	cmp.w	ip, #7
  38:	bf08      	it	eq
  3a:	f043 0301 	orreq.w	r3, r3, #1
  3e:	f083 0301 	eor.w	r3, r3, #1
  42:	401d      	ands	r5, r3
  44:	462b      	mov	r3, r5
  46:	d0e1      	beq.n	c <_ZL8printHexP5Printm+0xc>
  48:	6833      	ldr	r3, [r6, #0]
  4a:	3401      	adds	r4, #1
  4c:	2120      	movs	r1, #32
  4e:	681b      	ldr	r3, [r3, #0]
  50:	4798      	blx	r3
  52:	2c08      	cmp	r4, #8
  54:	d1df      	bne.n	16 <_ZL8printHexP5Printm+0x16>
  56:	bdf8      	pop	{r3, r4, r5, r6, r7, pc}

Disassembly of section .text._ZL9println64P5Printy:

00000000 <_ZL9println64P5Printy>:
   0:	e92d 41f0 	stmdb	sp!, {r4, r5, r6, r7, r8, lr}
   4:	2100      	movs	r1, #0
   6:	b086      	sub	sp, #24
   8:	4604      	mov	r4, r0
   a:	469e      	mov	lr, r3
   c:	f88d 1014 	strb.w	r1, [sp, #20]
  10:	ad05      	add	r5, sp, #20
  12:	f1a1 3133 	sub.w	r1, r1, #858993459	; 0x33333333
  16:	f04f 37cc 	mov.w	r7, #3435973836	; 0xcccccccc
  1a:	eb12 030e 	adds.w	r3, r2, lr
  1e:	4610      	mov	r0, r2
  20:	4676      	mov	r6, lr
  22:	f143 0300 	adc.w	r3, r3, #0
  26:	f100 0830 	add.w	r8, r0, #48	; 0x30
  2a:	fba1 2c03 	umull	r2, ip, r1, r3
  2e:	f02c 0203 	bic.w	r2, ip, #3
  32:	eb02 029c 	add.w	r2, r2, ip, lsr #2
  36:	1a9b      	subs	r3, r3, r2
  38:	1ac3      	subs	r3, r0, r3
  3a:	f16e 0c00 	sbc.w	ip, lr, #0
  3e:	fb07 fe03 	mul.w	lr, r7, r3
  42:	fba3 3201 	umull	r3, r2, r3, r1
  46:	280a      	cmp	r0, #10
  48:	fb01 ee0c 	mla	lr, r1, ip, lr
  4c:	ea4f 0c53 	mov.w	ip, r3, lsr #1
  50:	f176 0600 	sbcs.w	r6, r6, #0
  54:	4496      	add	lr, r2
  56:	ea4c 72ce 	orr.w	r2, ip, lr, lsl #31
  5a:	ea4f 0e5e 	mov.w	lr, lr, lsr #1
  5e:	eb02 0c8c 	add.w	ip, r2, ip, lsl #2
  62:	eba8 084c 	sub.w	r8, r8, ip, lsl #1
  66:	f805 8d01 	strb.w	r8, [r5, #-1]!
  6a:	d2d6      	bcs.n	1a <_ZL9println64P5Printy+0x1a>
  6c:	4628      	mov	r0, r5
  6e:	f7ff fffe 	bl	0 <strlen>
  72:	6823      	ldr	r3, [r4, #0]
  74:	4602      	mov	r2, r0
  76:	4629      	mov	r1, r5
  78:	685b      	ldr	r3, [r3, #4]
  7a:	4620      	mov	r0, r4
  7c:	4798      	blx	r3
  7e:	4620      	mov	r0, r4
  80:	f7ff fffe 	bl	0 <_ZN5Print7printlnEv>
  84:	b006      	add	sp, #24
  86:	e8bd 81f0 	ldmia.w	sp!, {r4, r5, r6, r7, r8, pc}
  8a:	bf00      	nop

Disassembly of section .text._ZN14ExFatPartition11checkUpcaseEP5Print:

00000000 <_ZN14ExFatPartition11checkUpcaseEP5Print>:
   0:	f8d0 3434 	ldr.w	r3, [r0, #1076]	; 0x434
   4:	e92d 4ff0 	stmdb	sp!, {r4, r5, r6, r7, r8, r9, sl, fp, lr}
   8:	3b02      	subs	r3, #2
   a:	460c      	mov	r4, r1
   c:	f8d0 142c 	ldr.w	r1, [r0, #1068]	; 0x42c
  10:	4606      	mov	r6, r0
  12:	f500 7004 	add.w	r0, r0, #528	; 0x210
  16:	ed2d 8b02 	vpush	{d8}
  1a:	f890 2235 	ldrb.w	r2, [r0, #565]	; 0x235
  1e:	b085      	sub	sp, #20
  20:	ee08 0a10 	vmov	s16, r0
  24:	4093      	lsls	r3, r2
  26:	2200      	movs	r2, #0
  28:	4419      	add	r1, r3
  2a:	f7ff fffe 	bl	0 <_ZN7FsCache7prepareEmh>
  2e:	2800      	cmp	r0, #0
  30:	f000 80ce 	beq.w	1d0 <_ZN14ExFatPartition11checkUpcaseEP5Print+0x1d0>
  34:	6823      	ldr	r3, [r4, #0]
  36:	4605      	mov	r5, r0
  38:	4969      	ldr	r1, [pc, #420]	; (1e0 <_ZN14ExFatPartition11checkUpcaseEP5Print+0x1e0>)
  3a:	2216      	movs	r2, #22
  3c:	685b      	ldr	r3, [r3, #4]
  3e:	4620      	mov	r0, r4
  40:	4798      	blx	r3
  42:	4620      	mov	r0, r4
  44:	f7ff fffe 	bl	0 <_ZN5Print7printlnEv>
  48:	462b      	mov	r3, r5
  4a:	f505 7100 	add.w	r1, r5, #512	; 0x200
  4e:	781a      	ldrb	r2, [r3, #0]
  50:	2a82      	cmp	r2, #130	; 0x82
  52:	d006      	beq.n	62 <_ZN14ExFatPartition11checkUpcaseEP5Print+0x62>
  54:	3320      	adds	r3, #32
  56:	428b      	cmp	r3, r1
  58:	d1f9      	bne.n	4e <_ZN14ExFatPartition11checkUpcaseEP5Print+0x4e>
  5a:	6823      	ldr	r3, [r4, #0]
  5c:	2210      	movs	r2, #16
  5e:	4961      	ldr	r1, [pc, #388]	; (1e4 <_ZN14ExFatPartition11checkUpcaseEP5Print+0x1e4>)
  60:	e0a9      	b.n	1b6 <_ZN14ExFatPartition11checkUpcaseEP5Print+0x1b6>
  62:	e9d3 2105 	ldrd	r2, r1, [r3, #20]
  66:	1e93      	subs	r3, r2, #2
  68:	f896 2445 	ldrb.w	r2, [r6, #1093]	; 0x445
  6c:	4093      	lsls	r3, r2
  6e:	f8d6 242c 	ldr.w	r2, [r6, #1068]	; 0x42c
  72:	4413      	add	r3, r2
  74:	9303      	str	r3, [sp, #12]
  76:	2900      	cmp	r1, #0
  78:	d0ef      	beq.n	5a <_ZN14ExFatPartition11checkUpcaseEP5Print+0x5a>
  7a:	084b      	lsrs	r3, r1, #1
  7c:	9302      	str	r3, [sp, #8]
  7e:	f000 8097 	beq.w	1b0 <_ZN14ExFatPartition11checkUpcaseEP5Print+0x1b0>
  82:	2700      	movs	r7, #0
  84:	f8df b170 	ldr.w	fp, [pc, #368]	; 1f8 <_ZN14ExFatPartition11checkUpcaseEP5Print+0x1f8>
  88:	46b8      	mov	r8, r7
  8a:	463d      	mov	r5, r7
  8c:	9701      	str	r7, [sp, #4]
  8e:	e030      	b.n	f2 <_ZN14ExFatPartition11checkUpcaseEP5Print+0xf2>
  90:	9b01      	ldr	r3, [sp, #4]
  92:	f833 6019 	ldrh.w	r6, [r3, r9, lsl #1]
  96:	2d00      	cmp	r5, #0
  98:	d13e      	bne.n	118 <_ZN14ExFatPartition11checkUpcaseEP5Print+0x118>
  9a:	f64f 73ff 	movw	r3, #65535	; 0xffff
  9e:	429e      	cmp	r6, r3
  a0:	f000 8094 	beq.w	1cc <_ZN14ExFatPartition11checkUpcaseEP5Print+0x1cc>
  a4:	4640      	mov	r0, r8
  a6:	f7ff fffe 	bl	0 <_Z8toUpcaset>
  aa:	42b0      	cmp	r0, r6
  ac:	4681      	mov	r9, r0
  ae:	d018      	beq.n	e2 <_ZN14ExFatPartition11checkUpcaseEP5Print+0xe2>
  b0:	4641      	mov	r1, r8
  b2:	4620      	mov	r0, r4
  b4:	f7ff fffe 	bl	0 <_ZN14ExFatPartition11checkUpcaseEP5Print>
  b8:	6823      	ldr	r3, [r4, #0]
  ba:	212c      	movs	r1, #44	; 0x2c
  bc:	4620      	mov	r0, r4
  be:	681b      	ldr	r3, [r3, #0]
  c0:	4798      	blx	r3
  c2:	4649      	mov	r1, r9
  c4:	4620      	mov	r0, r4
  c6:	f7ff fffe 	bl	0 <_ZN14ExFatPartition11checkUpcaseEP5Print>
  ca:	6823      	ldr	r3, [r4, #0]
  cc:	212c      	movs	r1, #44	; 0x2c
  ce:	4620      	mov	r0, r4
  d0:	681b      	ldr	r3, [r3, #0]
  d2:	4798      	blx	r3
  d4:	4620      	mov	r0, r4
  d6:	4631      	mov	r1, r6
  d8:	f7ff fffe 	bl	0 <_ZN14ExFatPartition11checkUpcaseEP5Print>
  dc:	4620      	mov	r0, r4
  de:	f7ff fffe 	bl	0 <_ZN5Print7printlnEv>
  e2:	f108 0801 	add.w	r8, r8, #1
  e6:	fa1f f888 	uxth.w	r8, r8
  ea:	3701      	adds	r7, #1
  ec:	9b02      	ldr	r3, [sp, #8]
  ee:	429f      	cmp	r7, r3
  f0:	d05e      	beq.n	1b0 <_ZN14ExFatPartition11checkUpcaseEP5Print+0x1b0>
  f2:	f017 09ff 	ands.w	r9, r7, #255	; 0xff
  f6:	d1cb      	bne.n	90 <_ZN14ExFatPartition11checkUpcaseEP5Print+0x90>
  f8:	9903      	ldr	r1, [sp, #12]
  fa:	464a      	mov	r2, r9
  fc:	ee18 0a10 	vmov	r0, s16
 100:	1c4e      	adds	r6, r1, #1
 102:	f7ff fffe 	bl	0 <_ZN7FsCache7prepareEmh>
 106:	9001      	str	r0, [sp, #4]
 108:	2800      	cmp	r0, #0
 10a:	d065      	beq.n	1d8 <_ZN14ExFatPartition11checkUpcaseEP5Print+0x1d8>
 10c:	9b01      	ldr	r3, [sp, #4]
 10e:	9603      	str	r6, [sp, #12]
 110:	f833 6019 	ldrh.w	r6, [r3, r9, lsl #1]
 114:	2d00      	cmp	r5, #0
 116:	d0c0      	beq.n	9a <_ZN14ExFatPartition11checkUpcaseEP5Print+0x9a>
 118:	6823      	ldr	r3, [r4, #0]
 11a:	2205      	movs	r2, #5
 11c:	4932      	ldr	r1, [pc, #200]	; (1e8 <_ZN14ExFatPartition11checkUpcaseEP5Print+0x1e8>)
 11e:	4620      	mov	r0, r4
 120:	685b      	ldr	r3, [r3, #4]
 122:	4798      	blx	r3
 124:	4641      	mov	r1, r8
 126:	4620      	mov	r0, r4
 128:	f7ff fffe 	bl	0 <_ZN5Print5printEl>
 12c:	6823      	ldr	r3, [r4, #0]
 12e:	2120      	movs	r1, #32
 130:	4620      	mov	r0, r4
 132:	681b      	ldr	r3, [r3, #0]
 134:	4798      	blx	r3
 136:	4631      	mov	r1, r6
 138:	4620      	mov	r0, r4
 13a:	f7ff fffe 	bl	0 <_ZN5Print5printEl>
 13e:	4620      	mov	r0, r4
 140:	f7ff fffe 	bl	0 <_ZN5Print7printlnEv>
 144:	f64f 73ff 	movw	r3, #65535	; 0xffff
 148:	429e      	cmp	r6, r3
 14a:	d0ce      	beq.n	ea <_ZN14ExFatPartition11checkUpcaseEP5Print+0xea>
 14c:	b346      	cbz	r6, 1a0 <_ZN14ExFatPartition11checkUpcaseEP5Print+0x1a0>
 14e:	f106 39ff 	add.w	r9, r6, #4294967295	; 0xffffffff
 152:	f108 0301 	add.w	r3, r8, #1
 156:	4645      	mov	r5, r8
 158:	fa13 f989 	uxtah	r9, r3, r9
 15c:	b2a9      	uxth	r1, r5
 15e:	4608      	mov	r0, r1
 160:	9100      	str	r1, [sp, #0]
 162:	f7ff fffe 	bl	0 <_Z8toUpcaset>
 166:	4682      	mov	sl, r0
 168:	9900      	ldr	r1, [sp, #0]
 16a:	4620      	mov	r0, r4
 16c:	45aa      	cmp	sl, r5
 16e:	f105 0501 	add.w	r5, r5, #1
 172:	d013      	beq.n	19c <_ZN14ExFatPartition11checkUpcaseEP5Print+0x19c>
 174:	f7ff fffe 	bl	0 <_ZN14ExFatPartition11checkUpcaseEP5Print>
 178:	6823      	ldr	r3, [r4, #0]
 17a:	212c      	movs	r1, #44	; 0x2c
 17c:	4620      	mov	r0, r4
 17e:	681b      	ldr	r3, [r3, #0]
 180:	4798      	blx	r3
 182:	4651      	mov	r1, sl
 184:	4620      	mov	r0, r4
 186:	f7ff fffe 	bl	0 <_ZN14ExFatPartition11checkUpcaseEP5Print>
 18a:	6823      	ldr	r3, [r4, #0]
 18c:	2214      	movs	r2, #20
 18e:	4659      	mov	r1, fp
 190:	685b      	ldr	r3, [r3, #4]
 192:	4620      	mov	r0, r4
 194:	4798      	blx	r3
 196:	4620      	mov	r0, r4
 198:	f7ff fffe 	bl	0 <_ZN5Print7printlnEv>
 19c:	45a9      	cmp	r9, r5
 19e:	d1dd      	bne.n	15c <_ZN14ExFatPartition11checkUpcaseEP5Print+0x15c>
 1a0:	3701      	adds	r7, #1
 1a2:	9b02      	ldr	r3, [sp, #8]
 1a4:	44b0      	add	r8, r6
 1a6:	2500      	movs	r5, #0
 1a8:	429f      	cmp	r7, r3
 1aa:	fa1f f888 	uxth.w	r8, r8
 1ae:	d1a0      	bne.n	f2 <_ZN14ExFatPartition11checkUpcaseEP5Print+0xf2>
 1b0:	6823      	ldr	r3, [r4, #0]
 1b2:	2210      	movs	r2, #16
 1b4:	490d      	ldr	r1, [pc, #52]	; (1ec <_ZN14ExFatPartition11checkUpcaseEP5Print+0x1ec>)
 1b6:	4620      	mov	r0, r4
 1b8:	685b      	ldr	r3, [r3, #4]
 1ba:	4798      	blx	r3
 1bc:	4620      	mov	r0, r4
 1be:	b005      	add	sp, #20
 1c0:	ecbd 8b02 	vpop	{d8}
 1c4:	e8bd 4ff0 	ldmia.w	sp!, {r4, r5, r6, r7, r8, r9, sl, fp, lr}
 1c8:	f7ff bffe 	b.w	0 <_ZN5Print7printlnEv>
 1cc:	2501      	movs	r5, #1
 1ce:	e78c      	b.n	ea <_ZN14ExFatPartition11checkUpcaseEP5Print+0xea>
 1d0:	6823      	ldr	r3, [r4, #0]
 1d2:	2210      	movs	r2, #16
 1d4:	4906      	ldr	r1, [pc, #24]	; (1f0 <_ZN14ExFatPartition11checkUpcaseEP5Print+0x1f0>)
 1d6:	e7ee      	b.n	1b6 <_ZN14ExFatPartition11checkUpcaseEP5Print+0x1b6>
 1d8:	6823      	ldr	r3, [r4, #0]
 1da:	2212      	movs	r2, #18
 1dc:	4905      	ldr	r1, [pc, #20]	; (1f4 <_ZN14ExFatPartition11checkUpcaseEP5Print+0x1f4>)
 1de:	e7ea      	b.n	1b6 <_ZN14ExFatPartition11checkUpcaseEP5Print+0x1b6>
 1e0:	00000014 	.word	0x00000014
 1e4:	0000002c 	.word	0x0000002c
 1e8:	00000054 	.word	0x00000054
 1ec:	00000074 	.word	0x00000074
 1f0:	00000000 	.word	0x00000000
 1f4:	00000040 	.word	0x00000040
 1f8:	0000005c 	.word	0x0000005c

Disassembly of section .text._ZN14ExFatPartition6dmpFatEP5Printmm:

00000000 <_ZN14ExFatPartition6dmpFatEP5Printmm>:
   0:	e92d 4ff8 	stmdb	sp!, {r3, r4, r5, r6, r7, r8, r9, sl, fp, lr}
   4:	461c      	mov	r4, r3
   6:	f8d0 3424 	ldr.w	r3, [r0, #1060]	; 0x424
   a:	460d      	mov	r5, r1
   c:	4682      	mov	sl, r0
   e:	eb02 0803 	add.w	r8, r2, r3
  12:	680b      	ldr	r3, [r1, #0]
  14:	01d7      	lsls	r7, r2, #7
  16:	4922      	ldr	r1, [pc, #136]	; (a0 <_ZN14ExFatPartition6dmpFatEP5Printmm+0xa0>)
  18:	685b      	ldr	r3, [r3, #4]
  1a:	2204      	movs	r2, #4
  1c:	4628      	mov	r0, r5
  1e:	4798      	blx	r3
  20:	4628      	mov	r0, r5
  22:	f7ff fffe 	bl	0 <_ZN5Print7printlnEv>
  26:	b36c      	cbz	r4, 84 <_ZN14ExFatPartition6dmpFatEP5Printmm+0x84>
  28:	f50a 7a04 	add.w	sl, sl, #528	; 0x210
  2c:	eb08 0904 	add.w	r9, r8, r4
  30:	2200      	movs	r2, #0
  32:	4641      	mov	r1, r8
  34:	4650      	mov	r0, sl
  36:	f7ff fffe 	bl	0 <_ZN7FsCache7prepareEmh>
  3a:	b328      	cbz	r0, 88 <_ZN14ExFatPartition6dmpFatEP5Printmm+0x88>
  3c:	1f06      	subs	r6, r0, #4
  3e:	2400      	movs	r4, #0
  40:	eb07 0b04 	add.w	fp, r7, r4
  44:	f01b 0f07 	tst.w	fp, #7
  48:	d107      	bne.n	5a <_ZN14ExFatPartition6dmpFatEP5Printmm+0x5a>
  4a:	4628      	mov	r0, r5
  4c:	b10c      	cbz	r4, 52 <_ZN14ExFatPartition6dmpFatEP5Printmm+0x52>
  4e:	f7ff fffe 	bl	0 <_ZN5Print7printlnEv>
  52:	4659      	mov	r1, fp
  54:	4628      	mov	r0, r5
  56:	f7ff fffe 	bl	0 <_ZN14ExFatPartition6dmpFatEP5Printmm>
  5a:	682b      	ldr	r3, [r5, #0]
  5c:	2120      	movs	r1, #32
  5e:	4628      	mov	r0, r5
  60:	3401      	adds	r4, #1
  62:	681b      	ldr	r3, [r3, #0]
  64:	4798      	blx	r3
  66:	f856 1f04 	ldr.w	r1, [r6, #4]!
  6a:	4628      	mov	r0, r5
  6c:	f7ff fffe 	bl	0 <_ZN14ExFatPartition6dmpFatEP5Printmm>
  70:	2c80      	cmp	r4, #128	; 0x80
  72:	d1e5      	bne.n	40 <_ZN14ExFatPartition6dmpFatEP5Printmm+0x40>
  74:	f108 0801 	add.w	r8, r8, #1
  78:	4628      	mov	r0, r5
  7a:	f7ff fffe 	bl	0 <_ZN5Print7printlnEv>
  7e:	3780      	adds	r7, #128	; 0x80
  80:	45c1      	cmp	r9, r8
  82:	d1d5      	bne.n	30 <_ZN14ExFatPartition6dmpFatEP5Printmm+0x30>
  84:	e8bd 8ff8 	ldmia.w	sp!, {r3, r4, r5, r6, r7, r8, r9, sl, fp, pc}
  88:	682b      	ldr	r3, [r5, #0]
  8a:	4628      	mov	r0, r5
  8c:	2211      	movs	r2, #17
  8e:	4905      	ldr	r1, [pc, #20]	; (a4 <_ZN14ExFatPartition6dmpFatEP5Printmm+0xa4>)
  90:	685b      	ldr	r3, [r3, #4]
  92:	4798      	blx	r3
  94:	4628      	mov	r0, r5
  96:	e8bd 4ff8 	ldmia.w	sp!, {r3, r4, r5, r6, r7, r8, r9, sl, fp, lr}
  9a:	f7ff bffe 	b.w	0 <_ZN5Print7printlnEv>
  9e:	bf00      	nop
  a0:	00000000 	.word	0x00000000
  a4:	00000008 	.word	0x00000008

Disassembly of section .text._ZN14ExFatPartition9dmpSectorEP5Printm:

00000000 <_ZN14ExFatPartition9dmpSectorEP5Printm>:
   0:	b5f8      	push	{r3, r4, r5, r6, r7, lr}
   2:	4613      	mov	r3, r2
   4:	460c      	mov	r4, r1
   6:	2200      	movs	r2, #0
   8:	f500 7004 	add.w	r0, r0, #528	; 0x210
   c:	4619      	mov	r1, r3
   e:	f7ff fffe 	bl	0 <_ZN7FsCache7prepareEmh>
  12:	b358      	cbz	r0, 6c <_ZN14ExFatPartition9dmpSectorEP5Printm+0x6c>
  14:	1e47      	subs	r7, r0, #1
  16:	2500      	movs	r5, #0
  18:	f015 0f1f 	tst.w	r5, #31
  1c:	b2ae      	uxth	r6, r5
  1e:	f105 0501 	add.w	r5, r5, #1
  22:	d107      	bne.n	34 <_ZN14ExFatPartition9dmpSectorEP5Printm+0x34>
  24:	4620      	mov	r0, r4
  26:	b10e      	cbz	r6, 2c <_ZN14ExFatPartition9dmpSectorEP5Printm+0x2c>
  28:	f7ff fffe 	bl	0 <_ZN5Print7printlnEv>
  2c:	4631      	mov	r1, r6
  2e:	4620      	mov	r0, r4
  30:	f7ff fffe 	bl	0 <_ZN14ExFatPartition9dmpSectorEP5Printm>
  34:	6823      	ldr	r3, [r4, #0]
  36:	2120      	movs	r1, #32
  38:	4620      	mov	r0, r4
  3a:	681b      	ldr	r3, [r3, #0]
  3c:	4798      	blx	r3
  3e:	f817 6f01 	ldrb.w	r6, [r7, #1]!
  42:	2130      	movs	r1, #48	; 0x30
  44:	4620      	mov	r0, r4
  46:	2e0f      	cmp	r6, #15
  48:	d802      	bhi.n	50 <_ZN14ExFatPartition9dmpSectorEP5Printm+0x50>
  4a:	6823      	ldr	r3, [r4, #0]
  4c:	681b      	ldr	r3, [r3, #0]
  4e:	4798      	blx	r3
  50:	2300      	movs	r3, #0
  52:	2210      	movs	r2, #16
  54:	4631      	mov	r1, r6
  56:	4620      	mov	r0, r4
  58:	f7ff fffe 	bl	0 <_ZN5Print11printNumberEmhh>
  5c:	f5b5 7f00 	cmp.w	r5, #512	; 0x200
  60:	d1da      	bne.n	18 <_ZN14ExFatPartition9dmpSectorEP5Printm+0x18>
  62:	4620      	mov	r0, r4
  64:	e8bd 40f8 	ldmia.w	sp!, {r3, r4, r5, r6, r7, lr}
  68:	f7ff bffe 	b.w	0 <_ZN5Print7printlnEv>
  6c:	6823      	ldr	r3, [r4, #0]
  6e:	4620      	mov	r0, r4
  70:	2210      	movs	r2, #16
  72:	4904      	ldr	r1, [pc, #16]	; (84 <_ZN14ExFatPartition9dmpSectorEP5Printm+0x84>)
  74:	685b      	ldr	r3, [r3, #4]
  76:	4798      	blx	r3
  78:	4620      	mov	r0, r4
  7a:	e8bd 40f8 	ldmia.w	sp!, {r3, r4, r5, r6, r7, lr}
  7e:	f7ff bffe 	b.w	0 <_ZN5Print7printlnEv>
  82:	bf00      	nop
  84:	00000000 	.word	0x00000000

Disassembly of section .text._ZN14ExFatPartition9dmpBitmapEP5Print:

00000000 <_ZN14ExFatPartition9dmpBitmapEP5Print>:
   0:	b538      	push	{r3, r4, r5, lr}
   2:	460c      	mov	r4, r1
   4:	4605      	mov	r5, r0
   6:	2207      	movs	r2, #7
   8:	4907      	ldr	r1, [pc, #28]	; (28 <_ZN14ExFatPartition9dmpBitmapEP5Print+0x28>)
   a:	6823      	ldr	r3, [r4, #0]
   c:	4620      	mov	r0, r4
   e:	685b      	ldr	r3, [r3, #4]
  10:	4798      	blx	r3
  12:	4620      	mov	r0, r4
  14:	f7ff fffe 	bl	0 <_ZN5Print7printlnEv>
  18:	f8d5 242c 	ldr.w	r2, [r5, #1068]	; 0x42c
  1c:	4621      	mov	r1, r4
  1e:	4628      	mov	r0, r5
  20:	e8bd 4038 	ldmia.w	sp!, {r3, r4, r5, lr}
  24:	f7ff bffe 	b.w	0 <_ZN14ExFatPartition9dmpBitmapEP5Print>
  28:	00000000 	.word	0x00000000

Disassembly of section .text._ZN14ExFatPartition10dmpClusterEP5Printmmm:

00000000 <_ZN14ExFatPartition10dmpClusterEP5Printmmm>:
   0:	e92d 41f0 	stmdb	sp!, {r4, r5, r6, r7, r8, lr}
   4:	3a02      	subs	r2, #2
   6:	460d      	mov	r5, r1
   8:	f890 1445 	ldrb.w	r1, [r0, #1093]	; 0x445
   c:	9f06      	ldr	r7, [sp, #24]
   e:	408a      	lsls	r2, r1
  10:	f8d0 142c 	ldr.w	r1, [r0, #1068]	; 0x42c
  14:	440b      	add	r3, r1
  16:	18d4      	adds	r4, r2, r3
  18:	b1d7      	cbz	r7, 50 <_ZN14ExFatPartition10dmpClusterEP5Printmmm+0x50>
  1a:	4606      	mov	r6, r0
  1c:	4427      	add	r7, r4
  1e:	f8df 8034 	ldr.w	r8, [pc, #52]	; 54 <_ZN14ExFatPartition10dmpClusterEP5Printmmm+0x54>
  22:	682b      	ldr	r3, [r5, #0]
  24:	2209      	movs	r2, #9
  26:	4641      	mov	r1, r8
  28:	4628      	mov	r0, r5
  2a:	685b      	ldr	r3, [r3, #4]
  2c:	4798      	blx	r3
  2e:	4621      	mov	r1, r4
  30:	2300      	movs	r3, #0
  32:	2210      	movs	r2, #16
  34:	4628      	mov	r0, r5
  36:	f7ff fffe 	bl	0 <_ZN5Print11printNumberEmhh>
  3a:	4628      	mov	r0, r5
  3c:	f7ff fffe 	bl	0 <_ZN5Print7printlnEv>
  40:	4622      	mov	r2, r4
  42:	3401      	adds	r4, #1
  44:	4629      	mov	r1, r5
  46:	4630      	mov	r0, r6
  48:	f7ff fffe 	bl	0 <_ZN14ExFatPartition10dmpClusterEP5Printmmm>
  4c:	42a7      	cmp	r7, r4
  4e:	d1e8      	bne.n	22 <_ZN14ExFatPartition10dmpClusterEP5Printmmm+0x22>
  50:	e8bd 81f0 	ldmia.w	sp!, {r4, r5, r6, r7, r8, pc}
  54:	00000000 	.word	0x00000000

Disassembly of section .text._ZN14ExFatPartition8printDirEP5PrintP9ExFatFile:

00000000 <_ZN14ExFatPartition8printDirEP5PrintP9ExFatFile>:
   0:	f8d0 3434 	ldr.w	r3, [r0, #1076]	; 0x434
   4:	e92d 4ff0 	stmdb	sp!, {r4, r5, r6, r7, r8, r9, sl, fp, lr}
   8:	3b02      	subs	r3, #2
   a:	f890 2445 	ldrb.w	r2, [r0, #1093]	; 0x445
   e:	2501      	movs	r5, #1
  10:	b08b      	sub	sp, #44	; 0x2c
  12:	4093      	lsls	r3, r2
  14:	3204      	adds	r2, #4
  16:	f04f 0b00 	mov.w	fp, #0
  1a:	460c      	mov	r4, r1
  1c:	fa05 f202 	lsl.w	r2, r5, r2
  20:	9005      	str	r0, [sp, #20]
  22:	465d      	mov	r5, fp
  24:	46da      	mov	sl, fp
  26:	9201      	str	r2, [sp, #4]
  28:	465e      	mov	r6, fp
  2a:	f8d0 242c 	ldr.w	r2, [r0, #1068]	; 0x42c
  2e:	f8cd b010 	str.w	fp, [sp, #16]
  32:	4413      	add	r3, r2
  34:	e9cd bb08 	strd	fp, fp, [sp, #32]
  38:	e9cd b302 	strd	fp, r3, [sp, #8]
  3c:	f01a 020f 	ands.w	r2, sl, #15
  40:	f000 8132 	beq.w	2a8 <_ZN14ExFatPartition8printDirEP5PrintP9ExFatFile+0x2a8>
  44:	3620      	adds	r6, #32
  46:	7833      	ldrb	r3, [r6, #0]
  48:	2b00      	cmp	r3, #0
  4a:	f000 80a6 	beq.w	19a <_ZN14ExFatPartition8printDirEP5PrintP9ExFatFile+0x19a>
  4e:	4620      	mov	r0, r4
  50:	f7ff fffe 	bl	0 <_ZN5Print7printlnEv>
  54:	7833      	ldrb	r3, [r6, #0]
  56:	2b85      	cmp	r3, #133	; 0x85
  58:	f200 81b1 	bhi.w	3be <_ZN14ExFatPartition8printDirEP5PrintP9ExFatFile+0x3be>
  5c:	2b80      	cmp	r3, #128	; 0x80
  5e:	f240 8149 	bls.w	2f4 <_ZN14ExFatPartition8printDirEP5PrintP9ExFatFile+0x2f4>
  62:	f1a3 0281 	sub.w	r2, r3, #129	; 0x81
  66:	2a04      	cmp	r2, #4
  68:	f200 8144 	bhi.w	2f4 <_ZN14ExFatPartition8printDirEP5PrintP9ExFatFile+0x2f4>
  6c:	e8df f012 	tbh	[pc, r2, lsl #1]
  70:	00da012a 	.word	0x00da012a
  74:	014200a2 	.word	0x014200a2
  78:	0005      	.short	0x0005
  7a:	6823      	ldr	r3, [r4, #0]
  7c:	220b      	movs	r2, #11
  7e:	49a8      	ldr	r1, [pc, #672]	; (320 <_ZN14ExFatPartition8printDirEP5PrintP9ExFatFile+0x320>)
  80:	4620      	mov	r0, r4
  82:	685b      	ldr	r3, [r3, #4]
  84:	4798      	blx	r3
  86:	2300      	movs	r3, #0
  88:	2210      	movs	r2, #16
  8a:	7831      	ldrb	r1, [r6, #0]
  8c:	4620      	mov	r0, r4
  8e:	f7ff fffe 	bl	0 <_ZN5Print11printNumberEmhh>
  92:	4620      	mov	r0, r4
  94:	f7ff fffe 	bl	0 <_ZN5Print7printlnEv>
  98:	6823      	ldr	r3, [r4, #0]
  9a:	220a      	movs	r2, #10
  9c:	49a1      	ldr	r1, [pc, #644]	; (324 <_ZN14ExFatPartition8printDirEP5PrintP9ExFatFile+0x324>)
  9e:	685b      	ldr	r3, [r3, #4]
  a0:	4620      	mov	r0, r4
  a2:	4798      	blx	r3
  a4:	2300      	movs	r3, #0
  a6:	220a      	movs	r2, #10
  a8:	7871      	ldrb	r1, [r6, #1]
  aa:	4620      	mov	r0, r4
  ac:	f7ff fffe 	bl	0 <_ZN5Print11printNumberEmhh>
  b0:	4620      	mov	r0, r4
  b2:	f7ff fffe 	bl	0 <_ZN5Print7printlnEv>
  b6:	6823      	ldr	r3, [r4, #0]
  b8:	220f      	movs	r2, #15
  ba:	499b      	ldr	r1, [pc, #620]	; (328 <_ZN14ExFatPartition8printDirEP5PrintP9ExFatFile+0x328>)
  bc:	685b      	ldr	r3, [r3, #4]
  be:	4620      	mov	r0, r4
  c0:	4798      	blx	r3
  c2:	2300      	movs	r3, #0
  c4:	2210      	movs	r2, #16
  c6:	8871      	ldrh	r1, [r6, #2]
  c8:	4620      	mov	r0, r4
  ca:	f7ff fffe 	bl	0 <_ZN5Print11printNumberEmhh>
  ce:	4620      	mov	r0, r4
  d0:	f7ff fffe 	bl	0 <_ZN5Print7printlnEv>
  d4:	6823      	ldr	r3, [r4, #0]
  d6:	220e      	movs	r2, #14
  d8:	4994      	ldr	r1, [pc, #592]	; (32c <_ZN14ExFatPartition8printDirEP5PrintP9ExFatFile+0x32c>)
  da:	685b      	ldr	r3, [r3, #4]
  dc:	4620      	mov	r0, r4
  de:	4798      	blx	r3
  e0:	2300      	movs	r3, #0
  e2:	2210      	movs	r2, #16
  e4:	88b1      	ldrh	r1, [r6, #4]
  e6:	4620      	mov	r0, r4
  e8:	f7ff fffe 	bl	0 <_ZN5Print11printNumberEmhh>
  ec:	4620      	mov	r0, r4
  ee:	f7ff fffe 	bl	0 <_ZN5Print7printlnEv>
  f2:	6823      	ldr	r3, [r4, #0]
  f4:	220c      	movs	r2, #12
  f6:	498e      	ldr	r1, [pc, #568]	; (330 <_ZN14ExFatPartition8printDirEP5PrintP9ExFatFile+0x330>)
  f8:	685b      	ldr	r3, [r3, #4]
  fa:	4620      	mov	r0, r4
  fc:	4798      	blx	r3
  fe:	f996 3016 	ldrsb.w	r3, [r6, #22]
 102:	7d32      	ldrb	r2, [r6, #20]
 104:	4620      	mov	r0, r4
 106:	68b1      	ldr	r1, [r6, #8]
 108:	f7ff fffe 	bl	0 <_Z15fsPrintDateTimeP5Printmha>
 10c:	4620      	mov	r0, r4
 10e:	f7ff fffe 	bl	0 <_ZN5Print7printlnEv>
 112:	6823      	ldr	r3, [r4, #0]
 114:	220c      	movs	r2, #12
 116:	4987      	ldr	r1, [pc, #540]	; (334 <_ZN14ExFatPartition8printDirEP5PrintP9ExFatFile+0x334>)
 118:	685b      	ldr	r3, [r3, #4]
 11a:	4620      	mov	r0, r4
 11c:	4798      	blx	r3
 11e:	f996 3017 	ldrsb.w	r3, [r6, #23]
 122:	7d72      	ldrb	r2, [r6, #21]
 124:	4620      	mov	r0, r4
 126:	68f1      	ldr	r1, [r6, #12]
 128:	f7ff fffe 	bl	0 <_Z15fsPrintDateTimeP5Printmha>
 12c:	4620      	mov	r0, r4
 12e:	f7ff fffe 	bl	0 <_ZN5Print7printlnEv>
 132:	6823      	ldr	r3, [r4, #0]
 134:	220c      	movs	r2, #12
 136:	4980      	ldr	r1, [pc, #512]	; (338 <_ZN14ExFatPartition8printDirEP5PrintP9ExFatFile+0x338>)
 138:	685b      	ldr	r3, [r3, #4]
 13a:	4620      	mov	r0, r4
 13c:	4798      	blx	r3
 13e:	f996 3018 	ldrsb.w	r3, [r6, #24]
 142:	2200      	movs	r2, #0
 144:	6931      	ldr	r1, [r6, #16]
 146:	4620      	mov	r0, r4
 148:	f7ff fffe 	bl	0 <_Z15fsPrintDateTimeP5Printmha>
 14c:	4620      	mov	r0, r4
 14e:	f7ff fffe 	bl	0 <_ZN5Print7printlnEv>
 152:	7833      	ldrb	r3, [r6, #0]
 154:	7872      	ldrb	r2, [r6, #1]
 156:	2100      	movs	r1, #0
 158:	f1a3 0085 	sub.w	r0, r3, #133	; 0x85
 15c:	9202      	str	r2, [sp, #8]
 15e:	460d      	mov	r5, r1
 160:	8872      	ldrh	r2, [r6, #2]
 162:	fab0 f080 	clz	r0, r0
 166:	9209      	str	r2, [sp, #36]	; 0x24
 168:	0940      	lsrs	r0, r0, #5
 16a:	461a      	mov	r2, r3
 16c:	e001      	b.n	172 <_ZN14ExFatPartition8printDirEP5PrintP9ExFatFile+0x172>
 16e:	2104      	movs	r1, #4
 170:	5c72      	ldrb	r2, [r6, r1]
 172:	03eb      	lsls	r3, r5, #15
 174:	2901      	cmp	r1, #1
 176:	f101 0101 	add.w	r1, r1, #1
 17a:	ea43 0555 	orr.w	r5, r3, r5, lsr #1
 17e:	fa12 f385 	uxtah	r3, r2, r5
 182:	b29d      	uxth	r5, r3
 184:	d101      	bne.n	18a <_ZN14ExFatPartition8printDirEP5PrintP9ExFatFile+0x18a>
 186:	2800      	cmp	r0, #0
 188:	d1f1      	bne.n	16e <_ZN14ExFatPartition8printDirEP5PrintP9ExFatFile+0x16e>
 18a:	291f      	cmp	r1, #31
 18c:	d9f0      	bls.n	170 <_ZN14ExFatPartition8printDirEP5PrintP9ExFatFile+0x170>
 18e:	f10a 0a01 	add.w	sl, sl, #1
 192:	9b01      	ldr	r3, [sp, #4]
 194:	4553      	cmp	r3, sl
 196:	f47f af51 	bne.w	3c <_ZN14ExFatPartition8printDirEP5PrintP9ExFatFile+0x3c>
 19a:	6823      	ldr	r3, [r4, #0]
 19c:	2204      	movs	r2, #4
 19e:	4967      	ldr	r1, [pc, #412]	; (33c <_ZN14ExFatPartition8printDirEP5PrintP9ExFatFile+0x33c>)
 1a0:	4620      	mov	r0, r4
 1a2:	685b      	ldr	r3, [r3, #4]
 1a4:	4798      	blx	r3
 1a6:	4620      	mov	r0, r4
 1a8:	f7ff fffe 	bl	0 <_ZN5Print7printlnEv>
 1ac:	2001      	movs	r0, #1
 1ae:	b00b      	add	sp, #44	; 0x2c
 1b0:	e8bd 8ff0 	ldmia.w	sp!, {r4, r5, r6, r7, r8, r9, sl, fp, pc}
 1b4:	6823      	ldr	r3, [r4, #0]
 1b6:	220c      	movs	r2, #12
 1b8:	4961      	ldr	r1, [pc, #388]	; (340 <_ZN14ExFatPartition8printDirEP5PrintP9ExFatFile+0x340>)
 1ba:	4620      	mov	r0, r4
 1bc:	685b      	ldr	r3, [r3, #4]
 1be:	4798      	blx	r3
 1c0:	2300      	movs	r3, #0
 1c2:	2210      	movs	r2, #16
 1c4:	7831      	ldrb	r1, [r6, #0]
 1c6:	4620      	mov	r0, r4
 1c8:	f7ff fffe 	bl	0 <_ZN5Print11printNumberEmhh>
 1cc:	4620      	mov	r0, r4
 1ce:	f7ff fffe 	bl	0 <_ZN5Print7printlnEv>
 1d2:	6823      	ldr	r3, [r4, #0]
 1d4:	220d      	movs	r2, #13
 1d6:	495b      	ldr	r1, [pc, #364]	; (344 <_ZN14ExFatPartition8printDirEP5PrintP9ExFatFile+0x344>)
 1d8:	685b      	ldr	r3, [r3, #4]
 1da:	4620      	mov	r0, r4
 1dc:	4798      	blx	r3
 1de:	2300      	movs	r3, #0
 1e0:	220a      	movs	r2, #10
 1e2:	7871      	ldrb	r1, [r6, #1]
 1e4:	4620      	mov	r0, r4
 1e6:	f7ff fffe 	bl	0 <_ZN5Print11printNumberEmhh>
 1ea:	4620      	mov	r0, r4
 1ec:	f7ff fffe 	bl	0 <_ZN5Print7printlnEv>
 1f0:	6823      	ldr	r3, [r4, #0]
 1f2:	2209      	movs	r2, #9
 1f4:	4954      	ldr	r1, [pc, #336]	; (348 <_ZN14ExFatPartition8printDirEP5PrintP9ExFatFile+0x348>)
 1f6:	685b      	ldr	r3, [r3, #4]
 1f8:	4620      	mov	r0, r4
 1fa:	4798      	blx	r3
 1fc:	7873      	ldrb	r3, [r6, #1]
 1fe:	b16b      	cbz	r3, 21c <_ZN14ExFatPartition8printDirEP5PrintP9ExFatFile+0x21c>
 200:	f04f 0800 	mov.w	r8, #0
 204:	1cb7      	adds	r7, r6, #2
 206:	6823      	ldr	r3, [r4, #0]
 208:	4620      	mov	r0, r4
 20a:	f817 1018 	ldrb.w	r1, [r7, r8, lsl #1]
 20e:	f108 0801 	add.w	r8, r8, #1
 212:	681b      	ldr	r3, [r3, #0]
 214:	4798      	blx	r3
 216:	7873      	ldrb	r3, [r6, #1]
 218:	4598      	cmp	r8, r3
 21a:	d3f4      	bcc.n	206 <_ZN14ExFatPartition8printDirEP5PrintP9ExFatFile+0x206>
 21c:	4620      	mov	r0, r4
 21e:	f7ff fffe 	bl	0 <_ZN5Print7printlnEv>
 222:	e037      	b.n	294 <_ZN14ExFatPartition8printDirEP5PrintP9ExFatFile+0x294>
 224:	6823      	ldr	r3, [r4, #0]
 226:	220d      	movs	r2, #13
 228:	4948      	ldr	r1, [pc, #288]	; (34c <_ZN14ExFatPartition8printDirEP5PrintP9ExFatFile+0x34c>)
 22a:	4620      	mov	r0, r4
 22c:	685b      	ldr	r3, [r3, #4]
 22e:	4798      	blx	r3
 230:	2300      	movs	r3, #0
 232:	7831      	ldrb	r1, [r6, #0]
 234:	2210      	movs	r2, #16
 236:	4620      	mov	r0, r4
 238:	f7ff fffe 	bl	0 <_ZN5Print11printNumberEmhh>
 23c:	4620      	mov	r0, r4
 23e:	f7ff fffe 	bl	0 <_ZN5Print7printlnEv>
 242:	6823      	ldr	r3, [r4, #0]
 244:	4942      	ldr	r1, [pc, #264]	; (350 <_ZN14ExFatPartition8printDirEP5PrintP9ExFatFile+0x350>)
 246:	220c      	movs	r2, #12
 248:	685b      	ldr	r3, [r3, #4]
 24a:	4620      	mov	r0, r4
 24c:	4798      	blx	r3
 24e:	2300      	movs	r3, #0
 250:	6871      	ldr	r1, [r6, #4]
 252:	2210      	movs	r2, #16
 254:	4620      	mov	r0, r4
 256:	f7ff fffe 	bl	0 <_ZN5Print11printNumberEmhh>
 25a:	4620      	mov	r0, r4
 25c:	f7ff fffe 	bl	0 <_ZN5Print7printlnEv>
 260:	6823      	ldr	r3, [r4, #0]
 262:	220e      	movs	r2, #14
 264:	493b      	ldr	r1, [pc, #236]	; (354 <_ZN14ExFatPartition8printDirEP5PrintP9ExFatFile+0x354>)
 266:	685b      	ldr	r3, [r3, #4]
 268:	4620      	mov	r0, r4
 26a:	4798      	blx	r3
 26c:	2300      	movs	r3, #0
 26e:	6971      	ldr	r1, [r6, #20]
 270:	220a      	movs	r2, #10
 272:	4620      	mov	r0, r4
 274:	f7ff fffe 	bl	0 <_ZN5Print11printNumberEmhh>
 278:	4620      	mov	r0, r4
 27a:	f7ff fffe 	bl	0 <_ZN5Print7printlnEv>
 27e:	6823      	ldr	r3, [r4, #0]
 280:	2206      	movs	r2, #6
 282:	4935      	ldr	r1, [pc, #212]	; (358 <_ZN14ExFatPartition8printDirEP5PrintP9ExFatFile+0x358>)
 284:	685b      	ldr	r3, [r3, #4]
 286:	4620      	mov	r0, r4
 288:	4798      	blx	r3
 28a:	4620      	mov	r0, r4
 28c:	e9d6 2306 	ldrd	r2, r3, [r6, #24]
 290:	f7ff fffe 	bl	0 <_ZN14ExFatPartition8printDirEP5PrintP9ExFatFile>
 294:	f10a 0a01 	add.w	sl, sl, #1
 298:	9b01      	ldr	r3, [sp, #4]
 29a:	4553      	cmp	r3, sl
 29c:	f43f af7d 	beq.w	19a <_ZN14ExFatPartition8printDirEP5PrintP9ExFatFile+0x19a>
 2a0:	f01a 020f 	ands.w	r2, sl, #15
 2a4:	f47f aece 	bne.w	44 <_ZN14ExFatPartition8printDirEP5PrintP9ExFatFile+0x44>
 2a8:	9903      	ldr	r1, [sp, #12]
 2aa:	9b05      	ldr	r3, [sp, #20]
 2ac:	460f      	mov	r7, r1
 2ae:	f503 7004 	add.w	r0, r3, #528	; 0x210
 2b2:	f7ff fffe 	bl	0 <_ZN7FsCache7prepareEmh>
 2b6:	3701      	adds	r7, #1
 2b8:	4606      	mov	r6, r0
 2ba:	2800      	cmp	r0, #0
 2bc:	f43f af77 	beq.w	1ae <_ZN14ExFatPartition8printDirEP5PrintP9ExFatFile+0x1ae>
 2c0:	9703      	str	r7, [sp, #12]
 2c2:	e6c0      	b.n	46 <_ZN14ExFatPartition8printDirEP5PrintP9ExFatFile+0x46>
 2c4:	6823      	ldr	r3, [r4, #0]
 2c6:	220d      	movs	r2, #13
 2c8:	4924      	ldr	r1, [pc, #144]	; (35c <_ZN14ExFatPartition8printDirEP5PrintP9ExFatFile+0x35c>)
 2ca:	4620      	mov	r0, r4
 2cc:	685b      	ldr	r3, [r3, #4]
 2ce:	4798      	blx	r3
 2d0:	2300      	movs	r3, #0
 2d2:	7831      	ldrb	r1, [r6, #0]
 2d4:	2210      	movs	r2, #16
 2d6:	4620      	mov	r0, r4
 2d8:	f7ff fffe 	bl	0 <_ZN5Print11printNumberEmhh>
 2dc:	4620      	mov	r0, r4
 2de:	f7ff fffe 	bl	0 <_ZN5Print7printlnEv>
 2e2:	6823      	ldr	r3, [r4, #0]
 2e4:	491e      	ldr	r1, [pc, #120]	; (360 <_ZN14ExFatPartition8printDirEP5PrintP9ExFatFile+0x360>)
 2e6:	2209      	movs	r2, #9
 2e8:	685b      	ldr	r3, [r3, #4]
 2ea:	4620      	mov	r0, r4
 2ec:	4798      	blx	r3
 2ee:	2300      	movs	r3, #0
 2f0:	7871      	ldrb	r1, [r6, #1]
 2f2:	e7ae      	b.n	252 <_ZN14ExFatPartition8printDirEP5PrintP9ExFatFile+0x252>
 2f4:	061b      	lsls	r3, r3, #24
 2f6:	f100 81b2 	bmi.w	65e <_ZN14ExFatPartition8printDirEP5PrintP9ExFatFile+0x65e>
 2fa:	6823      	ldr	r3, [r4, #0]
 2fc:	2212      	movs	r2, #18
 2fe:	4919      	ldr	r1, [pc, #100]	; (364 <_ZN14ExFatPartition8printDirEP5PrintP9ExFatFile+0x364>)
 300:	4620      	mov	r0, r4
 302:	685b      	ldr	r3, [r3, #4]
 304:	4798      	blx	r3
 306:	46b0      	mov	r8, r6
 308:	2300      	movs	r3, #0
 30a:	2210      	movs	r2, #16
 30c:	4620      	mov	r0, r4
 30e:	f818 1b01 	ldrb.w	r1, [r8], #1
 312:	2701      	movs	r7, #1
 314:	f7ff fffe 	bl	0 <_ZN5Print11printNumberEmhh>
 318:	4620      	mov	r0, r4
 31a:	f7ff fffe 	bl	0 <_ZN5Print7printlnEv>
 31e:	e03d      	b.n	39c <_ZN14ExFatPartition8printDirEP5PrintP9ExFatFile+0x39c>
 320:	00000088 	.word	0x00000088
 324:	00000094 	.word	0x00000094
 328:	000000a0 	.word	0x000000a0
 32c:	000000b0 	.word	0x000000b0
 330:	000000c0 	.word	0x000000c0
 334:	000000d0 	.word	0x000000d0
 338:	000000e0 	.word	0x000000e0
 33c:	00000000 	.word	0x00000000
 340:	0000005c 	.word	0x0000005c
 344:	0000006c 	.word	0x0000006c
 348:	0000007c 	.word	0x0000007c
 34c:	0000003c 	.word	0x0000003c
 350:	0000004c 	.word	0x0000004c
 354:	00000024 	.word	0x00000024
 358:	00000034 	.word	0x00000034
 35c:	00000008 	.word	0x00000008
 360:	00000018 	.word	0x00000018
 364:	000001bc 	.word	0x000001bc
 368:	6823      	ldr	r3, [r4, #0]
 36a:	681b      	ldr	r3, [r3, #0]
 36c:	4798      	blx	r3
 36e:	f898 9000 	ldrb.w	r9, [r8]
 372:	f1b9 0f0f 	cmp.w	r9, #15
 376:	d804      	bhi.n	382 <_ZN14ExFatPartition8printDirEP5PrintP9ExFatFile+0x382>
 378:	6823      	ldr	r3, [r4, #0]
 37a:	2130      	movs	r1, #48	; 0x30
 37c:	4620      	mov	r0, r4
 37e:	681b      	ldr	r3, [r3, #0]
 380:	4798      	blx	r3
 382:	2300      	movs	r3, #0
 384:	2210      	movs	r2, #16
 386:	4649      	mov	r1, r9
 388:	4620      	mov	r0, r4
 38a:	f7ff fffe 	bl	0 <_ZN5Print11printNumberEmhh>
 38e:	2f1f      	cmp	r7, #31
 390:	f43f af44 	beq.w	21c <_ZN14ExFatPartition8printDirEP5PrintP9ExFatFile+0x21c>
 394:	3701      	adds	r7, #1
 396:	f108 0801 	add.w	r8, r8, #1
 39a:	b2ff      	uxtb	r7, r7
 39c:	2f01      	cmp	r7, #1
 39e:	f04f 0120 	mov.w	r1, #32
 3a2:	4620      	mov	r0, r4
 3a4:	d1e0      	bne.n	368 <_ZN14ExFatPartition8printDirEP5PrintP9ExFatFile+0x368>
 3a6:	f898 9000 	ldrb.w	r9, [r8]
 3aa:	f1b9 0f0f 	cmp.w	r9, #15
 3ae:	d9e3      	bls.n	378 <_ZN14ExFatPartition8printDirEP5PrintP9ExFatFile+0x378>
 3b0:	2300      	movs	r3, #0
 3b2:	2210      	movs	r2, #16
 3b4:	4649      	mov	r1, r9
 3b6:	4620      	mov	r0, r4
 3b8:	f7ff fffe 	bl	0 <_ZN5Print11printNumberEmhh>
 3bc:	e7ea      	b.n	394 <_ZN14ExFatPartition8printDirEP5PrintP9ExFatFile+0x394>
 3be:	2bc0      	cmp	r3, #192	; 0xc0
 3c0:	f000 80c8 	beq.w	554 <_ZN14ExFatPartition8printDirEP5PrintP9ExFatFile+0x554>
 3c4:	2bc1      	cmp	r3, #193	; 0xc1
 3c6:	f040 814a 	bne.w	65e <_ZN14ExFatPartition8printDirEP5PrintP9ExFatFile+0x65e>
 3ca:	6823      	ldr	r3, [r4, #0]
 3cc:	220b      	movs	r2, #11
 3ce:	49a7      	ldr	r1, [pc, #668]	; (66c <_ZN14ExFatPartition8printDirEP5PrintP9ExFatFile+0x66c>)
 3d0:	4620      	mov	r0, r4
 3d2:	685b      	ldr	r3, [r3, #4]
 3d4:	f106 071e 	add.w	r7, r6, #30
 3d8:	4798      	blx	r3
 3da:	2300      	movs	r3, #0
 3dc:	2210      	movs	r2, #16
 3de:	7831      	ldrb	r1, [r6, #0]
 3e0:	4620      	mov	r0, r4
 3e2:	46b0      	mov	r8, r6
 3e4:	f7ff fffe 	bl	0 <_ZN5Print11printNumberEmhh>
 3e8:	4620      	mov	r0, r4
 3ea:	f7ff fffe 	bl	0 <_ZN5Print7printlnEv>
 3ee:	6823      	ldr	r3, [r4, #0]
 3f0:	2209      	movs	r2, #9
 3f2:	499f      	ldr	r1, [pc, #636]	; (670 <_ZN14ExFatPartition8printDirEP5PrintP9ExFatFile+0x670>)
 3f4:	685b      	ldr	r3, [r3, #4]
 3f6:	4620      	mov	r0, r4
 3f8:	9706      	str	r7, [sp, #24]
 3fa:	46b1      	mov	r9, r6
 3fc:	4798      	blx	r3
 3fe:	9507      	str	r5, [sp, #28]
 400:	463d      	mov	r5, r7
 402:	e008      	b.n	416 <_ZN14ExFatPartition8printDirEP5PrintP9ExFatFile+0x416>
 404:	681b      	ldr	r3, [r3, #0]
 406:	4798      	blx	r3
 408:	6823      	ldr	r3, [r4, #0]
 40a:	2120      	movs	r1, #32
 40c:	4620      	mov	r0, r4
 40e:	681b      	ldr	r3, [r3, #0]
 410:	4798      	blx	r3
 412:	454d      	cmp	r5, r9
 414:	d012      	beq.n	43c <_ZN14ExFatPartition8printDirEP5PrintP9ExFatFile+0x43c>
 416:	f839 7f02 	ldrh.w	r7, [r9, #2]!
 41a:	4620      	mov	r0, r4
 41c:	b2f9      	uxtb	r1, r7
 41e:	b16f      	cbz	r7, 43c <_ZN14ExFatPartition8printDirEP5PrintP9ExFatFile+0x43c>
 420:	2f7f      	cmp	r7, #127	; 0x7f
 422:	6823      	ldr	r3, [r4, #0]
 424:	d9ee      	bls.n	404 <_ZN14ExFatPartition8printDirEP5PrintP9ExFatFile+0x404>
 426:	2202      	movs	r2, #2
 428:	4992      	ldr	r1, [pc, #584]	; (674 <_ZN14ExFatPartition8printDirEP5PrintP9ExFatFile+0x674>)
 42a:	685b      	ldr	r3, [r3, #4]
 42c:	4798      	blx	r3
 42e:	2300      	movs	r3, #0
 430:	2210      	movs	r2, #16
 432:	4639      	mov	r1, r7
 434:	4620      	mov	r0, r4
 436:	f7ff fffe 	bl	0 <_ZN5Print11printNumberEmhh>
 43a:	e7e5      	b.n	408 <_ZN14ExFatPartition8printDirEP5PrintP9ExFatFile+0x408>
 43c:	4620      	mov	r0, r4
 43e:	9d07      	ldr	r5, [sp, #28]
 440:	f7ff fffe 	bl	0 <_ZN5Print7printlnEv>
 444:	7833      	ldrb	r3, [r6, #0]
 446:	2100      	movs	r1, #0
 448:	f1a3 0085 	sub.w	r0, r3, #133	; 0x85
 44c:	461a      	mov	r2, r3
 44e:	fab0 f080 	clz	r0, r0
 452:	0940      	lsrs	r0, r0, #5
 454:	e001      	b.n	45a <_ZN14ExFatPartition8printDirEP5PrintP9ExFatFile+0x45a>
 456:	2104      	movs	r1, #4
 458:	5c72      	ldrb	r2, [r6, r1]
 45a:	03eb      	lsls	r3, r5, #15
 45c:	2901      	cmp	r1, #1
 45e:	f101 0101 	add.w	r1, r1, #1
 462:	ea43 0555 	orr.w	r5, r3, r5, lsr #1
 466:	fa12 f385 	uxtah	r3, r2, r5
 46a:	b29d      	uxth	r5, r3
 46c:	d101      	bne.n	472 <_ZN14ExFatPartition8printDirEP5PrintP9ExFatFile+0x472>
 46e:	2800      	cmp	r0, #0
 470:	d1f1      	bne.n	456 <_ZN14ExFatPartition8printDirEP5PrintP9ExFatFile+0x456>
 472:	291f      	cmp	r1, #31
 474:	d9f0      	bls.n	458 <_ZN14ExFatPartition8printDirEP5PrintP9ExFatFile+0x458>
 476:	9f04      	ldr	r7, [sp, #16]
 478:	f8dd 9018 	ldr.w	r9, [sp, #24]
 47c:	2f0f      	cmp	r7, #15
 47e:	bf28      	it	cs
 480:	270f      	movcs	r7, #15
 482:	f838 0f02 	ldrh.w	r0, [r8, #2]!
 486:	b1a8      	cbz	r0, 4b4 <_ZN14ExFatPartition8printDirEP5PrintP9ExFatFile+0x4b4>
 488:	f7ff fffe 	bl	0 <_Z8toUpcaset>
 48c:	45c1      	cmp	r9, r8
 48e:	ea4f 33cb 	mov.w	r3, fp, lsl #15
 492:	b2c2      	uxtb	r2, r0
 494:	ea43 035b 	orr.w	r3, r3, fp, lsr #1
 498:	ea4f 2010 	mov.w	r0, r0, lsr #8
 49c:	fa12 f383 	uxtah	r3, r2, r3
 4a0:	b29a      	uxth	r2, r3
 4a2:	f3c3 034e 	ubfx	r3, r3, #1, #15
 4a6:	ea43 33c2 	orr.w	r3, r3, r2, lsl #15
 4aa:	fa10 f383 	uxtah	r3, r0, r3
 4ae:	fa1f fb83 	uxth.w	fp, r3
 4b2:	d1e6      	bne.n	482 <_ZN14ExFatPartition8printDirEP5PrintP9ExFatFile+0x482>
 4b4:	9b04      	ldr	r3, [sp, #16]
 4b6:	1bdf      	subs	r7, r3, r7
 4b8:	9b02      	ldr	r3, [sp, #8]
 4ba:	3b01      	subs	r3, #1
 4bc:	f017 02ff 	ands.w	r2, r7, #255	; 0xff
 4c0:	b2db      	uxtb	r3, r3
 4c2:	9204      	str	r2, [sp, #16]
 4c4:	9302      	str	r3, [sp, #8]
 4c6:	d002      	beq.n	4ce <_ZN14ExFatPartition8printDirEP5PrintP9ExFatFile+0x4ce>
 4c8:	2b00      	cmp	r3, #0
 4ca:	f47f aee3 	bne.w	294 <_ZN14ExFatPartition8printDirEP5PrintP9ExFatFile+0x294>
 4ce:	6823      	ldr	r3, [r4, #0]
 4d0:	220f      	movs	r2, #15
 4d2:	4969      	ldr	r1, [pc, #420]	; (678 <_ZN14ExFatPartition8printDirEP5PrintP9ExFatFile+0x678>)
 4d4:	4620      	mov	r0, r4
 4d6:	685b      	ldr	r3, [r3, #4]
 4d8:	4798      	blx	r3
 4da:	9f09      	ldr	r7, [sp, #36]	; 0x24
 4dc:	2300      	movs	r3, #0
 4de:	2210      	movs	r2, #16
 4e0:	4639      	mov	r1, r7
 4e2:	4620      	mov	r0, r4
 4e4:	f7ff fffe 	bl	0 <_ZN5Print11printNumberEmhh>
 4e8:	42af      	cmp	r7, r5
 4ea:	6823      	ldr	r3, [r4, #0]
 4ec:	f04f 0214 	mov.w	r2, #20
 4f0:	bf18      	it	ne
 4f2:	4962      	ldrne	r1, [pc, #392]	; (67c <_ZN14ExFatPartition8printDirEP5PrintP9ExFatFile+0x67c>)
 4f4:	4620      	mov	r0, r4
 4f6:	bf08      	it	eq
 4f8:	4961      	ldreq	r1, [pc, #388]	; (680 <_ZN14ExFatPartition8printDirEP5PrintP9ExFatFile+0x680>)
 4fa:	685b      	ldr	r3, [r3, #4]
 4fc:	4798      	blx	r3
 4fe:	4629      	mov	r1, r5
 500:	2300      	movs	r3, #0
 502:	2210      	movs	r2, #16
 504:	4620      	mov	r0, r4
 506:	f7ff fffe 	bl	0 <_ZN5Print11printNumberEmhh>
 50a:	4620      	mov	r0, r4
 50c:	f7ff fffe 	bl	0 <_ZN5Print7printlnEv>
 510:	6823      	ldr	r3, [r4, #0]
 512:	220c      	movs	r2, #12
 514:	495b      	ldr	r1, [pc, #364]	; (684 <_ZN14ExFatPartition8printDirEP5PrintP9ExFatFile+0x684>)
 516:	685b      	ldr	r3, [r3, #4]
 518:	4620      	mov	r0, r4
 51a:	4798      	blx	r3
 51c:	9f08      	ldr	r7, [sp, #32]
 51e:	2300      	movs	r3, #0
 520:	2210      	movs	r2, #16
 522:	4639      	mov	r1, r7
 524:	4620      	mov	r0, r4
 526:	f7ff fffe 	bl	0 <_ZN5Print11printNumberEmhh>
 52a:	455f      	cmp	r7, fp
 52c:	6823      	ldr	r3, [r4, #0]
 52e:	f04f 0210 	mov.w	r2, #16
 532:	bf18      	it	ne
 534:	4954      	ldrne	r1, [pc, #336]	; (688 <_ZN14ExFatPartition8printDirEP5PrintP9ExFatFile+0x688>)
 536:	4620      	mov	r0, r4
 538:	bf08      	it	eq
 53a:	4954      	ldreq	r1, [pc, #336]	; (68c <_ZN14ExFatPartition8printDirEP5PrintP9ExFatFile+0x68c>)
 53c:	685b      	ldr	r3, [r3, #4]
 53e:	4798      	blx	r3
 540:	2300      	movs	r3, #0
 542:	2210      	movs	r2, #16
 544:	4659      	mov	r1, fp
 546:	4620      	mov	r0, r4
 548:	f7ff fffe 	bl	0 <_ZN5Print11printNumberEmhh>
 54c:	4620      	mov	r0, r4
 54e:	f7ff fffe 	bl	0 <_ZN5Print7printlnEv>
 552:	e69f      	b.n	294 <_ZN14ExFatPartition8printDirEP5PrintP9ExFatFile+0x294>
 554:	6823      	ldr	r3, [r4, #0]
 556:	220d      	movs	r2, #13
 558:	494d      	ldr	r1, [pc, #308]	; (690 <_ZN14ExFatPartition8printDirEP5PrintP9ExFatFile+0x690>)
 55a:	4620      	mov	r0, r4
 55c:	685b      	ldr	r3, [r3, #4]
 55e:	4798      	blx	r3
 560:	2300      	movs	r3, #0
 562:	2210      	movs	r2, #16
 564:	7831      	ldrb	r1, [r6, #0]
 566:	4620      	mov	r0, r4
 568:	f7ff fffe 	bl	0 <_ZN5Print11printNumberEmhh>
 56c:	4620      	mov	r0, r4
 56e:	f7ff fffe 	bl	0 <_ZN5Print7printlnEv>
 572:	6823      	ldr	r3, [r4, #0]
 574:	2209      	movs	r2, #9
 576:	4947      	ldr	r1, [pc, #284]	; (694 <_ZN14ExFatPartition8printDirEP5PrintP9ExFatFile+0x694>)
 578:	685b      	ldr	r3, [r3, #4]
 57a:	4620      	mov	r0, r4
 57c:	4798      	blx	r3
 57e:	2300      	movs	r3, #0
 580:	2210      	movs	r2, #16
 582:	7871      	ldrb	r1, [r6, #1]
 584:	4620      	mov	r0, r4
 586:	f7ff fffe 	bl	0 <_ZN5Print11printNumberEmhh>
 58a:	4620      	mov	r0, r4
 58c:	f7ff fffe 	bl	0 <_ZN5Print7printlnEv>
 590:	6823      	ldr	r3, [r4, #0]
 592:	220c      	movs	r2, #12
 594:	4940      	ldr	r1, [pc, #256]	; (698 <_ZN14ExFatPartition8printDirEP5PrintP9ExFatFile+0x698>)
 596:	685b      	ldr	r3, [r3, #4]
 598:	4620      	mov	r0, r4
 59a:	4798      	blx	r3
 59c:	2300      	movs	r3, #0
 59e:	220a      	movs	r2, #10
 5a0:	78f1      	ldrb	r1, [r6, #3]
 5a2:	4620      	mov	r0, r4
 5a4:	f7ff fffe 	bl	0 <_ZN5Print11printNumberEmhh>
 5a8:	4620      	mov	r0, r4
 5aa:	f7ff fffe 	bl	0 <_ZN5Print7printlnEv>
 5ae:	6823      	ldr	r3, [r4, #0]
 5b0:	220c      	movs	r2, #12
 5b2:	4934      	ldr	r1, [pc, #208]	; (684 <_ZN14ExFatPartition8printDirEP5PrintP9ExFatFile+0x684>)
 5b4:	685b      	ldr	r3, [r3, #4]
 5b6:	4620      	mov	r0, r4
 5b8:	4798      	blx	r3
 5ba:	2300      	movs	r3, #0
 5bc:	2210      	movs	r2, #16
 5be:	88b1      	ldrh	r1, [r6, #4]
 5c0:	4620      	mov	r0, r4
 5c2:	f7ff fffe 	bl	0 <_ZN5Print11printNumberEmhh>
 5c6:	4620      	mov	r0, r4
 5c8:	f7ff fffe 	bl	0 <_ZN5Print7printlnEv>
 5cc:	6823      	ldr	r3, [r4, #0]
 5ce:	4933      	ldr	r1, [pc, #204]	; (69c <_ZN14ExFatPartition8printDirEP5PrintP9ExFatFile+0x69c>)
 5d0:	220d      	movs	r2, #13
 5d2:	685b      	ldr	r3, [r3, #4]
 5d4:	4620      	mov	r0, r4
 5d6:	4798      	blx	r3
 5d8:	4620      	mov	r0, r4
 5da:	e9d6 2302 	ldrd	r2, r3, [r6, #8]
 5de:	f7ff fffe 	bl	0 <_ZN14ExFatPartition8printDirEP5PrintP9ExFatFile>
 5e2:	6823      	ldr	r3, [r4, #0]
 5e4:	220e      	movs	r2, #14
 5e6:	492e      	ldr	r1, [pc, #184]	; (6a0 <_ZN14ExFatPartition8printDirEP5PrintP9ExFatFile+0x6a0>)
 5e8:	685b      	ldr	r3, [r3, #4]
 5ea:	4620      	mov	r0, r4
 5ec:	4798      	blx	r3
 5ee:	2300      	movs	r3, #0
 5f0:	220a      	movs	r2, #10
 5f2:	6971      	ldr	r1, [r6, #20]
 5f4:	4620      	mov	r0, r4
 5f6:	f7ff fffe 	bl	0 <_ZN5Print11printNumberEmhh>
 5fa:	4620      	mov	r0, r4
 5fc:	f7ff fffe 	bl	0 <_ZN5Print7printlnEv>
 600:	6823      	ldr	r3, [r4, #0]
 602:	4928      	ldr	r1, [pc, #160]	; (6a4 <_ZN14ExFatPartition8printDirEP5PrintP9ExFatFile+0x6a4>)
 604:	220c      	movs	r2, #12
 606:	685b      	ldr	r3, [r3, #4]
 608:	4620      	mov	r0, r4
 60a:	4798      	blx	r3
 60c:	4620      	mov	r0, r4
 60e:	e9d6 2306 	ldrd	r2, r3, [r6, #24]
 612:	f7ff fffe 	bl	0 <_ZN14ExFatPartition8printDirEP5PrintP9ExFatFile>
 616:	7833      	ldrb	r3, [r6, #0]
 618:	78f2      	ldrb	r2, [r6, #3]
 61a:	2100      	movs	r1, #0
 61c:	f1a3 0085 	sub.w	r0, r3, #133	; 0x85
 620:	9204      	str	r2, [sp, #16]
 622:	fab0 f080 	clz	r0, r0
 626:	88b2      	ldrh	r2, [r6, #4]
 628:	0940      	lsrs	r0, r0, #5
 62a:	9208      	str	r2, [sp, #32]
 62c:	461a      	mov	r2, r3
 62e:	e001      	b.n	634 <_ZN14ExFatPartition8printDirEP5PrintP9ExFatFile+0x634>
 630:	2104      	movs	r1, #4
 632:	5c72      	ldrb	r2, [r6, r1]
 634:	03eb      	lsls	r3, r5, #15
 636:	2901      	cmp	r1, #1
 638:	f101 0101 	add.w	r1, r1, #1
 63c:	ea43 0555 	orr.w	r5, r3, r5, lsr #1
 640:	fa12 f385 	uxtah	r3, r2, r5
 644:	b29d      	uxth	r5, r3
 646:	d101      	bne.n	64c <_ZN14ExFatPartition8printDirEP5PrintP9ExFatFile+0x64c>
 648:	2800      	cmp	r0, #0
 64a:	d1f1      	bne.n	630 <_ZN14ExFatPartition8printDirEP5PrintP9ExFatFile+0x630>
 64c:	291f      	cmp	r1, #31
 64e:	d9f0      	bls.n	632 <_ZN14ExFatPartition8printDirEP5PrintP9ExFatFile+0x632>
 650:	9b02      	ldr	r3, [sp, #8]
 652:	f04f 0b00 	mov.w	fp, #0
 656:	3b01      	subs	r3, #1
 658:	b2db      	uxtb	r3, r3
 65a:	9302      	str	r3, [sp, #8]
 65c:	e61a      	b.n	294 <_ZN14ExFatPartition8printDirEP5PrintP9ExFatFile+0x294>
 65e:	6823      	ldr	r3, [r4, #0]
 660:	2213      	movs	r2, #19
 662:	4911      	ldr	r1, [pc, #68]	; (6a8 <_ZN14ExFatPartition8printDirEP5PrintP9ExFatFile+0x6a8>)
 664:	4620      	mov	r0, r4
 666:	685b      	ldr	r3, [r3, #4]
 668:	4798      	blx	r3
 66a:	e64c      	b.n	306 <_ZN14ExFatPartition8printDirEP5PrintP9ExFatFile+0x306>
 66c:	00000140 	.word	0x00000140
 670:	0000007c 	.word	0x0000007c
 674:	0000014c 	.word	0x0000014c
 678:	000000a0 	.word	0x000000a0
 67c:	00000150 	.word	0x00000150
 680:	00000168 	.word	0x00000168
 684:	00000110 	.word	0x00000110
 688:	00000180 	.word	0x00000180
 68c:	00000194 	.word	0x00000194
 690:	000000f0 	.word	0x000000f0
 694:	00000018 	.word	0x00000018
 698:	00000100 	.word	0x00000100
 69c:	00000120 	.word	0x00000120
 6a0:	00000024 	.word	0x00000024
 6a4:	00000130 	.word	0x00000130
 6a8:	000001a8 	.word	0x000001a8

Disassembly of section .text._ZN14ExFatPartition8printFatEP5Print:

00000000 <_ZN14ExFatPartition8printFatEP5Print>:
   0:	b5f0      	push	{r4, r5, r6, r7, lr}
   2:	460c      	mov	r4, r1
   4:	b083      	sub	sp, #12
   6:	2204      	movs	r2, #4
   8:	4918      	ldr	r1, [pc, #96]	; (6c <_ZN14ExFatPartition8printFatEP5Print+0x6c>)
   a:	6823      	ldr	r3, [r4, #0]
   c:	4607      	mov	r7, r0
   e:	4620      	mov	r0, r4
  10:	2500      	movs	r5, #0
  12:	685b      	ldr	r3, [r3, #4]
  14:	4798      	blx	r3
  16:	4620      	mov	r0, r4
  18:	f7ff fffe 	bl	0 <_ZN5Print7printlnEv>
  1c:	e00b      	b.n	36 <_ZN14ExFatPartition8printFatEP5Print+0x36>
  1e:	9901      	ldr	r1, [sp, #4]
  20:	2300      	movs	r3, #0
  22:	2210      	movs	r2, #16
  24:	4620      	mov	r0, r4
  26:	3501      	adds	r5, #1
  28:	f7ff fffe 	bl	0 <_ZN5Print11printNumberEmhh>
  2c:	4620      	mov	r0, r4
  2e:	f7ff fffe 	bl	0 <_ZN5Print7printlnEv>
  32:	2d10      	cmp	r5, #16
  34:	d017      	beq.n	66 <_ZN14ExFatPartition8printFatEP5Print+0x66>
  36:	4629      	mov	r1, r5
  38:	aa01      	add	r2, sp, #4
  3a:	4638      	mov	r0, r7
  3c:	f7ff fffe 	bl	0 <_ZN14ExFatPartition6fatGetEmPm>
  40:	4629      	mov	r1, r5
  42:	2300      	movs	r3, #0
  44:	2210      	movs	r2, #16
  46:	4606      	mov	r6, r0
  48:	4620      	mov	r0, r4
  4a:	f7ff fffe 	bl	0 <_ZN5Print11printNumberEmhh>
  4e:	6823      	ldr	r3, [r4, #0]
  50:	2120      	movs	r1, #32
  52:	4620      	mov	r0, r4
  54:	681b      	ldr	r3, [r3, #0]
  56:	4798      	blx	r3
  58:	f04f 33ff 	mov.w	r3, #4294967295	; 0xffffffff
  5c:	2e00      	cmp	r6, #0
  5e:	d1de      	bne.n	1e <_ZN14ExFatPartition8printFatEP5Print+0x1e>
  60:	4619      	mov	r1, r3
  62:	9301      	str	r3, [sp, #4]
  64:	e7dc      	b.n	20 <_ZN14ExFatPartition8printFatEP5Print+0x20>
  66:	b003      	add	sp, #12
  68:	bdf0      	pop	{r4, r5, r6, r7, pc}
  6a:	bf00      	nop
  6c:	00000000 	.word	0x00000000

Disassembly of section .text._ZN14ExFatPartition11printUpcaseEP5Print:

00000000 <_ZN14ExFatPartition11printUpcaseEP5Print>:
   0:	e92d 4ff8 	stmdb	sp!, {r3, r4, r5, r6, r7, r8, r9, sl, fp, lr}
   4:	f8d0 3434 	ldr.w	r3, [r0, #1076]	; 0x434
   8:	460d      	mov	r5, r1
   a:	f890 2445 	ldrb.w	r2, [r0, #1093]	; 0x445
   e:	f500 7a04 	add.w	sl, r0, #528	; 0x210
  12:	3b02      	subs	r3, #2
  14:	f8d0 142c 	ldr.w	r1, [r0, #1068]	; 0x42c
  18:	4604      	mov	r4, r0
  1a:	4650      	mov	r0, sl
  1c:	4093      	lsls	r3, r2
  1e:	2200      	movs	r2, #0
  20:	4419      	add	r1, r3
  22:	f7ff fffe 	bl	0 <_ZN7FsCache7prepareEmh>
  26:	2800      	cmp	r0, #0
  28:	d069      	beq.n	fe <_ZN14ExFatPartition11printUpcaseEP5Print+0xfe>
  2a:	4680      	mov	r8, r0
  2c:	4603      	mov	r3, r0
  2e:	f500 7100 	add.w	r1, r0, #512	; 0x200
  32:	781a      	ldrb	r2, [r3, #0]
  34:	2a82      	cmp	r2, #130	; 0x82
  36:	d00d      	beq.n	54 <_ZN14ExFatPartition11printUpcaseEP5Print+0x54>
  38:	3320      	adds	r3, #32
  3a:	4299      	cmp	r1, r3
  3c:	d1f9      	bne.n	32 <_ZN14ExFatPartition11printUpcaseEP5Print+0x32>
  3e:	682b      	ldr	r3, [r5, #0]
  40:	2210      	movs	r2, #16
  42:	4931      	ldr	r1, [pc, #196]	; (108 <_ZN14ExFatPartition11printUpcaseEP5Print+0x108>)
  44:	4628      	mov	r0, r5
  46:	685b      	ldr	r3, [r3, #4]
  48:	4798      	blx	r3
  4a:	4628      	mov	r0, r5
  4c:	e8bd 4ff8 	ldmia.w	sp!, {r3, r4, r5, r6, r7, r8, r9, sl, fp, lr}
  50:	f7ff bffe 	b.w	0 <_ZN5Print7printlnEv>
  54:	e9d3 2305 	ldrd	r2, r3, [r3, #20]
  58:	f1a2 0902 	sub.w	r9, r2, #2
  5c:	f894 2445 	ldrb.w	r2, [r4, #1093]	; 0x445
  60:	fa09 f902 	lsl.w	r9, r9, r2
  64:	f8d4 242c 	ldr.w	r2, [r4, #1068]	; 0x42c
  68:	4491      	add	r9, r2
  6a:	2b00      	cmp	r3, #0
  6c:	d0e7      	beq.n	3e <_ZN14ExFatPartition11printUpcaseEP5Print+0x3e>
  6e:	ea5f 0b53 	movs.w	fp, r3, lsr #1
  72:	d031      	beq.n	d8 <_ZN14ExFatPartition11printUpcaseEP5Print+0xd8>
  74:	2400      	movs	r4, #0
  76:	4626      	mov	r6, r4
  78:	e015      	b.n	a6 <_ZN14ExFatPartition11printUpcaseEP5Print+0xa6>
  7a:	0723      	lsls	r3, r4, #28
  7c:	d024      	beq.n	c8 <_ZN14ExFatPartition11printUpcaseEP5Print+0xc8>
  7e:	682b      	ldr	r3, [r5, #0]
  80:	2120      	movs	r1, #32
  82:	4628      	mov	r0, r5
  84:	3401      	adds	r4, #1
  86:	681b      	ldr	r3, [r3, #0]
  88:	4798      	blx	r3
  8a:	f838 7017 	ldrh.w	r7, [r8, r7, lsl #1]
  8e:	4628      	mov	r0, r5
  90:	b2a4      	uxth	r4, r4
  92:	4639      	mov	r1, r7
  94:	f7ff fffe 	bl	0 <_ZN14ExFatPartition11printUpcaseEP5Print>
  98:	4631      	mov	r1, r6
  9a:	4638      	mov	r0, r7
  9c:	f7ff fffe 	bl	0 <_Z14upcaseChecksumtm>
  a0:	455c      	cmp	r4, fp
  a2:	4606      	mov	r6, r0
  a4:	d219      	bcs.n	da <_ZN14ExFatPartition11printUpcaseEP5Print+0xda>
  a6:	f014 07ff 	ands.w	r7, r4, #255	; 0xff
  aa:	d1e6      	bne.n	7a <_ZN14ExFatPartition11printUpcaseEP5Print+0x7a>
  ac:	4649      	mov	r1, r9
  ae:	463a      	mov	r2, r7
  b0:	4650      	mov	r0, sl
  b2:	f109 0901 	add.w	r9, r9, #1
  b6:	f7ff fffe 	bl	0 <_ZN7FsCache7prepareEmh>
  ba:	4680      	mov	r8, r0
  bc:	2800      	cmp	r0, #0
  be:	d1dc      	bne.n	7a <_ZN14ExFatPartition11printUpcaseEP5Print+0x7a>
  c0:	682b      	ldr	r3, [r5, #0]
  c2:	2212      	movs	r2, #18
  c4:	4911      	ldr	r1, [pc, #68]	; (10c <_ZN14ExFatPartition11printUpcaseEP5Print+0x10c>)
  c6:	e7bd      	b.n	44 <_ZN14ExFatPartition11printUpcaseEP5Print+0x44>
  c8:	4628      	mov	r0, r5
  ca:	f7ff fffe 	bl	0 <_ZN5Print7printlnEv>
  ce:	4621      	mov	r1, r4
  d0:	4628      	mov	r0, r5
  d2:	f7ff fffe 	bl	0 <_ZN14ExFatPartition11printUpcaseEP5Print>
  d6:	e7d2      	b.n	7e <_ZN14ExFatPartition11printUpcaseEP5Print+0x7e>
  d8:	465e      	mov	r6, fp
  da:	4628      	mov	r0, r5
  dc:	f7ff fffe 	bl	0 <_ZN5Print7printlnEv>
  e0:	682b      	ldr	r3, [r5, #0]
  e2:	220a      	movs	r2, #10
  e4:	490a      	ldr	r1, [pc, #40]	; (110 <_ZN14ExFatPartition11printUpcaseEP5Print+0x110>)
  e6:	685b      	ldr	r3, [r3, #4]
  e8:	4628      	mov	r0, r5
  ea:	4798      	blx	r3
  ec:	4628      	mov	r0, r5
  ee:	4631      	mov	r1, r6
  f0:	f7ff fffe 	bl	0 <_ZN14ExFatPartition11printUpcaseEP5Print>
  f4:	4628      	mov	r0, r5
  f6:	e8bd 4ff8 	ldmia.w	sp!, {r3, r4, r5, r6, r7, r8, r9, sl, fp, lr}
  fa:	f7ff bffe 	b.w	0 <_ZN5Print7printlnEv>
  fe:	682b      	ldr	r3, [r5, #0]
 100:	2214      	movs	r2, #20
 102:	4904      	ldr	r1, [pc, #16]	; (114 <_ZN14ExFatPartition11printUpcaseEP5Print+0x114>)
 104:	e79e      	b.n	44 <_ZN14ExFatPartition11printUpcaseEP5Print+0x44>
 106:	bf00      	nop
 108:	0000002c 	.word	0x0000002c
 10c:	00000040 	.word	0x00000040
 110:	00000018 	.word	0x00000018
 114:	00000000 	.word	0x00000000

Disassembly of section .text._ZN14ExFatPartition12printVolInfoEP5Print:

00000000 <_ZN14ExFatPartition12printVolInfoEP5Print>:
   0:	e92d 4ff0 	stmdb	sp!, {r4, r5, r6, r7, r8, r9, sl, fp, lr}
   4:	2200      	movs	r2, #0
   6:	f500 7904 	add.w	r9, r0, #528	; 0x210
   a:	460c      	mov	r4, r1
   c:	b087      	sub	sp, #28
   e:	4611      	mov	r1, r2
  10:	4648      	mov	r0, r9
  12:	f7ff fffe 	bl	0 <_ZN7FsCache7prepareEmh>
  16:	6823      	ldr	r3, [r4, #0]
  18:	4680      	mov	r8, r0
  1a:	2800      	cmp	r0, #0
  1c:	f000 8221 	beq.w	462 <_ZN14ExFatPartition12printVolInfoEP5Print+0x462>
  20:	220a      	movs	r2, #10
  22:	685b      	ldr	r3, [r3, #4]
  24:	495c      	ldr	r1, [pc, #368]	; (198 <_ZN14ExFatPartition12printVolInfoEP5Print+0x198>)
  26:	4620      	mov	r0, r4
  28:	4798      	blx	r3
  2a:	f208 17c5 	addw	r7, r8, #453	; 0x1c5
  2e:	2300      	movs	r3, #0
  30:	2210      	movs	r2, #16
  32:	f8b8 11fe 	ldrh.w	r1, [r8, #510]	; 0x1fe
  36:	4620      	mov	r0, r4
  38:	f208 15c1 	addw	r5, r8, #449	; 0x1c1
  3c:	f208 2a05 	addw	sl, r8, #517	; 0x205
  40:	f7ff fffe 	bl	0 <_ZN5Print11printNumberEmhh>
  44:	4620      	mov	r0, r4
  46:	f7ff fffe 	bl	0 <_ZN5Print7printlnEv>
  4a:	f817 6c07 	ldrb.w	r6, [r7, #-7]
  4e:	2e0f      	cmp	r6, #15
  50:	d804      	bhi.n	5c <_ZN14ExFatPartition12printVolInfoEP5Print+0x5c>
  52:	6823      	ldr	r3, [r4, #0]
  54:	2130      	movs	r1, #48	; 0x30
  56:	4620      	mov	r0, r4
  58:	681b      	ldr	r3, [r3, #0]
  5a:	4798      	blx	r3
  5c:	2300      	movs	r3, #0
  5e:	4631      	mov	r1, r6
  60:	2210      	movs	r2, #16
  62:	4620      	mov	r0, r4
  64:	f7ff fffe 	bl	0 <_ZN5Print11printNumberEmhh>
  68:	6823      	ldr	r3, [r4, #0]
  6a:	2120      	movs	r1, #32
  6c:	4620      	mov	r0, r4
  6e:	681b      	ldr	r3, [r3, #0]
  70:	f1a7 0b07 	sub.w	fp, r7, #7
  74:	4798      	blx	r3
  76:	f81b 6f01 	ldrb.w	r6, [fp, #1]!
  7a:	2130      	movs	r1, #48	; 0x30
  7c:	4620      	mov	r0, r4
  7e:	2e0f      	cmp	r6, #15
  80:	d802      	bhi.n	88 <_ZN14ExFatPartition12printVolInfoEP5Print+0x88>
  82:	6823      	ldr	r3, [r4, #0]
  84:	681b      	ldr	r3, [r3, #0]
  86:	4798      	blx	r3
  88:	4631      	mov	r1, r6
  8a:	2300      	movs	r3, #0
  8c:	2210      	movs	r2, #16
  8e:	4620      	mov	r0, r4
  90:	f7ff fffe 	bl	0 <_ZN5Print11printNumberEmhh>
  94:	6823      	ldr	r3, [r4, #0]
  96:	2120      	movs	r1, #32
  98:	4620      	mov	r0, r4
  9a:	681b      	ldr	r3, [r3, #0]
  9c:	4798      	blx	r3
  9e:	455d      	cmp	r5, fp
  a0:	d1e9      	bne.n	76 <_ZN14ExFatPartition12printVolInfoEP5Print+0x76>
  a2:	f817 6c03 	ldrb.w	r6, [r7, #-3]
  a6:	2e0f      	cmp	r6, #15
  a8:	d804      	bhi.n	b4 <_ZN14ExFatPartition12printVolInfoEP5Print+0xb4>
  aa:	6823      	ldr	r3, [r4, #0]
  ac:	2130      	movs	r1, #48	; 0x30
  ae:	4620      	mov	r0, r4
  b0:	681b      	ldr	r3, [r3, #0]
  b2:	4798      	blx	r3
  b4:	2300      	movs	r3, #0
  b6:	4631      	mov	r1, r6
  b8:	2210      	movs	r2, #16
  ba:	4620      	mov	r0, r4
  bc:	f7ff fffe 	bl	0 <_ZN5Print11printNumberEmhh>
  c0:	6823      	ldr	r3, [r4, #0]
  c2:	2120      	movs	r1, #32
  c4:	4620      	mov	r0, r4
  c6:	681b      	ldr	r3, [r3, #0]
  c8:	f1a7 0b03 	sub.w	fp, r7, #3
  cc:	4798      	blx	r3
  ce:	f81b 6f01 	ldrb.w	r6, [fp, #1]!
  d2:	2130      	movs	r1, #48	; 0x30
  d4:	4620      	mov	r0, r4
  d6:	2e0f      	cmp	r6, #15
  d8:	d802      	bhi.n	e0 <_ZN14ExFatPartition12printVolInfoEP5Print+0xe0>
  da:	6823      	ldr	r3, [r4, #0]
  dc:	681b      	ldr	r3, [r3, #0]
  de:	4798      	blx	r3
  e0:	4631      	mov	r1, r6
  e2:	2300      	movs	r3, #0
  e4:	2210      	movs	r2, #16
  e6:	4620      	mov	r0, r4
  e8:	f7ff fffe 	bl	0 <_ZN5Print11printNumberEmhh>
  ec:	6823      	ldr	r3, [r4, #0]
  ee:	2120      	movs	r1, #32
  f0:	4620      	mov	r0, r4
  f2:	681b      	ldr	r3, [r3, #0]
  f4:	4798      	blx	r3
  f6:	45bb      	cmp	fp, r7
  f8:	d1e9      	bne.n	ce <_ZN14ExFatPartition12printVolInfoEP5Print+0xce>
  fa:	2210      	movs	r2, #16
  fc:	2300      	movs	r3, #0
  fe:	f8db 1001 	ldr.w	r1, [fp, #1]
 102:	4620      	mov	r0, r4
 104:	f7ff fffe 	bl	0 <_ZN5Print11printNumberEmhh>
 108:	6823      	ldr	r3, [r4, #0]
 10a:	2120      	movs	r1, #32
 10c:	4620      	mov	r0, r4
 10e:	681b      	ldr	r3, [r3, #0]
 110:	f10b 0710 	add.w	r7, fp, #16
 114:	4798      	blx	r3
 116:	2210      	movs	r2, #16
 118:	2300      	movs	r3, #0
 11a:	f8db 1005 	ldr.w	r1, [fp, #5]
 11e:	4620      	mov	r0, r4
 120:	4415      	add	r5, r2
 122:	f7ff fffe 	bl	0 <_ZN5Print11printNumberEmhh>
 126:	4620      	mov	r0, r4
 128:	f7ff fffe 	bl	0 <_ZN5Print7printlnEv>
 12c:	45ba      	cmp	sl, r7
 12e:	d18c      	bne.n	4a <_ZN14ExFatPartition12printVolInfoEP5Print+0x4a>
 130:	f8d8 51ca 	ldr.w	r5, [r8, #458]	; 0x1ca
 134:	f8d8 11c6 	ldr.w	r1, [r8, #454]	; 0x1c6
 138:	2d00      	cmp	r5, #0
 13a:	f000 817e 	beq.w	43a <_ZN14ExFatPartition12printVolInfoEP5Print+0x43a>
 13e:	2200      	movs	r2, #0
 140:	4648      	mov	r0, r9
 142:	f7ff fffe 	bl	0 <_ZN7FsCache7prepareEmh>
 146:	6823      	ldr	r3, [r4, #0]
 148:	4605      	mov	r5, r0
 14a:	2800      	cmp	r0, #0
 14c:	f000 817f 	beq.w	44e <_ZN14ExFatPartition12printVolInfoEP5Print+0x44e>
 150:	220a      	movs	r2, #10
 152:	4912      	ldr	r1, [pc, #72]	; (19c <_ZN14ExFatPartition12printVolInfoEP5Print+0x19c>)
 154:	685b      	ldr	r3, [r3, #4]
 156:	4620      	mov	r0, r4
 158:	4798      	blx	r3
 15a:	2300      	movs	r3, #0
 15c:	2210      	movs	r2, #16
 15e:	f8b5 11fe 	ldrh.w	r1, [r5, #510]	; 0x1fe
 162:	4620      	mov	r0, r4
 164:	f7ff fffe 	bl	0 <_ZN5Print11printNumberEmhh>
 168:	4620      	mov	r0, r4
 16a:	f7ff fffe 	bl	0 <_ZN5Print7printlnEv>
 16e:	6823      	ldr	r3, [r4, #0]
 170:	2210      	movs	r2, #16
 172:	490b      	ldr	r1, [pc, #44]	; (1a0 <_ZN14ExFatPartition12printVolInfoEP5Print+0x1a0>)
 174:	685b      	ldr	r3, [r3, #4]
 176:	4620      	mov	r0, r4
 178:	4798      	blx	r3
 17a:	6823      	ldr	r3, [r4, #0]
 17c:	1ce9      	adds	r1, r5, #3
 17e:	2208      	movs	r2, #8
 180:	685b      	ldr	r3, [r3, #4]
 182:	4620      	mov	r0, r4
 184:	4798      	blx	r3
 186:	4620      	mov	r0, r4
 188:	f7ff fffe 	bl	0 <_ZN5Print7printlnEv>
 18c:	f105 030a 	add.w	r3, r5, #10
 190:	f105 013f 	add.w	r1, r5, #63	; 0x3f
 194:	e008      	b.n	1a8 <_ZN14ExFatPartition12printVolInfoEP5Print+0x1a8>
 196:	bf00      	nop
 198:	00000010 	.word	0x00000010
 19c:	00000040 	.word	0x00000040
 1a0:	0000004c 	.word	0x0000004c
 1a4:	4299      	cmp	r1, r3
 1a6:	d00c      	beq.n	1c2 <_ZN14ExFatPartition12printVolInfoEP5Print+0x1c2>
 1a8:	f813 2f01 	ldrb.w	r2, [r3, #1]!
 1ac:	2a00      	cmp	r2, #0
 1ae:	d0f9      	beq.n	1a4 <_ZN14ExFatPartition12printVolInfoEP5Print+0x1a4>
 1b0:	6823      	ldr	r3, [r4, #0]
 1b2:	2210      	movs	r2, #16
 1b4:	49b1      	ldr	r1, [pc, #708]	; (47c <_ZN14ExFatPartition12printVolInfoEP5Print+0x47c>)
 1b6:	4620      	mov	r0, r4
 1b8:	685b      	ldr	r3, [r3, #4]
 1ba:	4798      	blx	r3
 1bc:	4620      	mov	r0, r4
 1be:	f7ff fffe 	bl	0 <_ZN5Print7printlnEv>
 1c2:	6823      	ldr	r3, [r4, #0]
 1c4:	2213      	movs	r2, #19
 1c6:	49ae      	ldr	r1, [pc, #696]	; (480 <_ZN14ExFatPartition12printVolInfoEP5Print+0x480>)
 1c8:	4620      	mov	r0, r4
 1ca:	685b      	ldr	r3, [r3, #4]
 1cc:	af04      	add	r7, sp, #16
 1ce:	4798      	blx	r3
 1d0:	2100      	movs	r1, #0
 1d2:	e9d5 3210 	ldrd	r3, r2, [r5, #64]	; 0x40
 1d6:	f88d 1010 	strb.w	r1, [sp, #16]
 1da:	f003 000f 	and.w	r0, r3, #15
 1de:	091b      	lsrs	r3, r3, #4
 1e0:	2809      	cmp	r0, #9
 1e2:	ea43 7302 	orr.w	r3, r3, r2, lsl #28
 1e6:	ea4f 1212 	mov.w	r2, r2, lsr #4
 1ea:	f100 0637 	add.w	r6, r0, #55	; 0x37
 1ee:	bf98      	it	ls
 1f0:	f100 0630 	addls.w	r6, r0, #48	; 0x30
 1f4:	ea53 0102 	orrs.w	r1, r3, r2
 1f8:	f807 6d01 	strb.w	r6, [r7, #-1]!
 1fc:	d1ed      	bne.n	1da <_ZN14ExFatPartition12printVolInfoEP5Print+0x1da>
 1fe:	4638      	mov	r0, r7
 200:	ae05      	add	r6, sp, #20
 202:	f7ff fffe 	bl	0 <strlen>
 206:	6823      	ldr	r3, [r4, #0]
 208:	4602      	mov	r2, r0
 20a:	4639      	mov	r1, r7
 20c:	685b      	ldr	r3, [r3, #4]
 20e:	4620      	mov	r0, r4
 210:	4798      	blx	r3
 212:	4620      	mov	r0, r4
 214:	f7ff fffe 	bl	0 <_ZN5Print7printlnEv>
 218:	6823      	ldr	r3, [r4, #0]
 21a:	499a      	ldr	r1, [pc, #616]	; (484 <_ZN14ExFatPartition12printVolInfoEP5Print+0x484>)
 21c:	220e      	movs	r2, #14
 21e:	685b      	ldr	r3, [r3, #4]
 220:	4620      	mov	r0, r4
 222:	4798      	blx	r3
 224:	2300      	movs	r3, #0
 226:	4998      	ldr	r1, [pc, #608]	; (488 <_ZN14ExFatPartition12printVolInfoEP5Print+0x488>)
 228:	f04f 3ccc 	mov.w	ip, #3435973836	; 0xcccccccc
 22c:	f8d5 e048 	ldr.w	lr, [r5, #72]	; 0x48
 230:	6cef      	ldr	r7, [r5, #76]	; 0x4c
 232:	f88d 3014 	strb.w	r3, [sp, #20]
 236:	eb1e 0307 	adds.w	r3, lr, r7
 23a:	4672      	mov	r2, lr
 23c:	4638      	mov	r0, r7
 23e:	f143 0300 	adc.w	r3, r3, #0
 242:	fba1 7e03 	umull	r7, lr, r1, r3
 246:	f02e 0703 	bic.w	r7, lr, #3
 24a:	eb07 079e 	add.w	r7, r7, lr, lsr #2
 24e:	1bdb      	subs	r3, r3, r7
 250:	1ad3      	subs	r3, r2, r3
 252:	f160 0800 	sbc.w	r8, r0, #0
 256:	fb0c f703 	mul.w	r7, ip, r3
 25a:	fba3 3e01 	umull	r3, lr, r3, r1
 25e:	2a0a      	cmp	r2, #10
 260:	fb01 7708 	mla	r7, r1, r8, r7
 264:	f102 0830 	add.w	r8, r2, #48	; 0x30
 268:	ea4f 0353 	mov.w	r3, r3, lsr #1
 26c:	f170 0000 	sbcs.w	r0, r0, #0
 270:	4477      	add	r7, lr
 272:	ea43 7ec7 	orr.w	lr, r3, r7, lsl #31
 276:	ea4f 0757 	mov.w	r7, r7, lsr #1
 27a:	eb0e 0383 	add.w	r3, lr, r3, lsl #2
 27e:	eba8 0343 	sub.w	r3, r8, r3, lsl #1
 282:	f806 3d01 	strb.w	r3, [r6, #-1]!
 286:	d2d6      	bcs.n	236 <_ZN14ExFatPartition12printVolInfoEP5Print+0x236>
 288:	4630      	mov	r0, r6
 28a:	f7ff fffe 	bl	0 <strlen>
 28e:	6823      	ldr	r3, [r4, #0]
 290:	4602      	mov	r2, r0
 292:	4631      	mov	r1, r6
 294:	685b      	ldr	r3, [r3, #4]
 296:	4620      	mov	r0, r4
 298:	4798      	blx	r3
 29a:	4620      	mov	r0, r4
 29c:	f7ff fffe 	bl	0 <_ZN5Print7printlnEv>
 2a0:	6823      	ldr	r3, [r4, #0]
 2a2:	220d      	movs	r2, #13
 2a4:	4979      	ldr	r1, [pc, #484]	; (48c <_ZN14ExFatPartition12printVolInfoEP5Print+0x48c>)
 2a6:	685b      	ldr	r3, [r3, #4]
 2a8:	4620      	mov	r0, r4
 2aa:	4798      	blx	r3
 2ac:	2300      	movs	r3, #0
 2ae:	2210      	movs	r2, #16
 2b0:	6d29      	ldr	r1, [r5, #80]	; 0x50
 2b2:	4620      	mov	r0, r4
 2b4:	f7ff fffe 	bl	0 <_ZN5Print11printNumberEmhh>
 2b8:	4620      	mov	r0, r4
 2ba:	f7ff fffe 	bl	0 <_ZN5Print7printlnEv>
 2be:	6823      	ldr	r3, [r4, #0]
 2c0:	220b      	movs	r2, #11
 2c2:	4973      	ldr	r1, [pc, #460]	; (490 <_ZN14ExFatPartition12printVolInfoEP5Print+0x490>)
 2c4:	685b      	ldr	r3, [r3, #4]
 2c6:	4620      	mov	r0, r4
 2c8:	4798      	blx	r3
 2ca:	2300      	movs	r3, #0
 2cc:	220a      	movs	r2, #10
 2ce:	6d69      	ldr	r1, [r5, #84]	; 0x54
 2d0:	4620      	mov	r0, r4
 2d2:	f7ff fffe 	bl	0 <_ZN5Print11printNumberEmhh>
 2d6:	4620      	mov	r0, r4
 2d8:	f7ff fffe 	bl	0 <_ZN5Print7printlnEv>
 2dc:	6823      	ldr	r3, [r4, #0]
 2de:	2215      	movs	r2, #21
 2e0:	496c      	ldr	r1, [pc, #432]	; (494 <_ZN14ExFatPartition12printVolInfoEP5Print+0x494>)
 2e2:	685b      	ldr	r3, [r3, #4]
 2e4:	4620      	mov	r0, r4
 2e6:	4798      	blx	r3
 2e8:	2300      	movs	r3, #0
 2ea:	2210      	movs	r2, #16
 2ec:	6da9      	ldr	r1, [r5, #88]	; 0x58
 2ee:	4620      	mov	r0, r4
 2f0:	f7ff fffe 	bl	0 <_ZN5Print11printNumberEmhh>
 2f4:	4620      	mov	r0, r4
 2f6:	f7ff fffe 	bl	0 <_ZN5Print7printlnEv>
 2fa:	6823      	ldr	r3, [r4, #0]
 2fc:	220e      	movs	r2, #14
 2fe:	4966      	ldr	r1, [pc, #408]	; (498 <_ZN14ExFatPartition12printVolInfoEP5Print+0x498>)
 300:	685b      	ldr	r3, [r3, #4]
 302:	4620      	mov	r0, r4
 304:	4798      	blx	r3
 306:	2300      	movs	r3, #0
 308:	220a      	movs	r2, #10
 30a:	6de9      	ldr	r1, [r5, #92]	; 0x5c
 30c:	4620      	mov	r0, r4
 30e:	f7ff fffe 	bl	0 <_ZN5Print11printNumberEmhh>
 312:	4620      	mov	r0, r4
 314:	f7ff fffe 	bl	0 <_ZN5Print7printlnEv>
 318:	6823      	ldr	r3, [r4, #0]
 31a:	2216      	movs	r2, #22
 31c:	495f      	ldr	r1, [pc, #380]	; (49c <_ZN14ExFatPartition12printVolInfoEP5Print+0x49c>)
 31e:	685b      	ldr	r3, [r3, #4]
 320:	4620      	mov	r0, r4
 322:	4798      	blx	r3
 324:	2300      	movs	r3, #0
 326:	220a      	movs	r2, #10
 328:	6e29      	ldr	r1, [r5, #96]	; 0x60
 32a:	4620      	mov	r0, r4
 32c:	f7ff fffe 	bl	0 <_ZN5Print11printNumberEmhh>
 330:	4620      	mov	r0, r4
 332:	f7ff fffe 	bl	0 <_ZN5Print7printlnEv>
 336:	6823      	ldr	r3, [r4, #0]
 338:	2216      	movs	r2, #22
 33a:	4959      	ldr	r1, [pc, #356]	; (4a0 <_ZN14ExFatPartition12printVolInfoEP5Print+0x4a0>)
 33c:	685b      	ldr	r3, [r3, #4]
 33e:	4620      	mov	r0, r4
 340:	4798      	blx	r3
 342:	2300      	movs	r3, #0
 344:	2210      	movs	r2, #16
 346:	6e69      	ldr	r1, [r5, #100]	; 0x64
 348:	4620      	mov	r0, r4
 34a:	f7ff fffe 	bl	0 <_ZN5Print11printNumberEmhh>
 34e:	4620      	mov	r0, r4
 350:	f7ff fffe 	bl	0 <_ZN5Print7printlnEv>
 354:	6823      	ldr	r3, [r4, #0]
 356:	2216      	movs	r2, #22
 358:	4952      	ldr	r1, [pc, #328]	; (4a4 <_ZN14ExFatPartition12printVolInfoEP5Print+0x4a4>)
 35a:	685b      	ldr	r3, [r3, #4]
 35c:	4620      	mov	r0, r4
 35e:	4798      	blx	r3
 360:	2300      	movs	r3, #0
 362:	2210      	movs	r2, #16
 364:	6ea9      	ldr	r1, [r5, #104]	; 0x68
 366:	4620      	mov	r0, r4
 368:	f7ff fffe 	bl	0 <_ZN5Print11printNumberEmhh>
 36c:	4620      	mov	r0, r4
 36e:	f7ff fffe 	bl	0 <_ZN5Print7printlnEv>
 372:	6823      	ldr	r3, [r4, #0]
 374:	220f      	movs	r2, #15
 376:	494c      	ldr	r1, [pc, #304]	; (4a8 <_ZN14ExFatPartition12printVolInfoEP5Print+0x4a8>)
 378:	685b      	ldr	r3, [r3, #4]
 37a:	4620      	mov	r0, r4
 37c:	4798      	blx	r3
 37e:	2300      	movs	r3, #0
 380:	2210      	movs	r2, #16
 382:	f8b5 106a 	ldrh.w	r1, [r5, #106]	; 0x6a
 386:	4620      	mov	r0, r4
 388:	f7ff fffe 	bl	0 <_ZN5Print11printNumberEmhh>
 38c:	4620      	mov	r0, r4
 38e:	f7ff fffe 	bl	0 <_ZN5Print7printlnEv>
 392:	6823      	ldr	r3, [r4, #0]
 394:	2215      	movs	r2, #21
 396:	4945      	ldr	r1, [pc, #276]	; (4ac <_ZN14ExFatPartition12printVolInfoEP5Print+0x4ac>)
 398:	685b      	ldr	r3, [r3, #4]
 39a:	4620      	mov	r0, r4
 39c:	4798      	blx	r3
 39e:	2300      	movs	r3, #0
 3a0:	220a      	movs	r2, #10
 3a2:	f895 106c 	ldrb.w	r1, [r5, #108]	; 0x6c
 3a6:	4620      	mov	r0, r4
 3a8:	f7ff fffe 	bl	0 <_ZN5Print11printNumberEmhh>
 3ac:	4620      	mov	r0, r4
 3ae:	f7ff fffe 	bl	0 <_ZN5Print7printlnEv>
 3b2:	6823      	ldr	r3, [r4, #0]
 3b4:	2218      	movs	r2, #24
 3b6:	493e      	ldr	r1, [pc, #248]	; (4b0 <_ZN14ExFatPartition12printVolInfoEP5Print+0x4b0>)
 3b8:	685b      	ldr	r3, [r3, #4]
 3ba:	4620      	mov	r0, r4
 3bc:	4798      	blx	r3
 3be:	2300      	movs	r3, #0
 3c0:	220a      	movs	r2, #10
 3c2:	f895 106d 	ldrb.w	r1, [r5, #109]	; 0x6d
 3c6:	4620      	mov	r0, r4
 3c8:	f7ff fffe 	bl	0 <_ZN5Print11printNumberEmhh>
 3cc:	4620      	mov	r0, r4
 3ce:	f7ff fffe 	bl	0 <_ZN5Print7printlnEv>
 3d2:	6823      	ldr	r3, [r4, #0]
 3d4:	220e      	movs	r2, #14
 3d6:	4937      	ldr	r1, [pc, #220]	; (4b4 <_ZN14ExFatPartition12printVolInfoEP5Print+0x4b4>)
 3d8:	685b      	ldr	r3, [r3, #4]
 3da:	4620      	mov	r0, r4
 3dc:	4798      	blx	r3
 3de:	2300      	movs	r3, #0
 3e0:	220a      	movs	r2, #10
 3e2:	f895 106e 	ldrb.w	r1, [r5, #110]	; 0x6e
 3e6:	4620      	mov	r0, r4
 3e8:	f7ff fffe 	bl	0 <_ZN5Print11printNumberEmhh>
 3ec:	4620      	mov	r0, r4
 3ee:	f7ff fffe 	bl	0 <_ZN5Print7printlnEv>
 3f2:	6823      	ldr	r3, [r4, #0]
 3f4:	220f      	movs	r2, #15
 3f6:	4930      	ldr	r1, [pc, #192]	; (4b8 <_ZN14ExFatPartition12printVolInfoEP5Print+0x4b8>)
 3f8:	685b      	ldr	r3, [r3, #4]
 3fa:	4620      	mov	r0, r4
 3fc:	4798      	blx	r3
 3fe:	2300      	movs	r3, #0
 400:	2210      	movs	r2, #16
 402:	f895 106f 	ldrb.w	r1, [r5, #111]	; 0x6f
 406:	4620      	mov	r0, r4
 408:	f7ff fffe 	bl	0 <_ZN5Print11printNumberEmhh>
 40c:	4620      	mov	r0, r4
 40e:	f7ff fffe 	bl	0 <_ZN5Print7printlnEv>
 412:	6823      	ldr	r3, [r4, #0]
 414:	220e      	movs	r2, #14
 416:	4929      	ldr	r1, [pc, #164]	; (4bc <_ZN14ExFatPartition12printVolInfoEP5Print+0x4bc>)
 418:	685b      	ldr	r3, [r3, #4]
 41a:	4620      	mov	r0, r4
 41c:	4798      	blx	r3
 41e:	2300      	movs	r3, #0
 420:	220a      	movs	r2, #10
 422:	f895 1070 	ldrb.w	r1, [r5, #112]	; 0x70
 426:	4620      	mov	r0, r4
 428:	f7ff fffe 	bl	0 <_ZN5Print11printNumberEmhh>
 42c:	4620      	mov	r0, r4
 42e:	f7ff fffe 	bl	0 <_ZN5Print7printlnEv>
 432:	2001      	movs	r0, #1
 434:	b007      	add	sp, #28
 436:	e8bd 8ff0 	ldmia.w	sp!, {r4, r5, r6, r7, r8, r9, sl, fp, pc}
 43a:	6823      	ldr	r3, [r4, #0]
 43c:	2212      	movs	r2, #18
 43e:	4920      	ldr	r1, [pc, #128]	; (4c0 <_ZN14ExFatPartition12printVolInfoEP5Print+0x4c0>)
 440:	4620      	mov	r0, r4
 442:	685b      	ldr	r3, [r3, #4]
 444:	4798      	blx	r3
 446:	4628      	mov	r0, r5
 448:	b007      	add	sp, #28
 44a:	e8bd 8ff0 	ldmia.w	sp!, {r4, r5, r6, r7, r8, r9, sl, fp, pc}
 44e:	220f      	movs	r2, #15
 450:	491c      	ldr	r1, [pc, #112]	; (4c4 <_ZN14ExFatPartition12printVolInfoEP5Print+0x4c4>)
 452:	685b      	ldr	r3, [r3, #4]
 454:	4620      	mov	r0, r4
 456:	4798      	blx	r3
 458:	4620      	mov	r0, r4
 45a:	f7ff fffe 	bl	0 <_ZN5Print7printlnEv>
 45e:	4628      	mov	r0, r5
 460:	e7e8      	b.n	434 <_ZN14ExFatPartition12printVolInfoEP5Print+0x434>
 462:	220f      	movs	r2, #15
 464:	4918      	ldr	r1, [pc, #96]	; (4c8 <_ZN14ExFatPartition12printVolInfoEP5Print+0x4c8>)
 466:	685b      	ldr	r3, [r3, #4]
 468:	4620      	mov	r0, r4
 46a:	4798      	blx	r3
 46c:	4620      	mov	r0, r4
 46e:	f7ff fffe 	bl	0 <_ZN5Print7printlnEv>
 472:	4640      	mov	r0, r8
 474:	b007      	add	sp, #28
 476:	e8bd 8ff0 	ldmia.w	sp!, {r4, r5, r6, r7, r8, r9, sl, fp, pc}
 47a:	bf00      	nop
 47c:	00000060 	.word	0x00000060
 480:	00000074 	.word	0x00000074
 484:	00000088 	.word	0x00000088
 488:	cccccccd 	.word	0xcccccccd
 48c:	00000098 	.word	0x00000098
 490:	000000a8 	.word	0x000000a8
 494:	000000b4 	.word	0x000000b4
 498:	000000cc 	.word	0x000000cc
 49c:	000000dc 	.word	0x000000dc
 4a0:	000000f4 	.word	0x000000f4
 4a4:	0000010c 	.word	0x0000010c
 4a8:	00000124 	.word	0x00000124
 4ac:	00000134 	.word	0x00000134
 4b0:	0000014c 	.word	0x0000014c
 4b4:	00000168 	.word	0x00000168
 4b8:	00000178 	.word	0x00000178
 4bc:	00000188 	.word	0x00000188
 4c0:	0000001c 	.word	0x0000001c
 4c4:	00000030 	.word	0x00000030
 4c8:	00000000 	.word	0x00000000
