
build/./libraries/SdFat/src/ExFatLib/ExFatVolume.cpp.o:     file format elf32-littlearm

SYMBOL TABLE:
00000000 l    df *ABS*	00000000 ExFatVolume.cpp
00000000 l    d  .text	00000000 .text
00000000 l    d  .data	00000000 .data
00000000 l    d  .bss	00000000 .bss
00000000 l    d  .text._ZN11ExFatVolume5chdirEPKc	00000000 .text._ZN11ExFatVolume5chdirEPKc
00000000 l    d  .bss._ZN11ExFatVolume5m_cwvE	00000000 .bss._ZN11ExFatVolume5m_cwvE
00000000 l    d  .comment	00000000 .comment
00000000 l    d  .ARM.attributes	00000000 .ARM.attributes
00000000 g     F .text._ZN11ExFatVolume5chdirEPKc	00000060 _ZN11ExFatVolume5chdirEPKc
00000000         *UND*	00000000 _ZN9ExFatFile4openEPS_PKci
00000000 g     O .bss._ZN11ExFatVolume5m_cwvE	00000004 _ZN11ExFatVolume5m_cwvE


Contents of section .text._ZN11ExFatVolume5chdirEPKc:
 0000 70b500f5 89648eb0 00230a46 68462146  p....d...#.FhF!F
 0010 0c93fff7 feff0546 d8b19df8 313013f0  .......F....10..
 0020 500319d0 ee46a446 0cae7446 0cf1100c  P....F.F..tF....
 0030 0ef1100e 0fccb442 4cf8100c 4cf80c1c  .......BL...L...
 0040 4cf8082c 4cf8043c efd1def8 0000ccf8  L..,L..<........
 0050 00002846 0eb070bd 1d462846 0eb070bd  ..(F..p..F(F..p.
Contents of section .comment:
 0000 00474343 3a202841 726d2047 4e552054  .GCC: (Arm GNU T
 0010 6f6f6c63 6861696e 2031312e 332e5265  oolchain 11.3.Re
 0020 6c312920 31312e33 2e312032 30323230  l1) 11.3.1 20220
 0030 37313200                             712.            
Contents of section .ARM.attributes:
 0000 41310000 00616561 62690001 27000000  A1...aeabi..'...
 0010 0537452d 4d00060d 074d0902 0a081204  .7E-M....M......
 0020 14011501 17031801 19011a01 1c011e02  ................
 0030 2201                                 ".              

Disassembly of section .text._ZN11ExFatVolume5chdirEPKc:

00000000 <_ZN11ExFatVolume5chdirEPKc>:
   0:	b570      	push	{r4, r5, r6, lr}
   2:	f500 6489 	add.w	r4, r0, #1096	; 0x448
   6:	b08e      	sub	sp, #56	; 0x38
   8:	2300      	movs	r3, #0
   a:	460a      	mov	r2, r1
   c:	4668      	mov	r0, sp
   e:	4621      	mov	r1, r4
  10:	930c      	str	r3, [sp, #48]	; 0x30
  12:	f7ff fffe 	bl	0 <_ZN9ExFatFile4openEPS_PKci>
  16:	4605      	mov	r5, r0
  18:	b1d8      	cbz	r0, 52 <_ZN11ExFatVolume5chdirEPKc+0x52>
  1a:	f89d 3031 	ldrb.w	r3, [sp, #49]	; 0x31
  1e:	f013 0350 	ands.w	r3, r3, #80	; 0x50
  22:	d019      	beq.n	58 <_ZN11ExFatVolume5chdirEPKc+0x58>
  24:	46ee      	mov	lr, sp
  26:	46a4      	mov	ip, r4
  28:	ae0c      	add	r6, sp, #48	; 0x30
  2a:	4674      	mov	r4, lr
  2c:	f10c 0c10 	add.w	ip, ip, #16
  30:	f10e 0e10 	add.w	lr, lr, #16
  34:	cc0f      	ldmia	r4!, {r0, r1, r2, r3}
  36:	42b4      	cmp	r4, r6
  38:	f84c 0c10 	str.w	r0, [ip, #-16]
  3c:	f84c 1c0c 	str.w	r1, [ip, #-12]
  40:	f84c 2c08 	str.w	r2, [ip, #-8]
  44:	f84c 3c04 	str.w	r3, [ip, #-4]
  48:	d1ef      	bne.n	2a <_ZN11ExFatVolume5chdirEPKc+0x2a>
  4a:	f8de 0000 	ldr.w	r0, [lr]
  4e:	f8cc 0000 	str.w	r0, [ip]
  52:	4628      	mov	r0, r5
  54:	b00e      	add	sp, #56	; 0x38
  56:	bd70      	pop	{r4, r5, r6, pc}
  58:	461d      	mov	r5, r3
  5a:	4628      	mov	r0, r5
  5c:	b00e      	add	sp, #56	; 0x38
  5e:	bd70      	pop	{r4, r5, r6, pc}
