
build/./libraries/SdFat/src/common/FsDateTime.cpp.o:     file format elf32-littlearm

SYMBOL TABLE:
00000000 l    df *ABS*	00000000 FsDateTime.cpp
00000000 l    d  .text	00000000 .text
00000000 l    d  .data	00000000 .data
00000000 l    d  .bss	00000000 .bss
00000000 l    d  .text._ZL12dateTimeMs10PtS_Ph	00000000 .text._ZL12dateTimeMs10PtS_Ph
00000000 l     F .text._ZL12dateTimeMs10PtS_Ph	00000014 _ZL12dateTimeMs10PtS_Ph
00000000 l    d  .text._Z13fsFmtTimeZonePca.part.0	00000000 .text._Z13fsFmtTimeZonePca.part.0
00000000 l     F .text._Z13fsFmtTimeZonePca.part.0	0000008a _Z13fsFmtTimeZonePca.part.0
00000000 l    d  .text._ZN10FsDateTime13clearCallbackEv	00000000 .text._ZN10FsDateTime13clearCallbackEv
00000000 l    d  .text._ZN10FsDateTime11setCallbackEPFvPtS0_E	00000000 .text._ZN10FsDateTime11setCallbackEPFvPtS0_E
00000000 l    d  .text._ZN10FsDateTime11setCallbackEPFvPtS0_PhE	00000000 .text._ZN10FsDateTime11setCallbackEPFvPtS0_PhE
00000000 l    d  .text._Z9fsFmtDatePct	00000000 .text._Z9fsFmtDatePct
00000000 l    d  .text._Z9fsFmtTimePct	00000000 .text._Z9fsFmtTimePct
00000000 l    d  .text._Z9fsFmtTimePcth	00000000 .text._Z9fsFmtTimePcth
00000000 l    d  .text._Z13fsFmtTimeZonePca	00000000 .text._Z13fsFmtTimeZonePca
00000000 l    d  .text._Z11fsPrintDateP5Printt	00000000 .text._Z11fsPrintDateP5Printt
00000000 l    d  .text._Z15fsPrintDateTimeP5Printtt	00000000 .text._Z15fsPrintDateTimeP5Printtt
00000000 l    d  .text._Z15fsPrintDateTimeP5Printm	00000000 .text._Z15fsPrintDateTimeP5Printm
00000000 l    d  .text._Z15fsPrintDateTimeP5Printmha	00000000 .text._Z15fsPrintDateTimeP5Printmha
00000000 l    d  .text._Z11fsPrintTimeP5Printt	00000000 .text._Z11fsPrintTimeP5Printt
00000000 l    d  .text._Z11fsPrintTimeP5Printth	00000000 .text._Z11fsPrintTimeP5Printth
00000000 l    d  .text._Z15fsPrintTimeZoneP5Printa	00000000 .text._Z15fsPrintTimeZoneP5Printa
00000000 l    d  .bss._ZN10FsDateTime8callbackE	00000000 .bss._ZN10FsDateTime8callbackE
00000000 l    d  .bss._ZN10FsDateTime9callback2E	00000000 .bss._ZN10FsDateTime9callback2E
00000000 l    d  .comment	00000000 .comment
00000000 l    d  .ARM.attributes	00000000 .ARM.attributes
00000000         *UND*	00000000 _Z9fmtBase10Pct
00000000 g     F .text._ZN10FsDateTime13clearCallbackEv	0000000c _ZN10FsDateTime13clearCallbackEv
00000000 g     F .text._ZN10FsDateTime11setCallbackEPFvPtS0_E	00000018 _ZN10FsDateTime11setCallbackEPFvPtS0_E
00000000 g     F .text._ZN10FsDateTime11setCallbackEPFvPtS0_PhE	0000000c _ZN10FsDateTime11setCallbackEPFvPtS0_PhE
00000000 g     F .text._Z9fsFmtDatePct	00000050 _Z9fsFmtDatePct
00000000 g     F .text._Z9fsFmtTimePct	00000038 _Z9fsFmtTimePct
00000000 g     F .text._Z9fsFmtTimePcth	00000034 _Z9fsFmtTimePcth
00000000 g     F .text._Z13fsFmtTimeZonePca	0000008a _Z13fsFmtTimeZonePca
00000000 g     F .text._Z11fsPrintDateP5Printt	00000036 _Z11fsPrintDateP5Printt
00000000 g     F .text._Z15fsPrintDateTimeP5Printtt	00000044 _Z15fsPrintDateTimeP5Printtt
00000000 g     F .text._Z15fsPrintDateTimeP5Printm	00000008 _Z15fsPrintDateTimeP5Printm
00000000 g     F .text._Z15fsPrintDateTimeP5Printmha	00000072 _Z15fsPrintDateTimeP5Printmha
00000000 g     F .text._Z11fsPrintTimeP5Printt	00000020 _Z11fsPrintTimeP5Printt
00000000 g     F .text._Z11fsPrintTimeP5Printth	00000048 _Z11fsPrintTimeP5Printth
00000000 g     F .text._Z15fsPrintTimeZoneP5Printa	0000002c _Z15fsPrintTimeZoneP5Printa
00000000 g     O .bss._ZN10FsDateTime9callback2E	00000004 _ZN10FsDateTime9callback2E
00000000 g     O .bss._ZN10FsDateTime8callbackE	00000004 _ZN10FsDateTime8callbackE


Contents of section .text._ZL12dateTimeMs10PtS_Ph:
 0000 4ff0000c 024b82f8 00c01b68 184700bf  O....K.....h.G..
 0010 00000000                             ....            
Contents of section .text._Z13fsFmtTimeZonePca.part.0:
 0000 4b0670b5 30d5cbb2 2d265b42 5cb26342  K.p.0...-&[B\.cB
 0010 04f00305 03f00303 58bf5d42 c5eb0515  ........X.]B....
 0020 adb22946 fff7feff 092d0346 02d83022  ..)F.....-.F..0"
 0030 431e1a70 211e4ff0 3a0203f1 ff30b8bf  C..p!.O.:....0..
 0040 033103f8 012c41f3 8704a4b2 2146fff7  .1...,A.....!F..
 0050 feff092c 034603d8 3022431e 00f8012c  ...,.F..0"C....,
 0060 581e03f8 016c02e0 11f07f04 0bd10346  X....l.........F
 0070 43245421 552200f8 014c00f8 021c03f8  C$T!U"...L......
 0080 032d1846 70bd2b26 c1e700bf           .-.Fp.+&....    
Contents of section .text._ZN10FsDateTime13clearCallbackEv:
 0000 014b0022 1a607047 00000000           .K.".`pG....    
Contents of section .text._ZN10FsDateTime11setCallbackEPFvPtS0_E:
 0000 024a0349 034b1160 18607047 00000000  .J.I.K.`.`pG....
 0010 00000000 00000000                    ........        
Contents of section .text._ZN10FsDateTime11setCallbackEPFvPtS0_PhE:
 0000 014b1860 704700bf 00000000           .K.`pG......    
Contents of section .text._Z9fsFmtDatePct:
 0000 38b501f0 1f050c46 2946fff7 feff092d  8......F)F.....-
 0010 034603d8 3022431e 00f8012c c4f34315  .F..0"C....,..C.
 0020 2d22581e 03f8012c 2946fff7 feff092d  -"X....,)F.....-
 0030 034602d8 3022431e 1a70610a 2d22581e  .F..0"C..pa.-"X.
 0040 03f8012c 01f2bc71 bde83840 fff7febf  ...,...q..8@....
Contents of section .text._Z9fsFmtTimePct:
 0000 38b5c1f3 45150c46 2946fff7 feff092d  8...E..F)F.....-
 0010 034603d8 3022431e 00f8012c e40a3a22  .F..0"C....,..:"
 0020 581e2146 03f8012c fff7feff 092c02d8  X.!F...,.....,..
 0030 30230138 037038bd                    0#.8.p8.        
Contents of section .text._Z9fsFmtTimePcth:
 0000 632a38b5 94bf0022 012201f0 1f030d46  c*8....".".....F
 0010 02eb4304 2146fff7 feff092c 02d83023  ..C.!F.....,..0#
 0020 01380370 3a232946 00f8013d bde83840  .8.p:#)F...=..8@
 0030 fff7febf                             ....            
Contents of section .text._Z13fsFmtTimeZonePca:
 0000 002900db 70474a06 cbb270b5 2cd55b42  .)..pGJ...p.,.[B
 0010 2d265cb2 634204f0 030503f0 030358bf  -&\.cB........X.
 0020 5d42c5eb 0515adb2 2946fff7 feff092d  ]B......)F.....-
 0030 034624d9 211e4ff0 3a0203f1 ff30b8bf  .F$.!.O.:....0..
 0040 033103f8 012c41f3 8704a4b2 2146fff7  .1...,A.....!F..
 0050 feff092c 034603d8 3022431e 00f8012c  ...,.F..0"C....,
 0060 581e03f8 016c02e0 11f07f04 0bd10338  X....l.........8
 0070 43215422 55238170 42700370 70bd3022  C!T"U#.pBp.pp.0"
 0080 431e1a70 d6e72b26 c4e700bf           C..p..+&....    
Contents of section .text._Z11fsPrintDateP5Printt:
 0000 30b50446 85b079b9 4ff02033 0df10e05  0..F..y.O. 3....
 0010 01a9adf8 0c30cde9 01332368 6a1a2046  .....0...3#hj. F
 0020 5b689847 05b030bd 0df10e05 2846fff7  [h.G..0.....(F..
 0030 feff0146 f1e700bf                    ...F....        
Contents of section .text._Z15fsPrintDateTimeP5Printtt:
 0000 30b50446 85b071b9 4ff02033 6946cde9  0..F..q.O. 3iF..
 0010 0033cde9 02332368 04aa2046 521a5b68  .3...3#h.. FR.[h
 0020 984705b0 30bd0d46 04a81146 fff7feff  .G..0..F...F....
 0030 20220346 29460138 03f8012c fff7feff   ".F)F.8...,....
 0040 0146e8e7                             .F..            
Contents of section .text._Z15fsPrintDateTimeP5Printm:
 0000 8ab2090c fff7febf                    ........        
Contents of section .text._Z15fsPrintDateTimeP5Printmha:
 0000 2de9f041 88b00d46 191e0646 0df11d07  -..A...F...F....
 0010 14463846 03d029db 20230138 0370632c  .F8F..). #.8.pc,
 0020 05f01f03 1ffa85f8 94bf0024 012404eb  ...........$.$..
 0030 43042146 fff7feff 092c02d8 30230138  C.!F.....,..0#.8
 0040 03703a23 414600f8 013dfff7 feff2023  .p:#AF...=.... #
 0050 290c0138 0370fff7 feff3368 01463046  )..8.p....3h.F0F
 0060 5b687a1a 984708b0 bde8f081 fff7feff  [hz..G..........
 0070 d2e700bf                             ....            
Contents of section .text._Z11fsPrintTimeP5Printt:
 0000 30b583b0 04460df1 05052846 fff7feff  0....F....(F....
 0010 23680146 20465b68 6a1a9847 03b030bd  #h.F F[hj..G..0.
Contents of section .text._Z11fsPrintTimeP5Printth:
 0000 632a01f0 1f0394bf 00220122 70b502eb  c*......."."p...
 0010 430482b0 05460e46 02a82146 fff7feff  C....F.F..!F....
 0020 092c02d8 30230138 03703a23 314600f8  .,..0#.8.p:#1F..
 0030 013dfff7 feff2b68 014602aa 5b682846  .=....+h.F..[h(F
 0040 521a9847 02b070bd                    R..G..p.        
Contents of section .text._Z15fsPrintTimeZoneP5Printa:
 0000 002930b5 044685b0 08db0022 0df10d01  .)0..F....."....
 0010 23682046 5b689847 05b030bd 0df10d05  #h F[h.G..0.....
 0020 2846fff7 feff0146 2a1af1e7           (F.....F*...    
Contents of section .comment:
 0000 00474343 3a202841 726d2047 4e552054  .GCC: (Arm GNU T
 0010 6f6f6c63 6861696e 2031312e 332e5265  oolchain 11.3.Re
 0020 6c312920 31312e33 2e312032 30323230  l1) 11.3.1 20220
 0030 37313200                             712.            
Contents of section .ARM.attributes:
 0000 41310000 00616561 62690001 27000000  A1...aeabi..'...
 0010 0537452d 4d00060d 074d0902 0a081204  .7E-M....M......
 0020 14011501 17031801 19011a01 1c011e02  ................
 0030 2201                                 ".              

Disassembly of section .text._ZL12dateTimeMs10PtS_Ph:

00000000 <_ZL12dateTimeMs10PtS_Ph>:
   0:	f04f 0c00 	mov.w	ip, #0
   4:	4b02      	ldr	r3, [pc, #8]	; (10 <_ZL12dateTimeMs10PtS_Ph+0x10>)
   6:	f882 c000 	strb.w	ip, [r2]
   a:	681b      	ldr	r3, [r3, #0]
   c:	4718      	bx	r3
   e:	bf00      	nop
  10:	00000000 	.word	0x00000000

Disassembly of section .text._Z13fsFmtTimeZonePca.part.0:

00000000 <_Z13fsFmtTimeZonePca.part.0>:
   0:	064b      	lsls	r3, r1, #25
   2:	b570      	push	{r4, r5, r6, lr}
   4:	d530      	bpl.n	68 <_Z13fsFmtTimeZonePca.part.0+0x68>
   6:	b2cb      	uxtb	r3, r1
   8:	262d      	movs	r6, #45	; 0x2d
   a:	425b      	negs	r3, r3
   c:	b25c      	sxtb	r4, r3
   e:	4263      	negs	r3, r4
  10:	f004 0503 	and.w	r5, r4, #3
  14:	f003 0303 	and.w	r3, r3, #3
  18:	bf58      	it	pl
  1a:	425d      	negpl	r5, r3
  1c:	ebc5 1505 	rsb	r5, r5, r5, lsl #4
  20:	b2ad      	uxth	r5, r5
  22:	4629      	mov	r1, r5
  24:	f7ff fffe 	bl	0 <_Z9fmtBase10Pct>
  28:	2d09      	cmp	r5, #9
  2a:	4603      	mov	r3, r0
  2c:	d802      	bhi.n	34 <_Z13fsFmtTimeZonePca.part.0+0x34>
  2e:	2230      	movs	r2, #48	; 0x30
  30:	1e43      	subs	r3, r0, #1
  32:	701a      	strb	r2, [r3, #0]
  34:	1e21      	subs	r1, r4, #0
  36:	f04f 023a 	mov.w	r2, #58	; 0x3a
  3a:	f103 30ff 	add.w	r0, r3, #4294967295	; 0xffffffff
  3e:	bfb8      	it	lt
  40:	3103      	addlt	r1, #3
  42:	f803 2c01 	strb.w	r2, [r3, #-1]
  46:	f341 0487 	sbfx	r4, r1, #2, #8
  4a:	b2a4      	uxth	r4, r4
  4c:	4621      	mov	r1, r4
  4e:	f7ff fffe 	bl	0 <_Z9fmtBase10Pct>
  52:	2c09      	cmp	r4, #9
  54:	4603      	mov	r3, r0
  56:	d803      	bhi.n	60 <_Z13fsFmtTimeZonePca.part.0+0x60>
  58:	2230      	movs	r2, #48	; 0x30
  5a:	1e43      	subs	r3, r0, #1
  5c:	f800 2c01 	strb.w	r2, [r0, #-1]
  60:	1e58      	subs	r0, r3, #1
  62:	f803 6c01 	strb.w	r6, [r3, #-1]
  66:	e002      	b.n	6e <_Z13fsFmtTimeZonePca.part.0+0x6e>
  68:	f011 047f 	ands.w	r4, r1, #127	; 0x7f
  6c:	d10b      	bne.n	86 <_Z13fsFmtTimeZonePca.part.0+0x86>
  6e:	4603      	mov	r3, r0
  70:	2443      	movs	r4, #67	; 0x43
  72:	2154      	movs	r1, #84	; 0x54
  74:	2255      	movs	r2, #85	; 0x55
  76:	f800 4c01 	strb.w	r4, [r0, #-1]
  7a:	f800 1c02 	strb.w	r1, [r0, #-2]
  7e:	f803 2d03 	strb.w	r2, [r3, #-3]!
  82:	4618      	mov	r0, r3
  84:	bd70      	pop	{r4, r5, r6, pc}
  86:	262b      	movs	r6, #43	; 0x2b
  88:	e7c1      	b.n	e <_Z13fsFmtTimeZonePca.part.0+0xe>
  8a:	bf00      	nop

Disassembly of section .text._ZN10FsDateTime13clearCallbackEv:

00000000 <_ZN10FsDateTime13clearCallbackEv>:
   0:	4b01      	ldr	r3, [pc, #4]	; (8 <_ZN10FsDateTime13clearCallbackEv+0x8>)
   2:	2200      	movs	r2, #0
   4:	601a      	str	r2, [r3, #0]
   6:	4770      	bx	lr
   8:	00000000 	.word	0x00000000

Disassembly of section .text._ZN10FsDateTime11setCallbackEPFvPtS0_E:

00000000 <_ZN10FsDateTime11setCallbackEPFvPtS0_E>:
   0:	4a02      	ldr	r2, [pc, #8]	; (c <_ZN10FsDateTime11setCallbackEPFvPtS0_E+0xc>)
   2:	4903      	ldr	r1, [pc, #12]	; (10 <_ZN10FsDateTime11setCallbackEPFvPtS0_E+0x10>)
   4:	4b03      	ldr	r3, [pc, #12]	; (14 <_ZN10FsDateTime11setCallbackEPFvPtS0_E+0x14>)
   6:	6011      	str	r1, [r2, #0]
   8:	6018      	str	r0, [r3, #0]
   a:	4770      	bx	lr
   c:	00000000 	.word	0x00000000
  10:	00000000 	.word	0x00000000
  14:	00000000 	.word	0x00000000

Disassembly of section .text._ZN10FsDateTime11setCallbackEPFvPtS0_PhE:

00000000 <_ZN10FsDateTime11setCallbackEPFvPtS0_PhE>:
   0:	4b01      	ldr	r3, [pc, #4]	; (8 <_ZN10FsDateTime11setCallbackEPFvPtS0_PhE+0x8>)
   2:	6018      	str	r0, [r3, #0]
   4:	4770      	bx	lr
   6:	bf00      	nop
   8:	00000000 	.word	0x00000000

Disassembly of section .text._Z9fsFmtDatePct:

00000000 <_Z9fsFmtDatePct>:
   0:	b538      	push	{r3, r4, r5, lr}
   2:	f001 051f 	and.w	r5, r1, #31
   6:	460c      	mov	r4, r1
   8:	4629      	mov	r1, r5
   a:	f7ff fffe 	bl	0 <_Z9fmtBase10Pct>
   e:	2d09      	cmp	r5, #9
  10:	4603      	mov	r3, r0
  12:	d803      	bhi.n	1c <_Z9fsFmtDatePct+0x1c>
  14:	2230      	movs	r2, #48	; 0x30
  16:	1e43      	subs	r3, r0, #1
  18:	f800 2c01 	strb.w	r2, [r0, #-1]
  1c:	f3c4 1543 	ubfx	r5, r4, #5, #4
  20:	222d      	movs	r2, #45	; 0x2d
  22:	1e58      	subs	r0, r3, #1
  24:	f803 2c01 	strb.w	r2, [r3, #-1]
  28:	4629      	mov	r1, r5
  2a:	f7ff fffe 	bl	0 <_Z9fmtBase10Pct>
  2e:	2d09      	cmp	r5, #9
  30:	4603      	mov	r3, r0
  32:	d802      	bhi.n	3a <_Z9fsFmtDatePct+0x3a>
  34:	2230      	movs	r2, #48	; 0x30
  36:	1e43      	subs	r3, r0, #1
  38:	701a      	strb	r2, [r3, #0]
  3a:	0a61      	lsrs	r1, r4, #9
  3c:	222d      	movs	r2, #45	; 0x2d
  3e:	1e58      	subs	r0, r3, #1
  40:	f803 2c01 	strb.w	r2, [r3, #-1]
  44:	f201 71bc 	addw	r1, r1, #1980	; 0x7bc
  48:	e8bd 4038 	ldmia.w	sp!, {r3, r4, r5, lr}
  4c:	f7ff bffe 	b.w	0 <_Z9fmtBase10Pct>

Disassembly of section .text._Z9fsFmtTimePct:

00000000 <_Z9fsFmtTimePct>:
   0:	b538      	push	{r3, r4, r5, lr}
   2:	f3c1 1545 	ubfx	r5, r1, #5, #6
   6:	460c      	mov	r4, r1
   8:	4629      	mov	r1, r5
   a:	f7ff fffe 	bl	0 <_Z9fmtBase10Pct>
   e:	2d09      	cmp	r5, #9
  10:	4603      	mov	r3, r0
  12:	d803      	bhi.n	1c <_Z9fsFmtTimePct+0x1c>
  14:	2230      	movs	r2, #48	; 0x30
  16:	1e43      	subs	r3, r0, #1
  18:	f800 2c01 	strb.w	r2, [r0, #-1]
  1c:	0ae4      	lsrs	r4, r4, #11
  1e:	223a      	movs	r2, #58	; 0x3a
  20:	1e58      	subs	r0, r3, #1
  22:	4621      	mov	r1, r4
  24:	f803 2c01 	strb.w	r2, [r3, #-1]
  28:	f7ff fffe 	bl	0 <_Z9fmtBase10Pct>
  2c:	2c09      	cmp	r4, #9
  2e:	d802      	bhi.n	36 <_Z9fsFmtTimePct+0x36>
  30:	2330      	movs	r3, #48	; 0x30
  32:	3801      	subs	r0, #1
  34:	7003      	strb	r3, [r0, #0]
  36:	bd38      	pop	{r3, r4, r5, pc}

Disassembly of section .text._Z9fsFmtTimePcth:

00000000 <_Z9fsFmtTimePcth>:
   0:	2a63      	cmp	r2, #99	; 0x63
   2:	b538      	push	{r3, r4, r5, lr}
   4:	bf94      	ite	ls
   6:	2200      	movls	r2, #0
   8:	2201      	movhi	r2, #1
   a:	f001 031f 	and.w	r3, r1, #31
   e:	460d      	mov	r5, r1
  10:	eb02 0443 	add.w	r4, r2, r3, lsl #1
  14:	4621      	mov	r1, r4
  16:	f7ff fffe 	bl	0 <_Z9fmtBase10Pct>
  1a:	2c09      	cmp	r4, #9
  1c:	d802      	bhi.n	24 <_Z9fsFmtTimePcth+0x24>
  1e:	2330      	movs	r3, #48	; 0x30
  20:	3801      	subs	r0, #1
  22:	7003      	strb	r3, [r0, #0]
  24:	233a      	movs	r3, #58	; 0x3a
  26:	4629      	mov	r1, r5
  28:	f800 3d01 	strb.w	r3, [r0, #-1]!
  2c:	e8bd 4038 	ldmia.w	sp!, {r3, r4, r5, lr}
  30:	f7ff bffe 	b.w	0 <_Z9fsFmtTimePcth>

Disassembly of section .text._Z13fsFmtTimeZonePca:

00000000 <_Z13fsFmtTimeZonePca>:
   0:	2900      	cmp	r1, #0
   2:	db00      	blt.n	6 <_Z13fsFmtTimeZonePca+0x6>
   4:	4770      	bx	lr
   6:	064a      	lsls	r2, r1, #25
   8:	b2cb      	uxtb	r3, r1
   a:	b570      	push	{r4, r5, r6, lr}
   c:	d52c      	bpl.n	68 <_Z13fsFmtTimeZonePca+0x68>
   e:	425b      	negs	r3, r3
  10:	262d      	movs	r6, #45	; 0x2d
  12:	b25c      	sxtb	r4, r3
  14:	4263      	negs	r3, r4
  16:	f004 0503 	and.w	r5, r4, #3
  1a:	f003 0303 	and.w	r3, r3, #3
  1e:	bf58      	it	pl
  20:	425d      	negpl	r5, r3
  22:	ebc5 1505 	rsb	r5, r5, r5, lsl #4
  26:	b2ad      	uxth	r5, r5
  28:	4629      	mov	r1, r5
  2a:	f7ff fffe 	bl	0 <_Z9fmtBase10Pct>
  2e:	2d09      	cmp	r5, #9
  30:	4603      	mov	r3, r0
  32:	d924      	bls.n	7e <_Z13fsFmtTimeZonePca+0x7e>
  34:	1e21      	subs	r1, r4, #0
  36:	f04f 023a 	mov.w	r2, #58	; 0x3a
  3a:	f103 30ff 	add.w	r0, r3, #4294967295	; 0xffffffff
  3e:	bfb8      	it	lt
  40:	3103      	addlt	r1, #3
  42:	f803 2c01 	strb.w	r2, [r3, #-1]
  46:	f341 0487 	sbfx	r4, r1, #2, #8
  4a:	b2a4      	uxth	r4, r4
  4c:	4621      	mov	r1, r4
  4e:	f7ff fffe 	bl	0 <_Z9fmtBase10Pct>
  52:	2c09      	cmp	r4, #9
  54:	4603      	mov	r3, r0
  56:	d803      	bhi.n	60 <_Z13fsFmtTimeZonePca+0x60>
  58:	2230      	movs	r2, #48	; 0x30
  5a:	1e43      	subs	r3, r0, #1
  5c:	f800 2c01 	strb.w	r2, [r0, #-1]
  60:	1e58      	subs	r0, r3, #1
  62:	f803 6c01 	strb.w	r6, [r3, #-1]
  66:	e002      	b.n	6e <_Z13fsFmtTimeZonePca+0x6e>
  68:	f011 047f 	ands.w	r4, r1, #127	; 0x7f
  6c:	d10b      	bne.n	86 <_Z13fsFmtTimeZonePca+0x86>
  6e:	3803      	subs	r0, #3
  70:	2143      	movs	r1, #67	; 0x43
  72:	2254      	movs	r2, #84	; 0x54
  74:	2355      	movs	r3, #85	; 0x55
  76:	7081      	strb	r1, [r0, #2]
  78:	7042      	strb	r2, [r0, #1]
  7a:	7003      	strb	r3, [r0, #0]
  7c:	bd70      	pop	{r4, r5, r6, pc}
  7e:	2230      	movs	r2, #48	; 0x30
  80:	1e43      	subs	r3, r0, #1
  82:	701a      	strb	r2, [r3, #0]
  84:	e7d6      	b.n	34 <_Z13fsFmtTimeZonePca+0x34>
  86:	262b      	movs	r6, #43	; 0x2b
  88:	e7c4      	b.n	14 <_Z13fsFmtTimeZonePca+0x14>
  8a:	bf00      	nop

Disassembly of section .text._Z11fsPrintDateP5Printt:

00000000 <_Z11fsPrintDateP5Printt>:
   0:	b530      	push	{r4, r5, lr}
   2:	4604      	mov	r4, r0
   4:	b085      	sub	sp, #20
   6:	b979      	cbnz	r1, 28 <_Z11fsPrintDateP5Printt+0x28>
   8:	f04f 3320 	mov.w	r3, #538976288	; 0x20202020
   c:	f10d 050e 	add.w	r5, sp, #14
  10:	a901      	add	r1, sp, #4
  12:	f8ad 300c 	strh.w	r3, [sp, #12]
  16:	e9cd 3301 	strd	r3, r3, [sp, #4]
  1a:	6823      	ldr	r3, [r4, #0]
  1c:	1a6a      	subs	r2, r5, r1
  1e:	4620      	mov	r0, r4
  20:	685b      	ldr	r3, [r3, #4]
  22:	4798      	blx	r3
  24:	b005      	add	sp, #20
  26:	bd30      	pop	{r4, r5, pc}
  28:	f10d 050e 	add.w	r5, sp, #14
  2c:	4628      	mov	r0, r5
  2e:	f7ff fffe 	bl	0 <_Z11fsPrintDateP5Printt>
  32:	4601      	mov	r1, r0
  34:	e7f1      	b.n	1a <_Z11fsPrintDateP5Printt+0x1a>
  36:	bf00      	nop

Disassembly of section .text._Z15fsPrintDateTimeP5Printtt:

00000000 <_Z15fsPrintDateTimeP5Printtt>:
   0:	b530      	push	{r4, r5, lr}
   2:	4604      	mov	r4, r0
   4:	b085      	sub	sp, #20
   6:	b971      	cbnz	r1, 26 <_Z15fsPrintDateTimeP5Printtt+0x26>
   8:	f04f 3320 	mov.w	r3, #538976288	; 0x20202020
   c:	4669      	mov	r1, sp
   e:	e9cd 3300 	strd	r3, r3, [sp]
  12:	e9cd 3302 	strd	r3, r3, [sp, #8]
  16:	6823      	ldr	r3, [r4, #0]
  18:	aa04      	add	r2, sp, #16
  1a:	4620      	mov	r0, r4
  1c:	1a52      	subs	r2, r2, r1
  1e:	685b      	ldr	r3, [r3, #4]
  20:	4798      	blx	r3
  22:	b005      	add	sp, #20
  24:	bd30      	pop	{r4, r5, pc}
  26:	460d      	mov	r5, r1
  28:	a804      	add	r0, sp, #16
  2a:	4611      	mov	r1, r2
  2c:	f7ff fffe 	bl	0 <_Z15fsPrintDateTimeP5Printtt>
  30:	2220      	movs	r2, #32
  32:	4603      	mov	r3, r0
  34:	4629      	mov	r1, r5
  36:	3801      	subs	r0, #1
  38:	f803 2c01 	strb.w	r2, [r3, #-1]
  3c:	f7ff fffe 	bl	0 <_Z15fsPrintDateTimeP5Printtt>
  40:	4601      	mov	r1, r0
  42:	e7e8      	b.n	16 <_Z15fsPrintDateTimeP5Printtt+0x16>

Disassembly of section .text._Z15fsPrintDateTimeP5Printm:

00000000 <_Z15fsPrintDateTimeP5Printm>:
   0:	b28a      	uxth	r2, r1
   2:	0c09      	lsrs	r1, r1, #16
   4:	f7ff bffe 	b.w	0 <_Z15fsPrintDateTimeP5Printm>

Disassembly of section .text._Z15fsPrintDateTimeP5Printmha:

00000000 <_Z15fsPrintDateTimeP5Printmha>:
   0:	e92d 41f0 	stmdb	sp!, {r4, r5, r6, r7, r8, lr}
   4:	b088      	sub	sp, #32
   6:	460d      	mov	r5, r1
   8:	1e19      	subs	r1, r3, #0
   a:	4606      	mov	r6, r0
   c:	f10d 071d 	add.w	r7, sp, #29
  10:	4614      	mov	r4, r2
  12:	4638      	mov	r0, r7
  14:	d003      	beq.n	1e <_Z15fsPrintDateTimeP5Printmha+0x1e>
  16:	db29      	blt.n	6c <_Z15fsPrintDateTimeP5Printmha+0x6c>
  18:	2320      	movs	r3, #32
  1a:	3801      	subs	r0, #1
  1c:	7003      	strb	r3, [r0, #0]
  1e:	2c63      	cmp	r4, #99	; 0x63
  20:	f005 031f 	and.w	r3, r5, #31
  24:	fa1f f885 	uxth.w	r8, r5
  28:	bf94      	ite	ls
  2a:	2400      	movls	r4, #0
  2c:	2401      	movhi	r4, #1
  2e:	eb04 0443 	add.w	r4, r4, r3, lsl #1
  32:	4621      	mov	r1, r4
  34:	f7ff fffe 	bl	0 <_Z9fmtBase10Pct>
  38:	2c09      	cmp	r4, #9
  3a:	d802      	bhi.n	42 <_Z15fsPrintDateTimeP5Printmha+0x42>
  3c:	2330      	movs	r3, #48	; 0x30
  3e:	3801      	subs	r0, #1
  40:	7003      	strb	r3, [r0, #0]
  42:	233a      	movs	r3, #58	; 0x3a
  44:	4641      	mov	r1, r8
  46:	f800 3d01 	strb.w	r3, [r0, #-1]!
  4a:	f7ff fffe 	bl	0 <_Z15fsPrintDateTimeP5Printmha>
  4e:	2320      	movs	r3, #32
  50:	0c29      	lsrs	r1, r5, #16
  52:	3801      	subs	r0, #1
  54:	7003      	strb	r3, [r0, #0]
  56:	f7ff fffe 	bl	0 <_Z15fsPrintDateTimeP5Printmha>
  5a:	6833      	ldr	r3, [r6, #0]
  5c:	4601      	mov	r1, r0
  5e:	4630      	mov	r0, r6
  60:	685b      	ldr	r3, [r3, #4]
  62:	1a7a      	subs	r2, r7, r1
  64:	4798      	blx	r3
  66:	b008      	add	sp, #32
  68:	e8bd 81f0 	ldmia.w	sp!, {r4, r5, r6, r7, r8, pc}
  6c:	f7ff fffe 	bl	0 <_Z15fsPrintDateTimeP5Printmha>
  70:	e7d2      	b.n	18 <_Z15fsPrintDateTimeP5Printmha+0x18>
  72:	bf00      	nop

Disassembly of section .text._Z11fsPrintTimeP5Printt:

00000000 <_Z11fsPrintTimeP5Printt>:
   0:	b530      	push	{r4, r5, lr}
   2:	b083      	sub	sp, #12
   4:	4604      	mov	r4, r0
   6:	f10d 0505 	add.w	r5, sp, #5
   a:	4628      	mov	r0, r5
   c:	f7ff fffe 	bl	0 <_Z11fsPrintTimeP5Printt>
  10:	6823      	ldr	r3, [r4, #0]
  12:	4601      	mov	r1, r0
  14:	4620      	mov	r0, r4
  16:	685b      	ldr	r3, [r3, #4]
  18:	1a6a      	subs	r2, r5, r1
  1a:	4798      	blx	r3
  1c:	b003      	add	sp, #12
  1e:	bd30      	pop	{r4, r5, pc}

Disassembly of section .text._Z11fsPrintTimeP5Printth:

00000000 <_Z11fsPrintTimeP5Printth>:
   0:	2a63      	cmp	r2, #99	; 0x63
   2:	f001 031f 	and.w	r3, r1, #31
   6:	bf94      	ite	ls
   8:	2200      	movls	r2, #0
   a:	2201      	movhi	r2, #1
   c:	b570      	push	{r4, r5, r6, lr}
   e:	eb02 0443 	add.w	r4, r2, r3, lsl #1
  12:	b082      	sub	sp, #8
  14:	4605      	mov	r5, r0
  16:	460e      	mov	r6, r1
  18:	a802      	add	r0, sp, #8
  1a:	4621      	mov	r1, r4
  1c:	f7ff fffe 	bl	0 <_Z9fmtBase10Pct>
  20:	2c09      	cmp	r4, #9
  22:	d802      	bhi.n	2a <_Z11fsPrintTimeP5Printth+0x2a>
  24:	2330      	movs	r3, #48	; 0x30
  26:	3801      	subs	r0, #1
  28:	7003      	strb	r3, [r0, #0]
  2a:	233a      	movs	r3, #58	; 0x3a
  2c:	4631      	mov	r1, r6
  2e:	f800 3d01 	strb.w	r3, [r0, #-1]!
  32:	f7ff fffe 	bl	0 <_Z11fsPrintTimeP5Printth>
  36:	682b      	ldr	r3, [r5, #0]
  38:	4601      	mov	r1, r0
  3a:	aa02      	add	r2, sp, #8
  3c:	685b      	ldr	r3, [r3, #4]
  3e:	4628      	mov	r0, r5
  40:	1a52      	subs	r2, r2, r1
  42:	4798      	blx	r3
  44:	b002      	add	sp, #8
  46:	bd70      	pop	{r4, r5, r6, pc}

Disassembly of section .text._Z15fsPrintTimeZoneP5Printa:

00000000 <_Z15fsPrintTimeZoneP5Printa>:
   0:	2900      	cmp	r1, #0
   2:	b530      	push	{r4, r5, lr}
   4:	4604      	mov	r4, r0
   6:	b085      	sub	sp, #20
   8:	db08      	blt.n	1c <_Z15fsPrintTimeZoneP5Printa+0x1c>
   a:	2200      	movs	r2, #0
   c:	f10d 010d 	add.w	r1, sp, #13
  10:	6823      	ldr	r3, [r4, #0]
  12:	4620      	mov	r0, r4
  14:	685b      	ldr	r3, [r3, #4]
  16:	4798      	blx	r3
  18:	b005      	add	sp, #20
  1a:	bd30      	pop	{r4, r5, pc}
  1c:	f10d 050d 	add.w	r5, sp, #13
  20:	4628      	mov	r0, r5
  22:	f7ff fffe 	bl	0 <_Z15fsPrintTimeZoneP5Printa>
  26:	4601      	mov	r1, r0
  28:	1a2a      	subs	r2, r5, r0
  2a:	e7f1      	b.n	10 <_Z15fsPrintTimeZoneP5Printa+0x10>
