
build/./libraries/QNEthernet/src/security/RandomDevice.cpp.o:     file format elf32-littlearm

SYMBOL TABLE:
00000000 l    df *ABS*	00000000 RandomDevice.cpp
00000000 l    d  .text	00000000 .text
00000000 l    d  .data	00000000 .data
00000000 l    d  .bss	00000000 .bss
00000000 l    d  .text._ZN10StaticInitIN9qindesign8security12RandomDeviceEED2Ev	00000000 .text._ZN10StaticInitIN9qindesign8security12RandomDeviceEED2Ev
00000000 l    d  .text._ZN9qindesign8security12RandomDevice8instanceEv	00000000 .text._ZN9qindesign8security12RandomDevice8instanceEv
00000000 l    d  .flashmem	00000000 .flashmem
00000000 l    d  .text._ZN9qindesign8security12RandomDeviceclEv	00000000 .text._ZN9qindesign8security12RandomDeviceclEv
00000000 l    d  .text.startup._GLOBAL__sub_I__ZN10StaticInitIN9qindesign8security12RandomDeviceEE13nifty_counterE	00000000 .text.startup._GLOBAL__sub_I__ZN10StaticInitIN9qindesign8security12RandomDeviceEE13nifty_counterE
00000000 l     F .text.startup._GLOBAL__sub_I__ZN10StaticInitIN9qindesign8security12RandomDeviceEE13nifty_counterE	00000048 _GLOBAL__sub_I__ZN10StaticInitIN9qindesign8security12RandomDeviceEE13nifty_counterE
00000000 l    d  .init_array	00000000 .init_array
00000000 l    d  .bss._ZN10StaticInitIN9qindesign8security12RandomDeviceEE13nifty_counterE	00000000 .bss._ZN10StaticInitIN9qindesign8security12RandomDeviceEE13nifty_counterE
00000000 l    d  .bss._ZN10StaticInitIN9qindesign8security12RandomDeviceEE2pTE	00000000 .bss._ZN10StaticInitIN9qindesign8security12RandomDeviceEE2pTE
00000000 l    d  .bss._ZN10StaticInitIN9qindesign8security12RandomDeviceEE3bufE	00000000 .bss._ZN10StaticInitIN9qindesign8security12RandomDeviceEE3bufE
00000000 l    d  .bss._ZN9qindesign8security12randomDeviceE	00000000 .bss._ZN9qindesign8security12randomDeviceE
00000000 l    d  .bss._ZN9qindesign8securityL16randomDeviceInitE	00000000 .bss._ZN9qindesign8securityL16randomDeviceInitE
00000000 l     O .bss._ZN9qindesign8securityL16randomDeviceInitE	00000001 _ZN9qindesign8securityL16randomDeviceInitE
00000000 l       .group	00000000 _ZN10StaticInitIN9qindesign8security12RandomDeviceEED5Ev
00000000 l    d  .comment	00000000 .comment
00000000 l    d  .ARM.attributes	00000000 .ARM.attributes
00000000 l    d  .group	00000000 .group
00000000  w    F .text._ZN10StaticInitIN9qindesign8security12RandomDeviceEED2Ev	00000018 _ZN10StaticInitIN9qindesign8security12RandomDeviceEED2Ev
00000000  w    F .text._ZN10StaticInitIN9qindesign8security12RandomDeviceEED2Ev	00000018 _ZN10StaticInitIN9qindesign8security12RandomDeviceEED1Ev
00000000 g     F .text._ZN9qindesign8security12RandomDevice8instanceEv	0000000c _ZN9qindesign8security12RandomDevice8instanceEv
00000000 g     F .flashmem	00000012 _ZN9qindesign8security12RandomDeviceC2Ev
00000000         *UND*	00000000 qnethernet_hal_init_rand
00000000 g     F .flashmem	00000012 _ZN9qindesign8security12RandomDeviceC1Ev
00000000 g     F .text._ZN9qindesign8security12RandomDeviceclEv	00000004 _ZN9qindesign8security12RandomDeviceclEv
00000000         *UND*	00000000 qnethernet_hal_rand
00000000         *UND*	00000000 __aeabi_atexit
00000000         *UND*	00000000 .hidden __dso_handle
00000000 g     O .bss._ZN9qindesign8security12randomDeviceE	00000004 _ZN9qindesign8security12randomDeviceE
00000000 g     O .bss._ZN10StaticInitIN9qindesign8security12RandomDeviceEE2pTE	00000004 _ZN10StaticInitIN9qindesign8security12RandomDeviceEE2pTE
00000000 g     O .bss._ZN10StaticInitIN9qindesign8security12RandomDeviceEE3bufE	00000001 _ZN10StaticInitIN9qindesign8security12RandomDeviceEE3bufE
00000000 g     O .bss._ZN10StaticInitIN9qindesign8security12RandomDeviceEE13nifty_counterE	00000004 _ZN10StaticInitIN9qindesign8security12RandomDeviceEE13nifty_counterE


Contents of section .group:
 0000 01000000 05000000 06000000           ............    
Contents of section .text._ZN10StaticInitIN9qindesign8security12RandomDeviceEED2Ev:
 0000 034a1368 013b1360 0bb9024a 13607047  .J.h.;.`...J.`pG
 0010 00000000 00000000                    ........        
Contents of section .text._ZN9qindesign8security12RandomDevice8instanceEv:
 0000 014b1868 704700bf 00000000           .K.hpG......    
Contents of section .flashmem:
 0000 00b583b0 0190fff7 feff0198 03b05df8  ..............].
 0010 04fb00bf                             ....            
Contents of section .text._ZN9qindesign8security12RandomDeviceclEv:
 0000 fff7febf                             ....            
Contents of section .text.startup._GLOBAL__sub_I__ZN10StaticInitIN9qindesign8security12RandomDeviceEE13nifty_counterE:
 0000 0a4a1368 591c10b5 11604bb1 084c094a  .J.hY....`K..L.J
 0010 09490a48 fff7feff 094b2268 1a6010bd  .I.H.....K"h.`..
 0020 fff7feff 024c074b 2360f0e7 00000000  .....L.K#`......
 0030 00000000 00000000 00000000 00000000  ................
 0040 00000000 00000000                    ........        
Contents of section .init_array:
 0000 00000000                             ....            
Contents of section .comment:
 0000 00474343 3a202841 726d2047 4e552054  .GCC: (Arm GNU T
 0010 6f6f6c63 6861696e 2031312e 332e5265  oolchain 11.3.Re
 0020 6c312920 31312e33 2e312032 30323230  l1) 11.3.1 20220
 0030 37313200                             712.            
Contents of section .ARM.attributes:
 0000 41310000 00616561 62690001 27000000  A1...aeabi..'...
 0010 0537452d 4d00060d 074d0902 0a081204  .7E-M....M......
 0020 14011501 17031801 19011a01 1c011e02  ................
 0030 2201                                 ".              

Disassembly of section .text._ZN10StaticInitIN9qindesign8security12RandomDeviceEED2Ev:

00000000 <_ZN10StaticInitIN9qindesign8security12RandomDeviceEED1Ev>:
   0:	4a03      	ldr	r2, [pc, #12]	; (10 <_ZN10StaticInitIN9qindesign8security12RandomDeviceEED1Ev+0x10>)
   2:	6813      	ldr	r3, [r2, #0]
   4:	3b01      	subs	r3, #1
   6:	6013      	str	r3, [r2, #0]
   8:	b90b      	cbnz	r3, e <_ZN10StaticInitIN9qindesign8security12RandomDeviceEED1Ev+0xe>
   a:	4a02      	ldr	r2, [pc, #8]	; (14 <_ZN10StaticInitIN9qindesign8security12RandomDeviceEED1Ev+0x14>)
   c:	6013      	str	r3, [r2, #0]
   e:	4770      	bx	lr
  10:	00000000 	.word	0x00000000
  14:	00000000 	.word	0x00000000

Disassembly of section .text._ZN9qindesign8security12RandomDevice8instanceEv:

00000000 <_ZN9qindesign8security12RandomDevice8instanceEv>:
   0:	4b01      	ldr	r3, [pc, #4]	; (8 <_ZN9qindesign8security12RandomDevice8instanceEv+0x8>)
   2:	6818      	ldr	r0, [r3, #0]
   4:	4770      	bx	lr
   6:	bf00      	nop
   8:	00000000 	.word	0x00000000

Disassembly of section .flashmem:

00000000 <_ZN9qindesign8security12RandomDeviceC1Ev>:
   0:	b500      	push	{lr}
   2:	b083      	sub	sp, #12
   4:	9001      	str	r0, [sp, #4]
   6:	f7ff fffe 	bl	0 <qnethernet_hal_init_rand>
   a:	9801      	ldr	r0, [sp, #4]
   c:	b003      	add	sp, #12
   e:	f85d fb04 	ldr.w	pc, [sp], #4
  12:	bf00      	nop

Disassembly of section .text._ZN9qindesign8security12RandomDeviceclEv:

00000000 <_ZN9qindesign8security12RandomDeviceclEv>:
   0:	f7ff bffe 	b.w	0 <qnethernet_hal_rand>

Disassembly of section .text.startup._GLOBAL__sub_I__ZN10StaticInitIN9qindesign8security12RandomDeviceEE13nifty_counterE:

00000000 <_GLOBAL__sub_I__ZN10StaticInitIN9qindesign8security12RandomDeviceEE13nifty_counterE>:
   0:	4a0a      	ldr	r2, [pc, #40]	; (2c <_GLOBAL__sub_I__ZN10StaticInitIN9qindesign8security12RandomDeviceEE13nifty_counterE+0x2c>)
   2:	6813      	ldr	r3, [r2, #0]
   4:	1c59      	adds	r1, r3, #1
   6:	b510      	push	{r4, lr}
   8:	6011      	str	r1, [r2, #0]
   a:	b14b      	cbz	r3, 20 <_GLOBAL__sub_I__ZN10StaticInitIN9qindesign8security12RandomDeviceEE13nifty_counterE+0x20>
   c:	4c08      	ldr	r4, [pc, #32]	; (30 <_GLOBAL__sub_I__ZN10StaticInitIN9qindesign8security12RandomDeviceEE13nifty_counterE+0x30>)
   e:	4a09      	ldr	r2, [pc, #36]	; (34 <_GLOBAL__sub_I__ZN10StaticInitIN9qindesign8security12RandomDeviceEE13nifty_counterE+0x34>)
  10:	4909      	ldr	r1, [pc, #36]	; (38 <_GLOBAL__sub_I__ZN10StaticInitIN9qindesign8security12RandomDeviceEE13nifty_counterE+0x38>)
  12:	480a      	ldr	r0, [pc, #40]	; (3c <_GLOBAL__sub_I__ZN10StaticInitIN9qindesign8security12RandomDeviceEE13nifty_counterE+0x3c>)
  14:	f7ff fffe 	bl	0 <__aeabi_atexit>
  18:	4b09      	ldr	r3, [pc, #36]	; (40 <_GLOBAL__sub_I__ZN10StaticInitIN9qindesign8security12RandomDeviceEE13nifty_counterE+0x40>)
  1a:	6822      	ldr	r2, [r4, #0]
  1c:	601a      	str	r2, [r3, #0]
  1e:	bd10      	pop	{r4, pc}
  20:	f7ff fffe 	bl	0 <qnethernet_hal_init_rand>
  24:	4c02      	ldr	r4, [pc, #8]	; (30 <_GLOBAL__sub_I__ZN10StaticInitIN9qindesign8security12RandomDeviceEE13nifty_counterE+0x30>)
  26:	4b07      	ldr	r3, [pc, #28]	; (44 <_GLOBAL__sub_I__ZN10StaticInitIN9qindesign8security12RandomDeviceEE13nifty_counterE+0x44>)
  28:	6023      	str	r3, [r4, #0]
  2a:	e7f0      	b.n	e <_GLOBAL__sub_I__ZN10StaticInitIN9qindesign8security12RandomDeviceEE13nifty_counterE+0xe>
  2c:	00000000 	.word	0x00000000
  30:	00000000 	.word	0x00000000
  34:	00000000 	.word	0x00000000
  38:	00000000 	.word	0x00000000
  3c:	00000000 	.word	0x00000000
  40:	00000000 	.word	0x00000000
  44:	00000000 	.word	0x00000000
