
build/./src/main.cpp.o:     file format elf32-littlearm

SYMBOL TABLE:
00000000 l    df *ABS*	00000000 main.cpp
00000000 l    d  .text	00000000 .text
00000000 l    d  .data	00000000 .data
00000000 l    d  .bss	00000000 .bss
00000000 l    d  .text._ZN5Print7printlnEPKc.isra.0	00000000 .text._ZN5Print7printlnEPKc.isra.0
00000000 l     F .text._ZN5Print7printlnEPKc.isra.0	00000024 _ZN5Print7printlnEPKc.isra.0
00000000 l    d  .rodata._Z10print_logov.str1.4	00000000 .rodata._Z10print_logov.str1.4
00000000 l    d  .text._Z10print_logov	00000000 .text._Z10print_logov
00000000 l    d  .rodata.main.str1.4	00000000 .rodata.main.str1.4
00000000 l    d  .text.startup.main	00000000 .text.startup.main
00000000 l    d  .text.startup._GLOBAL__sub_I_motor	00000000 .text.startup._GLOBAL__sub_I_motor
00000000 l     F .text.startup._GLOBAL__sub_I_motor	0000000c _GLOBAL__sub_I_motor
00000000 l    d  .init_array	00000000 .init_array
00000000 l    d  .bss.motor	00000000 .bss.motor
00000000 l    d  .comment	00000000 .comment
00000000 l    d  .ARM.attributes	00000000 .ARM.attributes
00000000         *UND*	00000000 strlen
00000000         *UND*	00000000 _ZN5Print7printlnEv
00000000 g     F .text._Z10print_logov	000000d0 _Z10print_logov
00000000         *UND*	00000000 yield
00000000         *UND*	00000000 usb_serial_write
00000000         *UND*	00000000 _ZN5Print6printfEPKcz
00000000         *UND*	00000000 usb_configuration
00000000         *UND*	00000000 usb_cdc_line_rtsdtr
00000000         *UND*	00000000 systick_millis_count
00000000         *UND*	00000000 usb_cdc_line_rtsdtr_millis
00000000         *UND*	00000000 Serial
00000000 g     F .text.startup.main	000000d8 main
00000000         *UND*	00000000 _ZN5Debug5beginEP6Stream
00000000         *UND*	00000000 _ZN11SparkMaxESC5beginEv
00000000         *UND*	00000000 delay
00000000         *UND*	00000000 _ZN11SparkMaxESC19getMotorTemperatureEv
00000000         *UND*	00000000 _ZN5Print10printFloatEdh
00000000         *UND*	00000000 _ZN11SparkMaxESC8setPowerEf
00000000         *UND*	00000000 SerialUSB1
00000000         *UND*	00000000 debug
00000000         *UND*	00000000 _ZN11SparkMaxESCC1Eh
00000000 g     O .bss.motor	00000008 motor


Contents of section .text._ZN5Print7printlnEPKc.isra.0:
 0000 38b50446 49b10846 0d46fff7 feff2368  8..FI..F.F....#h
 0010 02462946 5b682046 98472046 bde83840  .F)F[h F.G F..8@
 0020 fff7febf                             ....            
Contents of section .rodata._Z10print_logov.str1.4:
 0000 1b5b306d 00000000 0a1b5b31 3b39326d  .[0m......[1;92m
 0010 46572056 65722e20 322e312e 30000000  FW Ver. 2.1.0...
 0020 32323a34 343a3531 00000000 4d617220  22:44:51....Mar 
 0030 31312032 30323500 0a4c6173 74204275  11 2025..Last Bu
 0040 696c743a 20257320 61742025 73000000  ilt: %s at %s...
 0050 32363063 65313365 35353536 38326630  260ce13e555682f0
 0060 34663466 33643830 36383661 39306663  4f4f3d80686a90fc
 0070 30363466 63353162 00000000 0a476974  064fc51b.....Git
 0080 20486173 683a2025 73000000 6d61696e   Hash: %s...main
 0090 00000000 0a476974 20427261 6e63683a  .....Git Branch:
 00a0 20257300 73776170 70656420 746f2061   %s.swapped to a
 00b0 2063616e 20636f6e 74726f6c 6c657220   can controller 
 00c0 7468656e 20736570 65726174 65206573  then seperate es
 00d0 6320636f 6e74726f 6c657273 20000000  c controlers ...
 00e0 0a436f6d 6d697420 4d657373 6167653a  .Commit Message:
 00f0 20257300 0a52616e 646f6d20 4e756d3a   %s..Random Num:
 0100 20257800 1b5b306d 0a00                %x..[0m..      
Contents of section .text._Z10print_logov:
 0000 08b5fff7 feff1f4b 1b78002b 39d01e4b  .......K.x.+9..K
 0010 1b78db07 35d51d4b 1d4a1b68 12689b1a  .x..5..K.J.h.h..
 0020 0e2b2ed9 04211b48 fff7feff 15211a48  .+...!.H.....!.H
 0030 fff7feff 1948fff7 feff194b 194a1a49  .....H.....K.J.I
 0040 1648fff7 feff194a 19491448 fff7feff  .H.....J.I.H....
 0050 184a1949 1148fff7 feff184a 18490f48  .J.I.H.....J.I.H
 0060 fff7feff 174b1849 5a680c48 fff7feff  .....K.IZh.H....
 0070 05211648 fff7feff 0848bde8 0840fff7  .!.H.....H...@..
 0080 febf08bd 00000000 00000000 00000000  ................
 0090 00000000 00000000 08000000 00000000  ................
 00a0 20000000 2c000000 38000000 50000000   ...,...8...P...
 00b0 7c000000 8c000000 94000000 a4000000  |...............
 00c0 e0000000 001000e0 f4000000 04010000  ................
Contents of section .rodata.main.str1.4:
 0000 53657269 616c2053 74617274 65640000  Serial Started..
 0010 496e6974 69616c69 7a696e67 204d6f74  Initializing Mot
 0020 6f722043 6f6e7472 6f6c6c65 722e2e2e  or Controller...
 0030 00000000 456e7465 72696e67 206d6169  ....Entering mai
 0040 6e206c6f 6f702e2e 2e0a00             n loop.....     
Contents of section .text.startup.main:
 0000 294d40f2 ee28294c dff8c890 2e6880b5  )M@..()L.....h..
 0010 274ffff7 feff2378 002b37d0 3b78db07  'O....#x.+7.;x..
 0020 34d52b68 d9f80020 9b1a0e2b 2ed92149  4.+h... ...+..!I
 0030 2148fff7 feff214d 21492248 fff7feff  !H....!M!I"H....
 0040 1d4cfff7 feff2049 1b48fff7 feff2846  .L.... I.H....(F
 0050 fff7feff 20461d49 fff7feff 4ff47a70  .... F.I....O.zp
 0060 9fed1b8a fff7feff 2846fff7 feff0221  ........(F.....!
 0070 b7eec00a 2046fff7 feff2046 fff7feff  .... F.... F....
 0080 b0ee480a 2846fff7 feffede7 2b682278  ..H.(F......+h"x
 0090 9b1b2ab1 b3f5fa6f c9d8fff7 feffb8e7  ..*....o........
 00a0 4345fad9 c3e700bf 00000000 00000000  CE..............
 00b0 00000000 00000000 00000000 00000000  ................
 00c0 00000000 00000000 10000000 34000000  ............4...
 00d0 cdcc4c3e 00000000                    ..L>....        
Contents of section .text.startup._GLOBAL__sub_I_motor:
 0000 01210148 fff7febf 00000000           .!.H........    
Contents of section .init_array:
 0000 00000000                             ....            
Contents of section .comment:
 0000 00474343 3a202841 726d2047 4e552054  .GCC: (Arm GNU T
 0010 6f6f6c63 6861696e 2031312e 332e5265  oolchain 11.3.Re
 0020 6c312920 31312e33 2e312032 30323230  l1) 11.3.1 20220
 0030 37313200                             712.            
Contents of section .ARM.attributes:
 0000 41310000 00616561 62690001 27000000  A1...aeabi..'...
 0010 0537452d 4d00060d 074d0902 0a081204  .7E-M....M......
 0020 14011501 17031801 19011a01 1c011e02  ................
 0030 2201                                 ".              

Disassembly of section .text._ZN5Print7printlnEPKc.isra.0:

00000000 <_ZN5Print7printlnEPKc.isra.0>:
   0:	b538      	push	{r3, r4, r5, lr}
   2:	4604      	mov	r4, r0
   4:	b149      	cbz	r1, 1a <_ZN5Print7printlnEPKc.isra.0+0x1a>
   6:	4608      	mov	r0, r1
   8:	460d      	mov	r5, r1
   a:	f7ff fffe 	bl	0 <strlen>
   e:	6823      	ldr	r3, [r4, #0]
  10:	4602      	mov	r2, r0
  12:	4629      	mov	r1, r5
  14:	685b      	ldr	r3, [r3, #4]
  16:	4620      	mov	r0, r4
  18:	4798      	blx	r3
  1a:	4620      	mov	r0, r4
  1c:	e8bd 4038 	ldmia.w	sp!, {r3, r4, r5, lr}
  20:	f7ff bffe 	b.w	0 <_ZN5Print7printlnEv>

Disassembly of section .text._Z10print_logov:

00000000 <_Z10print_logov>:
   0:	b508      	push	{r3, lr}
   2:	f7ff fffe 	bl	0 <yield>
   6:	4b1f      	ldr	r3, [pc, #124]	; (84 <_Z10print_logov+0x84>)
   8:	781b      	ldrb	r3, [r3, #0]
   a:	2b00      	cmp	r3, #0
   c:	d039      	beq.n	82 <_Z10print_logov+0x82>
   e:	4b1e      	ldr	r3, [pc, #120]	; (88 <_Z10print_logov+0x88>)
  10:	781b      	ldrb	r3, [r3, #0]
  12:	07db      	lsls	r3, r3, #31
  14:	d535      	bpl.n	82 <_Z10print_logov+0x82>
  16:	4b1d      	ldr	r3, [pc, #116]	; (8c <_Z10print_logov+0x8c>)
  18:	4a1d      	ldr	r2, [pc, #116]	; (90 <_Z10print_logov+0x90>)
  1a:	681b      	ldr	r3, [r3, #0]
  1c:	6812      	ldr	r2, [r2, #0]
  1e:	1a9b      	subs	r3, r3, r2
  20:	2b0e      	cmp	r3, #14
  22:	d92e      	bls.n	82 <_Z10print_logov+0x82>
  24:	2104      	movs	r1, #4
  26:	481b      	ldr	r0, [pc, #108]	; (94 <_Z10print_logov+0x94>)
  28:	f7ff fffe 	bl	0 <usb_serial_write>
  2c:	2115      	movs	r1, #21
  2e:	481a      	ldr	r0, [pc, #104]	; (98 <_Z10print_logov+0x98>)
  30:	f7ff fffe 	bl	0 <usb_serial_write>
  34:	4819      	ldr	r0, [pc, #100]	; (9c <_Z10print_logov+0x9c>)
  36:	f7ff fffe 	bl	0 <_ZN5Print7printlnEv>
  3a:	4b19      	ldr	r3, [pc, #100]	; (a0 <_Z10print_logov+0xa0>)
  3c:	4a19      	ldr	r2, [pc, #100]	; (a4 <_Z10print_logov+0xa4>)
  3e:	491a      	ldr	r1, [pc, #104]	; (a8 <_Z10print_logov+0xa8>)
  40:	4816      	ldr	r0, [pc, #88]	; (9c <_Z10print_logov+0x9c>)
  42:	f7ff fffe 	bl	0 <_ZN5Print6printfEPKcz>
  46:	4a19      	ldr	r2, [pc, #100]	; (ac <_Z10print_logov+0xac>)
  48:	4919      	ldr	r1, [pc, #100]	; (b0 <_Z10print_logov+0xb0>)
  4a:	4814      	ldr	r0, [pc, #80]	; (9c <_Z10print_logov+0x9c>)
  4c:	f7ff fffe 	bl	0 <_ZN5Print6printfEPKcz>
  50:	4a18      	ldr	r2, [pc, #96]	; (b4 <_Z10print_logov+0xb4>)
  52:	4919      	ldr	r1, [pc, #100]	; (b8 <_Z10print_logov+0xb8>)
  54:	4811      	ldr	r0, [pc, #68]	; (9c <_Z10print_logov+0x9c>)
  56:	f7ff fffe 	bl	0 <_ZN5Print6printfEPKcz>
  5a:	4a18      	ldr	r2, [pc, #96]	; (bc <_Z10print_logov+0xbc>)
  5c:	4918      	ldr	r1, [pc, #96]	; (c0 <_Z10print_logov+0xc0>)
  5e:	480f      	ldr	r0, [pc, #60]	; (9c <_Z10print_logov+0x9c>)
  60:	f7ff fffe 	bl	0 <_ZN5Print6printfEPKcz>
  64:	4b17      	ldr	r3, [pc, #92]	; (c4 <_Z10print_logov+0xc4>)
  66:	4918      	ldr	r1, [pc, #96]	; (c8 <_Z10print_logov+0xc8>)
  68:	685a      	ldr	r2, [r3, #4]
  6a:	480c      	ldr	r0, [pc, #48]	; (9c <_Z10print_logov+0x9c>)
  6c:	f7ff fffe 	bl	0 <_ZN5Print6printfEPKcz>
  70:	2105      	movs	r1, #5
  72:	4816      	ldr	r0, [pc, #88]	; (cc <_Z10print_logov+0xcc>)
  74:	f7ff fffe 	bl	0 <usb_serial_write>
  78:	4808      	ldr	r0, [pc, #32]	; (9c <_Z10print_logov+0x9c>)
  7a:	e8bd 4008 	ldmia.w	sp!, {r3, lr}
  7e:	f7ff bffe 	b.w	0 <_ZN5Print7printlnEv>
  82:	bd08      	pop	{r3, pc}
  84:	00000000 	.word	0x00000000
  88:	00000000 	.word	0x00000000
  8c:	00000000 	.word	0x00000000
  90:	00000000 	.word	0x00000000
  94:	00000000 	.word	0x00000000
  98:	00000008 	.word	0x00000008
  9c:	00000000 	.word	0x00000000
  a0:	00000020 	.word	0x00000020
  a4:	0000002c 	.word	0x0000002c
  a8:	00000038 	.word	0x00000038
  ac:	00000050 	.word	0x00000050
  b0:	0000007c 	.word	0x0000007c
  b4:	0000008c 	.word	0x0000008c
  b8:	00000094 	.word	0x00000094
  bc:	000000a4 	.word	0x000000a4
  c0:	000000e0 	.word	0x000000e0
  c4:	e0001000 	.word	0xe0001000
  c8:	000000f4 	.word	0x000000f4
  cc:	00000104 	.word	0x00000104

Disassembly of section .text.startup.main:

00000000 <main>:
   0:	4d29      	ldr	r5, [pc, #164]	; (a8 <main+0xa8>)
   2:	f240 28ee 	movw	r8, #750	; 0x2ee
   6:	4c29      	ldr	r4, [pc, #164]	; (ac <main+0xac>)
   8:	f8df 90c8 	ldr.w	r9, [pc, #200]	; d4 <main+0xd4>
   c:	682e      	ldr	r6, [r5, #0]
   e:	b580      	push	{r7, lr}
  10:	4f27      	ldr	r7, [pc, #156]	; (b0 <main+0xb0>)
  12:	f7ff fffe 	bl	0 <yield>
  16:	7823      	ldrb	r3, [r4, #0]
  18:	2b00      	cmp	r3, #0
  1a:	d037      	beq.n	8c <main+0x8c>
  1c:	783b      	ldrb	r3, [r7, #0]
  1e:	07db      	lsls	r3, r3, #31
  20:	d534      	bpl.n	8c <main+0x8c>
  22:	682b      	ldr	r3, [r5, #0]
  24:	f8d9 2000 	ldr.w	r2, [r9]
  28:	1a9b      	subs	r3, r3, r2
  2a:	2b0e      	cmp	r3, #14
  2c:	d92e      	bls.n	8c <main+0x8c>
  2e:	4921      	ldr	r1, [pc, #132]	; (b4 <main+0xb4>)
  30:	4821      	ldr	r0, [pc, #132]	; (b8 <main+0xb8>)
  32:	f7ff fffe 	bl	0 <main>
  36:	4d21      	ldr	r5, [pc, #132]	; (bc <main+0xbc>)
  38:	4921      	ldr	r1, [pc, #132]	; (c0 <main+0xc0>)
  3a:	4822      	ldr	r0, [pc, #136]	; (c4 <main+0xc4>)
  3c:	f7ff fffe 	bl	0 <_ZN5Debug5beginEP6Stream>
  40:	4c1d      	ldr	r4, [pc, #116]	; (b8 <main+0xb8>)
  42:	f7ff fffe 	bl	0 <main>
  46:	4920      	ldr	r1, [pc, #128]	; (c8 <main+0xc8>)
  48:	481b      	ldr	r0, [pc, #108]	; (b8 <main+0xb8>)
  4a:	f7ff fffe 	bl	0 <main>
  4e:	4628      	mov	r0, r5
  50:	f7ff fffe 	bl	0 <_ZN11SparkMaxESC5beginEv>
  54:	4620      	mov	r0, r4
  56:	491d      	ldr	r1, [pc, #116]	; (cc <main+0xcc>)
  58:	f7ff fffe 	bl	0 <main>
  5c:	f44f 707a 	mov.w	r0, #1000	; 0x3e8
  60:	ed9f 8a1b 	vldr	s16, [pc, #108]	; d0 <main+0xd0>
  64:	f7ff fffe 	bl	0 <delay>
  68:	4628      	mov	r0, r5
  6a:	f7ff fffe 	bl	0 <_ZN11SparkMaxESC19getMotorTemperatureEv>
  6e:	2102      	movs	r1, #2
  70:	eeb7 0ac0 	vcvt.f64.f32	d0, s0
  74:	4620      	mov	r0, r4
  76:	f7ff fffe 	bl	0 <_ZN5Print10printFloatEdh>
  7a:	4620      	mov	r0, r4
  7c:	f7ff fffe 	bl	0 <_ZN5Print7printlnEv>
  80:	eeb0 0a48 	vmov.f32	s0, s16
  84:	4628      	mov	r0, r5
  86:	f7ff fffe 	bl	0 <_ZN11SparkMaxESC8setPowerEf>
  8a:	e7ed      	b.n	68 <main+0x68>
  8c:	682b      	ldr	r3, [r5, #0]
  8e:	7822      	ldrb	r2, [r4, #0]
  90:	1b9b      	subs	r3, r3, r6
  92:	b12a      	cbz	r2, a0 <main+0xa0>
  94:	f5b3 6ffa 	cmp.w	r3, #2000	; 0x7d0
  98:	d8c9      	bhi.n	2e <main+0x2e>
  9a:	f7ff fffe 	bl	0 <yield>
  9e:	e7b8      	b.n	12 <main+0x12>
  a0:	4543      	cmp	r3, r8
  a2:	d9fa      	bls.n	9a <main+0x9a>
  a4:	e7c3      	b.n	2e <main+0x2e>
  a6:	bf00      	nop
  a8:	00000000 	.word	0x00000000
  ac:	00000000 	.word	0x00000000
  b0:	00000000 	.word	0x00000000
  b4:	00000000 	.word	0x00000000
  b8:	00000000 	.word	0x00000000
  bc:	00000000 	.word	0x00000000
  c0:	00000000 	.word	0x00000000
  c4:	00000000 	.word	0x00000000
  c8:	00000010 	.word	0x00000010
  cc:	00000034 	.word	0x00000034
  d0:	3e4ccccd 	.word	0x3e4ccccd
  d4:	00000000 	.word	0x00000000

Disassembly of section .text.startup._GLOBAL__sub_I_motor:

00000000 <_GLOBAL__sub_I_motor>:
   0:	2101      	movs	r1, #1
   2:	4801      	ldr	r0, [pc, #4]	; (8 <_GLOBAL__sub_I_motor+0x8>)
   4:	f7ff bffe 	b.w	0 <_ZN11SparkMaxESCC1Eh>
   8:	00000000 	.word	0x00000000
