
build/./src/can/SparkMaxESC.cpp.o:     file format elf32-littlearm

SYMBOL TABLE:
00000000 l    df *ABS*	00000000 SparkMaxESC.cpp
00000000 l    d  .text	00000000 .text
00000000 l    d  .data	00000000 .data
00000000 l    d  .bss	00000000 .bss
00000000 l    d  .text._ZN11CANListener12frameHandlerER13CAN_message_tih	00000000 .text._ZN11CANListener12frameHandlerER13CAN_message_tih
00000000 l    d  .text._ZL16flexcan_isr_can2v	00000000 .text._ZL16flexcan_isr_can2v
00000000 l     F .text._ZL16flexcan_isr_can2v	00000014 _ZL16flexcan_isr_can2v
00000000 l    d  .text._ZN10FlexCAN_T4IL13CAN_DEV_TABLE1075658752EL21FLEXCAN_RXQUEUE_TABLE256EL21FLEXCAN_TXQUEUE_TABLE16EE11setBaudRateEm12FLEXCAN_RXTX	00000000 .text._ZN10FlexCAN_T4IL13CAN_DEV_TABLE1075658752EL21FLEXCAN_RXQUEUE_TABLE256EL21FLEXCAN_TXQUEUE_TABLE16EE11setBaudRateEm12FLEXCAN_RXTX
00000000 l    d  .text._ZN10FlexCAN_T4IL13CAN_DEV_TABLE1075658752EL21FLEXCAN_RXQUEUE_TABLE256EL21FLEXCAN_TXQUEUE_TABLE16EE5writeERK15CANFD_message_t	00000000 .text._ZN10FlexCAN_T4IL13CAN_DEV_TABLE1075658752EL21FLEXCAN_RXQUEUE_TABLE256EL21FLEXCAN_TXQUEUE_TABLE16EE5writeERK15CANFD_message_t
00000000 l    d  .text._ZN10FlexCAN_T4IL13CAN_DEV_TABLE1075658752EL21FLEXCAN_RXQUEUE_TABLE256EL21FLEXCAN_TXQUEUE_TABLE16EE4isFDEv	00000000 .text._ZN10FlexCAN_T4IL13CAN_DEV_TABLE1075658752EL21FLEXCAN_RXQUEUE_TABLE256EL21FLEXCAN_TXQUEUE_TABLE16EE4isFDEv
00000000 l    d  .text._ZN10FlexCAN_T4IL13CAN_DEV_TABLE1075658752EL21FLEXCAN_RXQUEUE_TABLE256EL21FLEXCAN_TXQUEUE_TABLE16EE17getFirstTxBoxSizeEv	00000000 .text._ZN10FlexCAN_T4IL13CAN_DEV_TABLE1075658752EL21FLEXCAN_RXQUEUE_TABLE256EL21FLEXCAN_TXQUEUE_TABLE16EE17getFirstTxBoxSizeEv
00000000 l    d  .text._ZN10FlexCAN_T4IL13CAN_DEV_TABLE1075658752EL21FLEXCAN_RXQUEUE_TABLE256EL21FLEXCAN_TXQUEUE_TABLE16EE13mailboxOffsetEv.part.0	00000000 .text._ZN10FlexCAN_T4IL13CAN_DEV_TABLE1075658752EL21FLEXCAN_RXQUEUE_TABLE256EL21FLEXCAN_TXQUEUE_TABLE16EE13mailboxOffsetEv.part.0
00000000 l     F .text._ZN10FlexCAN_T4IL13CAN_DEV_TABLE1075658752EL21FLEXCAN_RXQUEUE_TABLE256EL21FLEXCAN_TXQUEUE_TABLE16EE13mailboxOffsetEv.part.0	00000048 _ZN10FlexCAN_T4IL13CAN_DEV_TABLE1075658752EL21FLEXCAN_RXQUEUE_TABLE256EL21FLEXCAN_TXQUEUE_TABLE16EE13mailboxOffsetEv.part.0
00000000 l    d  .text._ZN11SparkMaxESCC2Eh	00000000 .text._ZN11SparkMaxESCC2Eh
00000000 l    d  .rodata._ZN11SparkMaxESC11sendCommandE11ControlTypef.str1.4	00000000 .rodata._ZN11SparkMaxESC11sendCommandE11ControlTypef.str1.4
00000000 l    d  .text._ZN11SparkMaxESC11sendCommandE11ControlTypef	00000000 .text._ZN11SparkMaxESC11sendCommandE11ControlTypef
00000000 l    d  .rodata._ZN11SparkMaxESC8setPowerEf.str1.4	00000000 .rodata._ZN11SparkMaxESC8setPowerEf.str1.4
00000000 l    d  .text._ZN11SparkMaxESC8setPowerEf	00000000 .text._ZN11SparkMaxESC8setPowerEf
00000000 l    d  .rodata._ZN11SparkMaxESC10setControlE11ControlTypef.str1.4	00000000 .rodata._ZN11SparkMaxESC10setControlE11ControlTypef.str1.4
00000000 l    d  .text._ZN11SparkMaxESC10setControlE11ControlTypef	00000000 .text._ZN11SparkMaxESC10setControlE11ControlTypef
00000000 l    d  .rodata._ZN11SparkMaxESC4stopEv.str1.4	00000000 .rodata._ZN11SparkMaxESC4stopEv.str1.4
00000000 l    d  .text._ZN11SparkMaxESC4stopEv	00000000 .text._ZN11SparkMaxESC4stopEv
00000000 l    d  .rodata._ZN11SparkMaxESC11resetFaultsEv.str1.4	00000000 .rodata._ZN11SparkMaxESC11resetFaultsEv.str1.4
00000000 l    d  .text._ZN11SparkMaxESC11resetFaultsEv	00000000 .text._ZN11SparkMaxESC11resetFaultsEv
00000000 l    d  .rodata._ZN11SparkMaxESC15setCurrentLimitEf.str1.4	00000000 .rodata._ZN11SparkMaxESC15setCurrentLimitEf.str1.4
00000000 l    d  .text._ZN11SparkMaxESC15setCurrentLimitEf	00000000 .text._ZN11SparkMaxESC15setCurrentLimitEf
00000000 l    d  .rodata._ZN11SparkMaxESC12readResponseEm.str1.4	00000000 .rodata._ZN11SparkMaxESC12readResponseEm.str1.4
00000000 l    d  .text._ZN11SparkMaxESC12readResponseEm	00000000 .text._ZN11SparkMaxESC12readResponseEm
00000000 l    d  .text._ZN11SparkMaxESC18getEncoderPositionEv	00000000 .text._ZN11SparkMaxESC18getEncoderPositionEv
00000000 l    d  .text._ZN11SparkMaxESC18getEncoderVelocityEv	00000000 .text._ZN11SparkMaxESC18getEncoderVelocityEv
00000000 l    d  .text._ZN11SparkMaxESC15getMotorCurrentEv	00000000 .text._ZN11SparkMaxESC15getMotorCurrentEv
00000000 l    d  .text._ZN11SparkMaxESC19getMotorTemperatureEv	00000000 .text._ZN11SparkMaxESC19getMotorTemperatureEv
00000000 l    d  .text._ZN11SparkMaxESC9getFaultsEv	00000000 .text._ZN11SparkMaxESC9getFaultsEv
00000000 l    d  .text._ZN11SparkMaxESC15getStickyFaultsEv	00000000 .text._ZN11SparkMaxESC15getStickyFaultsEv
00000000 l    d  .text._ZN10FlexCAN_T4IL13CAN_DEV_TABLE1075658752EL21FLEXCAN_RXQUEUE_TABLE256EL21FLEXCAN_TXQUEUE_TABLE16EE5beginEv	00000000 .text._ZN10FlexCAN_T4IL13CAN_DEV_TABLE1075658752EL21FLEXCAN_RXQUEUE_TABLE256EL21FLEXCAN_TXQUEUE_TABLE16EE5beginEv
00000000 l    d  .rodata._ZN11SparkMaxESC5beginEv.str1.4	00000000 .rodata._ZN11SparkMaxESC5beginEv.str1.4
00000000 l    d  .text._ZN11SparkMaxESC5beginEv	00000000 .text._ZN11SparkMaxESC5beginEv
00000000 l    d  .text._ZN10FlexCAN_T4IL13CAN_DEV_TABLE1075658752EL21FLEXCAN_RXQUEUE_TABLE256EL21FLEXCAN_TXQUEUE_TABLE16EE14writeTxMailboxEhRK13CAN_message_t	00000000 .text._ZN10FlexCAN_T4IL13CAN_DEV_TABLE1075658752EL21FLEXCAN_RXQUEUE_TABLE256EL21FLEXCAN_TXQUEUE_TABLE16EE14writeTxMailboxEhRK13CAN_message_t
00000000 l    d  .text._ZN10FlexCAN_T4IL13CAN_DEV_TABLE1075658752EL21FLEXCAN_RXQUEUE_TABLE256EL21FLEXCAN_TXQUEUE_TABLE16EE14struct2queueTxERK13CAN_message_t	00000000 .text._ZN10FlexCAN_T4IL13CAN_DEV_TABLE1075658752EL21FLEXCAN_RXQUEUE_TABLE256EL21FLEXCAN_TXQUEUE_TABLE16EE14struct2queueTxERK13CAN_message_t
00000000 l    d  .text._ZN10FlexCAN_T4IL13CAN_DEV_TABLE1075658752EL21FLEXCAN_RXQUEUE_TABLE256EL21FLEXCAN_TXQUEUE_TABLE16EE5writeERK13CAN_message_t	00000000 .text._ZN10FlexCAN_T4IL13CAN_DEV_TABLE1075658752EL21FLEXCAN_RXQUEUE_TABLE256EL21FLEXCAN_TXQUEUE_TABLE16EE5writeERK13CAN_message_t
00000000 l    d  .text._ZN10FlexCAN_T4IL13CAN_DEV_TABLE1075658752EL21FLEXCAN_RXQUEUE_TABLE256EL21FLEXCAN_TXQUEUE_TABLE16EE17fifo_filter_matchEm	00000000 .text._ZN10FlexCAN_T4IL13CAN_DEV_TABLE1075658752EL21FLEXCAN_RXQUEUE_TABLE256EL21FLEXCAN_TXQUEUE_TABLE16EE17fifo_filter_matchEm
00000000 l    d  .text._ZN10FlexCAN_T4IL13CAN_DEV_TABLE1075658752EL21FLEXCAN_RXQUEUE_TABLE256EL21FLEXCAN_TXQUEUE_TABLE16EE12filter_matchE15FLEXCAN_MAILBOXm	00000000 .text._ZN10FlexCAN_T4IL13CAN_DEV_TABLE1075658752EL21FLEXCAN_RXQUEUE_TABLE256EL21FLEXCAN_TXQUEUE_TABLE16EE12filter_matchE15FLEXCAN_MAILBOXm
00000000 l    d  .text._ZN10FlexCAN_T4IL13CAN_DEV_TABLE1075658752EL21FLEXCAN_RXQUEUE_TABLE256EL21FLEXCAN_TXQUEUE_TABLE16EE11mbCallbacksERK15FLEXCAN_MAILBOXRK13CAN_message_t	00000000 .text._ZN10FlexCAN_T4IL13CAN_DEV_TABLE1075658752EL21FLEXCAN_RXQUEUE_TABLE256EL21FLEXCAN_TXQUEUE_TABLE16EE11mbCallbacksERK15FLEXCAN_MAILBOXRK13CAN_message_t
00000000 l    d  .text._ZN10FlexCAN_T4IL13CAN_DEV_TABLE1075658752EL21FLEXCAN_RXQUEUE_TABLE256EL21FLEXCAN_TXQUEUE_TABLE16EE14struct2queueRxERK13CAN_message_t	00000000 .text._ZN10FlexCAN_T4IL13CAN_DEV_TABLE1075658752EL21FLEXCAN_RXQUEUE_TABLE256EL21FLEXCAN_TXQUEUE_TABLE16EE14struct2queueRxERK13CAN_message_t
00000000 l    d  .text._ZN10FlexCAN_T4IL13CAN_DEV_TABLE1075658752EL21FLEXCAN_RXQUEUE_TABLE256EL21FLEXCAN_TXQUEUE_TABLE16EE18frame_distributionER13CAN_message_t	00000000 .text._ZN10FlexCAN_T4IL13CAN_DEV_TABLE1075658752EL21FLEXCAN_RXQUEUE_TABLE256EL21FLEXCAN_TXQUEUE_TABLE16EE18frame_distributionER13CAN_message_t
00000000 l    d  .text._ZN10FlexCAN_T4IL13CAN_DEV_TABLE1075658752EL21FLEXCAN_RXQUEUE_TABLE256EL21FLEXCAN_TXQUEUE_TABLE16EE8readFIFOER13CAN_message_t	00000000 .text._ZN10FlexCAN_T4IL13CAN_DEV_TABLE1075658752EL21FLEXCAN_RXQUEUE_TABLE256EL21FLEXCAN_TXQUEUE_TABLE16EE8readFIFOER13CAN_message_t
00000000 l    d  .text._ZN10FlexCAN_T4IL13CAN_DEV_TABLE1075658752EL21FLEXCAN_RXQUEUE_TABLE256EL21FLEXCAN_TXQUEUE_TABLE16EE6readMBER13CAN_message_t	00000000 .text._ZN10FlexCAN_T4IL13CAN_DEV_TABLE1075658752EL21FLEXCAN_RXQUEUE_TABLE256EL21FLEXCAN_TXQUEUE_TABLE16EE6readMBER13CAN_message_t
00000000 l    d  .text._ZN10FlexCAN_T4IL13CAN_DEV_TABLE1075658752EL21FLEXCAN_RXQUEUE_TABLE256EL21FLEXCAN_TXQUEUE_TABLE16EE4readER13CAN_message_t	00000000 .text._ZN10FlexCAN_T4IL13CAN_DEV_TABLE1075658752EL21FLEXCAN_RXQUEUE_TABLE256EL21FLEXCAN_TXQUEUE_TABLE16EE4readER13CAN_message_t
00000000 l    d  .text._ZN10FlexCAN_T4IL13CAN_DEV_TABLE1075658752EL21FLEXCAN_RXQUEUE_TABLE256EL21FLEXCAN_TXQUEUE_TABLE16EE17flexcan_interruptEv	00000000 .text._ZN10FlexCAN_T4IL13CAN_DEV_TABLE1075658752EL21FLEXCAN_RXQUEUE_TABLE256EL21FLEXCAN_TXQUEUE_TABLE16EE17flexcan_interruptEv
00000000 l    d  .text._ZN10FlexCAN_T4IL13CAN_DEV_TABLE1075658752EL21FLEXCAN_RXQUEUE_TABLE256EL21FLEXCAN_TXQUEUE_TABLE16EE6eventsEv	00000000 .text._ZN10FlexCAN_T4IL13CAN_DEV_TABLE1075658752EL21FLEXCAN_RXQUEUE_TABLE256EL21FLEXCAN_TXQUEUE_TABLE16EE6eventsEv
00000000 l    d  .bss._ZZN10FlexCAN_T4IL13CAN_DEV_TABLE1075658752EL21FLEXCAN_RXQUEUE_TABLE256EL21FLEXCAN_TXQUEUE_TABLE16EE17flexcan_interruptEvE9last_esr1	00000000 .bss._ZZN10FlexCAN_T4IL13CAN_DEV_TABLE1075658752EL21FLEXCAN_RXQUEUE_TABLE256EL21FLEXCAN_TXQUEUE_TABLE16EE17flexcan_interruptEvE9last_esr1
00000000 l    d  .rodata._ZTV10FlexCAN_T4IL13CAN_DEV_TABLE1075658752EL21FLEXCAN_RXQUEUE_TABLE256EL21FLEXCAN_TXQUEUE_TABLE16EE	00000000 .rodata._ZTV10FlexCAN_T4IL13CAN_DEV_TABLE1075658752EL21FLEXCAN_RXQUEUE_TABLE256EL21FLEXCAN_TXQUEUE_TABLE16EE
00000000 l    d  .bss._ZZN10CANManager10initializeEvE11initialized	00000000 .bss._ZZN10CANManager10initializeEvE11initialized
00000000 l    d  .bss._ZGVZN10CANManager11getInstanceEvE6canBus	00000000 .bss._ZGVZN10CANManager11getInstanceEvE6canBus
00000000 l    d  .bss._ZZN10CANManager11getInstanceEvE6canBus	00000000 .bss._ZZN10CANManager11getInstanceEvE6canBus
00000000 l    d  .rodata	00000000 .rodata
00000000 l    d  .bss._ZL5_CAN2	00000000 .bss._ZL5_CAN2
00000000 l     O .bss._ZL5_CAN2	00000004 _ZL5_CAN2
00000000 l    d  .comment	00000000 .comment
00000000 l    d  .ARM.attributes	00000000 .ARM.attributes
00000000 l    d  .group	00000000 .group
00000000 l    d  .group	00000000 .group
00000000 l    d  .group	00000000 .group
00000000 l    d  .group	00000000 .group
00000000 l    d  .group	00000000 .group
00000000 l    d  .group	00000000 .group
00000000 l    d  .group	00000000 .group
00000000 l    d  .group	00000000 .group
00000000 l    d  .group	00000000 .group
00000000 l    d  .group	00000000 .group
00000000 l    d  .group	00000000 .group
00000000 l    d  .group	00000000 .group
00000000 l    d  .group	00000000 .group
00000000 l    d  .group	00000000 .group
00000000 l    d  .group	00000000 .group
00000000 l    d  .group	00000000 .group
00000000 l    d  .group	00000000 .group
00000000 l    d  .group	00000000 .group
00000000 l    d  .group	00000000 .group
00000000 l    d  .group	00000000 .group
00000000 l    d  .group	00000000 .group
00000000 l    d  .group	00000000 .group
00000000 l    d  .group	00000000 .group
00000000 l    d  .group	00000000 .group
00000000  w    F .text._ZN11CANListener12frameHandlerER13CAN_message_tih	00000004 _ZN11CANListener12frameHandlerER13CAN_message_tih
00000000  w    F .text._ZN10FlexCAN_T4IL13CAN_DEV_TABLE1075658752EL21FLEXCAN_RXQUEUE_TABLE256EL21FLEXCAN_TXQUEUE_TABLE16EE11setBaudRateEm12FLEXCAN_RXTX	0000017c _ZN10FlexCAN_T4IL13CAN_DEV_TABLE1075658752EL21FLEXCAN_RXQUEUE_TABLE256EL21FLEXCAN_TXQUEUE_TABLE16EE11setBaudRateEm12FLEXCAN_RXTX
00000000  w    F .text._ZN10FlexCAN_T4IL13CAN_DEV_TABLE1075658752EL21FLEXCAN_RXQUEUE_TABLE256EL21FLEXCAN_TXQUEUE_TABLE16EE5writeERK15CANFD_message_t	00000004 _ZN10FlexCAN_T4IL13CAN_DEV_TABLE1075658752EL21FLEXCAN_RXQUEUE_TABLE256EL21FLEXCAN_TXQUEUE_TABLE16EE5writeERK15CANFD_message_t
00000000  w    F .text._ZN10FlexCAN_T4IL13CAN_DEV_TABLE1075658752EL21FLEXCAN_RXQUEUE_TABLE256EL21FLEXCAN_TXQUEUE_TABLE16EE4isFDEv	00000004 _ZN10FlexCAN_T4IL13CAN_DEV_TABLE1075658752EL21FLEXCAN_RXQUEUE_TABLE256EL21FLEXCAN_TXQUEUE_TABLE16EE4isFDEv
00000000  w    F .text._ZN10FlexCAN_T4IL13CAN_DEV_TABLE1075658752EL21FLEXCAN_RXQUEUE_TABLE256EL21FLEXCAN_TXQUEUE_TABLE16EE17getFirstTxBoxSizeEv	00000004 _ZN10FlexCAN_T4IL13CAN_DEV_TABLE1075658752EL21FLEXCAN_RXQUEUE_TABLE256EL21FLEXCAN_TXQUEUE_TABLE16EE17getFirstTxBoxSizeEv
00000000 g     F .text._ZN11SparkMaxESCC2Eh	0000000e _ZN11SparkMaxESCC2Eh
00000000 g     F .text._ZN11SparkMaxESCC2Eh	0000000e _ZN11SparkMaxESCC1Eh
00000000 g     F .text._ZN11SparkMaxESC11sendCommandE11ControlTypef	0000012c _ZN11SparkMaxESC11sendCommandE11ControlTypef
00000000         *UND*	00000000 usb_serial_write
00000000         *UND*	00000000 _ZN5Print11printNumberEmhh
00000000         *UND*	00000000 _ZN5Print7printlnEv
00000000  w    F .text._ZN10FlexCAN_T4IL13CAN_DEV_TABLE1075658752EL21FLEXCAN_RXQUEUE_TABLE256EL21FLEXCAN_TXQUEUE_TABLE16EE5writeERK13CAN_message_t	00000114 _ZN10FlexCAN_T4IL13CAN_DEV_TABLE1075658752EL21FLEXCAN_RXQUEUE_TABLE256EL21FLEXCAN_TXQUEUE_TABLE16EE5writeERK13CAN_message_t
00000000         *UND*	00000000 __cxa_guard_acquire
00000000         *UND*	00000000 __cxa_guard_release
00000000  w    O .bss._ZGVZN10CANManager11getInstanceEvE6canBus	00000004 _ZGVZN10CANManager11getInstanceEvE6canBus
00000000         *UND*	00000000 Serial
00000000  w    O .bss._ZZN10CANManager11getInstanceEvE6canBus	00002918 _ZZN10CANManager11getInstanceEvE6canBus
00000000  w    O .rodata._ZTV10FlexCAN_T4IL13CAN_DEV_TABLE1075658752EL21FLEXCAN_RXQUEUE_TABLE256EL21FLEXCAN_TXQUEUE_TABLE16EE	00000028 _ZTV10FlexCAN_T4IL13CAN_DEV_TABLE1075658752EL21FLEXCAN_RXQUEUE_TABLE256EL21FLEXCAN_TXQUEUE_TABLE16EE
00000000 g     F .text._ZN11SparkMaxESC8setPowerEf	00000044 _ZN11SparkMaxESC8setPowerEf
00000000         *UND*	00000000 _ZN5Print10printFloatEdh
00000000 g     F .text._ZN11SparkMaxESC10setControlE11ControlTypef	00000060 _ZN11SparkMaxESC10setControlE11ControlTypef
00000000 g     F .text._ZN11SparkMaxESC4stopEv	00000030 _ZN11SparkMaxESC4stopEv
00000000 g     F .text._ZN11SparkMaxESC11resetFaultsEv	00000104 _ZN11SparkMaxESC11resetFaultsEv
00000000 g     F .text._ZN11SparkMaxESC15setCurrentLimitEf	00000130 _ZN11SparkMaxESC15setCurrentLimitEf
00000000 g     F .text._ZN11SparkMaxESC12readResponseEm	00000170 _ZN11SparkMaxESC12readResponseEm
00000000         *UND*	00000000 delay
00000000  w    F .text._ZN10FlexCAN_T4IL13CAN_DEV_TABLE1075658752EL21FLEXCAN_RXQUEUE_TABLE256EL21FLEXCAN_TXQUEUE_TABLE16EE4readER13CAN_message_t	0000003c _ZN10FlexCAN_T4IL13CAN_DEV_TABLE1075658752EL21FLEXCAN_RXQUEUE_TABLE256EL21FLEXCAN_TXQUEUE_TABLE16EE4readER13CAN_message_t
00000000         *UND*	00000000 systick_millis_count
00000000 g     F .text._ZN11SparkMaxESC18getEncoderPositionEv	0000000e _ZN11SparkMaxESC18getEncoderPositionEv
00000000 g     F .text._ZN11SparkMaxESC18getEncoderVelocityEv	0000000e _ZN11SparkMaxESC18getEncoderVelocityEv
00000000 g     F .text._ZN11SparkMaxESC15getMotorCurrentEv	0000000e _ZN11SparkMaxESC15getMotorCurrentEv
00000000 g     F .text._ZN11SparkMaxESC19getMotorTemperatureEv	0000000e _ZN11SparkMaxESC19getMotorTemperatureEv
00000000 g     F .text._ZN11SparkMaxESC9getFaultsEv	0000001c _ZN11SparkMaxESC9getFaultsEv
00000000 g     F .text._ZN11SparkMaxESC15getStickyFaultsEv	0000001c _ZN11SparkMaxESC15getStickyFaultsEv
00000000  w    F .text._ZN10FlexCAN_T4IL13CAN_DEV_TABLE1075658752EL21FLEXCAN_RXQUEUE_TABLE256EL21FLEXCAN_TXQUEUE_TABLE16EE5beginEv	0000029c _ZN10FlexCAN_T4IL13CAN_DEV_TABLE1075658752EL21FLEXCAN_RXQUEUE_TABLE256EL21FLEXCAN_TXQUEUE_TABLE16EE5beginEv
00000000         *UND*	00000000 _VectorsRam
00000000 g     F .text._ZN11SparkMaxESC5beginEv	000000d0 _ZN11SparkMaxESC5beginEv
00000000  w    O .bss._ZZN10CANManager10initializeEvE11initialized	00000001 _ZZN10CANManager10initializeEvE11initialized
00000000  w    F .text._ZN10FlexCAN_T4IL13CAN_DEV_TABLE1075658752EL21FLEXCAN_RXQUEUE_TABLE256EL21FLEXCAN_TXQUEUE_TABLE16EE14writeTxMailboxEhRK13CAN_message_t	00000080 _ZN10FlexCAN_T4IL13CAN_DEV_TABLE1075658752EL21FLEXCAN_RXQUEUE_TABLE256EL21FLEXCAN_TXQUEUE_TABLE16EE14writeTxMailboxEhRK13CAN_message_t
00000000  w    F .text._ZN10FlexCAN_T4IL13CAN_DEV_TABLE1075658752EL21FLEXCAN_RXQUEUE_TABLE256EL21FLEXCAN_TXQUEUE_TABLE16EE14struct2queueTxERK13CAN_message_t	000000f4 _ZN10FlexCAN_T4IL13CAN_DEV_TABLE1075658752EL21FLEXCAN_RXQUEUE_TABLE256EL21FLEXCAN_TXQUEUE_TABLE16EE14struct2queueTxERK13CAN_message_t
00000000  w    F .text._ZN10FlexCAN_T4IL13CAN_DEV_TABLE1075658752EL21FLEXCAN_RXQUEUE_TABLE256EL21FLEXCAN_TXQUEUE_TABLE16EE17fifo_filter_matchEm	000000f0 _ZN10FlexCAN_T4IL13CAN_DEV_TABLE1075658752EL21FLEXCAN_RXQUEUE_TABLE256EL21FLEXCAN_TXQUEUE_TABLE16EE17fifo_filter_matchEm
00000000  w    F .text._ZN10FlexCAN_T4IL13CAN_DEV_TABLE1075658752EL21FLEXCAN_RXQUEUE_TABLE256EL21FLEXCAN_TXQUEUE_TABLE16EE12filter_matchE15FLEXCAN_MAILBOXm	000000ca _ZN10FlexCAN_T4IL13CAN_DEV_TABLE1075658752EL21FLEXCAN_RXQUEUE_TABLE256EL21FLEXCAN_TXQUEUE_TABLE16EE12filter_matchE15FLEXCAN_MAILBOXm
00000000  w    F .text._ZN10FlexCAN_T4IL13CAN_DEV_TABLE1075658752EL21FLEXCAN_RXQUEUE_TABLE256EL21FLEXCAN_TXQUEUE_TABLE16EE11mbCallbacksERK15FLEXCAN_MAILBOXRK13CAN_message_t	0000004a _ZN10FlexCAN_T4IL13CAN_DEV_TABLE1075658752EL21FLEXCAN_RXQUEUE_TABLE256EL21FLEXCAN_TXQUEUE_TABLE16EE11mbCallbacksERK15FLEXCAN_MAILBOXRK13CAN_message_t
00000000  w    F .text._ZN10FlexCAN_T4IL13CAN_DEV_TABLE1075658752EL21FLEXCAN_RXQUEUE_TABLE256EL21FLEXCAN_TXQUEUE_TABLE16EE14struct2queueRxERK13CAN_message_t	00000134 _ZN10FlexCAN_T4IL13CAN_DEV_TABLE1075658752EL21FLEXCAN_RXQUEUE_TABLE256EL21FLEXCAN_TXQUEUE_TABLE16EE14struct2queueRxERK13CAN_message_t
00000000  w    F .text._ZN10FlexCAN_T4IL13CAN_DEV_TABLE1075658752EL21FLEXCAN_RXQUEUE_TABLE256EL21FLEXCAN_TXQUEUE_TABLE16EE18frame_distributionER13CAN_message_t	00000280 _ZN10FlexCAN_T4IL13CAN_DEV_TABLE1075658752EL21FLEXCAN_RXQUEUE_TABLE256EL21FLEXCAN_TXQUEUE_TABLE16EE18frame_distributionER13CAN_message_t
00000000  w    F .text._ZN10FlexCAN_T4IL13CAN_DEV_TABLE1075658752EL21FLEXCAN_RXQUEUE_TABLE256EL21FLEXCAN_TXQUEUE_TABLE16EE8readFIFOER13CAN_message_t	000000a0 _ZN10FlexCAN_T4IL13CAN_DEV_TABLE1075658752EL21FLEXCAN_RXQUEUE_TABLE256EL21FLEXCAN_TXQUEUE_TABLE16EE8readFIFOER13CAN_message_t
00000000  w    F .text._ZN10FlexCAN_T4IL13CAN_DEV_TABLE1075658752EL21FLEXCAN_RXQUEUE_TABLE256EL21FLEXCAN_TXQUEUE_TABLE16EE6readMBER13CAN_message_t	000001fc _ZN10FlexCAN_T4IL13CAN_DEV_TABLE1075658752EL21FLEXCAN_RXQUEUE_TABLE256EL21FLEXCAN_TXQUEUE_TABLE16EE6readMBER13CAN_message_t
00000000         *UND*	00000000 _Z6randomll
00000000  w    F .text._ZN10FlexCAN_T4IL13CAN_DEV_TABLE1075658752EL21FLEXCAN_RXQUEUE_TABLE256EL21FLEXCAN_TXQUEUE_TABLE16EE17flexcan_interruptEv	00000670 _ZN10FlexCAN_T4IL13CAN_DEV_TABLE1075658752EL21FLEXCAN_RXQUEUE_TABLE256EL21FLEXCAN_TXQUEUE_TABLE16EE17flexcan_interruptEv
00000000  w      *UND*	00000000 _Z11ext_output1RK13CAN_message_t
00000000  w      *UND*	00000000 _Z11ext_output2RK13CAN_message_t
00000000  w      *UND*	00000000 _Z11ext_output3RK13CAN_message_t
00000000  w    O .bss._ZZN10FlexCAN_T4IL13CAN_DEV_TABLE1075658752EL21FLEXCAN_RXQUEUE_TABLE256EL21FLEXCAN_TXQUEUE_TABLE16EE17flexcan_interruptEvE9last_esr1	00000004 _ZZN10FlexCAN_T4IL13CAN_DEV_TABLE1075658752EL21FLEXCAN_RXQUEUE_TABLE256EL21FLEXCAN_TXQUEUE_TABLE16EE17flexcan_interruptEvE9last_esr1
00000000  w    F .text._ZN10FlexCAN_T4IL13CAN_DEV_TABLE1075658752EL21FLEXCAN_RXQUEUE_TABLE256EL21FLEXCAN_TXQUEUE_TABLE16EE6eventsEv	00000204 _ZN10FlexCAN_T4IL13CAN_DEV_TABLE1075658752EL21FLEXCAN_RXQUEUE_TABLE256EL21FLEXCAN_TXQUEUE_TABLE16EE6eventsEv


Contents of section .group:
 0000 01000000 1c000000                    ........        
Contents of section .group:
 0000 01000000 1d000000 1e000000 47000000  ............G...
 0010 48000000                             H...            
Contents of section .group:
 0000 01000000 1f000000 20000000           ........ ...    
Contents of section .group:
 0000 01000000 21000000                    ....!...        
Contents of section .group:
 0000 01000000 22000000                    ...."...        
Contents of section .group:
 0000 01000000 23000000                    ....#...        
Contents of section .group:
 0000 01000000 4c000000                    ....L...        
Contents of section .group:
 0000 01000000 4d000000                    ....M...        
Contents of section .group:
 0000 01000000 4e000000 4f000000           ....N...O...    
Contents of section .group:
 0000 01000000 50000000                    ....P...        
Contents of section .group:
 0000 01000000 51000000                    ....Q...        
Contents of section .group:
 0000 01000000 52000000                    ....R...        
Contents of section .group:
 0000 01000000 53000000 54000000           ....S...T...    
Contents of section .group:
 0000 01000000 55000000 56000000           ....U...V...    
Contents of section .group:
 0000 01000000 57000000 58000000           ....W...X...    
Contents of section .group:
 0000 01000000 59000000 5a000000           ....Y...Z...    
Contents of section .group:
 0000 01000000 5b000000 5c000000           ....[...\...    
Contents of section .group:
 0000 01000000 5d000000 5e000000           ....]...^...    
Contents of section .group:
 0000 01000000 5f000000 60000000           ...._...`...    
Contents of section .group:
 0000 01000000 61000000                    ....a...        
Contents of section .group:
 0000 01000000 62000000 63000000           ....b...c...    
Contents of section .group:
 0000 01000000 64000000                    ....d...        
Contents of section .group:
 0000 01000000 65000000                    ....e...        
Contents of section .group:
 0000 01000000 66000000                    ....f...        
Contents of section .text._ZN11CANListener12frameHandlerER13CAN_message_tih:
 0000 00207047                             . pG            
Contents of section .text._ZL16flexcan_isr_can2v:
 0000 034b1868 10b10368 1b681847 704700bf  .K.h...h.h.GpG..
 0010 00000000                             ....            
Contents of section .text._ZN10FlexCAN_T4IL13CAN_DEV_TABLE1075658752EL21FLEXCAN_RXQUEUE_TABLE256EL21FLEXCAN_TXQUEUE_TABLE16EE11setBaudRateEm12FLEXCAN_RXTX:
 0000 2de9f041 00f50050 90b0574c 9646574b  -..A...P..WL.FWK
 0010 0094c0f8 10191b6a 5548c3f3 01230468  .......jUH...#.h
 0020 403304f0 80746b44 13f8406c 514b03fb  @3...tkD..@lQK..
 0030 06f60368 b6fbf1f2 b6fbf2f5 43f0a043  ...h........C..C
 0040 4d1b0360 0368df01 fcd5052a 4ff0000c  M..`.h.....*O...
 0050 2ad96046 831c0130 b2fbf3f7 192f07fb  *.`F...0...../..
 0060 03f3f7d8 4ff00108 b6fbf3f3 cb1a002b  ....O..........+
 0070 b8bf5b42 ab420bdb a7f10c03 18bf4ff0  ..[B.B........O.
 0080 0008062b 0ad8b8f1 000f07d0 8446e1e7  ...+.........F..
 0090 1d46a7f1 0c038446 062bf4d9 052fd9d8  .F.....F.+.../..
 00a0 0cf10103 b2fbf3f2 b5f5967f a2f10502  ................
 00b0 4cdc142a 4ad802eb 42022f4f 6e46dff8  L..*J...B./OnF..
 00c0 b08002f1 4003bef1 020f0deb 03050fcf  ....@...........
 00d0 0fc60fcf 0fc60fcf 0fc697e8 0f0007c6  ................
 00e0 26f8023b 4fea1343 337015f8 3f3c15f8  &..;O..C3p..?<..
 00f0 3e2c4fea c34315f8 401c4fea 024203f4  >,O..C..@.O..B..
 0100 601301f0 070102f4 e02243ea 020343ea  `........"C...C.
 0110 010343f4 800343ea 0c6343f4 8043c8f8  ..C...C..cC..C..
 0120 0430d8f8 043014bf 23f00803 43f00803  .0...0..#...C...
 0130 c8f80430 3cb90e4a 136823f0 80531360  ...0<..J.h#..S.`
 0140 1368db01 fcd410b0 bde8f081 002cfad1  .h...........,..
 0150 074a1368 23f08053 13601368 d901fcd4  .J.h#..S.`.h....
 0160 10b0bde8 f08100bf 3c185000 00c00f40  ........<.P....@
 0170 00401d40 40420f00 00000000           .@.@@B......    
Contents of section .text._ZN10FlexCAN_T4IL13CAN_DEV_TABLE1075658752EL21FLEXCAN_RXQUEUE_TABLE256EL21FLEXCAN_TXQUEUE_TABLE16EE5writeERK15CANFD_message_t:
 0000 00207047                             . pG            
Contents of section .text._ZN10FlexCAN_T4IL13CAN_DEV_TABLE1075658752EL21FLEXCAN_RXQUEUE_TABLE256EL21FLEXCAN_TXQUEUE_TABLE16EE4isFDEv:
 0000 00207047                             . pG            
Contents of section .text._ZN10FlexCAN_T4IL13CAN_DEV_TABLE1075658752EL21FLEXCAN_RXQUEUE_TABLE256EL21FLEXCAN_TXQUEUE_TABLE16EE17getFirstTxBoxSizeEv:
 0000 08207047                             . pG            
Contents of section .text._ZN10FlexCAN_T4IL13CAN_DEV_TABLE1075658752EL21FLEXCAN_RXQUEUE_TABLE256EL21FLEXCAN_TXQUEUE_TABLE16EE13mailboxOffsetEv.part.0:
 0000 10490b68 486b0a68 496b02f0 7f02c1f3  .I.hHk.hIk......
 0010 03610132 0431b2eb 410f10d3 03f07f03  .a.2.1..A.......
 0020 c0f30360 053b0130 a3eb4003 dbb2054a  ...`.;.0..@....J
 0030 106800f0 7f000130 c01ac0b2 70470023  .h.....0....pG.#
 0040 f5e700bf 00401d40                    .....@.@        
Contents of section .text._ZN11SparkMaxESCC2Eh:
 0000 01f03f02 017042f0 01724260 704700bf  ..?..pB..rB`pG..
Contents of section .rodata._ZN11SparkMaxESC11sendCommandE11ControlTypef.str1.4:
 0000 53656e64 696e6720 43414e20 6d657373  Sending CAN mess
 0010 61676520 77697468 2049443a 20000000  age with ID: ...
 0020 43414e20 6d657373 61676520 73656e74  CAN message sent
 0030 20737563 63657373 66756c6c 792e0000   successfully...
 0040 43414e20 6d657373 61676520 73656e64  CAN message send
 0050 20666169 6c656421 00                  failed!.       
Contents of section .text._ZN11SparkMaxESC11sendCommandE11ControlTypef:
 0000 f0b5404f 06460d46 2ded028b 3c68b0ee  ..@O.F.F-...<h..
 0010 408a87b0 bff35b8f 14f00104 41d0dfed  @.....[.....A...
 0020 3a7aec46 394c28ee 270a7768 01260fcc  :z.F9L(.'.wh.&..
 0030 bdeec00a ace80f00 94e80300 10ee103a  ...............:
 0040 00978df8 0760adf8 0e308df8 0c508ce8  .....`...0...P..
 0050 03001d21 2e48fff7 feff0099 00231022  ...!.H.......#."
 0060 2c48fff7 feff2b48 fff7feff 69462a48  ,H....+H....iF*H
 0070 fff7feff 50b11e21 2848fff7 feff2548  ....P..!(H....%H
 0080 fff7feff 07b0bdec 028bf0bd 18212448  .............!$H
 0090 fff7feff 1f48fff7 feff07b0 bdec028b  .....H..........
 00a0 f0bd3846 fff7feff 0028b8d0 1a4a3846  ..8F.....(...J8F
 00b0 02f58053 9482d482 1483a3f8 1a4ba3f8  ...S.........K..
 00c0 1c4ba3f8 1e4ba3f8 d04ca3f8 d24ca3f8  .K...K...L...L..
 00d0 d44ca3f8 984da3f8 9a4da3f8 9c4d02f5  .L...M...M...M..
 00e0 005383f8 0047c3f8 0c4983f8 0147c3f8  .S...G...I...G..
 00f0 104983f8 14490b4b 1a600b4b 1360fff7  .I...I.K.`.K.`..
 0100 feff8ce7 00000000 00feff46 40000000  ...........F@...
 0110 00000000 00000000 00000000 20000000  ............ ...
 0120 40000000 00000000 08000000           @...........    
Contents of section .rodata._ZN11SparkMaxESC8setPowerEf.str1.4:
 0000 53657474 696e6720 706f7765 723a2000  Setting power: .
Contents of section .text._ZN11SparkMaxESC8setPowerEf:
 0000 38b52ded 028bb0ee 408a0c4d 04460f21  8.-.....@..M.F.!
 0010 0b48fff7 feffb7ee c80a0221 2846fff7  .H.........!(F..
 0020 feff2846 fff7feff b0ee480a 20460021  ..(F......H. F.!
 0030 bdec028b bde83840 fff7febf 00000000  ......8@........
 0040 00000000                             ....            
Contents of section .rodata._ZN11SparkMaxESC10setControlE11ControlTypef.str1.4:
 0000 53657474 696e6720 636f6e74 726f6c20  Setting control 
 0010 6d6f6465 3a200000 2c205661 6c75653a  mode: .., Value:
 0020 2000                                  .              
Contents of section .text._ZN11SparkMaxESC10setControlE11ControlTypef:
 0000 70b5144e 0c460546 16211348 2ded028b  p..N.F.F.!.H-...
 0010 b0ee408a fff7feff 00230a22 21463046  ..@......#."!F0F
 0020 fff7feff 09210d48 fff7feff b7eec80a  .....!.H........
 0030 02213046 fff7feff 3046fff7 feffb0ee  .!0F....0F......
 0040 480a2146 2846bdec 028bbde8 7040fff7  H.!F(F......p@..
 0050 febf00bf 00000000 00000000 18000000  ................
Contents of section .rodata._ZN11SparkMaxESC4stopEv.str1.4:
 0000 53746f70 70696e67 206d6f74 6f722e00  Stopping motor..
Contents of section .text._ZN11SparkMaxESC4stopEv:
 0000 10b50f21 04460748 fff7feff 0648fff7  ...!.F.H.....H..
 0010 feff2046 9fed050a 0021bde8 1040fff7  .. F.....!...@..
 0020 febf00bf 00000000 00000000 00000000  ................
Contents of section .rodata._ZN11SparkMaxESC11resetFaultsEv.str1.4:
 0000 52657365 7474696e 67206661 756c7473  Resetting faults
 0010 2e2e2e00 4661756c 74207265 73657420  ....Fault reset 
 0020 636f6d6d 616e6420 73656e74 20737563  command sent suc
 0030 63657373 66756c6c 792e0000 4661756c  cessfully...Faul
 0040 74207265 73657420 636f6d6d 616e6420  t reset command 
 0050 6661696c 65642100                    failed!.        
Contents of section .text._ZN11SparkMaxESC11resetFaultsEv:
 0000 70b51321 86b00546 354e3648 fff7feff  p..!...F5N6H....
 0010 3548fff7 feff3468 bff35b8f 14f00104  5H....4h..[.....
 0020 2cd0324c ec462d78 00264ff0 010e05f0  ,.2L.F-x.&O.....
 0030 3f050fcc ace80f00 94e80300 45f06065  ?...........E.`e
 0040 8df807e0 8ce80300 69462948 0095cde9  ........iF)H....
 0050 0366fff7 feff40b1 26212648 fff7feff  .f....@.&!&H....
 0060 2148fff7 feff06b0 70bd1b21 2248fff7  !H......p..!"H..
 0070 feff1d48 fff7feff 06b070bd 3046fff7  ...H......p.0F..
 0080 feff0028 cdd01a4a 30461c4b 94821360  ...(...J0F.K...`
 0090 02f58053 d4821483 a3f81a4b a3f81c4b  ...S.......K...K
 00a0 a3f81e4b a3f8d04c a3f8d24c a3f8d44c  ...K...L...L...L
 00b0 a3f8984d a3f89a4d a3f89c4d 02f50053  ...M...M...M...S
 00c0 83f80047 c3f80c49 83f80147 c3f81049  ...G...I...G...I
 00d0 83f81449 0a4b1a60 fff7feff a1e700bf  ...I.K.`........
 00e0 00000000 00000000 00000000 40000000  ............@...
 00f0 00000000 14000000 3c000000 08000000  ........<.......
 0100 00000000                             ....            
Contents of section .rodata._ZN11SparkMaxESC15setCurrentLimitEf.str1.4:
 0000 53657474 696e6720 63757272 656e7420  Setting current 
 0010 6c696d69 743a2000 43757272 656e7420  limit: .Current 
 0020 6c696d69 74207365 74207375 63636573  limit set succes
 0030 7366756c 6c792e00 4661696c 65642074  sfully..Failed t
 0040 6f207365 74206375 7272656e 74206c69  o set current li
 0050 6d697421 00                          mit!.           
Contents of section .text._ZN11SparkMaxESC15setCurrentLimitEf:
 0000 70b52ded 028bb0ee 408a86b0 17210546  p.-.....@....!.F
 0010 3d48fff7 feff3d4e b7eec80a 02213c48  =H....=N.....!<H
 0020 fff7feff 3a48fff7 feff3468 bff35b8f  ....:H....4h..[.
 0030 14f00104 36d0dfed 377aec46 364c0126  ....6...7z.F6L.&
 0040 28ee278a 2d780fcc bdeec88a 05f03f05  (.'.-x........?.
 0050 ace80f00 94e80300 45f08055 18ee103a  ........E..U...:
 0060 8df80760 0095adf8 0c308ce8 03006946  ...`.....0....iF
 0070 2a48fff7 feff50b1 1f212948 fff7feff  *H....P..!)H....
 0080 2348fff7 feff06b0 bdec028b 70bd1c21  #H..........p..!
 0090 2448fff7 feff1e48 fff7feff 06b0bdec  $H.....H........
 00a0 028b70bd 3046fff7 feff0028 c3d01b4a  ..p.0F.....(...J
 00b0 30461d4b 94821360 02f58053 d4821483  0F.K...`...S....
 00c0 a3f81a4b a3f81c4b a3f81e4b a3f8d04c  ...K...K...K...L
 00d0 a3f8d24c a3f8d44c a3f8984d a3f89a4d  ...L...L...M...M
 00e0 a3f89c4d 02f50053 83f80047 c3f80c49  ...M...S...G...I
 00f0 83f80147 c3f81049 83f81449 0b4b1a60  ...G...I...I.K.`
 0100 fff7feff 97e700bf 00000000 00000000  ................
 0110 00000000 00007a44 40000000 00000000  ......zD@.......
 0120 18000000 38000000 08000000 00000000  ....8...........
Contents of section .rodata._ZN11SparkMaxESC12readResponseEm.str1.4:
 0000 52657175 65737469 6e672064 61746120  Requesting data 
 0010 77697468 2049443a 20000000 4661696c  with ID: ...Fail
 0020 65642074 6f207365 6e642072 65616420  ed to send read 
 0030 72657175 65737421 00000000 4e6f2072  request!....No r
 0040 6573706f 6e736520 72656365 69766564  esponse received
 0050 2e00                                 ..              
Contents of section .text._ZN11SparkMaxESC12readResponseEm:
 0000 f0b50e46 8db01921 4e48fff7 feff4e4d  ...F...!NH....NM
 0010 00231022 31464d48 fff7feff 4b48fff7  .#."1FMH....KH..
 0020 feff2c68 bff35b8f 14f00104 4ed0484c  ..,h..[.....N.HL
 0030 6d460027 4ff0010c 0fcc0fc5 94e80300  mF.'O...........
 0040 00968df8 07c085e8 03006946 4148cde9  ..........iFAH..
 0050 0377fff7 feff0028 69d03f4d 103c0df1  .w.....(i.?M.<..
 0060 180c2e68 2b68a3eb 060e0fcc bef1310f  ...h+h........1.
 0070 ace80f00 94e80300 8ce80300 1bd8354c  ..............5L
 0080 05e0fff7 feff2b68 9b1b312b 13d806a9  ......+h..1+....
 0090 2046fff7 feff0346 0120002b f1d0bdf9   F.....F. .+....
 00a0 26309fed 2e7a07ee 903af8ee e77a87ee  &0...z...:...z..
 00b0 870a0db0 f0bd1521 2948fff7 feff2348  .......!)H....#H
 00c0 fff7feff bfee000a 0db0f0bd 2846fff7  ............(F..
 00d0 feff0028 abd01f4a 2846224b 94821360  ...(...J(F"K...`
 00e0 02f58053 d4821483 a3f81a4b a3f81c4b  ...S.......K...K
 00f0 a3f81e4b a3f8d04c a3f8d24c a3f8d44c  ...K...L...L...L
 0100 a3f8984d a3f89a4d a3f89c4d 02f50053  ...M...M...M...S
 0110 83f80047 c3f80c49 83f80147 c3f81049  ...G...I...G...I
 0120 83f81449 104b1a60 fff7feff 7fe71c21  ...I.K.`.......!
 0130 0e48fff7 feff0548 fff7feff bfee000a  .H.....H........
 0140 0db0f0bd 00000000 00000000 00000000  ................
 0150 40000000 00000000 00000000 00feff46  @..............F
 0160 3c000000 08000000 00000000 1c000000  <...............
Contents of section .text._ZN11SparkMaxESC18getEncoderPositionEv:
 0000 017801f0 3f0141f0 0061fff7 febf00bf  .x..?.A..a......
Contents of section .text._ZN11SparkMaxESC18getEncoderVelocityEv:
 0000 017801f0 3f0141f0 1061fff7 febf00bf  .x..?.A..a......
Contents of section .text._ZN11SparkMaxESC15getMotorCurrentEv:
 0000 017801f0 3f0141f0 4061fff7 febf00bf  .x..?.A.@a......
Contents of section .text._ZN11SparkMaxESC19getMotorTemperatureEv:
 0000 017801f0 3f0141f0 5061fff7 febf00bf  .x..?.A.Pa......
Contents of section .text._ZN11SparkMaxESC9getFaultsEv:
 0000 08b50178 01f03f01 41f06061 fff7feff  ...x..?.A.`a....
 0010 bceec00a 10ee103a 98b208bd           .......:....    
Contents of section .text._ZN11SparkMaxESC15getStickyFaultsEv:
 0000 08b50178 01f03f01 41f07061 fff7feff  ...x..?.A.pa....
 0010 bceec00a 10ee103a 98b208bd           .......:....    
Contents of section .text._ZN10FlexCAN_T4IL13CAN_DEV_TABLE1075658752EL21FLEXCAN_RXQUEUE_TABLE256EL21FLEXCAN_TXQUEUE_TABLE16EE5beginEv:
 0000 2de9f043 9a4b83b0 9a490022 01930b6a  -..C.K...I."...j
 0010 c3f30123 08336b44 13f8043c c0e90122  ...#.3kD...<..."
 0020 c0e90322 002b00f0 098100f5 00569149  ...".+.......V.I
 0030 2520914b 0224914a 0125c6f8 0c091020  % .K.$.J.%..... 
 0040 c3f8d420 8a6e8e4b 42f47012 8a6641f2  ... .n.KB.p..fA.
 0050 b00186f8 15498b4a 8b4cc3f8 c400c3f8  .....I.J.L......
 0060 b4122565 c3f8c800 c3f8b812 136823f0  ..%e.........h#.
 0070 00431360 136843f0 a0431360 1368db01  .C.`.hC..C.`.h..
 0080 fcd55368 7f4943f0 08035360 136843f0  ..Sh.IC...S`.hC.
 0090 80431360 0b68df02 fcd40a68 794b42f0  .C.`.h.....hyKB.
 00a0 00720a60 1a6812f0 0072fbd1 754b1968  .r.`.h...r..uK.h
 00b0 cd01fcd5 196841f4 00311960 196841f4  .....hA..1.`.hA.
 00c0 80311960 196841f4 80511960 196841f4  .1.`.hA..Q.`.hA.
 00d0 00511960 196841f4 80011960 196841f4  .Q.`.hA....`.hA.
 00e0 00211960 196821f4 08411960 596b41f4  .!.`.h!..A.`YkA.
 00f0 e0215963 196841f4 00111960 196841f0  .!Yc.hA....`.hA.
 0100 80611960 1d681968 05f08075 41f0a041  .a.`.h.h...uA..A
 0110 19605c49 0b68dc01 fcd50b68 dff874e1  .`\I.h.....h..t.
 0120 23f00053 dff870c1 564f0b60 00234b62  #..S..p.VO.`.#Kb
 0130 18468b62 096803eb 0e0103eb 0c040133  .F.b.h.........3
 0140 0901a400 c860dbb2 88604860 08602060  .....`...`H`.` `
 0150 396801f0 7f010131 8b42ecd3 b8640024  9h.....1.B...d.$
 0160 3861f96a 3b6bf962 3b633b68 dff82491  8a.j;k.b;c;h..$.
 0170 444fdff8 248119e0 3b6803f0 7f030133  DO..$...;h.....3
 0180 b2eb930f 34bf4ff0 80634ff0 8c630b60  ....4.O..cO..c.`
 0190 7b6bc3f3 00439b07 03603b68 013403f0  {k...C...`;h.4..
 01a0 7f03e4b2 01332246 9c421fd2 3b6804eb  .....3"F.B..;h..
 01b0 090104eb 080003f0 7f030901 80000133  ...............3
 01c0 b2eb530f d8d34ff0 00630b60 3b689800  ..S...O..c.`;h..
 01d0 03d5fff7 feffa042 dfd80123 1f2c03fa  .......B...#.,..
 01e0 04f323d8 ba6a1343 bb62d6e7 3db93b68  ..#..j.C.b..=.;h
 01f0 244a23f0 80533b60 1368d901 fcd4214a  $J#..S;`.h....!J
 0200 136823f0 80531360 1368db01 fcd4d6f8  .h#..S.`.h......
 0210 0c290121 1d4b03eb 521302f0 1f029b00  .).!.K..R.......
 0220 01fa02f2 1a6003b0 bde8f083 a4f12001  .....`........ .
 0230 01237a6a 8b401343 7b62aee7 0b6a144a  .#zj.@.C{b...j.J
 0240 23f47f73 43f48073 0b621368 002b3ff4  #..sC..s.b.h.+?.
 0250 ecae0c4a 00f50056 1c681846 5268d6f8  ...J...V.h.FRh..
 0260 1019c2f3 c0026368 52009847 dfe600bf  ......chR..G....
 0270 3c185000 00c00f40 00000000 00000000  <.P....@........
 0280 00801f40 00401d40 00841f40 40380038  ...@.@.@...@@8.8
 0290 00000000 08d40104 20520710           ........ R..    
Contents of section .rodata._ZN11SparkMaxESC5beginEv.str1.4:
 0000 496e6974 69616c69 7a696e67 20537061  Initializing Spa
 0010 726b4d61 78455343 2e2e2e00 43414e20  rkMaxESC....CAN 
 0020 42757320 496e6974 69616c69 7a65642e  Bus Initialized.
 0030 00                                   .               
Contents of section .text._ZN11SparkMaxESC5beginEv:
 0000 70b51b21 29482a4c fff7feff 2948fff7  p..!)H*L....)H..
 0010 feff2378 03b170bd 274e3568 bff35b8f  ..#x..p.'N5h..[.
 0020 15f00105 11d02548 fff7feff 00222449  ......%H....."$I
 0030 2248fff7 feff1421 2248fff7 feff1d48  "H.....!"H.....H
 0040 fff7feff 01232370 70bd3046 fff7feff  .....##pp.0F....
 0050 0028e8d0 194a3046 1b4b9582 136002f5  .(...J0F.K...`..
 0060 8053d582 1583a3f8 1a5ba3f8 1c5ba3f8  .S.......[...[..
 0070 1e5ba3f8 d05ca3f8 d25ca3f8 d45ca3f8  .[...\...\...\..
 0080 985da3f8 9a5da3f8 9c5d02f5 005383f8  .]...]...]...S..
 0090 0057c3f8 0c5983f8 0157c3f8 105983f8  .W...Y...W...Y..
 00a0 14590a4b 1a60fff7 feffbce7 00000000  .Y.K.`..........
 00b0 00000000 00000000 00000000 00000000  ................
 00c0 40420f00 1c000000 08000000 00000000  @B..............
Contents of section .text._ZN10FlexCAN_T4IL13CAN_DEV_TABLE1075658752EL21FLEXCAN_RXQUEUE_TABLE256EL21FLEXCAN_TXQUEUE_TABLE16EE14writeTxMailboxEhRK13CAN_message_t:
 0000 1f291c48 10b423d8 0123046b 8b402343  .).H..#..#.k.@#C
 0010 0363194b 4ff00064 d0790b44 1b011c60  .c.KO..d.y.D...`
 0020 f8b1117a 10680905 20f06040 41f4c001  ...z.h.. .`@A...
 0030 5860d068 5df8044b 00ba9860 106900ba  X`.h]..K...`.i..
 0040 d860d27a 41ea0242 42f04062 1a607047  .`.zA..BB.@b.`pG
 0050 a1f1200c 0123c46a 03fa0cf3 2343c362  .. ..#.j....#C.b
 0060 d7e71468 0548117a 00ea8440 09055860  ...h.H.z...@..X`
 0070 dfe700bf 00401d40 08d40104 0000fc1f  .....@.@........
Contents of section .text._ZN10FlexCAN_T4IL13CAN_DEV_TABLE1075658752EL21FLEXCAN_RXQUEUE_TABLE256EL21FLEXCAN_TXQUEUE_TABLE16EE14struct2queueTxERK13CAN_message_t:
 0000 3b4b1b6a 2de9f041 13f0200e 86b066d1  ;K.j-..A.. ...f.
 0010 00f58054 0646b4f8 1e3b9bb2 102b62d0  ...T.F...;...+b.
 0020 b4f81c8b 0d461a27 086808f0 0f084968  .....F.'.h....Ih
 0030 aa68ec46 eb6807fb 0848ace8 0f002869  .h.F.h...H....(i
 0040 18226969 88f830eb 41f6303e b4f81c3b  ."ii..0.A.0>...;
 0050 03f00f03 07fb0343 83f8312b b4f81c3b  .......C..1+...;
 0060 03f00f03 ace80300 07fb0366 ec46b644  ...........f.F.D
 0070 bce80f00 cef80200 cef80610 cef80a20  ............... 
 0080 cef80e30 bce80300 cef81200 cef81610  ...0............
 0090 b4f81c2b b4f81a3b 92b29bb2 83f01003  ...+...;........
 00a0 9a4206d1 b4f81a3b 013303f0 1f03a4f8  .B.....;.3......
 00b0 1a3bb4f8 1c3b0133 03f01f03 a4f81c3b  .;...;.3.......;
 00c0 b4f81e3b 9bb20f2b 09d8b4f8 1e3b0120  ...;...+.....;. 
 00d0 03449bb2 a4f81e3b 06b0bde8 f0810120  .D.....;....... 
 00e0 06b0bde8 f0817046 06b0bde8 f08100bf  ......pF........
 00f0 00401d40                             .@.@            
Contents of section .text._ZN10FlexCAN_T4IL13CAN_DEV_TABLE1075658752EL21FLEXCAN_RXQUEUE_TABLE256EL21FLEXCAN_TXQUEUE_TABLE16EE5writeERK13CAN_message_t:
 0000 8b7d70b5 0d4686b0 04463f4e 002b3cd1  .}p..F...F?N.+<.
 0010 336813f0 005c25d0 fff7feff 33688446  3h...\%.....3h.F
 0020 03f07f03 01339842 1ed23849 364807e0  .....3.B..8I6H..
 0030 03685ffa 82fc03f0 7f030133 9c4513d2  .h_........3.E..
 0040 0ceb0103 0cf10102 1b011b68 c3f30363  ...........h...c
 0050 082bedd1 20462a46 6146fff7 feff0120  .+.. F*FaF..... 
 0060 06b070bd 3368e0e7 0fcdec46 ff26ace8  ..p.3h.....F.&..
 0070 0f0095e8 03008ce8 03006946 20468df8  ..........iF F..
 0080 1460fff7 feff06b0 70bd3068 10f00050  .`......p.0h...P
 0090 30d0fff7 feff3368 03f07f03 01338342  0.....3h.....3.B
 00a0 24d91a49 184e05e0 336803f0 7f030133  $..I.N..3h.....3
 00b0 98421bd2 4318421c 84461b01 d0b21a68  .B..C.B..F.....h
 00c0 1201f1d5 1b68c3f3 0363082b 14d06e46  .....h...c.+..nF
 00d0 0fcd0fc6 95e80300 86e80300 69462046  ............iF F
 00e0 8df814c0 fff7feff 06b070bd 084b4ff0  ..........p..KO.
 00f0 ff3ce7e7 3368d4e7 20462a46 5ffa8cf1  .<..3h.. F*F_...
 0100 fff7feff 0120abe7 00401d40 08d40104  ..... ...@.@....
 0110 70401d40                             p@.@            
Contents of section .text._ZN10FlexCAN_T4IL13CAN_DEV_TABLE1075658752EL21FLEXCAN_RXQUEUE_TABLE256EL21FLEXCAN_TXQUEUE_TABLE16EE17fifo_filter_matchEm:
 0000 00f58053 d3f8003e db0069d5 374b2de9  ...S...>..i.7K-.
 0010 f04f5e6b 4ff0000e 41f61469 41f60467  .O^kO...A..iA..g
 0020 c6f30366 41f60868 f6000836 09e01368  ...fA..h...6...h
 0030 5b0f052b 34d00ef1 010e5ffa 8ef39e42  [..+4....._....B
 0040 50d90eeb 4e0500eb c50c0cf5 f0521368  P...N........R.h
 0050 5b0f012b 13680dd0 5b0f022b e7d15cf8  [..+.h..[..+..\.
 0060 07308b42 e7d85cf8 08308b42 e3d30120  .0.B..\..0.B... 
 0070 bde8f08f 13f4607f ddd06d00 002304e0  ......`...m..#..
 0080 1468c4f3 c21c6345 d5d20133 05eb030c  .h....cE...3....
 0090 dbb20cf5 f06c50f8 2c408c42 f0d1e6e7  .....lP.,@.B....
 00a0 136813f4 607fc6d0 cc446d00 012405e0  .h..`....Dm..$..
 00b0 1368c3f3 c2130133 9c42bcd2 2b19dcf8  .h.....3.B..+...
 00c0 00a00134 03f5f063 0aea010a e4b250f8  ...4...c......P.
 00d0 2330dcf8 00b003ea 0b039a45 e8d1c6e7  #0.........E....
 00e0 01207047 0020bde8 f08f00bf 00401d40  . pG. .......@.@
Contents of section .text._ZN10FlexCAN_T4IL13CAN_DEV_TABLE1075658752EL21FLEXCAN_RXQUEUE_TABLE256EL21FLEXCAN_TXQUEUE_TABLE16EE12filter_matchE15FLEXCAN_MAILBOXm:
 0000 01eb4101 70b500eb c10404f5 045edef8  ..A.p........^..
 0010 0030db00 28d5def8 00305b0f 012b0bd0  .0..(....0[..+..
 0020 def80030 5b0f022b 42d0def8 00305b0f  ...0[..+B....0[.
 0030 052b1bd0 002070bd def80040 14f4607f  .+... p....@..`.
 0040 f8d00023 4d0005e0 def80010 c1f3c21c  ...#M...........
 0050 6345efd2 013305eb 030cdbb2 0cf5046c  cE...3.........l
 0060 50f82c40 9442efd1 012070bd def80050  P.,@.B... p....P
 0070 15f4607f ded042f2 14154900 01232544  ..`...B...I..#%D
 0080 07e0def8 0040c4f3 c21c0cf1 010c6345  .....@........cE
 0090 d0d22c68 04ea020c cc180133 04f50464  ..,h.......3...d
 00a0 dbb250f8 24402e68 3440a445 e9d1dbe7  ..P.$@.h4@.E....
 00b0 42f20413 e3589342 bcd842f2 0813e058  B....X.B..B....X
 00c0 904234bf 00200120 70bd00bf           .B4.. . p...    
Contents of section .text._ZN10FlexCAN_T4IL13CAN_DEV_TABLE1075658752EL21FLEXCAN_RXQUEUE_TABLE256EL21FLEXCAN_TXQUEUE_TABLE16EE11mbCallbacksERK15FLEXCAN_MAILBOXRK13CAN_message_t:
 0000 0b78632b 10b50446 82b01046 13d003f5  .xc+...F...F....
 0010 1c6304eb 83035b68 13b10192 98470198  .c....[h.....G..
 0020 04f50054 d4f80438 1bb102b0 bde81040  ...T...8.......@
 0030 184702b0 10bd04f5 0054d4f8 0437002b  .G.......T...7.+
 0040 f0d00192 98470198 ece700bf           .....G......    
Contents of section .text._ZN10FlexCAN_T4IL13CAN_DEV_TABLE1075658752EL21FLEXCAN_RXQUEUE_TABLE256EL21FLEXCAN_TXQUEUE_TABLE16EE14struct2queueRxERK13CAN_message_t:
 0000 2de9f04f 8c468db0 0f460546 6c460646  -..O.F...F.FlF.F
 0010 00f11008 4ff00109 dff814a1 bce80f00  ....O...........
 0020 0fc49ce8 030084e8 030056f8 044f5cb1  ..........V..O\.
 0030 9df91420 a36809fa 02f11942 56d02368  ... .h.....BV.#h
 0040 d3f800b0 d3454cd1 4645eed1 05f50053  .....EL.FE.....S
 0050 93f80037 002b5fd0 ee8a4ff0 1a0c3868  ...7.+_...O...8h
 0060 06ac7968 f6b2ba68 fb680cfb 06560fc4  ..yh...h.h...V..
 0070 00233869 79691822 86f81a31 eb8a0deb  .#8iyi."...1....
 0080 0206dbb2 0cfb0353 03c483f8 1b21ec8a  .......S.....!..
 0090 e4b20fce 0cfb0454 c4f81c01 c4f82011  .......T...... .
 00a0 c4f82421 c4f82831 03cec4f8 2c01c4f8  ..$!..(1....,...
 00b0 3011ea8a ab8a92b2 9bb283f4 80739a42  0............s.B
 00c0 24d0eb8a 0133c3f3 0803eb82 2b8b9bb2  $....3......+...
 00d0 ff2b03d8 2b8b0133 9bb22b83 0db0bde8  .+..+..3..+.....
 00e0 f08f9df8 15306946 2046d847 237c002b  .....0iF F.G#|.+
 00f0 aad02368 d3f800b0 9df81530 d345a3d0  ..#h.......0.E..
 0100 20464ff0 ff326946 d8479de7 ab8a0133   FO..2iF.G.....3
 0110 c3f30803 ab82d4e7 3b7d3a46 06a92846  ........;}:F..(F
 0120 8df81830 fff7feff 0db0bde8 f08f00bf  ...0............
 0130 00000000                             ....            
Contents of section .text._ZN10FlexCAN_T4IL13CAN_DEV_TABLE1075658752EL21FLEXCAN_RXQUEUE_TABLE256EL21FLEXCAN_TXQUEUE_TABLE16EE18frame_distributionER13CAN_message_t:
 0000 00f50053 93f80137 002b00f0 db80dff8  ...S...7.+......
 0010 6cc22de9 f04f0f46 89b00546 0e4602ac  l.-..O.F...F.F..
 0020 0fcf0fc4 97e80300 84e80300 dcf80030  ...............0
 0030 9b0052d5 dcf83430 00244ff0 6309c3f3  ..R...40.$O.c...
 0040 036a2246 4feaca0a 0af1080a 0ce05b0f  .j"FO.........[.
 0050 022b3b68 00f09a80 5b0f052b 00f0dd80  .+;h....[..+....
 0060 0134e2b2 924538d9 96f91430 632b34d0  .4...E8....0c+4.
 0070 04eb4408 05ebc80b 0bf5f057 3b6813f0  ..D........W;h..
 0080 604fedd0 3b685b0f 012b3b68 dfd1c3f3  `O..;h[..+;h....
 0090 0043f279 9a42e3d1 3b6813f4 607fdfd0  .C.y.B..;h..`...
 00a0 4fea480b 002306e0 3a685ffa 88f3c2f3  O.H..#..:h_.....
 00b0 c2129342 d4d203f1 0108029a 0beb0803  ...B............
 00c0 03f5f063 55f82330 9a42edd1 02a92846  ...cU.#0.B....(F
 00d0 8df81c90 fff7feff e6e70023 674f8df8  ...........#gO..
 00e0 0e303c68 14f00054 3fd0fff7 feff3b68  .0<h...T?.....;h
 00f0 044603f0 7f030133 834233d9 42f20417  .F.....3.B3.B...
 0100 42f20818 dff87491 96f91430 a34220d0  B.....t....0.B .
 0110 04eb4401 05ebc102 02f5045a daf80030  ..D........Z...0
 0120 13f0604f 15d0daf8 0030f079 c3f3c063  ..`O.....0.y...c
 0130 98420ed1 daf80030 5b0f012b daf80030  .B.....0[..+...0
 0140 41d05b0f 022b12d0 daf80030 5b0f052b  A.[..+.....0[..+
 0150 5bd0d9f8 00300134 03f07f03 e4b20133  [....0.4.......3
 0160 9c42d1d3 09b0bde8 f08f3b68 c6e7d159  .B........;h...Y
 0170 029b8b42 edd352f8 08209342 e9d802a9  ...B..R.. .B....
 0180 28468df8 1c40fff7 feffe2e7 c3f30043  (F...@.........C
 0190 f2799a42 7ff464af 41f60463 5bf80320  .y.B..d.A..c[.. 
 01a0 029b9342 fff45caf 41f60862 5bf80220  ...B..\.A..b[.. 
 01b0 93423ff6 55af02a9 28468df8 1c90fff7  .B?.U...(F......
 01c0 feff4de7 704713f4 607fc2d0 4a000023  ..M.pG..`...J..#
 01d0 07e0daf8 00105ffa 8bf3c1f3 c2118b42  ......_........B
 01e0 b7d203f1 010b0299 02eb0b03 03f50463  ...............c
 01f0 55f82330 9942ecd1 02a92846 00928df8  U.#0.B....(F....
 0200 1c40fff7 feff009a e3e7029a 21462846  .@..........!F(F
 0210 fff7feff 00289cd0 b1e73b68 13f4607f  .....(....;h..`.
 0220 3ff41eaf 41f61463 01275b44 0ae00bf5  ?...A..c.'[D....
 0230 f0510137 0968ffb2 c1f3c211 01318f42  .Q.7.h.......1.B
 0240 bff40eaf 07eb4801 186801f5 f06155f8  ......H..h...aU.
 0250 21e00299 d3f800c0 08400eea 0c018842  !........@.....B
 0260 e5d102a9 28460193 8df80e20 00928df8  ....(F..... ....
 0270 1c90fff7 feffdde9 0023d8e7 00401d40  .........#...@.@
Contents of section .text._ZN10FlexCAN_T4IL13CAN_DEV_TABLE1075658752EL21FLEXCAN_RXQUEUE_TABLE256EL21FLEXCAN_TXQUEUE_TABLE16EE8readFIFOER13CAN_message_t:
 0000 264a38b5 136813f0 005345d0 13680546  &J8..h...SE..h.F
 0010 0c4613f4 004302d1 926a9206 3cd41f4a  .F...C...j..<..J
 0020 136b13f0 200337d0 d2f88030 c3f30341  .k.. .7....0...A
 0030 c3f30050 a380e172 d2f88410 03f40012  ...P...r........
 0040 2072db0d 002a21f0 604112bf 01220022   r...*!.`A..."."
 0050 890ce271 114a2160 05f50051 d2f88800  ...q.J!`...Q....
 0060 00bae060 d2f88c00 00ba2061 91f81519  ...`...... a....
 0070 a3716323 61752375 13681b04 03d4136b  .qc#au#u.h.....k
 0080 43f02003 13632146 2846fff7 feff2168  C. ..c!F(F....!h
 0090 2846fff7 feff38bd 184638bd 00401d40  (F....8..F8..@.@
Contents of section .text._ZN10FlexCAN_T4IL13CAN_DEV_TABLE1075658752EL21FLEXCAN_RXQUEUE_TABLE256EL21FLEXCAN_TXQUEUE_TABLE16EE6readMBER13CAN_message_t:
 0000 7c4b2de9 f0471f68 81468a46 17f00057  |K-..G.h.F.F...W
 0010 02d0fff7 feff0746 764c09f5 00562268  .......FvL...V"h
 0020 96f81439 02f07f02 01329342 00f2dd80  ...9.....2.B....
 0030 0325dff8 c48157e0 00295dd0 b1fa81f2  .%....W..)].....
 0040 c2f14002 934254db 206810f0 005001d0  ..@..BT. h...P..
 0050 fff7feff 013d86f8 140915f0 ff0500f0  .....=..........
 0060 c4802368 9a0005d5 874203d9 781ec0b2  ..#h.....B..x...
 0070 86f81409 236803f0 7f030133 98420cd3  ....#h.....3.B..
 0080 206810f0 005001d0 fff7feff 013d86f8   h...P.......=..
 0090 140915f0 ff0500f0 a880d4f8 24c0c0f1  ............$...
 00a0 2001a36a a0f12002 0cfa01f1 c3402cfa   ..j.. ......@,.
 00b0 02f20b43 1343db07 0bd400eb 08031b01  ...C.C..........
 00c0 1a681101 05d4110e 01f00b0c bcf1020f  .h..............
 00d0 16d00130 c3b286f8 14392268 02f07f02  ...0.....9"h....
 00e0 01329342 00f28180 e16a226b 52ea0100  .2.B.....j"kR...
 00f0 a2d196f8 1409b4e7 b2fa82f2 20329fe7  ............ 2..
 0100 02f40010 01f00f01 0028c2f3 00508af8  .........(...P..
 0110 080014bf 01200020 8af80700 586820f0  ..... . ....Xh .
 0120 604008bf 800c0629 caf80000 02d10121  `@.....).......!
 0130 8af80910 c2f30341 8af80b10 96f81419  .......A........
 0140 481c86f8 14098af8 1410aaf8 042096f8  H............ ..
 0150 15299af8 07108af8 15209a68 00298af8  .)....... .h.)..
 0160 0f2018bf 4ff08c61 9a6808bf 4ff08061  . ..O..a.h..O..a
 0170 120a8af8 0e209a68 120c8af8 0d209a68  ..... .h..... .h
 0180 120e8af8 0c20da68 8af81320 da68120a  ..... .h... .h..
 0190 8af81220 da68120c 8af81120 da68120e  ... .h..... .h..
 01a0 8af81020 19609af8 1430a268 1f2b14d8  ... .`...0.h.+..
 01b0 012202fa 03f3226b 13432363 51464846  ."...."k.C#cQFHF
 01c0 fff7feff daf80020 9af81410 4846fff7  ....... ....HF..
 01d0 feff68b9 96f81409 7be70122 203b02fa  ..h.....{.." ;..
 01e0 03f3e26a 1343e362 e8e70020 bde8f087  ...j.C.b... ....
 01f0 0120fbe7 00401d40 08d40104           . ...@.@....    
Contents of section .text._ZN10FlexCAN_T4IL13CAN_DEV_TABLE1075658752EL21FLEXCAN_RXQUEUE_TABLE256EL21FLEXCAN_TXQUEUE_TABLE16EE4readER13CAN_message_t:
 0000 38b50446 0d460020 0221fff7 feff70b9  8..F.F. .!....p.
 0010 094b1a68 91000ad5 9a6a9206 07d41b6b  .K.h.....j.....k
 0020 9b0604d5 29462046 fff7feff 38bd2946  ....)F F....8.)F
 0030 2046fff7 feff38bd 00401d40            F....8..@.@    
Contents of section .text._ZN10FlexCAN_T4IL13CAN_DEV_TABLE1075658752EL21FLEXCAN_RXQUEUE_TABLE256EL21FLEXCAN_TXQUEUE_TABLE16EE17flexcan_interruptEv:
 0000 2de9f04f 944d9bb0 944f08ac 04900fcd  -..O.M...O......
 0010 0fc495e8 030084e8 03007e6a b96ad7f8  ..........~j.j..
 0020 2cb0386b 3b680291 13f40043 039003d1  ,.8k;h.....C....
 0030 3a689400 00f11a81 039b43f0 0103bbf1  :h........C.....
 0040 000f00f0 0581bbfa 8bf3844d c3f14003  ...........M..@.
 0050 2c68dfb2 14f00054 019700f0 8582fff7  ,h.....T........
 0060 feff2b68 044603f0 7f030133 984280f0  ..+h.F.....3.B..
 0070 c2808742 40f2bf80 049b671c dff8dc91  ...B@.....g.....
 0080 03f50053 fdb20593 18e0042a 00f06281  ...S.......*..b.
 0090 082a00f0 0382d9f8 0030fcb2 019a03f0  .*.......0......
 00a0 7f030133 a24288bf ab4205f1 010594bf  ...3.B...B......
 00b0 01230023 002b40f0 9e80671c c4f12002  .#.#.+@...g... .
 00c0 029ba4f1 200a06fa 02f1e340 0b4326fa  .... ......@.C&.
 00d0 0af10b43 d807ded5 039b0bfa 02f2e340  ...C...........@
 00e0 13432bfa 0af21343 d907d4d5 dff87881  .C+....C......x.
 00f0 a0444fea 0818d8f8 0030190e c3f30362  .DO......0.....b
 0100 01f00b01 0229c0d1 d8f80410 03f40010  .....)..........
 0110 21f06041 002812bf 4ff0010c 4ff0000c  !.`A.(..O...O...
 0120 890c062a 8df827c0 089102d1 01228df8  ...*..'......"..
 0130 2920adf8 2430c3f3 03438df8 34400028  ) ..$0...C..4@.(
 0140 8df82b30 059b93f8 15398df8 3530d8f8  ..+0.....9..50..
 0150 08308df8 2f30d8f8 08304fea 13238df8  .0../0...0O..#..
 0160 2e30d8f8 08304fea 13438df8 2d30d8f8  .0...0O..C..-0..
 0170 08304fea 13638df8 2c30d8f8 0c308df8  .0O..c..,0...0..
 0180 3330d8f8 0c304fea 13238df8 3230d8f8  30...0O..#..20..
 0190 0c304fea 13438df8 3130d8f8 0c304fea  .0O..C..10...0O.
 01a0 13638df8 303014bf 4ff08c63 4ff08063  .c..00..O..cO..c
 01b0 1f2cc8f8 0030d9f8 08304ff0 010334d8  .,...0...0O...4.
 01c0 d9f83020 a3402146 04981343 c9f83030  ..0 .@!F...C..00
 01d0 089afff7 feff0028 35d108a9 0498fff7  .......(5.......
 01e0 feff08a8 fff7feff 08a8fff7 feff08a8  ................
 01f0 fff7feff 4fe7194a 1948116a 0268194b  ....O..J.H.j.h.K
 0200 4a401340 43b1049b 03f58053 b3f8d42c  J@.@C......S...,
 0210 92b20f2a 40f2ac81 104a136a 0b431362  ...*@....J.j.C.b
 0220 bff34f8f 1bb0bde8 f08fd9f8 2c2003fa  ..O........., ..
 0230 0af32146 04981343 c9f82c30 089afff7  ..!F...C..,0....
 0240 feff0028 c9d008a9 0498fff7 feffc4e7  ...(............
 0250 b3fa83f3 2033f8e6 40000000 00401d40  .... 3..@....@.@
 0260 00000000 bfff0700 08d40104 89067ff5  ................
 0270 e3ae8206 7ff5e0ae d7f88020 bb4c02f4  ........... .L..
 0280 0011c2f3 0050adf8 24200029 c2f30341  .....P..$ .)...A
 0290 4fead252 8df82b10 d7f88410 8df82800  O..R..+.......(.
 02a0 18bf0120 21f06041 08bf0020 8df82620  ... !.`A... ..& 
 02b0 4ff00002 08bf890c 8df82700 0ca80891  O.........'.....
 02c0 d4f88810 d1400832 202a00f8 011df7d1  .....@.2 *......
 02d0 0da8a649 d1f88c20 da400833 202b00f8  ...I... .@.3 +..
 02e0 012df7d1 049b03f5 005393f8 15398df8  .-.......S...9..
 02f0 35306323 8df83430 8b680b6b 43f02003  50c#..40.h.kC. .
 0300 0b63039b 5d0603d5 0b6b43f0 40030b63  .c..]....kC.@..c
 0310 039b1c06 04d5954a 136b43f0 80031363  .......J.kC....c
 0320 049c08a9 2046fff7 feff08a8 fff7feff  .... F..........
 0330 08a8fff7 feff08a8 fff7feff 08992046  .............. F
 0340 fff7feff 00283ff4 77ae08a9 0498fff7  .....(?.w.......
 0350 feff71e6 03f40012 002ad8f8 0420adf8  ..q......*... ..
 0360 2430c3f3 03438df8 344022f0 60428df8  $0...C..4@".`B..
 0370 2b3018bf 0121059b 04bf920c 002193f8  +0...!.......!..
 0380 15390892 8df83530 d8f80830 049a8df8  .9....50...0....
 0390 2f30d8f8 08308df8 27101b0a 8df82e30  /0...0..'......0
 03a0 d8f80830 1b0c8df8 2d30d8f8 08301b0e  ...0....-0...0..
 03b0 8df82c30 d8f80c30 8df83330 d8f80c30  ..,0...0..30...0
 03c0 1b0a8df8 3230d8f8 0c301b0c 8df83130  ....20...0....10
 03d0 04f60223 52f82330 d8f80c20 120e8df8  ...#R.#0... ....
 03e0 30200bb1 08a89847 059bd3f8 08390bb1  0 .....G.....9..
 03f0 08a89847 049901f5 8052b2f8 1e3b0792  ...G.....R...;..
 0400 9bb2002b 00f00f81 b2f81a3b 1a220df1  ...+.......;."..
 0410 500c03f0 0f03e046 02fb0313 41f63232  P......F....A.22
 0420 0ea903eb 020a0691 8e469858 daf80410  .........F.X....
 0430 daf80820 daf80c30 ace80f00 daf81000  ... ...0........
 0440 daf81410 ace80300 b8e80f00 aee80f00  ................
 0450 98e80300 8ee80300 9df94c30 5a1c00f0  ..........L0Z...
 0460 f1809c42 7ff417ae 069ae1b2 0498fff7  ...B............
 0470 feff079a b2f81a3b 013303f0 1f03a2f8  .......;.3......
 0480 1a3bb2f8 1e3b9bb2 002b3ff4 04aeb2f8  .;...;...+?.....
 0490 1e3b013b 9bb2a2f8 1e3bfce5 03f40012  .;.;.....;......
 04a0 002ad8f8 0420adf8 2430c3f3 03438df8  .*... ..$0...C..
 04b0 344022f0 60428df8 2b3018bf 0121059b  4@".`B..+0...!..
 04c0 04bf920c 002193f8 15390892 8df83530  .....!...9....50
 04d0 d8f80830 049a8df8 2f30d8f8 08308df8  ...0..../0...0..
 04e0 27101b0a 8df82e30 d8f80830 1b0c8df8  '......0...0....
 04f0 2d30d8f8 08301b0e 8df82c30 d8f80c30  -0...0....,0...0
 0500 8df83330 d8f80c30 1b0a8df8 3230d8f8  ..30...0....20..
 0510 0c301b0c 8df83130 d8f80c30 1b0e8df8  .0....10...0....
 0520 303004f6 022352f8 23300bb1 08a89847  00...#R.#0.....G
 0530 059bd3f8 08390bb1 08a89847 049901f5  .....9.....G....
 0540 8052b2f8 1e3b0792 9bb2002b 7ff45caf  .R...;.....+..\.
 0550 1f2c4ff0 010300f2 8080d9f8 3020a340  .,O.........0 .@
 0560 1343c9f8 303096e5 2b6885e5 00401d40  .C..00..+h...@.@
 0570 b3f8d42c 92b20f2a 05d8b3f8 d42c0132  ...,...*.....,.2
 0580 92b2a3f8 d42cb3f8 d22cb3f8 d24c02f0  .....,...,...L..
 0590 0f02a4b2 03eb8202 c2f8d81c b3f8d02c  ...............,
 05a0 92b282f0 10029442 06d1b3f8 d02c0132  .......B.....,.2
 05b0 02f01f02 a3f8d02c b3f8d22c 2b4c0132  .......,...,+L.2
 05c0 02f01f02 a3f8d22c e469b3f8 9c2da4b2  .......,.i...-..
 05d0 92b20f2a 05d8b3f8 9c2d0132 92b2a3f8  ...*.....-.2....
 05e0 9c2db3f8 9a2d02f0 0f0203eb 4202a2f8  .-...-......B...
 05f0 9e4db3f8 9a4db3f8 982da4b2 92b282f0  .M...M...-......
 0600 10029442 06d1b3f8 982d0132 02f01f02  ...B.....-.2....
 0610 a3f8982d b3f89a2d 01600132 02f01f02  ...-...-.`.2....
 0620 a3f89a2d f8e51f2c 4ff00103 0dd8d9f8  ...-...,O.......
 0630 3020a340 1343c9f8 30304ff0 0063c8f8  0 .@.C..00O..c..
 0640 003028e5 069a2146 10e7d9f8 2c2003fa  .0(...!F...., ..
 0650 0af31343 c9f82c30 efe7d9f8 2c2003fa  ...C..,0...., ..
 0660 0af31343 c9f82c30 15e500bf 00401d40  ...C..,0.....@.@
Contents of section .text._ZN10FlexCAN_T4IL13CAN_DEV_TABLE1075658752EL21FLEXCAN_RXQUEUE_TABLE256EL21FLEXCAN_TXQUEUE_TABLE16EE6eventsEv:
 0000 2de9f043 00f50057 8fb00446 97f80037  -..C...W...F...7
 0010 13b90123 87f80037 238b9bb2 002b57d1  ...#...7#....+W.
 0020 d7f80c29 04f58056 724b02f0 1f0103eb  ...)...VrK......
 0030 52130122 9b008a40 1a60b6f8 1e3b9bb2  R.."...@.`...;..
 0040 83b3b6f8 1a3b1a22 08ad0df1 080c03f0  .....;."........
 0050 0f03ae46 02fb0343 41f63232 03eb0208  ...F...CA.22....
 0060 9858d8f8 0410d8f8 0820d8f8 0c300fc5  .X....... ...0..
 0070 d8f81000 d8f81410 03c5bee8 0f00ace8  ................
 0080 0f009ee8 03008ce8 03009df9 1c104b1c  ..............K.
 0090 54d0594b 0b441b01 1b68c3f3 0363082b  T.YK.D...h...c.+
 00a0 00f08b80 d7f80c29 544b02f0 1f0103eb  .......)TK......
 00b0 52130122 9b008a40 00211a60 238bb6f8  R.."...@.!.`#...
 00c0 1e0b9bb2 80b240ea 03300fb0 bde8f083  ......@..0......
 00d0 a68a1a23 b4f814c0 08adf6b2 0cf1010c  ...#............
 00e0 03fb0646 ccf3080c d6f81c01 d6f82011  ...F.......... .
 00f0 d6f82831 d6f82421 0fc5d6f8 2c01d6f8  ..(1..$!....,...
 0100 3011a4f8 14c0238b 9bb203c5 1bb1238b  0.....#.......#.
 0110 013b9bb2 238308ad 02ae0fcd 0fc695e8  .;..#...........
 0120 030002aa 86e80300 9df81c30 0df10701  ...........0....
 0130 20468df8 0730fff7 feff71e7 dff8c080   F...0....q.....
 0140 d8f80050 15f00055 50d0fff7 feffd8f8  ...P...UP.......
 0150 00300546 03f07f03 01338342 a2d9dff8  .0.F.....3.B....
 0160 9890dff8 9c8008e0 d8f80030 013503f0  ...........0.5..
 0170 7f03edb2 01339d42 94d205eb 09031b01  .....3.B........
 0180 1b68c3f3 0363082b eed102aa 29462046  .h...c.+....)F F
 0190 fff7feff b6f81a3b 013303f0 1f03a6f8  .......;.3......
 01a0 1a3bb6f8 1e3b9bb2 002bddd0 b6f81e3b  .;...;...+.....;
 01b0 013b9bb2 a6f81e3b d6e702aa c9b22046  .;.....;...... F
 01c0 fff7feff b6f81a3b 013303f0 1f03a6f8  .......;.3......
 01d0 1a3bb6f8 1e3b9bb2 002b3ff4 63afb6f8  .;...;...+?.c...
 01e0 1e3b013b 9bb2a6f8 1e3b5be7 d8f80030  .;.;.....;[....0
 01f0 b5e700bf 60380038 08d40104 40380038  ....`8.8....@8.8
 0200 00401d40                             .@.@            
Contents of section .rodata._ZTV10FlexCAN_T4IL13CAN_DEV_TABLE1075658752EL21FLEXCAN_RXQUEUE_TABLE256EL21FLEXCAN_TXQUEUE_TABLE16EE:
 0000 00000000 00000000 00000000 00000000  ................
 0010 00000000 00000000 00000000 00000000  ................
 0020 00000000 00000000                    ........        
Contents of section .rodata:
 0000 00000101 00010101 01020101 02020102  ................
 0010 03010203 02020402 02050202 05030206  ................
 0020 03020703 02070403 07040307 05040705  ................
 0030 04070605 07060607 06060707 07070700  ................
 0040 00000000 00000000 00000008 00000000  ................
 0050 00000000 00000000                    ........        
Contents of section .comment:
 0000 00474343 3a202841 726d2047 4e552054  .GCC: (Arm GNU T
 0010 6f6f6c63 6861696e 2031312e 332e5265  oolchain 11.3.Re
 0020 6c312920 31312e33 2e312032 30323230  l1) 11.3.1 20220
 0030 37313200                             712.            
Contents of section .ARM.attributes:
 0000 41310000 00616561 62690001 27000000  A1...aeabi..'...
 0010 0537452d 4d00060d 074d0902 0a081204  .7E-M....M......
 0020 14011501 17031801 19011a01 1c011e02  ................
 0030 2201                                 ".              

Disassembly of section .text._ZN11CANListener12frameHandlerER13CAN_message_tih:

00000000 <_ZN11CANListener12frameHandlerER13CAN_message_tih>:
   0:	2000      	movs	r0, #0
   2:	4770      	bx	lr

Disassembly of section .text._ZL16flexcan_isr_can2v:

00000000 <_ZL16flexcan_isr_can2v>:
   0:	4b03      	ldr	r3, [pc, #12]	; (10 <_ZL16flexcan_isr_can2v+0x10>)
   2:	6818      	ldr	r0, [r3, #0]
   4:	b110      	cbz	r0, c <_ZL16flexcan_isr_can2v+0xc>
   6:	6803      	ldr	r3, [r0, #0]
   8:	681b      	ldr	r3, [r3, #0]
   a:	4718      	bx	r3
   c:	4770      	bx	lr
   e:	bf00      	nop
  10:	00000000 	.word	0x00000000

Disassembly of section .text._ZN10FlexCAN_T4IL13CAN_DEV_TABLE1075658752EL21FLEXCAN_RXQUEUE_TABLE256EL21FLEXCAN_TXQUEUE_TABLE16EE11setBaudRateEm12FLEXCAN_RXTX:

00000000 <_ZN10FlexCAN_T4IL13CAN_DEV_TABLE1075658752EL21FLEXCAN_RXQUEUE_TABLE256EL21FLEXCAN_TXQUEUE_TABLE16EE11setBaudRateEm12FLEXCAN_RXTX>:
   0:	e92d 41f0 	stmdb	sp!, {r4, r5, r6, r7, r8, lr}
   4:	f500 5000 	add.w	r0, r0, #8192	; 0x2000
   8:	b090      	sub	sp, #64	; 0x40
   a:	4c57      	ldr	r4, [pc, #348]	; (168 <_ZN10FlexCAN_T4IL13CAN_DEV_TABLE1075658752EL21FLEXCAN_RXQUEUE_TABLE256EL21FLEXCAN_TXQUEUE_TABLE16EE11setBaudRateEm12FLEXCAN_RXTX+0x168>)
   c:	4696      	mov	lr, r2
   e:	4b57      	ldr	r3, [pc, #348]	; (16c <_ZN10FlexCAN_T4IL13CAN_DEV_TABLE1075658752EL21FLEXCAN_RXQUEUE_TABLE256EL21FLEXCAN_TXQUEUE_TABLE16EE11setBaudRateEm12FLEXCAN_RXTX+0x16c>)
  10:	9400      	str	r4, [sp, #0]
  12:	f8c0 1910 	str.w	r1, [r0, #2320]	; 0x910
  16:	6a1b      	ldr	r3, [r3, #32]
  18:	4855      	ldr	r0, [pc, #340]	; (170 <_ZN10FlexCAN_T4IL13CAN_DEV_TABLE1075658752EL21FLEXCAN_RXQUEUE_TABLE256EL21FLEXCAN_TXQUEUE_TABLE16EE11setBaudRateEm12FLEXCAN_RXTX+0x170>)
  1a:	f3c3 2301 	ubfx	r3, r3, #8, #2
  1e:	6804      	ldr	r4, [r0, #0]
  20:	3340      	adds	r3, #64	; 0x40
  22:	f004 7480 	and.w	r4, r4, #16777216	; 0x1000000
  26:	446b      	add	r3, sp
  28:	f813 6c40 	ldrb.w	r6, [r3, #-64]
  2c:	4b51      	ldr	r3, [pc, #324]	; (174 <_ZN10FlexCAN_T4IL13CAN_DEV_TABLE1075658752EL21FLEXCAN_RXQUEUE_TABLE256EL21FLEXCAN_TXQUEUE_TABLE16EE11setBaudRateEm12FLEXCAN_RXTX+0x174>)
  2e:	fb03 f606 	mul.w	r6, r3, r6
  32:	6803      	ldr	r3, [r0, #0]
  34:	fbb6 f2f1 	udiv	r2, r6, r1
  38:	fbb6 f5f2 	udiv	r5, r6, r2
  3c:	f043 43a0 	orr.w	r3, r3, #1342177280	; 0x50000000
  40:	1b4d      	subs	r5, r1, r5
  42:	6003      	str	r3, [r0, #0]
  44:	6803      	ldr	r3, [r0, #0]
  46:	01df      	lsls	r7, r3, #7
  48:	d5fc      	bpl.n	44 <_ZN10FlexCAN_T4IL13CAN_DEV_TABLE1075658752EL21FLEXCAN_RXQUEUE_TABLE256EL21FLEXCAN_TXQUEUE_TABLE16EE11setBaudRateEm12FLEXCAN_RXTX+0x44>
  4a:	2a05      	cmp	r2, #5
  4c:	f04f 0c00 	mov.w	ip, #0
  50:	d92a      	bls.n	a8 <_ZN10FlexCAN_T4IL13CAN_DEV_TABLE1075658752EL21FLEXCAN_RXQUEUE_TABLE256EL21FLEXCAN_TXQUEUE_TABLE16EE11setBaudRateEm12FLEXCAN_RXTX+0xa8>
  52:	4660      	mov	r0, ip
  54:	1c83      	adds	r3, r0, #2
  56:	3001      	adds	r0, #1
  58:	fbb2 f7f3 	udiv	r7, r2, r3
  5c:	2f19      	cmp	r7, #25
  5e:	fb07 f303 	mul.w	r3, r7, r3
  62:	d8f7      	bhi.n	54 <_ZN10FlexCAN_T4IL13CAN_DEV_TABLE1075658752EL21FLEXCAN_RXQUEUE_TABLE256EL21FLEXCAN_TXQUEUE_TABLE16EE11setBaudRateEm12FLEXCAN_RXTX+0x54>
  64:	f04f 0801 	mov.w	r8, #1
  68:	fbb6 f3f3 	udiv	r3, r6, r3
  6c:	1acb      	subs	r3, r1, r3
  6e:	2b00      	cmp	r3, #0
  70:	bfb8      	it	lt
  72:	425b      	neglt	r3, r3
  74:	42ab      	cmp	r3, r5
  76:	db0b      	blt.n	90 <_ZN10FlexCAN_T4IL13CAN_DEV_TABLE1075658752EL21FLEXCAN_RXQUEUE_TABLE256EL21FLEXCAN_TXQUEUE_TABLE16EE11setBaudRateEm12FLEXCAN_RXTX+0x90>
  78:	f1a7 030c 	sub.w	r3, r7, #12
  7c:	bf18      	it	ne
  7e:	f04f 0800 	movne.w	r8, #0
  82:	2b06      	cmp	r3, #6
  84:	d80a      	bhi.n	9c <_ZN10FlexCAN_T4IL13CAN_DEV_TABLE1075658752EL21FLEXCAN_RXQUEUE_TABLE256EL21FLEXCAN_TXQUEUE_TABLE16EE11setBaudRateEm12FLEXCAN_RXTX+0x9c>
  86:	f1b8 0f00 	cmp.w	r8, #0
  8a:	d007      	beq.n	9c <_ZN10FlexCAN_T4IL13CAN_DEV_TABLE1075658752EL21FLEXCAN_RXQUEUE_TABLE256EL21FLEXCAN_TXQUEUE_TABLE16EE11setBaudRateEm12FLEXCAN_RXTX+0x9c>
  8c:	4684      	mov	ip, r0
  8e:	e7e1      	b.n	54 <_ZN10FlexCAN_T4IL13CAN_DEV_TABLE1075658752EL21FLEXCAN_RXQUEUE_TABLE256EL21FLEXCAN_TXQUEUE_TABLE16EE11setBaudRateEm12FLEXCAN_RXTX+0x54>
  90:	461d      	mov	r5, r3
  92:	f1a7 030c 	sub.w	r3, r7, #12
  96:	4684      	mov	ip, r0
  98:	2b06      	cmp	r3, #6
  9a:	d9f4      	bls.n	86 <_ZN10FlexCAN_T4IL13CAN_DEV_TABLE1075658752EL21FLEXCAN_RXQUEUE_TABLE256EL21FLEXCAN_TXQUEUE_TABLE16EE11setBaudRateEm12FLEXCAN_RXTX+0x86>
  9c:	2f05      	cmp	r7, #5
  9e:	d8d9      	bhi.n	54 <_ZN10FlexCAN_T4IL13CAN_DEV_TABLE1075658752EL21FLEXCAN_RXQUEUE_TABLE256EL21FLEXCAN_TXQUEUE_TABLE16EE11setBaudRateEm12FLEXCAN_RXTX+0x54>
  a0:	f10c 0301 	add.w	r3, ip, #1
  a4:	fbb2 f2f3 	udiv	r2, r2, r3
  a8:	f5b5 7f96 	cmp.w	r5, #300	; 0x12c
  ac:	f1a2 0205 	sub.w	r2, r2, #5
  b0:	dc4c      	bgt.n	14c <_ZN10FlexCAN_T4IL13CAN_DEV_TABLE1075658752EL21FLEXCAN_RXQUEUE_TABLE256EL21FLEXCAN_TXQUEUE_TABLE16EE11setBaudRateEm12FLEXCAN_RXTX+0x14c>
  b2:	2a14      	cmp	r2, #20
  b4:	d84a      	bhi.n	14c <_ZN10FlexCAN_T4IL13CAN_DEV_TABLE1075658752EL21FLEXCAN_RXQUEUE_TABLE256EL21FLEXCAN_TXQUEUE_TABLE16EE11setBaudRateEm12FLEXCAN_RXTX+0x14c>
  b6:	eb02 0242 	add.w	r2, r2, r2, lsl #1
  ba:	4f2f      	ldr	r7, [pc, #188]	; (178 <_ZN10FlexCAN_T4IL13CAN_DEV_TABLE1075658752EL21FLEXCAN_RXQUEUE_TABLE256EL21FLEXCAN_TXQUEUE_TABLE16EE11setBaudRateEm12FLEXCAN_RXTX+0x178>)
  bc:	466e      	mov	r6, sp
  be:	f8df 80b0 	ldr.w	r8, [pc, #176]	; 170 <_ZN10FlexCAN_T4IL13CAN_DEV_TABLE1075658752EL21FLEXCAN_RXQUEUE_TABLE256EL21FLEXCAN_TXQUEUE_TABLE16EE11setBaudRateEm12FLEXCAN_RXTX+0x170>
  c2:	f102 0340 	add.w	r3, r2, #64	; 0x40
  c6:	f1be 0f02 	cmp.w	lr, #2
  ca:	eb0d 0503 	add.w	r5, sp, r3
  ce:	cf0f      	ldmia	r7!, {r0, r1, r2, r3}
  d0:	c60f      	stmia	r6!, {r0, r1, r2, r3}
  d2:	cf0f      	ldmia	r7!, {r0, r1, r2, r3}
  d4:	c60f      	stmia	r6!, {r0, r1, r2, r3}
  d6:	cf0f      	ldmia	r7!, {r0, r1, r2, r3}
  d8:	c60f      	stmia	r6!, {r0, r1, r2, r3}
  da:	e897 000f 	ldmia.w	r7, {r0, r1, r2, r3}
  de:	c607      	stmia	r6!, {r0, r1, r2}
  e0:	f826 3b02 	strh.w	r3, [r6], #2
  e4:	ea4f 4313 	mov.w	r3, r3, lsr #16
  e8:	7033      	strb	r3, [r6, #0]
  ea:	f815 3c3f 	ldrb.w	r3, [r5, #-63]
  ee:	f815 2c3e 	ldrb.w	r2, [r5, #-62]
  f2:	ea4f 43c3 	mov.w	r3, r3, lsl #19
  f6:	f815 1c40 	ldrb.w	r1, [r5, #-64]
  fa:	ea4f 4202 	mov.w	r2, r2, lsl #16
  fe:	f403 1360 	and.w	r3, r3, #3670016	; 0x380000
 102:	f001 0107 	and.w	r1, r1, #7
 106:	f402 22e0 	and.w	r2, r2, #458752	; 0x70000
 10a:	ea43 0302 	orr.w	r3, r3, r2
 10e:	ea43 0301 	orr.w	r3, r3, r1
 112:	f443 0380 	orr.w	r3, r3, #4194304	; 0x400000
 116:	ea43 630c 	orr.w	r3, r3, ip, lsl #24
 11a:	f443 4380 	orr.w	r3, r3, #16384	; 0x4000
 11e:	f8c8 3004 	str.w	r3, [r8, #4]
 122:	f8d8 3004 	ldr.w	r3, [r8, #4]
 126:	bf14      	ite	ne
 128:	f023 0308 	bicne.w	r3, r3, #8
 12c:	f043 0308 	orreq.w	r3, r3, #8
 130:	f8c8 3004 	str.w	r3, [r8, #4]
 134:	b93c      	cbnz	r4, 146 <_ZN10FlexCAN_T4IL13CAN_DEV_TABLE1075658752EL21FLEXCAN_RXQUEUE_TABLE256EL21FLEXCAN_TXQUEUE_TABLE16EE11setBaudRateEm12FLEXCAN_RXTX+0x146>
 136:	4a0e      	ldr	r2, [pc, #56]	; (170 <_ZN10FlexCAN_T4IL13CAN_DEV_TABLE1075658752EL21FLEXCAN_RXQUEUE_TABLE256EL21FLEXCAN_TXQUEUE_TABLE16EE11setBaudRateEm12FLEXCAN_RXTX+0x170>)
 138:	6813      	ldr	r3, [r2, #0]
 13a:	f023 5380 	bic.w	r3, r3, #268435456	; 0x10000000
 13e:	6013      	str	r3, [r2, #0]
 140:	6813      	ldr	r3, [r2, #0]
 142:	01db      	lsls	r3, r3, #7
 144:	d4fc      	bmi.n	140 <_ZN10FlexCAN_T4IL13CAN_DEV_TABLE1075658752EL21FLEXCAN_RXQUEUE_TABLE256EL21FLEXCAN_TXQUEUE_TABLE16EE11setBaudRateEm12FLEXCAN_RXTX+0x140>
 146:	b010      	add	sp, #64	; 0x40
 148:	e8bd 81f0 	ldmia.w	sp!, {r4, r5, r6, r7, r8, pc}
 14c:	2c00      	cmp	r4, #0
 14e:	d1fa      	bne.n	146 <_ZN10FlexCAN_T4IL13CAN_DEV_TABLE1075658752EL21FLEXCAN_RXQUEUE_TABLE256EL21FLEXCAN_TXQUEUE_TABLE16EE11setBaudRateEm12FLEXCAN_RXTX+0x146>
 150:	4a07      	ldr	r2, [pc, #28]	; (170 <_ZN10FlexCAN_T4IL13CAN_DEV_TABLE1075658752EL21FLEXCAN_RXQUEUE_TABLE256EL21FLEXCAN_TXQUEUE_TABLE16EE11setBaudRateEm12FLEXCAN_RXTX+0x170>)
 152:	6813      	ldr	r3, [r2, #0]
 154:	f023 5380 	bic.w	r3, r3, #268435456	; 0x10000000
 158:	6013      	str	r3, [r2, #0]
 15a:	6813      	ldr	r3, [r2, #0]
 15c:	01d9      	lsls	r1, r3, #7
 15e:	d4fc      	bmi.n	15a <_ZN10FlexCAN_T4IL13CAN_DEV_TABLE1075658752EL21FLEXCAN_RXQUEUE_TABLE256EL21FLEXCAN_TXQUEUE_TABLE16EE11setBaudRateEm12FLEXCAN_RXTX+0x15a>
 160:	b010      	add	sp, #64	; 0x40
 162:	e8bd 81f0 	ldmia.w	sp!, {r4, r5, r6, r7, r8, pc}
 166:	bf00      	nop
 168:	0050183c 	.word	0x0050183c
 16c:	400fc000 	.word	0x400fc000
 170:	401d4000 	.word	0x401d4000
 174:	000f4240 	.word	0x000f4240
 178:	00000000 	.word	0x00000000

Disassembly of section .text._ZN10FlexCAN_T4IL13CAN_DEV_TABLE1075658752EL21FLEXCAN_RXQUEUE_TABLE256EL21FLEXCAN_TXQUEUE_TABLE16EE5writeERK15CANFD_message_t:

00000000 <_ZN10FlexCAN_T4IL13CAN_DEV_TABLE1075658752EL21FLEXCAN_RXQUEUE_TABLE256EL21FLEXCAN_TXQUEUE_TABLE16EE5writeERK15CANFD_message_t>:
   0:	2000      	movs	r0, #0
   2:	4770      	bx	lr

Disassembly of section .text._ZN10FlexCAN_T4IL13CAN_DEV_TABLE1075658752EL21FLEXCAN_RXQUEUE_TABLE256EL21FLEXCAN_TXQUEUE_TABLE16EE4isFDEv:

00000000 <_ZN10FlexCAN_T4IL13CAN_DEV_TABLE1075658752EL21FLEXCAN_RXQUEUE_TABLE256EL21FLEXCAN_TXQUEUE_TABLE16EE4isFDEv>:
   0:	2000      	movs	r0, #0
   2:	4770      	bx	lr

Disassembly of section .text._ZN10FlexCAN_T4IL13CAN_DEV_TABLE1075658752EL21FLEXCAN_RXQUEUE_TABLE256EL21FLEXCAN_TXQUEUE_TABLE16EE17getFirstTxBoxSizeEv:

00000000 <_ZN10FlexCAN_T4IL13CAN_DEV_TABLE1075658752EL21FLEXCAN_RXQUEUE_TABLE256EL21FLEXCAN_TXQUEUE_TABLE16EE17getFirstTxBoxSizeEv>:
   0:	2008      	movs	r0, #8
   2:	4770      	bx	lr

Disassembly of section .text._ZN10FlexCAN_T4IL13CAN_DEV_TABLE1075658752EL21FLEXCAN_RXQUEUE_TABLE256EL21FLEXCAN_TXQUEUE_TABLE16EE13mailboxOffsetEv.part.0:

00000000 <_ZN10FlexCAN_T4IL13CAN_DEV_TABLE1075658752EL21FLEXCAN_RXQUEUE_TABLE256EL21FLEXCAN_TXQUEUE_TABLE16EE13mailboxOffsetEv.part.0>:
   0:	4910      	ldr	r1, [pc, #64]	; (44 <_ZN10FlexCAN_T4IL13CAN_DEV_TABLE1075658752EL21FLEXCAN_RXQUEUE_TABLE256EL21FLEXCAN_TXQUEUE_TABLE16EE13mailboxOffsetEv.part.0+0x44>)
   2:	680b      	ldr	r3, [r1, #0]
   4:	6b48      	ldr	r0, [r1, #52]	; 0x34
   6:	680a      	ldr	r2, [r1, #0]
   8:	6b49      	ldr	r1, [r1, #52]	; 0x34
   a:	f002 027f 	and.w	r2, r2, #127	; 0x7f
   e:	f3c1 6103 	ubfx	r1, r1, #24, #4
  12:	3201      	adds	r2, #1
  14:	3104      	adds	r1, #4
  16:	ebb2 0f41 	cmp.w	r2, r1, lsl #1
  1a:	d310      	bcc.n	3e <_ZN10FlexCAN_T4IL13CAN_DEV_TABLE1075658752EL21FLEXCAN_RXQUEUE_TABLE256EL21FLEXCAN_TXQUEUE_TABLE16EE13mailboxOffsetEv.part.0+0x3e>
  1c:	f003 037f 	and.w	r3, r3, #127	; 0x7f
  20:	f3c0 6003 	ubfx	r0, r0, #24, #4
  24:	3b05      	subs	r3, #5
  26:	3001      	adds	r0, #1
  28:	eba3 0340 	sub.w	r3, r3, r0, lsl #1
  2c:	b2db      	uxtb	r3, r3
  2e:	4a05      	ldr	r2, [pc, #20]	; (44 <_ZN10FlexCAN_T4IL13CAN_DEV_TABLE1075658752EL21FLEXCAN_RXQUEUE_TABLE256EL21FLEXCAN_TXQUEUE_TABLE16EE13mailboxOffsetEv.part.0+0x44>)
  30:	6810      	ldr	r0, [r2, #0]
  32:	f000 007f 	and.w	r0, r0, #127	; 0x7f
  36:	3001      	adds	r0, #1
  38:	1ac0      	subs	r0, r0, r3
  3a:	b2c0      	uxtb	r0, r0
  3c:	4770      	bx	lr
  3e:	2300      	movs	r3, #0
  40:	e7f5      	b.n	2e <_ZN10FlexCAN_T4IL13CAN_DEV_TABLE1075658752EL21FLEXCAN_RXQUEUE_TABLE256EL21FLEXCAN_TXQUEUE_TABLE16EE13mailboxOffsetEv.part.0+0x2e>
  42:	bf00      	nop
  44:	401d4000 	.word	0x401d4000

Disassembly of section .text._ZN11SparkMaxESCC2Eh:

00000000 <_ZN11SparkMaxESCC1Eh>:
   0:	f001 023f 	and.w	r2, r1, #63	; 0x3f
   4:	7001      	strb	r1, [r0, #0]
   6:	f042 7201 	orr.w	r2, r2, #33816576	; 0x2040000
   a:	6042      	str	r2, [r0, #4]
   c:	4770      	bx	lr
   e:	bf00      	nop

Disassembly of section .text._ZN11SparkMaxESC11sendCommandE11ControlTypef:

00000000 <_ZN11SparkMaxESC11sendCommandE11ControlTypef>:
   0:	b5f0      	push	{r4, r5, r6, r7, lr}
   2:	4f40      	ldr	r7, [pc, #256]	; (104 <_ZN11SparkMaxESC11sendCommandE11ControlTypef+0x104>)
   4:	4606      	mov	r6, r0
   6:	460d      	mov	r5, r1
   8:	ed2d 8b02 	vpush	{d8}
   c:	683c      	ldr	r4, [r7, #0]
   e:	eeb0 8a40 	vmov.f32	s16, s0
  12:	b087      	sub	sp, #28
  14:	f3bf 8f5b 	dmb	ish
  18:	f014 0401 	ands.w	r4, r4, #1
  1c:	d041      	beq.n	a2 <_ZN11SparkMaxESC11sendCommandE11ControlTypef+0xa2>
  1e:	eddf 7a3a 	vldr	s15, [pc, #232]	; 108 <_ZN11SparkMaxESC11sendCommandE11ControlTypef+0x108>
  22:	46ec      	mov	ip, sp
  24:	4c39      	ldr	r4, [pc, #228]	; (10c <_ZN11SparkMaxESC11sendCommandE11ControlTypef+0x10c>)
  26:	ee28 0a27 	vmul.f32	s0, s16, s15
  2a:	6877      	ldr	r7, [r6, #4]
  2c:	2601      	movs	r6, #1
  2e:	cc0f      	ldmia	r4!, {r0, r1, r2, r3}
  30:	eebd 0ac0 	vcvt.s32.f32	s0, s0
  34:	e8ac 000f 	stmia.w	ip!, {r0, r1, r2, r3}
  38:	e894 0003 	ldmia.w	r4, {r0, r1}
  3c:	ee10 3a10 	vmov	r3, s0
  40:	9700      	str	r7, [sp, #0]
  42:	f88d 6007 	strb.w	r6, [sp, #7]
  46:	f8ad 300e 	strh.w	r3, [sp, #14]
  4a:	f88d 500c 	strb.w	r5, [sp, #12]
  4e:	e88c 0003 	stmia.w	ip, {r0, r1}
  52:	211d      	movs	r1, #29
  54:	482e      	ldr	r0, [pc, #184]	; (110 <_ZN11SparkMaxESC11sendCommandE11ControlTypef+0x110>)
  56:	f7ff fffe 	bl	0 <usb_serial_write>
  5a:	9900      	ldr	r1, [sp, #0]
  5c:	2300      	movs	r3, #0
  5e:	2210      	movs	r2, #16
  60:	482c      	ldr	r0, [pc, #176]	; (114 <_ZN11SparkMaxESC11sendCommandE11ControlTypef+0x114>)
  62:	f7ff fffe 	bl	0 <_ZN5Print11printNumberEmhh>
  66:	482b      	ldr	r0, [pc, #172]	; (114 <_ZN11SparkMaxESC11sendCommandE11ControlTypef+0x114>)
  68:	f7ff fffe 	bl	0 <_ZN5Print7printlnEv>
  6c:	4669      	mov	r1, sp
  6e:	482a      	ldr	r0, [pc, #168]	; (118 <_ZN11SparkMaxESC11sendCommandE11ControlTypef+0x118>)
  70:	f7ff fffe 	bl	0 <_ZN11SparkMaxESC11sendCommandE11ControlTypef>
  74:	b150      	cbz	r0, 8c <_ZN11SparkMaxESC11sendCommandE11ControlTypef+0x8c>
  76:	211e      	movs	r1, #30
  78:	4828      	ldr	r0, [pc, #160]	; (11c <_ZN11SparkMaxESC11sendCommandE11ControlTypef+0x11c>)
  7a:	f7ff fffe 	bl	0 <usb_serial_write>
  7e:	4825      	ldr	r0, [pc, #148]	; (114 <_ZN11SparkMaxESC11sendCommandE11ControlTypef+0x114>)
  80:	f7ff fffe 	bl	0 <_ZN5Print7printlnEv>
  84:	b007      	add	sp, #28
  86:	ecbd 8b02 	vpop	{d8}
  8a:	bdf0      	pop	{r4, r5, r6, r7, pc}
  8c:	2118      	movs	r1, #24
  8e:	4824      	ldr	r0, [pc, #144]	; (120 <_ZN11SparkMaxESC11sendCommandE11ControlTypef+0x120>)
  90:	f7ff fffe 	bl	0 <usb_serial_write>
  94:	481f      	ldr	r0, [pc, #124]	; (114 <_ZN11SparkMaxESC11sendCommandE11ControlTypef+0x114>)
  96:	f7ff fffe 	bl	0 <_ZN5Print7printlnEv>
  9a:	b007      	add	sp, #28
  9c:	ecbd 8b02 	vpop	{d8}
  a0:	bdf0      	pop	{r4, r5, r6, r7, pc}
  a2:	4638      	mov	r0, r7
  a4:	f7ff fffe 	bl	0 <__cxa_guard_acquire>
  a8:	2800      	cmp	r0, #0
  aa:	d0b8      	beq.n	1e <_ZN11SparkMaxESC11sendCommandE11ControlTypef+0x1e>
  ac:	4a1a      	ldr	r2, [pc, #104]	; (118 <_ZN11SparkMaxESC11sendCommandE11ControlTypef+0x118>)
  ae:	4638      	mov	r0, r7
  b0:	f502 5380 	add.w	r3, r2, #4096	; 0x1000
  b4:	8294      	strh	r4, [r2, #20]
  b6:	82d4      	strh	r4, [r2, #22]
  b8:	8314      	strh	r4, [r2, #24]
  ba:	f8a3 4b1a 	strh.w	r4, [r3, #2842]	; 0xb1a
  be:	f8a3 4b1c 	strh.w	r4, [r3, #2844]	; 0xb1c
  c2:	f8a3 4b1e 	strh.w	r4, [r3, #2846]	; 0xb1e
  c6:	f8a3 4cd0 	strh.w	r4, [r3, #3280]	; 0xcd0
  ca:	f8a3 4cd2 	strh.w	r4, [r3, #3282]	; 0xcd2
  ce:	f8a3 4cd4 	strh.w	r4, [r3, #3284]	; 0xcd4
  d2:	f8a3 4d98 	strh.w	r4, [r3, #3480]	; 0xd98
  d6:	f8a3 4d9a 	strh.w	r4, [r3, #3482]	; 0xd9a
  da:	f8a3 4d9c 	strh.w	r4, [r3, #3484]	; 0xd9c
  de:	f502 5300 	add.w	r3, r2, #8192	; 0x2000
  e2:	f883 4700 	strb.w	r4, [r3, #1792]	; 0x700
  e6:	f8c3 490c 	str.w	r4, [r3, #2316]	; 0x90c
  ea:	f883 4701 	strb.w	r4, [r3, #1793]	; 0x701
  ee:	f8c3 4910 	str.w	r4, [r3, #2320]	; 0x910
  f2:	f883 4914 	strb.w	r4, [r3, #2324]	; 0x914
  f6:	4b0b      	ldr	r3, [pc, #44]	; (124 <_ZN11SparkMaxESC11sendCommandE11ControlTypef+0x124>)
  f8:	601a      	str	r2, [r3, #0]
  fa:	4b0b      	ldr	r3, [pc, #44]	; (128 <_ZN11SparkMaxESC11sendCommandE11ControlTypef+0x128>)
  fc:	6013      	str	r3, [r2, #0]
  fe:	f7ff fffe 	bl	0 <__cxa_guard_release>
 102:	e78c      	b.n	1e <_ZN11SparkMaxESC11sendCommandE11ControlTypef+0x1e>
 104:	00000000 	.word	0x00000000
 108:	46fffe00 	.word	0x46fffe00
 10c:	00000040 	.word	0x00000040
 110:	00000000 	.word	0x00000000
 114:	00000000 	.word	0x00000000
 118:	00000000 	.word	0x00000000
 11c:	00000020 	.word	0x00000020
 120:	00000040 	.word	0x00000040
 124:	00000000 	.word	0x00000000
 128:	00000008 	.word	0x00000008

Disassembly of section .text._ZN11SparkMaxESC8setPowerEf:

00000000 <_ZN11SparkMaxESC8setPowerEf>:
   0:	b538      	push	{r3, r4, r5, lr}
   2:	ed2d 8b02 	vpush	{d8}
   6:	eeb0 8a40 	vmov.f32	s16, s0
   a:	4d0c      	ldr	r5, [pc, #48]	; (3c <_ZN11SparkMaxESC8setPowerEf+0x3c>)
   c:	4604      	mov	r4, r0
   e:	210f      	movs	r1, #15
  10:	480b      	ldr	r0, [pc, #44]	; (40 <_ZN11SparkMaxESC8setPowerEf+0x40>)
  12:	f7ff fffe 	bl	0 <usb_serial_write>
  16:	eeb7 0ac8 	vcvt.f64.f32	d0, s16
  1a:	2102      	movs	r1, #2
  1c:	4628      	mov	r0, r5
  1e:	f7ff fffe 	bl	0 <_ZN5Print10printFloatEdh>
  22:	4628      	mov	r0, r5
  24:	f7ff fffe 	bl	0 <_ZN5Print7printlnEv>
  28:	eeb0 0a48 	vmov.f32	s0, s16
  2c:	4620      	mov	r0, r4
  2e:	2100      	movs	r1, #0
  30:	ecbd 8b02 	vpop	{d8}
  34:	e8bd 4038 	ldmia.w	sp!, {r3, r4, r5, lr}
  38:	f7ff bffe 	b.w	0 <_ZN11SparkMaxESC8setPowerEf>
  3c:	00000000 	.word	0x00000000
  40:	00000000 	.word	0x00000000

Disassembly of section .text._ZN11SparkMaxESC10setControlE11ControlTypef:

00000000 <_ZN11SparkMaxESC10setControlE11ControlTypef>:
   0:	b570      	push	{r4, r5, r6, lr}
   2:	4e14      	ldr	r6, [pc, #80]	; (54 <_ZN11SparkMaxESC10setControlE11ControlTypef+0x54>)
   4:	460c      	mov	r4, r1
   6:	4605      	mov	r5, r0
   8:	2116      	movs	r1, #22
   a:	4813      	ldr	r0, [pc, #76]	; (58 <_ZN11SparkMaxESC10setControlE11ControlTypef+0x58>)
   c:	ed2d 8b02 	vpush	{d8}
  10:	eeb0 8a40 	vmov.f32	s16, s0
  14:	f7ff fffe 	bl	0 <usb_serial_write>
  18:	2300      	movs	r3, #0
  1a:	220a      	movs	r2, #10
  1c:	4621      	mov	r1, r4
  1e:	4630      	mov	r0, r6
  20:	f7ff fffe 	bl	0 <_ZN5Print11printNumberEmhh>
  24:	2109      	movs	r1, #9
  26:	480d      	ldr	r0, [pc, #52]	; (5c <_ZN11SparkMaxESC10setControlE11ControlTypef+0x5c>)
  28:	f7ff fffe 	bl	0 <usb_serial_write>
  2c:	eeb7 0ac8 	vcvt.f64.f32	d0, s16
  30:	2102      	movs	r1, #2
  32:	4630      	mov	r0, r6
  34:	f7ff fffe 	bl	0 <_ZN5Print10printFloatEdh>
  38:	4630      	mov	r0, r6
  3a:	f7ff fffe 	bl	0 <_ZN5Print7printlnEv>
  3e:	eeb0 0a48 	vmov.f32	s0, s16
  42:	4621      	mov	r1, r4
  44:	4628      	mov	r0, r5
  46:	ecbd 8b02 	vpop	{d8}
  4a:	e8bd 4070 	ldmia.w	sp!, {r4, r5, r6, lr}
  4e:	f7ff bffe 	b.w	0 <_ZN11SparkMaxESC10setControlE11ControlTypef>
  52:	bf00      	nop
  54:	00000000 	.word	0x00000000
  58:	00000000 	.word	0x00000000
  5c:	00000018 	.word	0x00000018

Disassembly of section .text._ZN11SparkMaxESC4stopEv:

00000000 <_ZN11SparkMaxESC4stopEv>:
   0:	b510      	push	{r4, lr}
   2:	210f      	movs	r1, #15
   4:	4604      	mov	r4, r0
   6:	4807      	ldr	r0, [pc, #28]	; (24 <_ZN11SparkMaxESC4stopEv+0x24>)
   8:	f7ff fffe 	bl	0 <usb_serial_write>
   c:	4806      	ldr	r0, [pc, #24]	; (28 <_ZN11SparkMaxESC4stopEv+0x28>)
   e:	f7ff fffe 	bl	0 <_ZN5Print7printlnEv>
  12:	4620      	mov	r0, r4
  14:	ed9f 0a05 	vldr	s0, [pc, #20]	; 2c <_ZN11SparkMaxESC4stopEv+0x2c>
  18:	2100      	movs	r1, #0
  1a:	e8bd 4010 	ldmia.w	sp!, {r4, lr}
  1e:	f7ff bffe 	b.w	0 <_ZN11SparkMaxESC4stopEv>
  22:	bf00      	nop
  24:	00000000 	.word	0x00000000
  28:	00000000 	.word	0x00000000
  2c:	00000000 	.word	0x00000000

Disassembly of section .text._ZN11SparkMaxESC11resetFaultsEv:

00000000 <_ZN11SparkMaxESC11resetFaultsEv>:
   0:	b570      	push	{r4, r5, r6, lr}
   2:	2113      	movs	r1, #19
   4:	b086      	sub	sp, #24
   6:	4605      	mov	r5, r0
   8:	4e35      	ldr	r6, [pc, #212]	; (e0 <_ZN11SparkMaxESC11resetFaultsEv+0xe0>)
   a:	4836      	ldr	r0, [pc, #216]	; (e4 <_ZN11SparkMaxESC11resetFaultsEv+0xe4>)
   c:	f7ff fffe 	bl	0 <usb_serial_write>
  10:	4835      	ldr	r0, [pc, #212]	; (e8 <_ZN11SparkMaxESC11resetFaultsEv+0xe8>)
  12:	f7ff fffe 	bl	0 <_ZN5Print7printlnEv>
  16:	6834      	ldr	r4, [r6, #0]
  18:	f3bf 8f5b 	dmb	ish
  1c:	f014 0401 	ands.w	r4, r4, #1
  20:	d02c      	beq.n	7c <_ZN11SparkMaxESC11resetFaultsEv+0x7c>
  22:	4c32      	ldr	r4, [pc, #200]	; (ec <_ZN11SparkMaxESC11resetFaultsEv+0xec>)
  24:	46ec      	mov	ip, sp
  26:	782d      	ldrb	r5, [r5, #0]
  28:	2600      	movs	r6, #0
  2a:	f04f 0e01 	mov.w	lr, #1
  2e:	f005 053f 	and.w	r5, r5, #63	; 0x3f
  32:	cc0f      	ldmia	r4!, {r0, r1, r2, r3}
  34:	e8ac 000f 	stmia.w	ip!, {r0, r1, r2, r3}
  38:	e894 0003 	ldmia.w	r4, {r0, r1}
  3c:	f045 6560 	orr.w	r5, r5, #234881024	; 0xe000000
  40:	f88d e007 	strb.w	lr, [sp, #7]
  44:	e88c 0003 	stmia.w	ip, {r0, r1}
  48:	4669      	mov	r1, sp
  4a:	4829      	ldr	r0, [pc, #164]	; (f0 <_ZN11SparkMaxESC11resetFaultsEv+0xf0>)
  4c:	9500      	str	r5, [sp, #0]
  4e:	e9cd 6603 	strd	r6, r6, [sp, #12]
  52:	f7ff fffe 	bl	0 <_ZN11SparkMaxESC11resetFaultsEv>
  56:	b140      	cbz	r0, 6a <_ZN11SparkMaxESC11resetFaultsEv+0x6a>
  58:	2126      	movs	r1, #38	; 0x26
  5a:	4826      	ldr	r0, [pc, #152]	; (f4 <_ZN11SparkMaxESC11resetFaultsEv+0xf4>)
  5c:	f7ff fffe 	bl	0 <usb_serial_write>
  60:	4821      	ldr	r0, [pc, #132]	; (e8 <_ZN11SparkMaxESC11resetFaultsEv+0xe8>)
  62:	f7ff fffe 	bl	0 <_ZN5Print7printlnEv>
  66:	b006      	add	sp, #24
  68:	bd70      	pop	{r4, r5, r6, pc}
  6a:	211b      	movs	r1, #27
  6c:	4822      	ldr	r0, [pc, #136]	; (f8 <_ZN11SparkMaxESC11resetFaultsEv+0xf8>)
  6e:	f7ff fffe 	bl	0 <usb_serial_write>
  72:	481d      	ldr	r0, [pc, #116]	; (e8 <_ZN11SparkMaxESC11resetFaultsEv+0xe8>)
  74:	f7ff fffe 	bl	0 <_ZN5Print7printlnEv>
  78:	b006      	add	sp, #24
  7a:	bd70      	pop	{r4, r5, r6, pc}
  7c:	4630      	mov	r0, r6
  7e:	f7ff fffe 	bl	0 <__cxa_guard_acquire>
  82:	2800      	cmp	r0, #0
  84:	d0cd      	beq.n	22 <_ZN11SparkMaxESC11resetFaultsEv+0x22>
  86:	4a1a      	ldr	r2, [pc, #104]	; (f0 <_ZN11SparkMaxESC11resetFaultsEv+0xf0>)
  88:	4630      	mov	r0, r6
  8a:	4b1c      	ldr	r3, [pc, #112]	; (fc <_ZN11SparkMaxESC11resetFaultsEv+0xfc>)
  8c:	8294      	strh	r4, [r2, #20]
  8e:	6013      	str	r3, [r2, #0]
  90:	f502 5380 	add.w	r3, r2, #4096	; 0x1000
  94:	82d4      	strh	r4, [r2, #22]
  96:	8314      	strh	r4, [r2, #24]
  98:	f8a3 4b1a 	strh.w	r4, [r3, #2842]	; 0xb1a
  9c:	f8a3 4b1c 	strh.w	r4, [r3, #2844]	; 0xb1c
  a0:	f8a3 4b1e 	strh.w	r4, [r3, #2846]	; 0xb1e
  a4:	f8a3 4cd0 	strh.w	r4, [r3, #3280]	; 0xcd0
  a8:	f8a3 4cd2 	strh.w	r4, [r3, #3282]	; 0xcd2
  ac:	f8a3 4cd4 	strh.w	r4, [r3, #3284]	; 0xcd4
  b0:	f8a3 4d98 	strh.w	r4, [r3, #3480]	; 0xd98
  b4:	f8a3 4d9a 	strh.w	r4, [r3, #3482]	; 0xd9a
  b8:	f8a3 4d9c 	strh.w	r4, [r3, #3484]	; 0xd9c
  bc:	f502 5300 	add.w	r3, r2, #8192	; 0x2000
  c0:	f883 4700 	strb.w	r4, [r3, #1792]	; 0x700
  c4:	f8c3 490c 	str.w	r4, [r3, #2316]	; 0x90c
  c8:	f883 4701 	strb.w	r4, [r3, #1793]	; 0x701
  cc:	f8c3 4910 	str.w	r4, [r3, #2320]	; 0x910
  d0:	f883 4914 	strb.w	r4, [r3, #2324]	; 0x914
  d4:	4b0a      	ldr	r3, [pc, #40]	; (100 <_ZN11SparkMaxESC11resetFaultsEv+0x100>)
  d6:	601a      	str	r2, [r3, #0]
  d8:	f7ff fffe 	bl	0 <__cxa_guard_release>
  dc:	e7a1      	b.n	22 <_ZN11SparkMaxESC11resetFaultsEv+0x22>
  de:	bf00      	nop
  e0:	00000000 	.word	0x00000000
  e4:	00000000 	.word	0x00000000
  e8:	00000000 	.word	0x00000000
  ec:	00000040 	.word	0x00000040
  f0:	00000000 	.word	0x00000000
  f4:	00000014 	.word	0x00000014
  f8:	0000003c 	.word	0x0000003c
  fc:	00000008 	.word	0x00000008
 100:	00000000 	.word	0x00000000

Disassembly of section .text._ZN11SparkMaxESC15setCurrentLimitEf:

00000000 <_ZN11SparkMaxESC15setCurrentLimitEf>:
   0:	b570      	push	{r4, r5, r6, lr}
   2:	ed2d 8b02 	vpush	{d8}
   6:	eeb0 8a40 	vmov.f32	s16, s0
   a:	b086      	sub	sp, #24
   c:	2117      	movs	r1, #23
   e:	4605      	mov	r5, r0
  10:	483d      	ldr	r0, [pc, #244]	; (108 <_ZN11SparkMaxESC15setCurrentLimitEf+0x108>)
  12:	f7ff fffe 	bl	0 <usb_serial_write>
  16:	4e3d      	ldr	r6, [pc, #244]	; (10c <_ZN11SparkMaxESC15setCurrentLimitEf+0x10c>)
  18:	eeb7 0ac8 	vcvt.f64.f32	d0, s16
  1c:	2102      	movs	r1, #2
  1e:	483c      	ldr	r0, [pc, #240]	; (110 <_ZN11SparkMaxESC15setCurrentLimitEf+0x110>)
  20:	f7ff fffe 	bl	0 <_ZN5Print10printFloatEdh>
  24:	483a      	ldr	r0, [pc, #232]	; (110 <_ZN11SparkMaxESC15setCurrentLimitEf+0x110>)
  26:	f7ff fffe 	bl	0 <_ZN5Print7printlnEv>
  2a:	6834      	ldr	r4, [r6, #0]
  2c:	f3bf 8f5b 	dmb	ish
  30:	f014 0401 	ands.w	r4, r4, #1
  34:	d036      	beq.n	a4 <_ZN11SparkMaxESC15setCurrentLimitEf+0xa4>
  36:	eddf 7a37 	vldr	s15, [pc, #220]	; 114 <_ZN11SparkMaxESC15setCurrentLimitEf+0x114>
  3a:	46ec      	mov	ip, sp
  3c:	4c36      	ldr	r4, [pc, #216]	; (118 <_ZN11SparkMaxESC15setCurrentLimitEf+0x118>)
  3e:	2601      	movs	r6, #1
  40:	ee28 8a27 	vmul.f32	s16, s16, s15
  44:	782d      	ldrb	r5, [r5, #0]
  46:	cc0f      	ldmia	r4!, {r0, r1, r2, r3}
  48:	eebd 8ac8 	vcvt.s32.f32	s16, s16
  4c:	f005 053f 	and.w	r5, r5, #63	; 0x3f
  50:	e8ac 000f 	stmia.w	ip!, {r0, r1, r2, r3}
  54:	e894 0003 	ldmia.w	r4, {r0, r1}
  58:	f045 5580 	orr.w	r5, r5, #268435456	; 0x10000000
  5c:	ee18 3a10 	vmov	r3, s16
  60:	f88d 6007 	strb.w	r6, [sp, #7]
  64:	9500      	str	r5, [sp, #0]
  66:	f8ad 300c 	strh.w	r3, [sp, #12]
  6a:	e88c 0003 	stmia.w	ip, {r0, r1}
  6e:	4669      	mov	r1, sp
  70:	482a      	ldr	r0, [pc, #168]	; (11c <_ZN11SparkMaxESC15setCurrentLimitEf+0x11c>)
  72:	f7ff fffe 	bl	0 <_ZN11SparkMaxESC15setCurrentLimitEf>
  76:	b150      	cbz	r0, 8e <_ZN11SparkMaxESC15setCurrentLimitEf+0x8e>
  78:	211f      	movs	r1, #31
  7a:	4829      	ldr	r0, [pc, #164]	; (120 <_ZN11SparkMaxESC15setCurrentLimitEf+0x120>)
  7c:	f7ff fffe 	bl	0 <usb_serial_write>
  80:	4823      	ldr	r0, [pc, #140]	; (110 <_ZN11SparkMaxESC15setCurrentLimitEf+0x110>)
  82:	f7ff fffe 	bl	0 <_ZN5Print7printlnEv>
  86:	b006      	add	sp, #24
  88:	ecbd 8b02 	vpop	{d8}
  8c:	bd70      	pop	{r4, r5, r6, pc}
  8e:	211c      	movs	r1, #28
  90:	4824      	ldr	r0, [pc, #144]	; (124 <_ZN11SparkMaxESC15setCurrentLimitEf+0x124>)
  92:	f7ff fffe 	bl	0 <usb_serial_write>
  96:	481e      	ldr	r0, [pc, #120]	; (110 <_ZN11SparkMaxESC15setCurrentLimitEf+0x110>)
  98:	f7ff fffe 	bl	0 <_ZN5Print7printlnEv>
  9c:	b006      	add	sp, #24
  9e:	ecbd 8b02 	vpop	{d8}
  a2:	bd70      	pop	{r4, r5, r6, pc}
  a4:	4630      	mov	r0, r6
  a6:	f7ff fffe 	bl	0 <__cxa_guard_acquire>
  aa:	2800      	cmp	r0, #0
  ac:	d0c3      	beq.n	36 <_ZN11SparkMaxESC15setCurrentLimitEf+0x36>
  ae:	4a1b      	ldr	r2, [pc, #108]	; (11c <_ZN11SparkMaxESC15setCurrentLimitEf+0x11c>)
  b0:	4630      	mov	r0, r6
  b2:	4b1d      	ldr	r3, [pc, #116]	; (128 <_ZN11SparkMaxESC15setCurrentLimitEf+0x128>)
  b4:	8294      	strh	r4, [r2, #20]
  b6:	6013      	str	r3, [r2, #0]
  b8:	f502 5380 	add.w	r3, r2, #4096	; 0x1000
  bc:	82d4      	strh	r4, [r2, #22]
  be:	8314      	strh	r4, [r2, #24]
  c0:	f8a3 4b1a 	strh.w	r4, [r3, #2842]	; 0xb1a
  c4:	f8a3 4b1c 	strh.w	r4, [r3, #2844]	; 0xb1c
  c8:	f8a3 4b1e 	strh.w	r4, [r3, #2846]	; 0xb1e
  cc:	f8a3 4cd0 	strh.w	r4, [r3, #3280]	; 0xcd0
  d0:	f8a3 4cd2 	strh.w	r4, [r3, #3282]	; 0xcd2
  d4:	f8a3 4cd4 	strh.w	r4, [r3, #3284]	; 0xcd4
  d8:	f8a3 4d98 	strh.w	r4, [r3, #3480]	; 0xd98
  dc:	f8a3 4d9a 	strh.w	r4, [r3, #3482]	; 0xd9a
  e0:	f8a3 4d9c 	strh.w	r4, [r3, #3484]	; 0xd9c
  e4:	f502 5300 	add.w	r3, r2, #8192	; 0x2000
  e8:	f883 4700 	strb.w	r4, [r3, #1792]	; 0x700
  ec:	f8c3 490c 	str.w	r4, [r3, #2316]	; 0x90c
  f0:	f883 4701 	strb.w	r4, [r3, #1793]	; 0x701
  f4:	f8c3 4910 	str.w	r4, [r3, #2320]	; 0x910
  f8:	f883 4914 	strb.w	r4, [r3, #2324]	; 0x914
  fc:	4b0b      	ldr	r3, [pc, #44]	; (12c <_ZN11SparkMaxESC15setCurrentLimitEf+0x12c>)
  fe:	601a      	str	r2, [r3, #0]
 100:	f7ff fffe 	bl	0 <__cxa_guard_release>
 104:	e797      	b.n	36 <_ZN11SparkMaxESC15setCurrentLimitEf+0x36>
 106:	bf00      	nop
 108:	00000000 	.word	0x00000000
 10c:	00000000 	.word	0x00000000
 110:	00000000 	.word	0x00000000
 114:	447a0000 	.word	0x447a0000
 118:	00000040 	.word	0x00000040
 11c:	00000000 	.word	0x00000000
 120:	00000018 	.word	0x00000018
 124:	00000038 	.word	0x00000038
 128:	00000008 	.word	0x00000008
 12c:	00000000 	.word	0x00000000

Disassembly of section .text._ZN11SparkMaxESC12readResponseEm:

00000000 <_ZN11SparkMaxESC12readResponseEm>:
   0:	b5f0      	push	{r4, r5, r6, r7, lr}
   2:	460e      	mov	r6, r1
   4:	b08d      	sub	sp, #52	; 0x34
   6:	2119      	movs	r1, #25
   8:	484e      	ldr	r0, [pc, #312]	; (144 <_ZN11SparkMaxESC12readResponseEm+0x144>)
   a:	f7ff fffe 	bl	0 <usb_serial_write>
   e:	4d4e      	ldr	r5, [pc, #312]	; (148 <_ZN11SparkMaxESC12readResponseEm+0x148>)
  10:	2300      	movs	r3, #0
  12:	2210      	movs	r2, #16
  14:	4631      	mov	r1, r6
  16:	484d      	ldr	r0, [pc, #308]	; (14c <_ZN11SparkMaxESC12readResponseEm+0x14c>)
  18:	f7ff fffe 	bl	0 <_ZN5Print11printNumberEmhh>
  1c:	484b      	ldr	r0, [pc, #300]	; (14c <_ZN11SparkMaxESC12readResponseEm+0x14c>)
  1e:	f7ff fffe 	bl	0 <_ZN5Print7printlnEv>
  22:	682c      	ldr	r4, [r5, #0]
  24:	f3bf 8f5b 	dmb	ish
  28:	f014 0401 	ands.w	r4, r4, #1
  2c:	d04e      	beq.n	cc <_ZN11SparkMaxESC12readResponseEm+0xcc>
  2e:	4c48      	ldr	r4, [pc, #288]	; (150 <_ZN11SparkMaxESC12readResponseEm+0x150>)
  30:	466d      	mov	r5, sp
  32:	2700      	movs	r7, #0
  34:	f04f 0c01 	mov.w	ip, #1
  38:	cc0f      	ldmia	r4!, {r0, r1, r2, r3}
  3a:	c50f      	stmia	r5!, {r0, r1, r2, r3}
  3c:	e894 0003 	ldmia.w	r4, {r0, r1}
  40:	9600      	str	r6, [sp, #0]
  42:	f88d c007 	strb.w	ip, [sp, #7]
  46:	e885 0003 	stmia.w	r5, {r0, r1}
  4a:	4669      	mov	r1, sp
  4c:	4841      	ldr	r0, [pc, #260]	; (154 <_ZN11SparkMaxESC12readResponseEm+0x154>)
  4e:	e9cd 7703 	strd	r7, r7, [sp, #12]
  52:	f7ff fffe 	bl	0 <_ZN11SparkMaxESC12readResponseEm>
  56:	2800      	cmp	r0, #0
  58:	d069      	beq.n	12e <_ZN11SparkMaxESC12readResponseEm+0x12e>
  5a:	4d3f      	ldr	r5, [pc, #252]	; (158 <_ZN11SparkMaxESC12readResponseEm+0x158>)
  5c:	3c10      	subs	r4, #16
  5e:	f10d 0c18 	add.w	ip, sp, #24
  62:	682e      	ldr	r6, [r5, #0]
  64:	682b      	ldr	r3, [r5, #0]
  66:	eba3 0e06 	sub.w	lr, r3, r6
  6a:	cc0f      	ldmia	r4!, {r0, r1, r2, r3}
  6c:	f1be 0f31 	cmp.w	lr, #49	; 0x31
  70:	e8ac 000f 	stmia.w	ip!, {r0, r1, r2, r3}
  74:	e894 0003 	ldmia.w	r4, {r0, r1}
  78:	e88c 0003 	stmia.w	ip, {r0, r1}
  7c:	d81b      	bhi.n	b6 <_ZN11SparkMaxESC12readResponseEm+0xb6>
  7e:	4c35      	ldr	r4, [pc, #212]	; (154 <_ZN11SparkMaxESC12readResponseEm+0x154>)
  80:	e005      	b.n	8e <_ZN11SparkMaxESC12readResponseEm+0x8e>
  82:	f7ff fffe 	bl	0 <delay>
  86:	682b      	ldr	r3, [r5, #0]
  88:	1b9b      	subs	r3, r3, r6
  8a:	2b31      	cmp	r3, #49	; 0x31
  8c:	d813      	bhi.n	b6 <_ZN11SparkMaxESC12readResponseEm+0xb6>
  8e:	a906      	add	r1, sp, #24
  90:	4620      	mov	r0, r4
  92:	f7ff fffe 	bl	0 <_ZN11SparkMaxESC12readResponseEm>
  96:	4603      	mov	r3, r0
  98:	2001      	movs	r0, #1
  9a:	2b00      	cmp	r3, #0
  9c:	d0f1      	beq.n	82 <_ZN11SparkMaxESC12readResponseEm+0x82>
  9e:	f9bd 3026 	ldrsh.w	r3, [sp, #38]	; 0x26
  a2:	ed9f 7a2e 	vldr	s14, [pc, #184]	; 15c <_ZN11SparkMaxESC12readResponseEm+0x15c>
  a6:	ee07 3a90 	vmov	s15, r3
  aa:	eef8 7ae7 	vcvt.f32.s32	s15, s15
  ae:	ee87 0a87 	vdiv.f32	s0, s15, s14
  b2:	b00d      	add	sp, #52	; 0x34
  b4:	bdf0      	pop	{r4, r5, r6, r7, pc}
  b6:	2115      	movs	r1, #21
  b8:	4829      	ldr	r0, [pc, #164]	; (160 <_ZN11SparkMaxESC12readResponseEm+0x160>)
  ba:	f7ff fffe 	bl	0 <usb_serial_write>
  be:	4823      	ldr	r0, [pc, #140]	; (14c <_ZN11SparkMaxESC12readResponseEm+0x14c>)
  c0:	f7ff fffe 	bl	0 <_ZN5Print7printlnEv>
  c4:	eebf 0a00 	vmov.f32	s0, #240	; 0xbf800000 -1.0
  c8:	b00d      	add	sp, #52	; 0x34
  ca:	bdf0      	pop	{r4, r5, r6, r7, pc}
  cc:	4628      	mov	r0, r5
  ce:	f7ff fffe 	bl	0 <__cxa_guard_acquire>
  d2:	2800      	cmp	r0, #0
  d4:	d0ab      	beq.n	2e <_ZN11SparkMaxESC12readResponseEm+0x2e>
  d6:	4a1f      	ldr	r2, [pc, #124]	; (154 <_ZN11SparkMaxESC12readResponseEm+0x154>)
  d8:	4628      	mov	r0, r5
  da:	4b22      	ldr	r3, [pc, #136]	; (164 <_ZN11SparkMaxESC12readResponseEm+0x164>)
  dc:	8294      	strh	r4, [r2, #20]
  de:	6013      	str	r3, [r2, #0]
  e0:	f502 5380 	add.w	r3, r2, #4096	; 0x1000
  e4:	82d4      	strh	r4, [r2, #22]
  e6:	8314      	strh	r4, [r2, #24]
  e8:	f8a3 4b1a 	strh.w	r4, [r3, #2842]	; 0xb1a
  ec:	f8a3 4b1c 	strh.w	r4, [r3, #2844]	; 0xb1c
  f0:	f8a3 4b1e 	strh.w	r4, [r3, #2846]	; 0xb1e
  f4:	f8a3 4cd0 	strh.w	r4, [r3, #3280]	; 0xcd0
  f8:	f8a3 4cd2 	strh.w	r4, [r3, #3282]	; 0xcd2
  fc:	f8a3 4cd4 	strh.w	r4, [r3, #3284]	; 0xcd4
 100:	f8a3 4d98 	strh.w	r4, [r3, #3480]	; 0xd98
 104:	f8a3 4d9a 	strh.w	r4, [r3, #3482]	; 0xd9a
 108:	f8a3 4d9c 	strh.w	r4, [r3, #3484]	; 0xd9c
 10c:	f502 5300 	add.w	r3, r2, #8192	; 0x2000
 110:	f883 4700 	strb.w	r4, [r3, #1792]	; 0x700
 114:	f8c3 490c 	str.w	r4, [r3, #2316]	; 0x90c
 118:	f883 4701 	strb.w	r4, [r3, #1793]	; 0x701
 11c:	f8c3 4910 	str.w	r4, [r3, #2320]	; 0x910
 120:	f883 4914 	strb.w	r4, [r3, #2324]	; 0x914
 124:	4b10      	ldr	r3, [pc, #64]	; (168 <_ZN11SparkMaxESC12readResponseEm+0x168>)
 126:	601a      	str	r2, [r3, #0]
 128:	f7ff fffe 	bl	0 <__cxa_guard_release>
 12c:	e77f      	b.n	2e <_ZN11SparkMaxESC12readResponseEm+0x2e>
 12e:	211c      	movs	r1, #28
 130:	480e      	ldr	r0, [pc, #56]	; (16c <_ZN11SparkMaxESC12readResponseEm+0x16c>)
 132:	f7ff fffe 	bl	0 <usb_serial_write>
 136:	4805      	ldr	r0, [pc, #20]	; (14c <_ZN11SparkMaxESC12readResponseEm+0x14c>)
 138:	f7ff fffe 	bl	0 <_ZN5Print7printlnEv>
 13c:	eebf 0a00 	vmov.f32	s0, #240	; 0xbf800000 -1.0
 140:	b00d      	add	sp, #52	; 0x34
 142:	bdf0      	pop	{r4, r5, r6, r7, pc}
 144:	00000000 	.word	0x00000000
 148:	00000000 	.word	0x00000000
 14c:	00000000 	.word	0x00000000
 150:	00000040 	.word	0x00000040
 154:	00000000 	.word	0x00000000
 158:	00000000 	.word	0x00000000
 15c:	46fffe00 	.word	0x46fffe00
 160:	0000003c 	.word	0x0000003c
 164:	00000008 	.word	0x00000008
 168:	00000000 	.word	0x00000000
 16c:	0000001c 	.word	0x0000001c

Disassembly of section .text._ZN11SparkMaxESC18getEncoderPositionEv:

00000000 <_ZN11SparkMaxESC18getEncoderPositionEv>:
   0:	7801      	ldrb	r1, [r0, #0]
   2:	f001 013f 	and.w	r1, r1, #63	; 0x3f
   6:	f041 6100 	orr.w	r1, r1, #134217728	; 0x8000000
   a:	f7ff bffe 	b.w	0 <_ZN11SparkMaxESC18getEncoderPositionEv>
   e:	bf00      	nop

Disassembly of section .text._ZN11SparkMaxESC18getEncoderVelocityEv:

00000000 <_ZN11SparkMaxESC18getEncoderVelocityEv>:
   0:	7801      	ldrb	r1, [r0, #0]
   2:	f001 013f 	and.w	r1, r1, #63	; 0x3f
   6:	f041 6110 	orr.w	r1, r1, #150994944	; 0x9000000
   a:	f7ff bffe 	b.w	0 <_ZN11SparkMaxESC18getEncoderVelocityEv>
   e:	bf00      	nop

Disassembly of section .text._ZN11SparkMaxESC15getMotorCurrentEv:

00000000 <_ZN11SparkMaxESC15getMotorCurrentEv>:
   0:	7801      	ldrb	r1, [r0, #0]
   2:	f001 013f 	and.w	r1, r1, #63	; 0x3f
   6:	f041 6140 	orr.w	r1, r1, #201326592	; 0xc000000
   a:	f7ff bffe 	b.w	0 <_ZN11SparkMaxESC15getMotorCurrentEv>
   e:	bf00      	nop

Disassembly of section .text._ZN11SparkMaxESC19getMotorTemperatureEv:

00000000 <_ZN11SparkMaxESC19getMotorTemperatureEv>:
   0:	7801      	ldrb	r1, [r0, #0]
   2:	f001 013f 	and.w	r1, r1, #63	; 0x3f
   6:	f041 6150 	orr.w	r1, r1, #218103808	; 0xd000000
   a:	f7ff bffe 	b.w	0 <_ZN11SparkMaxESC19getMotorTemperatureEv>
   e:	bf00      	nop

Disassembly of section .text._ZN11SparkMaxESC9getFaultsEv:

00000000 <_ZN11SparkMaxESC9getFaultsEv>:
   0:	b508      	push	{r3, lr}
   2:	7801      	ldrb	r1, [r0, #0]
   4:	f001 013f 	and.w	r1, r1, #63	; 0x3f
   8:	f041 6160 	orr.w	r1, r1, #234881024	; 0xe000000
   c:	f7ff fffe 	bl	0 <_ZN11SparkMaxESC9getFaultsEv>
  10:	eebc 0ac0 	vcvt.u32.f32	s0, s0
  14:	ee10 3a10 	vmov	r3, s0
  18:	b298      	uxth	r0, r3
  1a:	bd08      	pop	{r3, pc}

Disassembly of section .text._ZN11SparkMaxESC15getStickyFaultsEv:

00000000 <_ZN11SparkMaxESC15getStickyFaultsEv>:
   0:	b508      	push	{r3, lr}
   2:	7801      	ldrb	r1, [r0, #0]
   4:	f001 013f 	and.w	r1, r1, #63	; 0x3f
   8:	f041 6170 	orr.w	r1, r1, #251658240	; 0xf000000
   c:	f7ff fffe 	bl	0 <_ZN11SparkMaxESC15getStickyFaultsEv>
  10:	eebc 0ac0 	vcvt.u32.f32	s0, s0
  14:	ee10 3a10 	vmov	r3, s0
  18:	b298      	uxth	r0, r3
  1a:	bd08      	pop	{r3, pc}

Disassembly of section .text._ZN10FlexCAN_T4IL13CAN_DEV_TABLE1075658752EL21FLEXCAN_RXQUEUE_TABLE256EL21FLEXCAN_TXQUEUE_TABLE16EE5beginEv:

00000000 <_ZN10FlexCAN_T4IL13CAN_DEV_TABLE1075658752EL21FLEXCAN_RXQUEUE_TABLE256EL21FLEXCAN_TXQUEUE_TABLE16EE5beginEv>:
   0:	e92d 43f0 	stmdb	sp!, {r4, r5, r6, r7, r8, r9, lr}
   4:	4b9a      	ldr	r3, [pc, #616]	; (270 <_ZN10FlexCAN_T4IL13CAN_DEV_TABLE1075658752EL21FLEXCAN_RXQUEUE_TABLE256EL21FLEXCAN_TXQUEUE_TABLE16EE5beginEv+0x270>)
   6:	b083      	sub	sp, #12
   8:	499a      	ldr	r1, [pc, #616]	; (274 <_ZN10FlexCAN_T4IL13CAN_DEV_TABLE1075658752EL21FLEXCAN_RXQUEUE_TABLE256EL21FLEXCAN_TXQUEUE_TABLE16EE5beginEv+0x274>)
   a:	2200      	movs	r2, #0
   c:	9301      	str	r3, [sp, #4]
   e:	6a0b      	ldr	r3, [r1, #32]
  10:	f3c3 2301 	ubfx	r3, r3, #8, #2
  14:	3308      	adds	r3, #8
  16:	446b      	add	r3, sp
  18:	f813 3c04 	ldrb.w	r3, [r3, #-4]
  1c:	e9c0 2201 	strd	r2, r2, [r0, #4]
  20:	e9c0 2203 	strd	r2, r2, [r0, #12]
  24:	2b00      	cmp	r3, #0
  26:	f000 8109 	beq.w	23c <_ZN10FlexCAN_T4IL13CAN_DEV_TABLE1075658752EL21FLEXCAN_RXQUEUE_TABLE256EL21FLEXCAN_TXQUEUE_TABLE16EE5beginEv+0x23c>
  2a:	f500 5600 	add.w	r6, r0, #8192	; 0x2000
  2e:	4991      	ldr	r1, [pc, #580]	; (274 <_ZN10FlexCAN_T4IL13CAN_DEV_TABLE1075658752EL21FLEXCAN_RXQUEUE_TABLE256EL21FLEXCAN_TXQUEUE_TABLE16EE5beginEv+0x274>)
  30:	2025      	movs	r0, #37	; 0x25
  32:	4b91      	ldr	r3, [pc, #580]	; (278 <_ZN10FlexCAN_T4IL13CAN_DEV_TABLE1075658752EL21FLEXCAN_RXQUEUE_TABLE256EL21FLEXCAN_TXQUEUE_TABLE16EE5beginEv+0x278>)
  34:	2402      	movs	r4, #2
  36:	4a91      	ldr	r2, [pc, #580]	; (27c <_ZN10FlexCAN_T4IL13CAN_DEV_TABLE1075658752EL21FLEXCAN_RXQUEUE_TABLE256EL21FLEXCAN_TXQUEUE_TABLE16EE5beginEv+0x27c>)
  38:	2501      	movs	r5, #1
  3a:	f8c6 090c 	str.w	r0, [r6, #2316]	; 0x90c
  3e:	2010      	movs	r0, #16
  40:	f8c3 20d4 	str.w	r2, [r3, #212]	; 0xd4
  44:	6e8a      	ldr	r2, [r1, #104]	; 0x68
  46:	4b8e      	ldr	r3, [pc, #568]	; (280 <_ZN10FlexCAN_T4IL13CAN_DEV_TABLE1075658752EL21FLEXCAN_RXQUEUE_TABLE256EL21FLEXCAN_TXQUEUE_TABLE16EE5beginEv+0x280>)
  48:	f442 1270 	orr.w	r2, r2, #3932160	; 0x3c0000
  4c:	668a      	str	r2, [r1, #104]	; 0x68
  4e:	f241 01b0 	movw	r1, #4272	; 0x10b0
  52:	f886 4915 	strb.w	r4, [r6, #2325]	; 0x915
  56:	4a8b      	ldr	r2, [pc, #556]	; (284 <_ZN10FlexCAN_T4IL13CAN_DEV_TABLE1075658752EL21FLEXCAN_RXQUEUE_TABLE256EL21FLEXCAN_TXQUEUE_TABLE16EE5beginEv+0x284>)
  58:	4c8b      	ldr	r4, [pc, #556]	; (288 <_ZN10FlexCAN_T4IL13CAN_DEV_TABLE1075658752EL21FLEXCAN_RXQUEUE_TABLE256EL21FLEXCAN_TXQUEUE_TABLE16EE5beginEv+0x288>)
  5a:	f8c3 00c4 	str.w	r0, [r3, #196]	; 0xc4
  5e:	f8c3 12b4 	str.w	r1, [r3, #692]	; 0x2b4
  62:	6525      	str	r5, [r4, #80]	; 0x50
  64:	f8c3 00c8 	str.w	r0, [r3, #200]	; 0xc8
  68:	f8c3 12b8 	str.w	r1, [r3, #696]	; 0x2b8
  6c:	6813      	ldr	r3, [r2, #0]
  6e:	f023 4300 	bic.w	r3, r3, #2147483648	; 0x80000000
  72:	6013      	str	r3, [r2, #0]
  74:	6813      	ldr	r3, [r2, #0]
  76:	f043 43a0 	orr.w	r3, r3, #1342177280	; 0x50000000
  7a:	6013      	str	r3, [r2, #0]
  7c:	6813      	ldr	r3, [r2, #0]
  7e:	01db      	lsls	r3, r3, #7
  80:	d5fc      	bpl.n	7c <_ZN10FlexCAN_T4IL13CAN_DEV_TABLE1075658752EL21FLEXCAN_RXQUEUE_TABLE256EL21FLEXCAN_TXQUEUE_TABLE16EE5beginEv+0x7c>
  82:	6853      	ldr	r3, [r2, #4]
  84:	497f      	ldr	r1, [pc, #508]	; (284 <_ZN10FlexCAN_T4IL13CAN_DEV_TABLE1075658752EL21FLEXCAN_RXQUEUE_TABLE256EL21FLEXCAN_TXQUEUE_TABLE16EE5beginEv+0x284>)
  86:	f043 0308 	orr.w	r3, r3, #8
  8a:	6053      	str	r3, [r2, #4]
  8c:	6813      	ldr	r3, [r2, #0]
  8e:	f043 4380 	orr.w	r3, r3, #1073741824	; 0x40000000
  92:	6013      	str	r3, [r2, #0]
  94:	680b      	ldr	r3, [r1, #0]
  96:	02df      	lsls	r7, r3, #11
  98:	d4fc      	bmi.n	94 <_ZN10FlexCAN_T4IL13CAN_DEV_TABLE1075658752EL21FLEXCAN_RXQUEUE_TABLE256EL21FLEXCAN_TXQUEUE_TABLE16EE5beginEv+0x94>
  9a:	680a      	ldr	r2, [r1, #0]
  9c:	4b79      	ldr	r3, [pc, #484]	; (284 <_ZN10FlexCAN_T4IL13CAN_DEV_TABLE1075658752EL21FLEXCAN_RXQUEUE_TABLE256EL21FLEXCAN_TXQUEUE_TABLE16EE5beginEv+0x284>)
  9e:	f042 7200 	orr.w	r2, r2, #33554432	; 0x2000000
  a2:	600a      	str	r2, [r1, #0]
  a4:	681a      	ldr	r2, [r3, #0]
  a6:	f012 7200 	ands.w	r2, r2, #33554432	; 0x2000000
  aa:	d1fb      	bne.n	a4 <_ZN10FlexCAN_T4IL13CAN_DEV_TABLE1075658752EL21FLEXCAN_RXQUEUE_TABLE256EL21FLEXCAN_TXQUEUE_TABLE16EE5beginEv+0xa4>
  ac:	4b75      	ldr	r3, [pc, #468]	; (284 <_ZN10FlexCAN_T4IL13CAN_DEV_TABLE1075658752EL21FLEXCAN_RXQUEUE_TABLE256EL21FLEXCAN_TXQUEUE_TABLE16EE5beginEv+0x284>)
  ae:	6819      	ldr	r1, [r3, #0]
  b0:	01cd      	lsls	r5, r1, #7
  b2:	d5fc      	bpl.n	ae <_ZN10FlexCAN_T4IL13CAN_DEV_TABLE1075658752EL21FLEXCAN_RXQUEUE_TABLE256EL21FLEXCAN_TXQUEUE_TABLE16EE5beginEv+0xae>
  b4:	6819      	ldr	r1, [r3, #0]
  b6:	f441 3100 	orr.w	r1, r1, #131072	; 0x20000
  ba:	6019      	str	r1, [r3, #0]
  bc:	6819      	ldr	r1, [r3, #0]
  be:	f441 3180 	orr.w	r1, r1, #65536	; 0x10000
  c2:	6019      	str	r1, [r3, #0]
  c4:	6819      	ldr	r1, [r3, #0]
  c6:	f441 5180 	orr.w	r1, r1, #4096	; 0x1000
  ca:	6019      	str	r1, [r3, #0]
  cc:	6819      	ldr	r1, [r3, #0]
  ce:	f441 5100 	orr.w	r1, r1, #8192	; 0x2000
  d2:	6019      	str	r1, [r3, #0]
  d4:	6819      	ldr	r1, [r3, #0]
  d6:	f441 0180 	orr.w	r1, r1, #4194304	; 0x400000
  da:	6019      	str	r1, [r3, #0]
  dc:	6819      	ldr	r1, [r3, #0]
  de:	f441 2100 	orr.w	r1, r1, #524288	; 0x80000
  e2:	6019      	str	r1, [r3, #0]
  e4:	6819      	ldr	r1, [r3, #0]
  e6:	f421 4108 	bic.w	r1, r1, #34816	; 0x8800
  ea:	6019      	str	r1, [r3, #0]
  ec:	6b59      	ldr	r1, [r3, #52]	; 0x34
  ee:	f441 21e0 	orr.w	r1, r1, #458752	; 0x70000
  f2:	6359      	str	r1, [r3, #52]	; 0x34
  f4:	6819      	ldr	r1, [r3, #0]
  f6:	f441 1100 	orr.w	r1, r1, #2097152	; 0x200000
  fa:	6019      	str	r1, [r3, #0]
  fc:	6819      	ldr	r1, [r3, #0]
  fe:	f041 6180 	orr.w	r1, r1, #67108864	; 0x4000000
 102:	6019      	str	r1, [r3, #0]
 104:	681d      	ldr	r5, [r3, #0]
 106:	6819      	ldr	r1, [r3, #0]
 108:	f005 7580 	and.w	r5, r5, #16777216	; 0x1000000
 10c:	f041 41a0 	orr.w	r1, r1, #1342177280	; 0x50000000
 110:	6019      	str	r1, [r3, #0]
 112:	495c      	ldr	r1, [pc, #368]	; (284 <_ZN10FlexCAN_T4IL13CAN_DEV_TABLE1075658752EL21FLEXCAN_RXQUEUE_TABLE256EL21FLEXCAN_TXQUEUE_TABLE16EE5beginEv+0x284>)
 114:	680b      	ldr	r3, [r1, #0]
 116:	01dc      	lsls	r4, r3, #7
 118:	d5fc      	bpl.n	114 <_ZN10FlexCAN_T4IL13CAN_DEV_TABLE1075658752EL21FLEXCAN_RXQUEUE_TABLE256EL21FLEXCAN_TXQUEUE_TABLE16EE5beginEv+0x114>
 11a:	680b      	ldr	r3, [r1, #0]
 11c:	f8df e174 	ldr.w	lr, [pc, #372]	; 294 <_ZN10FlexCAN_T4IL13CAN_DEV_TABLE1075658752EL21FLEXCAN_RXQUEUE_TABLE256EL21FLEXCAN_TXQUEUE_TABLE16EE5beginEv+0x294>
 120:	f023 5300 	bic.w	r3, r3, #536870912	; 0x20000000
 124:	f8df c170 	ldr.w	ip, [pc, #368]	; 298 <_ZN10FlexCAN_T4IL13CAN_DEV_TABLE1075658752EL21FLEXCAN_RXQUEUE_TABLE256EL21FLEXCAN_TXQUEUE_TABLE16EE5beginEv+0x298>
 128:	4f56      	ldr	r7, [pc, #344]	; (284 <_ZN10FlexCAN_T4IL13CAN_DEV_TABLE1075658752EL21FLEXCAN_RXQUEUE_TABLE256EL21FLEXCAN_TXQUEUE_TABLE16EE5beginEv+0x284>)
 12a:	600b      	str	r3, [r1, #0]
 12c:	2300      	movs	r3, #0
 12e:	624b      	str	r3, [r1, #36]	; 0x24
 130:	4618      	mov	r0, r3
 132:	628b      	str	r3, [r1, #40]	; 0x28
 134:	6809      	ldr	r1, [r1, #0]
 136:	eb03 010e 	add.w	r1, r3, lr
 13a:	eb03 040c 	add.w	r4, r3, ip
 13e:	3301      	adds	r3, #1
 140:	0109      	lsls	r1, r1, #4
 142:	00a4      	lsls	r4, r4, #2
 144:	60c8      	str	r0, [r1, #12]
 146:	b2db      	uxtb	r3, r3
 148:	6088      	str	r0, [r1, #8]
 14a:	6048      	str	r0, [r1, #4]
 14c:	6008      	str	r0, [r1, #0]
 14e:	6020      	str	r0, [r4, #0]
 150:	6839      	ldr	r1, [r7, #0]
 152:	f001 017f 	and.w	r1, r1, #127	; 0x7f
 156:	3101      	adds	r1, #1
 158:	428b      	cmp	r3, r1
 15a:	d3ec      	bcc.n	136 <_ZN10FlexCAN_T4IL13CAN_DEV_TABLE1075658752EL21FLEXCAN_RXQUEUE_TABLE256EL21FLEXCAN_TXQUEUE_TABLE16EE5beginEv+0x136>
 15c:	64b8      	str	r0, [r7, #72]	; 0x48
 15e:	2400      	movs	r4, #0
 160:	6138      	str	r0, [r7, #16]
 162:	6af9      	ldr	r1, [r7, #44]	; 0x2c
 164:	6b3b      	ldr	r3, [r7, #48]	; 0x30
 166:	62f9      	str	r1, [r7, #44]	; 0x2c
 168:	633b      	str	r3, [r7, #48]	; 0x30
 16a:	683b      	ldr	r3, [r7, #0]
 16c:	f8df 9124 	ldr.w	r9, [pc, #292]	; 294 <_ZN10FlexCAN_T4IL13CAN_DEV_TABLE1075658752EL21FLEXCAN_RXQUEUE_TABLE256EL21FLEXCAN_TXQUEUE_TABLE16EE5beginEv+0x294>
 170:	4f44      	ldr	r7, [pc, #272]	; (284 <_ZN10FlexCAN_T4IL13CAN_DEV_TABLE1075658752EL21FLEXCAN_RXQUEUE_TABLE256EL21FLEXCAN_TXQUEUE_TABLE16EE5beginEv+0x284>)
 172:	f8df 8124 	ldr.w	r8, [pc, #292]	; 298 <_ZN10FlexCAN_T4IL13CAN_DEV_TABLE1075658752EL21FLEXCAN_RXQUEUE_TABLE256EL21FLEXCAN_TXQUEUE_TABLE16EE5beginEv+0x298>
 176:	e019      	b.n	1ac <_ZN10FlexCAN_T4IL13CAN_DEV_TABLE1075658752EL21FLEXCAN_RXQUEUE_TABLE256EL21FLEXCAN_TXQUEUE_TABLE16EE5beginEv+0x1ac>
 178:	683b      	ldr	r3, [r7, #0]
 17a:	f003 037f 	and.w	r3, r3, #127	; 0x7f
 17e:	3301      	adds	r3, #1
 180:	ebb2 0f93 	cmp.w	r2, r3, lsr #2
 184:	bf34      	ite	cc
 186:	f04f 6380 	movcc.w	r3, #67108864	; 0x4000000
 18a:	f04f 638c 	movcs.w	r3, #73400320	; 0x4600000
 18e:	600b      	str	r3, [r1, #0]
 190:	6b7b      	ldr	r3, [r7, #52]	; 0x34
 192:	f3c3 4300 	ubfx	r3, r3, #16, #1
 196:	079b      	lsls	r3, r3, #30
 198:	6003      	str	r3, [r0, #0]
 19a:	683b      	ldr	r3, [r7, #0]
 19c:	3401      	adds	r4, #1
 19e:	f003 037f 	and.w	r3, r3, #127	; 0x7f
 1a2:	b2e4      	uxtb	r4, r4
 1a4:	3301      	adds	r3, #1
 1a6:	4622      	mov	r2, r4
 1a8:	429c      	cmp	r4, r3
 1aa:	d21f      	bcs.n	1ec <_ZN10FlexCAN_T4IL13CAN_DEV_TABLE1075658752EL21FLEXCAN_RXQUEUE_TABLE256EL21FLEXCAN_TXQUEUE_TABLE16EE5beginEv+0x1ec>
 1ac:	683b      	ldr	r3, [r7, #0]
 1ae:	eb04 0109 	add.w	r1, r4, r9
 1b2:	eb04 0008 	add.w	r0, r4, r8
 1b6:	f003 037f 	and.w	r3, r3, #127	; 0x7f
 1ba:	0109      	lsls	r1, r1, #4
 1bc:	0080      	lsls	r0, r0, #2
 1be:	3301      	adds	r3, #1
 1c0:	ebb2 0f53 	cmp.w	r2, r3, lsr #1
 1c4:	d3d8      	bcc.n	178 <_ZN10FlexCAN_T4IL13CAN_DEV_TABLE1075658752EL21FLEXCAN_RXQUEUE_TABLE256EL21FLEXCAN_TXQUEUE_TABLE16EE5beginEv+0x178>
 1c6:	f04f 6300 	mov.w	r3, #134217728	; 0x8000000
 1ca:	600b      	str	r3, [r1, #0]
 1cc:	683b      	ldr	r3, [r7, #0]
 1ce:	0098      	lsls	r0, r3, #2
 1d0:	d503      	bpl.n	1da <_ZN10FlexCAN_T4IL13CAN_DEV_TABLE1075658752EL21FLEXCAN_RXQUEUE_TABLE256EL21FLEXCAN_TXQUEUE_TABLE16EE5beginEv+0x1da>
 1d2:	f7ff fffe 	bl	0 <_ZN10FlexCAN_T4IL13CAN_DEV_TABLE1075658752EL21FLEXCAN_RXQUEUE_TABLE256EL21FLEXCAN_TXQUEUE_TABLE16EE5beginEv>
 1d6:	42a0      	cmp	r0, r4
 1d8:	d8df      	bhi.n	19a <_ZN10FlexCAN_T4IL13CAN_DEV_TABLE1075658752EL21FLEXCAN_RXQUEUE_TABLE256EL21FLEXCAN_TXQUEUE_TABLE16EE5beginEv+0x19a>
 1da:	2301      	movs	r3, #1
 1dc:	2c1f      	cmp	r4, #31
 1de:	fa03 f304 	lsl.w	r3, r3, r4
 1e2:	d823      	bhi.n	22c <_ZN10FlexCAN_T4IL13CAN_DEV_TABLE1075658752EL21FLEXCAN_RXQUEUE_TABLE256EL21FLEXCAN_TXQUEUE_TABLE16EE5beginEv+0x22c>
 1e4:	6aba      	ldr	r2, [r7, #40]	; 0x28
 1e6:	4313      	orrs	r3, r2
 1e8:	62bb      	str	r3, [r7, #40]	; 0x28
 1ea:	e7d6      	b.n	19a <_ZN10FlexCAN_T4IL13CAN_DEV_TABLE1075658752EL21FLEXCAN_RXQUEUE_TABLE256EL21FLEXCAN_TXQUEUE_TABLE16EE5beginEv+0x19a>
 1ec:	b93d      	cbnz	r5, 1fe <_ZN10FlexCAN_T4IL13CAN_DEV_TABLE1075658752EL21FLEXCAN_RXQUEUE_TABLE256EL21FLEXCAN_TXQUEUE_TABLE16EE5beginEv+0x1fe>
 1ee:	683b      	ldr	r3, [r7, #0]
 1f0:	4a24      	ldr	r2, [pc, #144]	; (284 <_ZN10FlexCAN_T4IL13CAN_DEV_TABLE1075658752EL21FLEXCAN_RXQUEUE_TABLE256EL21FLEXCAN_TXQUEUE_TABLE16EE5beginEv+0x284>)
 1f2:	f023 5380 	bic.w	r3, r3, #268435456	; 0x10000000
 1f6:	603b      	str	r3, [r7, #0]
 1f8:	6813      	ldr	r3, [r2, #0]
 1fa:	01d9      	lsls	r1, r3, #7
 1fc:	d4fc      	bmi.n	1f8 <_ZN10FlexCAN_T4IL13CAN_DEV_TABLE1075658752EL21FLEXCAN_RXQUEUE_TABLE256EL21FLEXCAN_TXQUEUE_TABLE16EE5beginEv+0x1f8>
 1fe:	4a21      	ldr	r2, [pc, #132]	; (284 <_ZN10FlexCAN_T4IL13CAN_DEV_TABLE1075658752EL21FLEXCAN_RXQUEUE_TABLE256EL21FLEXCAN_TXQUEUE_TABLE16EE5beginEv+0x284>)
 200:	6813      	ldr	r3, [r2, #0]
 202:	f023 5380 	bic.w	r3, r3, #268435456	; 0x10000000
 206:	6013      	str	r3, [r2, #0]
 208:	6813      	ldr	r3, [r2, #0]
 20a:	01db      	lsls	r3, r3, #7
 20c:	d4fc      	bmi.n	208 <_ZN10FlexCAN_T4IL13CAN_DEV_TABLE1075658752EL21FLEXCAN_RXQUEUE_TABLE256EL21FLEXCAN_TXQUEUE_TABLE16EE5beginEv+0x208>
 20e:	f8d6 290c 	ldr.w	r2, [r6, #2316]	; 0x90c
 212:	2101      	movs	r1, #1
 214:	4b1d      	ldr	r3, [pc, #116]	; (28c <_ZN10FlexCAN_T4IL13CAN_DEV_TABLE1075658752EL21FLEXCAN_RXQUEUE_TABLE256EL21FLEXCAN_TXQUEUE_TABLE16EE5beginEv+0x28c>)
 216:	eb03 1352 	add.w	r3, r3, r2, lsr #5
 21a:	f002 021f 	and.w	r2, r2, #31
 21e:	009b      	lsls	r3, r3, #2
 220:	fa01 f202 	lsl.w	r2, r1, r2
 224:	601a      	str	r2, [r3, #0]
 226:	b003      	add	sp, #12
 228:	e8bd 83f0 	ldmia.w	sp!, {r4, r5, r6, r7, r8, r9, pc}
 22c:	f1a4 0120 	sub.w	r1, r4, #32
 230:	2301      	movs	r3, #1
 232:	6a7a      	ldr	r2, [r7, #36]	; 0x24
 234:	408b      	lsls	r3, r1
 236:	4313      	orrs	r3, r2
 238:	627b      	str	r3, [r7, #36]	; 0x24
 23a:	e7ae      	b.n	19a <_ZN10FlexCAN_T4IL13CAN_DEV_TABLE1075658752EL21FLEXCAN_RXQUEUE_TABLE256EL21FLEXCAN_TXQUEUE_TABLE16EE5beginEv+0x19a>
 23c:	6a0b      	ldr	r3, [r1, #32]
 23e:	4a14      	ldr	r2, [pc, #80]	; (290 <_ZN10FlexCAN_T4IL13CAN_DEV_TABLE1075658752EL21FLEXCAN_RXQUEUE_TABLE256EL21FLEXCAN_TXQUEUE_TABLE16EE5beginEv+0x290>)
 240:	f423 737f 	bic.w	r3, r3, #1020	; 0x3fc
 244:	f443 7380 	orr.w	r3, r3, #256	; 0x100
 248:	620b      	str	r3, [r1, #32]
 24a:	6813      	ldr	r3, [r2, #0]
 24c:	2b00      	cmp	r3, #0
 24e:	f43f aeec 	beq.w	2a <_ZN10FlexCAN_T4IL13CAN_DEV_TABLE1075658752EL21FLEXCAN_RXQUEUE_TABLE256EL21FLEXCAN_TXQUEUE_TABLE16EE5beginEv+0x2a>
 252:	4a0c      	ldr	r2, [pc, #48]	; (284 <_ZN10FlexCAN_T4IL13CAN_DEV_TABLE1075658752EL21FLEXCAN_RXQUEUE_TABLE256EL21FLEXCAN_TXQUEUE_TABLE16EE5beginEv+0x284>)
 254:	f500 5600 	add.w	r6, r0, #8192	; 0x2000
 258:	681c      	ldr	r4, [r3, #0]
 25a:	4618      	mov	r0, r3
 25c:	6852      	ldr	r2, [r2, #4]
 25e:	f8d6 1910 	ldr.w	r1, [r6, #2320]	; 0x910
 262:	f3c2 02c0 	ubfx	r2, r2, #3, #1
 266:	6863      	ldr	r3, [r4, #4]
 268:	0052      	lsls	r2, r2, #1
 26a:	4798      	blx	r3
 26c:	e6df      	b.n	2e <_ZN10FlexCAN_T4IL13CAN_DEV_TABLE1075658752EL21FLEXCAN_RXQUEUE_TABLE256EL21FLEXCAN_TXQUEUE_TABLE16EE5beginEv+0x2e>
 26e:	bf00      	nop
 270:	0050183c 	.word	0x0050183c
 274:	400fc000 	.word	0x400fc000
 278:	00000000 	.word	0x00000000
 27c:	00000000 	.word	0x00000000
 280:	401f8000 	.word	0x401f8000
 284:	401d4000 	.word	0x401d4000
 288:	401f8400 	.word	0x401f8400
 28c:	38003840 	.word	0x38003840
 290:	00000000 	.word	0x00000000
 294:	0401d408 	.word	0x0401d408
 298:	10075220 	.word	0x10075220

Disassembly of section .text._ZN11SparkMaxESC5beginEv:

00000000 <_ZN11SparkMaxESC5beginEv>:
   0:	b570      	push	{r4, r5, r6, lr}
   2:	211b      	movs	r1, #27
   4:	4829      	ldr	r0, [pc, #164]	; (ac <_ZN11SparkMaxESC5beginEv+0xac>)
   6:	4c2a      	ldr	r4, [pc, #168]	; (b0 <_ZN11SparkMaxESC5beginEv+0xb0>)
   8:	f7ff fffe 	bl	0 <usb_serial_write>
   c:	4829      	ldr	r0, [pc, #164]	; (b4 <_ZN11SparkMaxESC5beginEv+0xb4>)
   e:	f7ff fffe 	bl	0 <_ZN5Print7printlnEv>
  12:	7823      	ldrb	r3, [r4, #0]
  14:	b103      	cbz	r3, 18 <_ZN11SparkMaxESC5beginEv+0x18>
  16:	bd70      	pop	{r4, r5, r6, pc}
  18:	4e27      	ldr	r6, [pc, #156]	; (b8 <_ZN11SparkMaxESC5beginEv+0xb8>)
  1a:	6835      	ldr	r5, [r6, #0]
  1c:	f3bf 8f5b 	dmb	ish
  20:	f015 0501 	ands.w	r5, r5, #1
  24:	d011      	beq.n	4a <_ZN11SparkMaxESC5beginEv+0x4a>
  26:	4825      	ldr	r0, [pc, #148]	; (bc <_ZN11SparkMaxESC5beginEv+0xbc>)
  28:	f7ff fffe 	bl	0 <_ZN11SparkMaxESC5beginEv>
  2c:	2200      	movs	r2, #0
  2e:	4924      	ldr	r1, [pc, #144]	; (c0 <_ZN11SparkMaxESC5beginEv+0xc0>)
  30:	4822      	ldr	r0, [pc, #136]	; (bc <_ZN11SparkMaxESC5beginEv+0xbc>)
  32:	f7ff fffe 	bl	0 <_ZN11SparkMaxESC5beginEv>
  36:	2114      	movs	r1, #20
  38:	4822      	ldr	r0, [pc, #136]	; (c4 <_ZN11SparkMaxESC5beginEv+0xc4>)
  3a:	f7ff fffe 	bl	0 <usb_serial_write>
  3e:	481d      	ldr	r0, [pc, #116]	; (b4 <_ZN11SparkMaxESC5beginEv+0xb4>)
  40:	f7ff fffe 	bl	0 <_ZN5Print7printlnEv>
  44:	2301      	movs	r3, #1
  46:	7023      	strb	r3, [r4, #0]
  48:	bd70      	pop	{r4, r5, r6, pc}
  4a:	4630      	mov	r0, r6
  4c:	f7ff fffe 	bl	0 <__cxa_guard_acquire>
  50:	2800      	cmp	r0, #0
  52:	d0e8      	beq.n	26 <_ZN11SparkMaxESC5beginEv+0x26>
  54:	4a19      	ldr	r2, [pc, #100]	; (bc <_ZN11SparkMaxESC5beginEv+0xbc>)
  56:	4630      	mov	r0, r6
  58:	4b1b      	ldr	r3, [pc, #108]	; (c8 <_ZN11SparkMaxESC5beginEv+0xc8>)
  5a:	8295      	strh	r5, [r2, #20]
  5c:	6013      	str	r3, [r2, #0]
  5e:	f502 5380 	add.w	r3, r2, #4096	; 0x1000
  62:	82d5      	strh	r5, [r2, #22]
  64:	8315      	strh	r5, [r2, #24]
  66:	f8a3 5b1a 	strh.w	r5, [r3, #2842]	; 0xb1a
  6a:	f8a3 5b1c 	strh.w	r5, [r3, #2844]	; 0xb1c
  6e:	f8a3 5b1e 	strh.w	r5, [r3, #2846]	; 0xb1e
  72:	f8a3 5cd0 	strh.w	r5, [r3, #3280]	; 0xcd0
  76:	f8a3 5cd2 	strh.w	r5, [r3, #3282]	; 0xcd2
  7a:	f8a3 5cd4 	strh.w	r5, [r3, #3284]	; 0xcd4
  7e:	f8a3 5d98 	strh.w	r5, [r3, #3480]	; 0xd98
  82:	f8a3 5d9a 	strh.w	r5, [r3, #3482]	; 0xd9a
  86:	f8a3 5d9c 	strh.w	r5, [r3, #3484]	; 0xd9c
  8a:	f502 5300 	add.w	r3, r2, #8192	; 0x2000
  8e:	f883 5700 	strb.w	r5, [r3, #1792]	; 0x700
  92:	f8c3 590c 	str.w	r5, [r3, #2316]	; 0x90c
  96:	f883 5701 	strb.w	r5, [r3, #1793]	; 0x701
  9a:	f8c3 5910 	str.w	r5, [r3, #2320]	; 0x910
  9e:	f883 5914 	strb.w	r5, [r3, #2324]	; 0x914
  a2:	4b0a      	ldr	r3, [pc, #40]	; (cc <_ZN11SparkMaxESC5beginEv+0xcc>)
  a4:	601a      	str	r2, [r3, #0]
  a6:	f7ff fffe 	bl	0 <__cxa_guard_release>
  aa:	e7bc      	b.n	26 <_ZN11SparkMaxESC5beginEv+0x26>
  ac:	00000000 	.word	0x00000000
  b0:	00000000 	.word	0x00000000
  b4:	00000000 	.word	0x00000000
  b8:	00000000 	.word	0x00000000
  bc:	00000000 	.word	0x00000000
  c0:	000f4240 	.word	0x000f4240
  c4:	0000001c 	.word	0x0000001c
  c8:	00000008 	.word	0x00000008
  cc:	00000000 	.word	0x00000000

Disassembly of section .text._ZN10FlexCAN_T4IL13CAN_DEV_TABLE1075658752EL21FLEXCAN_RXQUEUE_TABLE256EL21FLEXCAN_TXQUEUE_TABLE16EE14writeTxMailboxEhRK13CAN_message_t:

00000000 <_ZN10FlexCAN_T4IL13CAN_DEV_TABLE1075658752EL21FLEXCAN_RXQUEUE_TABLE256EL21FLEXCAN_TXQUEUE_TABLE16EE14writeTxMailboxEhRK13CAN_message_t>:
   0:	291f      	cmp	r1, #31
   2:	481c      	ldr	r0, [pc, #112]	; (74 <_ZN10FlexCAN_T4IL13CAN_DEV_TABLE1075658752EL21FLEXCAN_RXQUEUE_TABLE256EL21FLEXCAN_TXQUEUE_TABLE16EE14writeTxMailboxEhRK13CAN_message_t+0x74>)
   4:	b410      	push	{r4}
   6:	d823      	bhi.n	50 <_ZN10FlexCAN_T4IL13CAN_DEV_TABLE1075658752EL21FLEXCAN_RXQUEUE_TABLE256EL21FLEXCAN_TXQUEUE_TABLE16EE14writeTxMailboxEhRK13CAN_message_t+0x50>
   8:	2301      	movs	r3, #1
   a:	6b04      	ldr	r4, [r0, #48]	; 0x30
   c:	408b      	lsls	r3, r1
   e:	4323      	orrs	r3, r4
  10:	6303      	str	r3, [r0, #48]	; 0x30
  12:	4b19      	ldr	r3, [pc, #100]	; (78 <_ZN10FlexCAN_T4IL13CAN_DEV_TABLE1075658752EL21FLEXCAN_RXQUEUE_TABLE256EL21FLEXCAN_TXQUEUE_TABLE16EE14writeTxMailboxEhRK13CAN_message_t+0x78>)
  14:	f04f 6400 	mov.w	r4, #134217728	; 0x8000000
  18:	79d0      	ldrb	r0, [r2, #7]
  1a:	440b      	add	r3, r1
  1c:	011b      	lsls	r3, r3, #4
  1e:	601c      	str	r4, [r3, #0]
  20:	b1f8      	cbz	r0, 62 <_ZN10FlexCAN_T4IL13CAN_DEV_TABLE1075658752EL21FLEXCAN_RXQUEUE_TABLE256EL21FLEXCAN_TXQUEUE_TABLE16EE14writeTxMailboxEhRK13CAN_message_t+0x62>
  22:	7a11      	ldrb	r1, [r2, #8]
  24:	6810      	ldr	r0, [r2, #0]
  26:	0509      	lsls	r1, r1, #20
  28:	f020 4060 	bic.w	r0, r0, #3758096384	; 0xe0000000
  2c:	f441 01c0 	orr.w	r1, r1, #6291456	; 0x600000
  30:	6058      	str	r0, [r3, #4]
  32:	68d0      	ldr	r0, [r2, #12]
  34:	f85d 4b04 	ldr.w	r4, [sp], #4
  38:	ba00      	rev	r0, r0
  3a:	6098      	str	r0, [r3, #8]
  3c:	6910      	ldr	r0, [r2, #16]
  3e:	ba00      	rev	r0, r0
  40:	60d8      	str	r0, [r3, #12]
  42:	7ad2      	ldrb	r2, [r2, #11]
  44:	ea41 4202 	orr.w	r2, r1, r2, lsl #16
  48:	f042 6240 	orr.w	r2, r2, #201326592	; 0xc000000
  4c:	601a      	str	r2, [r3, #0]
  4e:	4770      	bx	lr
  50:	f1a1 0c20 	sub.w	ip, r1, #32
  54:	2301      	movs	r3, #1
  56:	6ac4      	ldr	r4, [r0, #44]	; 0x2c
  58:	fa03 f30c 	lsl.w	r3, r3, ip
  5c:	4323      	orrs	r3, r4
  5e:	62c3      	str	r3, [r0, #44]	; 0x2c
  60:	e7d7      	b.n	12 <_ZN10FlexCAN_T4IL13CAN_DEV_TABLE1075658752EL21FLEXCAN_RXQUEUE_TABLE256EL21FLEXCAN_TXQUEUE_TABLE16EE14writeTxMailboxEhRK13CAN_message_t+0x12>
  62:	6814      	ldr	r4, [r2, #0]
  64:	4805      	ldr	r0, [pc, #20]	; (7c <_ZN10FlexCAN_T4IL13CAN_DEV_TABLE1075658752EL21FLEXCAN_RXQUEUE_TABLE256EL21FLEXCAN_TXQUEUE_TABLE16EE14writeTxMailboxEhRK13CAN_message_t+0x7c>)
  66:	7a11      	ldrb	r1, [r2, #8]
  68:	ea00 4084 	and.w	r0, r0, r4, lsl #18
  6c:	0509      	lsls	r1, r1, #20
  6e:	6058      	str	r0, [r3, #4]
  70:	e7df      	b.n	32 <_ZN10FlexCAN_T4IL13CAN_DEV_TABLE1075658752EL21FLEXCAN_RXQUEUE_TABLE256EL21FLEXCAN_TXQUEUE_TABLE16EE14writeTxMailboxEhRK13CAN_message_t+0x32>
  72:	bf00      	nop
  74:	401d4000 	.word	0x401d4000
  78:	0401d408 	.word	0x0401d408
  7c:	1ffc0000 	.word	0x1ffc0000

Disassembly of section .text._ZN10FlexCAN_T4IL13CAN_DEV_TABLE1075658752EL21FLEXCAN_RXQUEUE_TABLE256EL21FLEXCAN_TXQUEUE_TABLE16EE14struct2queueTxERK13CAN_message_t:

00000000 <_ZN10FlexCAN_T4IL13CAN_DEV_TABLE1075658752EL21FLEXCAN_RXQUEUE_TABLE256EL21FLEXCAN_TXQUEUE_TABLE16EE14struct2queueTxERK13CAN_message_t>:
   0:	4b3b      	ldr	r3, [pc, #236]	; (f0 <_ZN10FlexCAN_T4IL13CAN_DEV_TABLE1075658752EL21FLEXCAN_RXQUEUE_TABLE256EL21FLEXCAN_TXQUEUE_TABLE16EE14struct2queueTxERK13CAN_message_t+0xf0>)
   2:	6a1b      	ldr	r3, [r3, #32]
   4:	e92d 41f0 	stmdb	sp!, {r4, r5, r6, r7, r8, lr}
   8:	f013 0e20 	ands.w	lr, r3, #32
   c:	b086      	sub	sp, #24
   e:	d166      	bne.n	de <_ZN10FlexCAN_T4IL13CAN_DEV_TABLE1075658752EL21FLEXCAN_RXQUEUE_TABLE256EL21FLEXCAN_TXQUEUE_TABLE16EE14struct2queueTxERK13CAN_message_t+0xde>
  10:	f500 5480 	add.w	r4, r0, #4096	; 0x1000
  14:	4606      	mov	r6, r0
  16:	f8b4 3b1e 	ldrh.w	r3, [r4, #2846]	; 0xb1e
  1a:	b29b      	uxth	r3, r3
  1c:	2b10      	cmp	r3, #16
  1e:	d062      	beq.n	e6 <_ZN10FlexCAN_T4IL13CAN_DEV_TABLE1075658752EL21FLEXCAN_RXQUEUE_TABLE256EL21FLEXCAN_TXQUEUE_TABLE16EE14struct2queueTxERK13CAN_message_t+0xe6>
  20:	f8b4 8b1c 	ldrh.w	r8, [r4, #2844]	; 0xb1c
  24:	460d      	mov	r5, r1
  26:	271a      	movs	r7, #26
  28:	6808      	ldr	r0, [r1, #0]
  2a:	f008 080f 	and.w	r8, r8, #15
  2e:	6849      	ldr	r1, [r1, #4]
  30:	68aa      	ldr	r2, [r5, #8]
  32:	46ec      	mov	ip, sp
  34:	68eb      	ldr	r3, [r5, #12]
  36:	fb07 4808 	mla	r8, r7, r8, r4
  3a:	e8ac 000f 	stmia.w	ip!, {r0, r1, r2, r3}
  3e:	6928      	ldr	r0, [r5, #16]
  40:	2218      	movs	r2, #24
  42:	6969      	ldr	r1, [r5, #20]
  44:	f888 eb30 	strb.w	lr, [r8, #2864]	; 0xb30
  48:	f641 3e30 	movw	lr, #6960	; 0x1b30
  4c:	f8b4 3b1c 	ldrh.w	r3, [r4, #2844]	; 0xb1c
  50:	f003 030f 	and.w	r3, r3, #15
  54:	fb07 4303 	mla	r3, r7, r3, r4
  58:	f883 2b31 	strb.w	r2, [r3, #2865]	; 0xb31
  5c:	f8b4 3b1c 	ldrh.w	r3, [r4, #2844]	; 0xb1c
  60:	f003 030f 	and.w	r3, r3, #15
  64:	e8ac 0003 	stmia.w	ip!, {r0, r1}
  68:	fb07 6603 	mla	r6, r7, r3, r6
  6c:	46ec      	mov	ip, sp
  6e:	44b6      	add	lr, r6
  70:	e8bc 000f 	ldmia.w	ip!, {r0, r1, r2, r3}
  74:	f8ce 0002 	str.w	r0, [lr, #2]
  78:	f8ce 1006 	str.w	r1, [lr, #6]
  7c:	f8ce 200a 	str.w	r2, [lr, #10]
  80:	f8ce 300e 	str.w	r3, [lr, #14]
  84:	e8bc 0003 	ldmia.w	ip!, {r0, r1}
  88:	f8ce 0012 	str.w	r0, [lr, #18]
  8c:	f8ce 1016 	str.w	r1, [lr, #22]
  90:	f8b4 2b1c 	ldrh.w	r2, [r4, #2844]	; 0xb1c
  94:	f8b4 3b1a 	ldrh.w	r3, [r4, #2842]	; 0xb1a
  98:	b292      	uxth	r2, r2
  9a:	b29b      	uxth	r3, r3
  9c:	f083 0310 	eor.w	r3, r3, #16
  a0:	429a      	cmp	r2, r3
  a2:	d106      	bne.n	b2 <_ZN10FlexCAN_T4IL13CAN_DEV_TABLE1075658752EL21FLEXCAN_RXQUEUE_TABLE256EL21FLEXCAN_TXQUEUE_TABLE16EE14struct2queueTxERK13CAN_message_t+0xb2>
  a4:	f8b4 3b1a 	ldrh.w	r3, [r4, #2842]	; 0xb1a
  a8:	3301      	adds	r3, #1
  aa:	f003 031f 	and.w	r3, r3, #31
  ae:	f8a4 3b1a 	strh.w	r3, [r4, #2842]	; 0xb1a
  b2:	f8b4 3b1c 	ldrh.w	r3, [r4, #2844]	; 0xb1c
  b6:	3301      	adds	r3, #1
  b8:	f003 031f 	and.w	r3, r3, #31
  bc:	f8a4 3b1c 	strh.w	r3, [r4, #2844]	; 0xb1c
  c0:	f8b4 3b1e 	ldrh.w	r3, [r4, #2846]	; 0xb1e
  c4:	b29b      	uxth	r3, r3
  c6:	2b0f      	cmp	r3, #15
  c8:	d809      	bhi.n	de <_ZN10FlexCAN_T4IL13CAN_DEV_TABLE1075658752EL21FLEXCAN_RXQUEUE_TABLE256EL21FLEXCAN_TXQUEUE_TABLE16EE14struct2queueTxERK13CAN_message_t+0xde>
  ca:	f8b4 3b1e 	ldrh.w	r3, [r4, #2846]	; 0xb1e
  ce:	2001      	movs	r0, #1
  d0:	4403      	add	r3, r0
  d2:	b29b      	uxth	r3, r3
  d4:	f8a4 3b1e 	strh.w	r3, [r4, #2846]	; 0xb1e
  d8:	b006      	add	sp, #24
  da:	e8bd 81f0 	ldmia.w	sp!, {r4, r5, r6, r7, r8, pc}
  de:	2001      	movs	r0, #1
  e0:	b006      	add	sp, #24
  e2:	e8bd 81f0 	ldmia.w	sp!, {r4, r5, r6, r7, r8, pc}
  e6:	4670      	mov	r0, lr
  e8:	b006      	add	sp, #24
  ea:	e8bd 81f0 	ldmia.w	sp!, {r4, r5, r6, r7, r8, pc}
  ee:	bf00      	nop
  f0:	401d4000 	.word	0x401d4000

Disassembly of section .text._ZN10FlexCAN_T4IL13CAN_DEV_TABLE1075658752EL21FLEXCAN_RXQUEUE_TABLE256EL21FLEXCAN_TXQUEUE_TABLE16EE5writeERK13CAN_message_t:

00000000 <_ZN10FlexCAN_T4IL13CAN_DEV_TABLE1075658752EL21FLEXCAN_RXQUEUE_TABLE256EL21FLEXCAN_TXQUEUE_TABLE16EE5writeERK13CAN_message_t>:
   0:	7d8b      	ldrb	r3, [r1, #22]
   2:	b570      	push	{r4, r5, r6, lr}
   4:	460d      	mov	r5, r1
   6:	b086      	sub	sp, #24
   8:	4604      	mov	r4, r0
   a:	4e3f      	ldr	r6, [pc, #252]	; (108 <_ZN10FlexCAN_T4IL13CAN_DEV_TABLE1075658752EL21FLEXCAN_RXQUEUE_TABLE256EL21FLEXCAN_TXQUEUE_TABLE16EE5writeERK13CAN_message_t+0x108>)
   c:	2b00      	cmp	r3, #0
   e:	d13c      	bne.n	8a <_ZN10FlexCAN_T4IL13CAN_DEV_TABLE1075658752EL21FLEXCAN_RXQUEUE_TABLE256EL21FLEXCAN_TXQUEUE_TABLE16EE5writeERK13CAN_message_t+0x8a>
  10:	6833      	ldr	r3, [r6, #0]
  12:	f013 5c00 	ands.w	ip, r3, #536870912	; 0x20000000
  16:	d025      	beq.n	64 <_ZN10FlexCAN_T4IL13CAN_DEV_TABLE1075658752EL21FLEXCAN_RXQUEUE_TABLE256EL21FLEXCAN_TXQUEUE_TABLE16EE5writeERK13CAN_message_t+0x64>
  18:	f7ff fffe 	bl	0 <_ZN10FlexCAN_T4IL13CAN_DEV_TABLE1075658752EL21FLEXCAN_RXQUEUE_TABLE256EL21FLEXCAN_TXQUEUE_TABLE16EE5writeERK13CAN_message_t>
  1c:	6833      	ldr	r3, [r6, #0]
  1e:	4684      	mov	ip, r0
  20:	f003 037f 	and.w	r3, r3, #127	; 0x7f
  24:	3301      	adds	r3, #1
  26:	4298      	cmp	r0, r3
  28:	d21e      	bcs.n	68 <_ZN10FlexCAN_T4IL13CAN_DEV_TABLE1075658752EL21FLEXCAN_RXQUEUE_TABLE256EL21FLEXCAN_TXQUEUE_TABLE16EE5writeERK13CAN_message_t+0x68>
  2a:	4938      	ldr	r1, [pc, #224]	; (10c <_ZN10FlexCAN_T4IL13CAN_DEV_TABLE1075658752EL21FLEXCAN_RXQUEUE_TABLE256EL21FLEXCAN_TXQUEUE_TABLE16EE5writeERK13CAN_message_t+0x10c>)
  2c:	4836      	ldr	r0, [pc, #216]	; (108 <_ZN10FlexCAN_T4IL13CAN_DEV_TABLE1075658752EL21FLEXCAN_RXQUEUE_TABLE256EL21FLEXCAN_TXQUEUE_TABLE16EE5writeERK13CAN_message_t+0x108>)
  2e:	e007      	b.n	40 <_ZN10FlexCAN_T4IL13CAN_DEV_TABLE1075658752EL21FLEXCAN_RXQUEUE_TABLE256EL21FLEXCAN_TXQUEUE_TABLE16EE5writeERK13CAN_message_t+0x40>
  30:	6803      	ldr	r3, [r0, #0]
  32:	fa5f fc82 	uxtb.w	ip, r2
  36:	f003 037f 	and.w	r3, r3, #127	; 0x7f
  3a:	3301      	adds	r3, #1
  3c:	459c      	cmp	ip, r3
  3e:	d213      	bcs.n	68 <_ZN10FlexCAN_T4IL13CAN_DEV_TABLE1075658752EL21FLEXCAN_RXQUEUE_TABLE256EL21FLEXCAN_TXQUEUE_TABLE16EE5writeERK13CAN_message_t+0x68>
  40:	eb0c 0301 	add.w	r3, ip, r1
  44:	f10c 0201 	add.w	r2, ip, #1
  48:	011b      	lsls	r3, r3, #4
  4a:	681b      	ldr	r3, [r3, #0]
  4c:	f3c3 6303 	ubfx	r3, r3, #24, #4
  50:	2b08      	cmp	r3, #8
  52:	d1ed      	bne.n	30 <_ZN10FlexCAN_T4IL13CAN_DEV_TABLE1075658752EL21FLEXCAN_RXQUEUE_TABLE256EL21FLEXCAN_TXQUEUE_TABLE16EE5writeERK13CAN_message_t+0x30>
  54:	4620      	mov	r0, r4
  56:	462a      	mov	r2, r5
  58:	4661      	mov	r1, ip
  5a:	f7ff fffe 	bl	0 <_ZN10FlexCAN_T4IL13CAN_DEV_TABLE1075658752EL21FLEXCAN_RXQUEUE_TABLE256EL21FLEXCAN_TXQUEUE_TABLE16EE5writeERK13CAN_message_t>
  5e:	2001      	movs	r0, #1
  60:	b006      	add	sp, #24
  62:	bd70      	pop	{r4, r5, r6, pc}
  64:	6833      	ldr	r3, [r6, #0]
  66:	e7e0      	b.n	2a <_ZN10FlexCAN_T4IL13CAN_DEV_TABLE1075658752EL21FLEXCAN_RXQUEUE_TABLE256EL21FLEXCAN_TXQUEUE_TABLE16EE5writeERK13CAN_message_t+0x2a>
  68:	cd0f      	ldmia	r5!, {r0, r1, r2, r3}
  6a:	46ec      	mov	ip, sp
  6c:	26ff      	movs	r6, #255	; 0xff
  6e:	e8ac 000f 	stmia.w	ip!, {r0, r1, r2, r3}
  72:	e895 0003 	ldmia.w	r5, {r0, r1}
  76:	e88c 0003 	stmia.w	ip, {r0, r1}
  7a:	4669      	mov	r1, sp
  7c:	4620      	mov	r0, r4
  7e:	f88d 6014 	strb.w	r6, [sp, #20]
  82:	f7ff fffe 	bl	0 <_ZN10FlexCAN_T4IL13CAN_DEV_TABLE1075658752EL21FLEXCAN_RXQUEUE_TABLE256EL21FLEXCAN_TXQUEUE_TABLE16EE5writeERK13CAN_message_t>
  86:	b006      	add	sp, #24
  88:	bd70      	pop	{r4, r5, r6, pc}
  8a:	6830      	ldr	r0, [r6, #0]
  8c:	f010 5000 	ands.w	r0, r0, #536870912	; 0x20000000
  90:	d030      	beq.n	f4 <_ZN10FlexCAN_T4IL13CAN_DEV_TABLE1075658752EL21FLEXCAN_RXQUEUE_TABLE256EL21FLEXCAN_TXQUEUE_TABLE16EE5writeERK13CAN_message_t+0xf4>
  92:	f7ff fffe 	bl	0 <_ZN10FlexCAN_T4IL13CAN_DEV_TABLE1075658752EL21FLEXCAN_RXQUEUE_TABLE256EL21FLEXCAN_TXQUEUE_TABLE16EE5writeERK13CAN_message_t>
  96:	6833      	ldr	r3, [r6, #0]
  98:	f003 037f 	and.w	r3, r3, #127	; 0x7f
  9c:	3301      	adds	r3, #1
  9e:	4283      	cmp	r3, r0
  a0:	d924      	bls.n	ec <_ZN10FlexCAN_T4IL13CAN_DEV_TABLE1075658752EL21FLEXCAN_RXQUEUE_TABLE256EL21FLEXCAN_TXQUEUE_TABLE16EE5writeERK13CAN_message_t+0xec>
  a2:	491a      	ldr	r1, [pc, #104]	; (10c <_ZN10FlexCAN_T4IL13CAN_DEV_TABLE1075658752EL21FLEXCAN_RXQUEUE_TABLE256EL21FLEXCAN_TXQUEUE_TABLE16EE5writeERK13CAN_message_t+0x10c>)
  a4:	4e18      	ldr	r6, [pc, #96]	; (108 <_ZN10FlexCAN_T4IL13CAN_DEV_TABLE1075658752EL21FLEXCAN_RXQUEUE_TABLE256EL21FLEXCAN_TXQUEUE_TABLE16EE5writeERK13CAN_message_t+0x108>)
  a6:	e005      	b.n	b4 <_ZN10FlexCAN_T4IL13CAN_DEV_TABLE1075658752EL21FLEXCAN_RXQUEUE_TABLE256EL21FLEXCAN_TXQUEUE_TABLE16EE5writeERK13CAN_message_t+0xb4>
  a8:	6833      	ldr	r3, [r6, #0]
  aa:	f003 037f 	and.w	r3, r3, #127	; 0x7f
  ae:	3301      	adds	r3, #1
  b0:	4298      	cmp	r0, r3
  b2:	d21b      	bcs.n	ec <_ZN10FlexCAN_T4IL13CAN_DEV_TABLE1075658752EL21FLEXCAN_RXQUEUE_TABLE256EL21FLEXCAN_TXQUEUE_TABLE16EE5writeERK13CAN_message_t+0xec>
  b4:	1843      	adds	r3, r0, r1
  b6:	1c42      	adds	r2, r0, #1
  b8:	4684      	mov	ip, r0
  ba:	011b      	lsls	r3, r3, #4
  bc:	b2d0      	uxtb	r0, r2
  be:	681a      	ldr	r2, [r3, #0]
  c0:	0112      	lsls	r2, r2, #4
  c2:	d5f1      	bpl.n	a8 <_ZN10FlexCAN_T4IL13CAN_DEV_TABLE1075658752EL21FLEXCAN_RXQUEUE_TABLE256EL21FLEXCAN_TXQUEUE_TABLE16EE5writeERK13CAN_message_t+0xa8>
  c4:	681b      	ldr	r3, [r3, #0]
  c6:	f3c3 6303 	ubfx	r3, r3, #24, #4
  ca:	2b08      	cmp	r3, #8
  cc:	d014      	beq.n	f8 <_ZN10FlexCAN_T4IL13CAN_DEV_TABLE1075658752EL21FLEXCAN_RXQUEUE_TABLE256EL21FLEXCAN_TXQUEUE_TABLE16EE5writeERK13CAN_message_t+0xf8>
  ce:	466e      	mov	r6, sp
  d0:	cd0f      	ldmia	r5!, {r0, r1, r2, r3}
  d2:	c60f      	stmia	r6!, {r0, r1, r2, r3}
  d4:	e895 0003 	ldmia.w	r5, {r0, r1}
  d8:	e886 0003 	stmia.w	r6, {r0, r1}
  dc:	4669      	mov	r1, sp
  de:	4620      	mov	r0, r4
  e0:	f88d c014 	strb.w	ip, [sp, #20]
  e4:	f7ff fffe 	bl	0 <_ZN10FlexCAN_T4IL13CAN_DEV_TABLE1075658752EL21FLEXCAN_RXQUEUE_TABLE256EL21FLEXCAN_TXQUEUE_TABLE16EE5writeERK13CAN_message_t>
  e8:	b006      	add	sp, #24
  ea:	bd70      	pop	{r4, r5, r6, pc}
  ec:	4b08      	ldr	r3, [pc, #32]	; (110 <_ZN10FlexCAN_T4IL13CAN_DEV_TABLE1075658752EL21FLEXCAN_RXQUEUE_TABLE256EL21FLEXCAN_TXQUEUE_TABLE16EE5writeERK13CAN_message_t+0x110>)
  ee:	f04f 3cff 	mov.w	ip, #4294967295	; 0xffffffff
  f2:	e7e7      	b.n	c4 <_ZN10FlexCAN_T4IL13CAN_DEV_TABLE1075658752EL21FLEXCAN_RXQUEUE_TABLE256EL21FLEXCAN_TXQUEUE_TABLE16EE5writeERK13CAN_message_t+0xc4>
  f4:	6833      	ldr	r3, [r6, #0]
  f6:	e7d4      	b.n	a2 <_ZN10FlexCAN_T4IL13CAN_DEV_TABLE1075658752EL21FLEXCAN_RXQUEUE_TABLE256EL21FLEXCAN_TXQUEUE_TABLE16EE5writeERK13CAN_message_t+0xa2>
  f8:	4620      	mov	r0, r4
  fa:	462a      	mov	r2, r5
  fc:	fa5f f18c 	uxtb.w	r1, ip
 100:	f7ff fffe 	bl	0 <_ZN10FlexCAN_T4IL13CAN_DEV_TABLE1075658752EL21FLEXCAN_RXQUEUE_TABLE256EL21FLEXCAN_TXQUEUE_TABLE16EE5writeERK13CAN_message_t>
 104:	2001      	movs	r0, #1
 106:	e7ab      	b.n	60 <_ZN10FlexCAN_T4IL13CAN_DEV_TABLE1075658752EL21FLEXCAN_RXQUEUE_TABLE256EL21FLEXCAN_TXQUEUE_TABLE16EE5writeERK13CAN_message_t+0x60>
 108:	401d4000 	.word	0x401d4000
 10c:	0401d408 	.word	0x0401d408
 110:	401d4070 	.word	0x401d4070

Disassembly of section .text._ZN10FlexCAN_T4IL13CAN_DEV_TABLE1075658752EL21FLEXCAN_RXQUEUE_TABLE256EL21FLEXCAN_TXQUEUE_TABLE16EE17fifo_filter_matchEm:

00000000 <_ZN10FlexCAN_T4IL13CAN_DEV_TABLE1075658752EL21FLEXCAN_RXQUEUE_TABLE256EL21FLEXCAN_TXQUEUE_TABLE16EE17fifo_filter_matchEm>:
   0:	f500 5380 	add.w	r3, r0, #4096	; 0x1000
   4:	f8d3 3e00 	ldr.w	r3, [r3, #3584]	; 0xe00
   8:	00db      	lsls	r3, r3, #3
   a:	d569      	bpl.n	e0 <_ZN10FlexCAN_T4IL13CAN_DEV_TABLE1075658752EL21FLEXCAN_RXQUEUE_TABLE256EL21FLEXCAN_TXQUEUE_TABLE16EE17fifo_filter_matchEm+0xe0>
   c:	4b37      	ldr	r3, [pc, #220]	; (ec <_ZN10FlexCAN_T4IL13CAN_DEV_TABLE1075658752EL21FLEXCAN_RXQUEUE_TABLE256EL21FLEXCAN_TXQUEUE_TABLE16EE17fifo_filter_matchEm+0xec>)
   e:	e92d 4ff0 	stmdb	sp!, {r4, r5, r6, r7, r8, r9, sl, fp, lr}
  12:	6b5e      	ldr	r6, [r3, #52]	; 0x34
  14:	f04f 0e00 	mov.w	lr, #0
  18:	f641 6914 	movw	r9, #7700	; 0x1e14
  1c:	f641 6704 	movw	r7, #7684	; 0x1e04
  20:	f3c6 6603 	ubfx	r6, r6, #24, #4
  24:	f641 6808 	movw	r8, #7688	; 0x1e08
  28:	00f6      	lsls	r6, r6, #3
  2a:	3608      	adds	r6, #8
  2c:	e009      	b.n	42 <_ZN10FlexCAN_T4IL13CAN_DEV_TABLE1075658752EL21FLEXCAN_RXQUEUE_TABLE256EL21FLEXCAN_TXQUEUE_TABLE16EE17fifo_filter_matchEm+0x42>
  2e:	6813      	ldr	r3, [r2, #0]
  30:	0f5b      	lsrs	r3, r3, #29
  32:	2b05      	cmp	r3, #5
  34:	d034      	beq.n	a0 <_ZN10FlexCAN_T4IL13CAN_DEV_TABLE1075658752EL21FLEXCAN_RXQUEUE_TABLE256EL21FLEXCAN_TXQUEUE_TABLE16EE17fifo_filter_matchEm+0xa0>
  36:	f10e 0e01 	add.w	lr, lr, #1
  3a:	fa5f f38e 	uxtb.w	r3, lr
  3e:	429e      	cmp	r6, r3
  40:	d950      	bls.n	e4 <_ZN10FlexCAN_T4IL13CAN_DEV_TABLE1075658752EL21FLEXCAN_RXQUEUE_TABLE256EL21FLEXCAN_TXQUEUE_TABLE16EE17fifo_filter_matchEm+0xe4>
  42:	eb0e 054e 	add.w	r5, lr, lr, lsl #1
  46:	eb00 0cc5 	add.w	ip, r0, r5, lsl #3
  4a:	f50c 52f0 	add.w	r2, ip, #7680	; 0x1e00
  4e:	6813      	ldr	r3, [r2, #0]
  50:	0f5b      	lsrs	r3, r3, #29
  52:	2b01      	cmp	r3, #1
  54:	6813      	ldr	r3, [r2, #0]
  56:	d00d      	beq.n	74 <_ZN10FlexCAN_T4IL13CAN_DEV_TABLE1075658752EL21FLEXCAN_RXQUEUE_TABLE256EL21FLEXCAN_TXQUEUE_TABLE16EE17fifo_filter_matchEm+0x74>
  58:	0f5b      	lsrs	r3, r3, #29
  5a:	2b02      	cmp	r3, #2
  5c:	d1e7      	bne.n	2e <_ZN10FlexCAN_T4IL13CAN_DEV_TABLE1075658752EL21FLEXCAN_RXQUEUE_TABLE256EL21FLEXCAN_TXQUEUE_TABLE16EE17fifo_filter_matchEm+0x2e>
  5e:	f85c 3007 	ldr.w	r3, [ip, r7]
  62:	428b      	cmp	r3, r1
  64:	d8e7      	bhi.n	36 <_ZN10FlexCAN_T4IL13CAN_DEV_TABLE1075658752EL21FLEXCAN_RXQUEUE_TABLE256EL21FLEXCAN_TXQUEUE_TABLE16EE17fifo_filter_matchEm+0x36>
  66:	f85c 3008 	ldr.w	r3, [ip, r8]
  6a:	428b      	cmp	r3, r1
  6c:	d3e3      	bcc.n	36 <_ZN10FlexCAN_T4IL13CAN_DEV_TABLE1075658752EL21FLEXCAN_RXQUEUE_TABLE256EL21FLEXCAN_TXQUEUE_TABLE16EE17fifo_filter_matchEm+0x36>
  6e:	2001      	movs	r0, #1
  70:	e8bd 8ff0 	ldmia.w	sp!, {r4, r5, r6, r7, r8, r9, sl, fp, pc}
  74:	f413 7f60 	tst.w	r3, #896	; 0x380
  78:	d0dd      	beq.n	36 <_ZN10FlexCAN_T4IL13CAN_DEV_TABLE1075658752EL21FLEXCAN_RXQUEUE_TABLE256EL21FLEXCAN_TXQUEUE_TABLE16EE17fifo_filter_matchEm+0x36>
  7a:	006d      	lsls	r5, r5, #1
  7c:	2300      	movs	r3, #0
  7e:	e004      	b.n	8a <_ZN10FlexCAN_T4IL13CAN_DEV_TABLE1075658752EL21FLEXCAN_RXQUEUE_TABLE256EL21FLEXCAN_TXQUEUE_TABLE16EE17fifo_filter_matchEm+0x8a>
  80:	6814      	ldr	r4, [r2, #0]
  82:	f3c4 1cc2 	ubfx	ip, r4, #7, #3
  86:	4563      	cmp	r3, ip
  88:	d2d5      	bcs.n	36 <_ZN10FlexCAN_T4IL13CAN_DEV_TABLE1075658752EL21FLEXCAN_RXQUEUE_TABLE256EL21FLEXCAN_TXQUEUE_TABLE16EE17fifo_filter_matchEm+0x36>
  8a:	3301      	adds	r3, #1
  8c:	eb05 0c03 	add.w	ip, r5, r3
  90:	b2db      	uxtb	r3, r3
  92:	f50c 6cf0 	add.w	ip, ip, #1920	; 0x780
  96:	f850 402c 	ldr.w	r4, [r0, ip, lsl #2]
  9a:	428c      	cmp	r4, r1
  9c:	d1f0      	bne.n	80 <_ZN10FlexCAN_T4IL13CAN_DEV_TABLE1075658752EL21FLEXCAN_RXQUEUE_TABLE256EL21FLEXCAN_TXQUEUE_TABLE16EE17fifo_filter_matchEm+0x80>
  9e:	e7e6      	b.n	6e <_ZN10FlexCAN_T4IL13CAN_DEV_TABLE1075658752EL21FLEXCAN_RXQUEUE_TABLE256EL21FLEXCAN_TXQUEUE_TABLE16EE17fifo_filter_matchEm+0x6e>
  a0:	6813      	ldr	r3, [r2, #0]
  a2:	f413 7f60 	tst.w	r3, #896	; 0x380
  a6:	d0c6      	beq.n	36 <_ZN10FlexCAN_T4IL13CAN_DEV_TABLE1075658752EL21FLEXCAN_RXQUEUE_TABLE256EL21FLEXCAN_TXQUEUE_TABLE16EE17fifo_filter_matchEm+0x36>
  a8:	44cc      	add	ip, r9
  aa:	006d      	lsls	r5, r5, #1
  ac:	2401      	movs	r4, #1
  ae:	e005      	b.n	bc <_ZN10FlexCAN_T4IL13CAN_DEV_TABLE1075658752EL21FLEXCAN_RXQUEUE_TABLE256EL21FLEXCAN_TXQUEUE_TABLE16EE17fifo_filter_matchEm+0xbc>
  b0:	6813      	ldr	r3, [r2, #0]
  b2:	f3c3 13c2 	ubfx	r3, r3, #7, #3
  b6:	3301      	adds	r3, #1
  b8:	429c      	cmp	r4, r3
  ba:	d2bc      	bcs.n	36 <_ZN10FlexCAN_T4IL13CAN_DEV_TABLE1075658752EL21FLEXCAN_RXQUEUE_TABLE256EL21FLEXCAN_TXQUEUE_TABLE16EE17fifo_filter_matchEm+0x36>
  bc:	192b      	adds	r3, r5, r4
  be:	f8dc a000 	ldr.w	sl, [ip]
  c2:	3401      	adds	r4, #1
  c4:	f503 63f0 	add.w	r3, r3, #1920	; 0x780
  c8:	ea0a 0a01 	and.w	sl, sl, r1
  cc:	b2e4      	uxtb	r4, r4
  ce:	f850 3023 	ldr.w	r3, [r0, r3, lsl #2]
  d2:	f8dc b000 	ldr.w	fp, [ip]
  d6:	ea03 030b 	and.w	r3, r3, fp
  da:	459a      	cmp	sl, r3
  dc:	d1e8      	bne.n	b0 <_ZN10FlexCAN_T4IL13CAN_DEV_TABLE1075658752EL21FLEXCAN_RXQUEUE_TABLE256EL21FLEXCAN_TXQUEUE_TABLE16EE17fifo_filter_matchEm+0xb0>
  de:	e7c6      	b.n	6e <_ZN10FlexCAN_T4IL13CAN_DEV_TABLE1075658752EL21FLEXCAN_RXQUEUE_TABLE256EL21FLEXCAN_TXQUEUE_TABLE16EE17fifo_filter_matchEm+0x6e>
  e0:	2001      	movs	r0, #1
  e2:	4770      	bx	lr
  e4:	2000      	movs	r0, #0
  e6:	e8bd 8ff0 	ldmia.w	sp!, {r4, r5, r6, r7, r8, r9, sl, fp, pc}
  ea:	bf00      	nop
  ec:	401d4000 	.word	0x401d4000

Disassembly of section .text._ZN10FlexCAN_T4IL13CAN_DEV_TABLE1075658752EL21FLEXCAN_RXQUEUE_TABLE256EL21FLEXCAN_TXQUEUE_TABLE16EE12filter_matchE15FLEXCAN_MAILBOXm:

00000000 <_ZN10FlexCAN_T4IL13CAN_DEV_TABLE1075658752EL21FLEXCAN_RXQUEUE_TABLE256EL21FLEXCAN_TXQUEUE_TABLE16EE12filter_matchE15FLEXCAN_MAILBOXm>:
   0:	eb01 0141 	add.w	r1, r1, r1, lsl #1
   4:	b570      	push	{r4, r5, r6, lr}
   6:	eb00 04c1 	add.w	r4, r0, r1, lsl #3
   a:	f504 5e04 	add.w	lr, r4, #8448	; 0x2100
   e:	f8de 3000 	ldr.w	r3, [lr]
  12:	00db      	lsls	r3, r3, #3
  14:	d528      	bpl.n	68 <_ZN10FlexCAN_T4IL13CAN_DEV_TABLE1075658752EL21FLEXCAN_RXQUEUE_TABLE256EL21FLEXCAN_TXQUEUE_TABLE16EE12filter_matchE15FLEXCAN_MAILBOXm+0x68>
  16:	f8de 3000 	ldr.w	r3, [lr]
  1a:	0f5b      	lsrs	r3, r3, #29
  1c:	2b01      	cmp	r3, #1
  1e:	d00b      	beq.n	38 <_ZN10FlexCAN_T4IL13CAN_DEV_TABLE1075658752EL21FLEXCAN_RXQUEUE_TABLE256EL21FLEXCAN_TXQUEUE_TABLE16EE12filter_matchE15FLEXCAN_MAILBOXm+0x38>
  20:	f8de 3000 	ldr.w	r3, [lr]
  24:	0f5b      	lsrs	r3, r3, #29
  26:	2b02      	cmp	r3, #2
  28:	d042      	beq.n	b0 <_ZN10FlexCAN_T4IL13CAN_DEV_TABLE1075658752EL21FLEXCAN_RXQUEUE_TABLE256EL21FLEXCAN_TXQUEUE_TABLE16EE12filter_matchE15FLEXCAN_MAILBOXm+0xb0>
  2a:	f8de 3000 	ldr.w	r3, [lr]
  2e:	0f5b      	lsrs	r3, r3, #29
  30:	2b05      	cmp	r3, #5
  32:	d01b      	beq.n	6c <_ZN10FlexCAN_T4IL13CAN_DEV_TABLE1075658752EL21FLEXCAN_RXQUEUE_TABLE256EL21FLEXCAN_TXQUEUE_TABLE16EE12filter_matchE15FLEXCAN_MAILBOXm+0x6c>
  34:	2000      	movs	r0, #0
  36:	bd70      	pop	{r4, r5, r6, pc}
  38:	f8de 4000 	ldr.w	r4, [lr]
  3c:	f414 7f60 	tst.w	r4, #896	; 0x380
  40:	d0f8      	beq.n	34 <_ZN10FlexCAN_T4IL13CAN_DEV_TABLE1075658752EL21FLEXCAN_RXQUEUE_TABLE256EL21FLEXCAN_TXQUEUE_TABLE16EE12filter_matchE15FLEXCAN_MAILBOXm+0x34>
  42:	2300      	movs	r3, #0
  44:	004d      	lsls	r5, r1, #1
  46:	e005      	b.n	54 <_ZN10FlexCAN_T4IL13CAN_DEV_TABLE1075658752EL21FLEXCAN_RXQUEUE_TABLE256EL21FLEXCAN_TXQUEUE_TABLE16EE12filter_matchE15FLEXCAN_MAILBOXm+0x54>
  48:	f8de 1000 	ldr.w	r1, [lr]
  4c:	f3c1 1cc2 	ubfx	ip, r1, #7, #3
  50:	4563      	cmp	r3, ip
  52:	d2ef      	bcs.n	34 <_ZN10FlexCAN_T4IL13CAN_DEV_TABLE1075658752EL21FLEXCAN_RXQUEUE_TABLE256EL21FLEXCAN_TXQUEUE_TABLE16EE12filter_matchE15FLEXCAN_MAILBOXm+0x34>
  54:	3301      	adds	r3, #1
  56:	eb05 0c03 	add.w	ip, r5, r3
  5a:	b2db      	uxtb	r3, r3
  5c:	f50c 6c04 	add.w	ip, ip, #2112	; 0x840
  60:	f850 402c 	ldr.w	r4, [r0, ip, lsl #2]
  64:	4294      	cmp	r4, r2
  66:	d1ef      	bne.n	48 <_ZN10FlexCAN_T4IL13CAN_DEV_TABLE1075658752EL21FLEXCAN_RXQUEUE_TABLE256EL21FLEXCAN_TXQUEUE_TABLE16EE12filter_matchE15FLEXCAN_MAILBOXm+0x48>
  68:	2001      	movs	r0, #1
  6a:	bd70      	pop	{r4, r5, r6, pc}
  6c:	f8de 5000 	ldr.w	r5, [lr]
  70:	f415 7f60 	tst.w	r5, #896	; 0x380
  74:	d0de      	beq.n	34 <_ZN10FlexCAN_T4IL13CAN_DEV_TABLE1075658752EL21FLEXCAN_RXQUEUE_TABLE256EL21FLEXCAN_TXQUEUE_TABLE16EE12filter_matchE15FLEXCAN_MAILBOXm+0x34>
  76:	f242 1514 	movw	r5, #8468	; 0x2114
  7a:	0049      	lsls	r1, r1, #1
  7c:	2301      	movs	r3, #1
  7e:	4425      	add	r5, r4
  80:	e007      	b.n	92 <_ZN10FlexCAN_T4IL13CAN_DEV_TABLE1075658752EL21FLEXCAN_RXQUEUE_TABLE256EL21FLEXCAN_TXQUEUE_TABLE16EE12filter_matchE15FLEXCAN_MAILBOXm+0x92>
  82:	f8de 4000 	ldr.w	r4, [lr]
  86:	f3c4 1cc2 	ubfx	ip, r4, #7, #3
  8a:	f10c 0c01 	add.w	ip, ip, #1
  8e:	4563      	cmp	r3, ip
  90:	d2d0      	bcs.n	34 <_ZN10FlexCAN_T4IL13CAN_DEV_TABLE1075658752EL21FLEXCAN_RXQUEUE_TABLE256EL21FLEXCAN_TXQUEUE_TABLE16EE12filter_matchE15FLEXCAN_MAILBOXm+0x34>
  92:	682c      	ldr	r4, [r5, #0]
  94:	ea04 0c02 	and.w	ip, r4, r2
  98:	18cc      	adds	r4, r1, r3
  9a:	3301      	adds	r3, #1
  9c:	f504 6404 	add.w	r4, r4, #2112	; 0x840
  a0:	b2db      	uxtb	r3, r3
  a2:	f850 4024 	ldr.w	r4, [r0, r4, lsl #2]
  a6:	682e      	ldr	r6, [r5, #0]
  a8:	4034      	ands	r4, r6
  aa:	45a4      	cmp	ip, r4
  ac:	d1e9      	bne.n	82 <_ZN10FlexCAN_T4IL13CAN_DEV_TABLE1075658752EL21FLEXCAN_RXQUEUE_TABLE256EL21FLEXCAN_TXQUEUE_TABLE16EE12filter_matchE15FLEXCAN_MAILBOXm+0x82>
  ae:	e7db      	b.n	68 <_ZN10FlexCAN_T4IL13CAN_DEV_TABLE1075658752EL21FLEXCAN_RXQUEUE_TABLE256EL21FLEXCAN_TXQUEUE_TABLE16EE12filter_matchE15FLEXCAN_MAILBOXm+0x68>
  b0:	f242 1304 	movw	r3, #8452	; 0x2104
  b4:	58e3      	ldr	r3, [r4, r3]
  b6:	4293      	cmp	r3, r2
  b8:	d8bc      	bhi.n	34 <_ZN10FlexCAN_T4IL13CAN_DEV_TABLE1075658752EL21FLEXCAN_RXQUEUE_TABLE256EL21FLEXCAN_TXQUEUE_TABLE16EE12filter_matchE15FLEXCAN_MAILBOXm+0x34>
  ba:	f242 1308 	movw	r3, #8456	; 0x2108
  be:	58e0      	ldr	r0, [r4, r3]
  c0:	4290      	cmp	r0, r2
  c2:	bf34      	ite	cc
  c4:	2000      	movcc	r0, #0
  c6:	2001      	movcs	r0, #1
  c8:	bd70      	pop	{r4, r5, r6, pc}
  ca:	bf00      	nop

Disassembly of section .text._ZN10FlexCAN_T4IL13CAN_DEV_TABLE1075658752EL21FLEXCAN_RXQUEUE_TABLE256EL21FLEXCAN_TXQUEUE_TABLE16EE11mbCallbacksERK15FLEXCAN_MAILBOXRK13CAN_message_t:

00000000 <_ZN10FlexCAN_T4IL13CAN_DEV_TABLE1075658752EL21FLEXCAN_RXQUEUE_TABLE256EL21FLEXCAN_TXQUEUE_TABLE16EE11mbCallbacksERK15FLEXCAN_MAILBOXRK13CAN_message_t>:
   0:	780b      	ldrb	r3, [r1, #0]
   2:	2b63      	cmp	r3, #99	; 0x63
   4:	b510      	push	{r4, lr}
   6:	4604      	mov	r4, r0
   8:	b082      	sub	sp, #8
   a:	4610      	mov	r0, r2
   c:	d013      	beq.n	36 <_ZN10FlexCAN_T4IL13CAN_DEV_TABLE1075658752EL21FLEXCAN_RXQUEUE_TABLE256EL21FLEXCAN_TXQUEUE_TABLE16EE11mbCallbacksERK15FLEXCAN_MAILBOXRK13CAN_message_t+0x36>
   e:	f503 631c 	add.w	r3, r3, #2496	; 0x9c0
  12:	eb04 0383 	add.w	r3, r4, r3, lsl #2
  16:	685b      	ldr	r3, [r3, #4]
  18:	b113      	cbz	r3, 20 <_ZN10FlexCAN_T4IL13CAN_DEV_TABLE1075658752EL21FLEXCAN_RXQUEUE_TABLE256EL21FLEXCAN_TXQUEUE_TABLE16EE11mbCallbacksERK15FLEXCAN_MAILBOXRK13CAN_message_t+0x20>
  1a:	9201      	str	r2, [sp, #4]
  1c:	4798      	blx	r3
  1e:	9801      	ldr	r0, [sp, #4]
  20:	f504 5400 	add.w	r4, r4, #8192	; 0x2000
  24:	f8d4 3804 	ldr.w	r3, [r4, #2052]	; 0x804
  28:	b11b      	cbz	r3, 32 <_ZN10FlexCAN_T4IL13CAN_DEV_TABLE1075658752EL21FLEXCAN_RXQUEUE_TABLE256EL21FLEXCAN_TXQUEUE_TABLE16EE11mbCallbacksERK15FLEXCAN_MAILBOXRK13CAN_message_t+0x32>
  2a:	b002      	add	sp, #8
  2c:	e8bd 4010 	ldmia.w	sp!, {r4, lr}
  30:	4718      	bx	r3
  32:	b002      	add	sp, #8
  34:	bd10      	pop	{r4, pc}
  36:	f504 5400 	add.w	r4, r4, #8192	; 0x2000
  3a:	f8d4 3704 	ldr.w	r3, [r4, #1796]	; 0x704
  3e:	2b00      	cmp	r3, #0
  40:	d0f0      	beq.n	24 <_ZN10FlexCAN_T4IL13CAN_DEV_TABLE1075658752EL21FLEXCAN_RXQUEUE_TABLE256EL21FLEXCAN_TXQUEUE_TABLE16EE11mbCallbacksERK15FLEXCAN_MAILBOXRK13CAN_message_t+0x24>
  42:	9201      	str	r2, [sp, #4]
  44:	4798      	blx	r3
  46:	9801      	ldr	r0, [sp, #4]
  48:	e7ec      	b.n	24 <_ZN10FlexCAN_T4IL13CAN_DEV_TABLE1075658752EL21FLEXCAN_RXQUEUE_TABLE256EL21FLEXCAN_TXQUEUE_TABLE16EE11mbCallbacksERK15FLEXCAN_MAILBOXRK13CAN_message_t+0x24>
  4a:	bf00      	nop

Disassembly of section .text._ZN10FlexCAN_T4IL13CAN_DEV_TABLE1075658752EL21FLEXCAN_RXQUEUE_TABLE256EL21FLEXCAN_TXQUEUE_TABLE16EE14struct2queueRxERK13CAN_message_t:

00000000 <_ZN10FlexCAN_T4IL13CAN_DEV_TABLE1075658752EL21FLEXCAN_RXQUEUE_TABLE256EL21FLEXCAN_TXQUEUE_TABLE16EE14struct2queueRxERK13CAN_message_t>:
   0:	e92d 4ff0 	stmdb	sp!, {r4, r5, r6, r7, r8, r9, sl, fp, lr}
   4:	468c      	mov	ip, r1
   6:	b08d      	sub	sp, #52	; 0x34
   8:	460f      	mov	r7, r1
   a:	4605      	mov	r5, r0
   c:	466c      	mov	r4, sp
   e:	4606      	mov	r6, r0
  10:	f100 0810 	add.w	r8, r0, #16
  14:	f04f 0901 	mov.w	r9, #1
  18:	f8df a114 	ldr.w	sl, [pc, #276]	; 130 <_ZN10FlexCAN_T4IL13CAN_DEV_TABLE1075658752EL21FLEXCAN_RXQUEUE_TABLE256EL21FLEXCAN_TXQUEUE_TABLE16EE14struct2queueRxERK13CAN_message_t+0x130>
  1c:	e8bc 000f 	ldmia.w	ip!, {r0, r1, r2, r3}
  20:	c40f      	stmia	r4!, {r0, r1, r2, r3}
  22:	e89c 0003 	ldmia.w	ip, {r0, r1}
  26:	e884 0003 	stmia.w	r4, {r0, r1}
  2a:	f856 4f04 	ldr.w	r4, [r6, #4]!
  2e:	b15c      	cbz	r4, 48 <_ZN10FlexCAN_T4IL13CAN_DEV_TABLE1075658752EL21FLEXCAN_RXQUEUE_TABLE256EL21FLEXCAN_TXQUEUE_TABLE16EE14struct2queueRxERK13CAN_message_t+0x48>
  30:	f99d 2014 	ldrsb.w	r2, [sp, #20]
  34:	68a3      	ldr	r3, [r4, #8]
  36:	fa09 f102 	lsl.w	r1, r9, r2
  3a:	4219      	tst	r1, r3
  3c:	d056      	beq.n	ec <_ZN10FlexCAN_T4IL13CAN_DEV_TABLE1075658752EL21FLEXCAN_RXQUEUE_TABLE256EL21FLEXCAN_TXQUEUE_TABLE16EE14struct2queueRxERK13CAN_message_t+0xec>
  3e:	6823      	ldr	r3, [r4, #0]
  40:	f8d3 b000 	ldr.w	fp, [r3]
  44:	45d3      	cmp	fp, sl
  46:	d14c      	bne.n	e2 <_ZN10FlexCAN_T4IL13CAN_DEV_TABLE1075658752EL21FLEXCAN_RXQUEUE_TABLE256EL21FLEXCAN_TXQUEUE_TABLE16EE14struct2queueRxERK13CAN_message_t+0xe2>
  48:	4546      	cmp	r6, r8
  4a:	d1ee      	bne.n	2a <_ZN10FlexCAN_T4IL13CAN_DEV_TABLE1075658752EL21FLEXCAN_RXQUEUE_TABLE256EL21FLEXCAN_TXQUEUE_TABLE16EE14struct2queueRxERK13CAN_message_t+0x2a>
  4c:	f505 5300 	add.w	r3, r5, #8192	; 0x2000
  50:	f893 3700 	ldrb.w	r3, [r3, #1792]	; 0x700
  54:	2b00      	cmp	r3, #0
  56:	d05f      	beq.n	118 <_ZN10FlexCAN_T4IL13CAN_DEV_TABLE1075658752EL21FLEXCAN_RXQUEUE_TABLE256EL21FLEXCAN_TXQUEUE_TABLE16EE14struct2queueRxERK13CAN_message_t+0x118>
  58:	8aee      	ldrh	r6, [r5, #22]
  5a:	f04f 0c1a 	mov.w	ip, #26
  5e:	6838      	ldr	r0, [r7, #0]
  60:	ac06      	add	r4, sp, #24
  62:	6879      	ldr	r1, [r7, #4]
  64:	b2f6      	uxtb	r6, r6
  66:	68ba      	ldr	r2, [r7, #8]
  68:	68fb      	ldr	r3, [r7, #12]
  6a:	fb0c 5606 	mla	r6, ip, r6, r5
  6e:	c40f      	stmia	r4!, {r0, r1, r2, r3}
  70:	2300      	movs	r3, #0
  72:	6938      	ldr	r0, [r7, #16]
  74:	6979      	ldr	r1, [r7, #20]
  76:	2218      	movs	r2, #24
  78:	f886 311a 	strb.w	r3, [r6, #282]	; 0x11a
  7c:	8aeb      	ldrh	r3, [r5, #22]
  7e:	eb0d 0602 	add.w	r6, sp, r2
  82:	b2db      	uxtb	r3, r3
  84:	fb0c 5303 	mla	r3, ip, r3, r5
  88:	c403      	stmia	r4!, {r0, r1}
  8a:	f883 211b 	strb.w	r2, [r3, #283]	; 0x11b
  8e:	8aec      	ldrh	r4, [r5, #22]
  90:	b2e4      	uxtb	r4, r4
  92:	ce0f      	ldmia	r6!, {r0, r1, r2, r3}
  94:	fb0c 5404 	mla	r4, ip, r4, r5
  98:	f8c4 011c 	str.w	r0, [r4, #284]	; 0x11c
  9c:	f8c4 1120 	str.w	r1, [r4, #288]	; 0x120
  a0:	f8c4 2124 	str.w	r2, [r4, #292]	; 0x124
  a4:	f8c4 3128 	str.w	r3, [r4, #296]	; 0x128
  a8:	ce03      	ldmia	r6!, {r0, r1}
  aa:	f8c4 012c 	str.w	r0, [r4, #300]	; 0x12c
  ae:	f8c4 1130 	str.w	r1, [r4, #304]	; 0x130
  b2:	8aea      	ldrh	r2, [r5, #22]
  b4:	8aab      	ldrh	r3, [r5, #20]
  b6:	b292      	uxth	r2, r2
  b8:	b29b      	uxth	r3, r3
  ba:	f483 7380 	eor.w	r3, r3, #256	; 0x100
  be:	429a      	cmp	r2, r3
  c0:	d024      	beq.n	10c <_ZN10FlexCAN_T4IL13CAN_DEV_TABLE1075658752EL21FLEXCAN_RXQUEUE_TABLE256EL21FLEXCAN_TXQUEUE_TABLE16EE14struct2queueRxERK13CAN_message_t+0x10c>
  c2:	8aeb      	ldrh	r3, [r5, #22]
  c4:	3301      	adds	r3, #1
  c6:	f3c3 0308 	ubfx	r3, r3, #0, #9
  ca:	82eb      	strh	r3, [r5, #22]
  cc:	8b2b      	ldrh	r3, [r5, #24]
  ce:	b29b      	uxth	r3, r3
  d0:	2bff      	cmp	r3, #255	; 0xff
  d2:	d803      	bhi.n	dc <_ZN10FlexCAN_T4IL13CAN_DEV_TABLE1075658752EL21FLEXCAN_RXQUEUE_TABLE256EL21FLEXCAN_TXQUEUE_TABLE16EE14struct2queueRxERK13CAN_message_t+0xdc>
  d4:	8b2b      	ldrh	r3, [r5, #24]
  d6:	3301      	adds	r3, #1
  d8:	b29b      	uxth	r3, r3
  da:	832b      	strh	r3, [r5, #24]
  dc:	b00d      	add	sp, #52	; 0x34
  de:	e8bd 8ff0 	ldmia.w	sp!, {r4, r5, r6, r7, r8, r9, sl, fp, pc}
  e2:	f89d 3015 	ldrb.w	r3, [sp, #21]
  e6:	4669      	mov	r1, sp
  e8:	4620      	mov	r0, r4
  ea:	47d8      	blx	fp
  ec:	7c23      	ldrb	r3, [r4, #16]
  ee:	2b00      	cmp	r3, #0
  f0:	d0aa      	beq.n	48 <_ZN10FlexCAN_T4IL13CAN_DEV_TABLE1075658752EL21FLEXCAN_RXQUEUE_TABLE256EL21FLEXCAN_TXQUEUE_TABLE16EE14struct2queueRxERK13CAN_message_t+0x48>
  f2:	6823      	ldr	r3, [r4, #0]
  f4:	f8d3 b000 	ldr.w	fp, [r3]
  f8:	f89d 3015 	ldrb.w	r3, [sp, #21]
  fc:	45d3      	cmp	fp, sl
  fe:	d0a3      	beq.n	48 <_ZN10FlexCAN_T4IL13CAN_DEV_TABLE1075658752EL21FLEXCAN_RXQUEUE_TABLE256EL21FLEXCAN_TXQUEUE_TABLE16EE14struct2queueRxERK13CAN_message_t+0x48>
 100:	4620      	mov	r0, r4
 102:	f04f 32ff 	mov.w	r2, #4294967295	; 0xffffffff
 106:	4669      	mov	r1, sp
 108:	47d8      	blx	fp
 10a:	e79d      	b.n	48 <_ZN10FlexCAN_T4IL13CAN_DEV_TABLE1075658752EL21FLEXCAN_RXQUEUE_TABLE256EL21FLEXCAN_TXQUEUE_TABLE16EE14struct2queueRxERK13CAN_message_t+0x48>
 10c:	8aab      	ldrh	r3, [r5, #20]
 10e:	3301      	adds	r3, #1
 110:	f3c3 0308 	ubfx	r3, r3, #0, #9
 114:	82ab      	strh	r3, [r5, #20]
 116:	e7d4      	b.n	c2 <_ZN10FlexCAN_T4IL13CAN_DEV_TABLE1075658752EL21FLEXCAN_RXQUEUE_TABLE256EL21FLEXCAN_TXQUEUE_TABLE16EE14struct2queueRxERK13CAN_message_t+0xc2>
 118:	7d3b      	ldrb	r3, [r7, #20]
 11a:	463a      	mov	r2, r7
 11c:	a906      	add	r1, sp, #24
 11e:	4628      	mov	r0, r5
 120:	f88d 3018 	strb.w	r3, [sp, #24]
 124:	f7ff fffe 	bl	0 <_ZN10FlexCAN_T4IL13CAN_DEV_TABLE1075658752EL21FLEXCAN_RXQUEUE_TABLE256EL21FLEXCAN_TXQUEUE_TABLE16EE14struct2queueRxERK13CAN_message_t>
 128:	b00d      	add	sp, #52	; 0x34
 12a:	e8bd 8ff0 	ldmia.w	sp!, {r4, r5, r6, r7, r8, r9, sl, fp, pc}
 12e:	bf00      	nop
 130:	00000000 	.word	0x00000000

Disassembly of section .text._ZN10FlexCAN_T4IL13CAN_DEV_TABLE1075658752EL21FLEXCAN_RXQUEUE_TABLE256EL21FLEXCAN_TXQUEUE_TABLE16EE18frame_distributionER13CAN_message_t:

00000000 <_ZN10FlexCAN_T4IL13CAN_DEV_TABLE1075658752EL21FLEXCAN_RXQUEUE_TABLE256EL21FLEXCAN_TXQUEUE_TABLE16EE18frame_distributionER13CAN_message_t>:
   0:	f500 5300 	add.w	r3, r0, #8192	; 0x2000
   4:	f893 3701 	ldrb.w	r3, [r3, #1793]	; 0x701
   8:	2b00      	cmp	r3, #0
   a:	f000 80db 	beq.w	1c4 <_ZN10FlexCAN_T4IL13CAN_DEV_TABLE1075658752EL21FLEXCAN_RXQUEUE_TABLE256EL21FLEXCAN_TXQUEUE_TABLE16EE18frame_distributionER13CAN_message_t+0x1c4>
   e:	f8df c26c 	ldr.w	ip, [pc, #620]	; 27c <_ZN10FlexCAN_T4IL13CAN_DEV_TABLE1075658752EL21FLEXCAN_RXQUEUE_TABLE256EL21FLEXCAN_TXQUEUE_TABLE16EE18frame_distributionER13CAN_message_t+0x27c>
  12:	e92d 4ff0 	stmdb	sp!, {r4, r5, r6, r7, r8, r9, sl, fp, lr}
  16:	460f      	mov	r7, r1
  18:	b089      	sub	sp, #36	; 0x24
  1a:	4605      	mov	r5, r0
  1c:	460e      	mov	r6, r1
  1e:	ac02      	add	r4, sp, #8
  20:	cf0f      	ldmia	r7!, {r0, r1, r2, r3}
  22:	c40f      	stmia	r4!, {r0, r1, r2, r3}
  24:	e897 0003 	ldmia.w	r7, {r0, r1}
  28:	e884 0003 	stmia.w	r4, {r0, r1}
  2c:	f8dc 3000 	ldr.w	r3, [ip]
  30:	009b      	lsls	r3, r3, #2
  32:	d552      	bpl.n	da <_ZN10FlexCAN_T4IL13CAN_DEV_TABLE1075658752EL21FLEXCAN_RXQUEUE_TABLE256EL21FLEXCAN_TXQUEUE_TABLE16EE18frame_distributionER13CAN_message_t+0xda>
  34:	f8dc 3034 	ldr.w	r3, [ip, #52]	; 0x34
  38:	2400      	movs	r4, #0
  3a:	f04f 0963 	mov.w	r9, #99	; 0x63
  3e:	f3c3 6a03 	ubfx	sl, r3, #24, #4
  42:	4622      	mov	r2, r4
  44:	ea4f 0aca 	mov.w	sl, sl, lsl #3
  48:	f10a 0a08 	add.w	sl, sl, #8
  4c:	e00c      	b.n	68 <_ZN10FlexCAN_T4IL13CAN_DEV_TABLE1075658752EL21FLEXCAN_RXQUEUE_TABLE256EL21FLEXCAN_TXQUEUE_TABLE16EE18frame_distributionER13CAN_message_t+0x68>
  4e:	0f5b      	lsrs	r3, r3, #29
  50:	2b02      	cmp	r3, #2
  52:	683b      	ldr	r3, [r7, #0]
  54:	f000 809a 	beq.w	18c <_ZN10FlexCAN_T4IL13CAN_DEV_TABLE1075658752EL21FLEXCAN_RXQUEUE_TABLE256EL21FLEXCAN_TXQUEUE_TABLE16EE18frame_distributionER13CAN_message_t+0x18c>
  58:	0f5b      	lsrs	r3, r3, #29
  5a:	2b05      	cmp	r3, #5
  5c:	f000 80dd 	beq.w	21a <_ZN10FlexCAN_T4IL13CAN_DEV_TABLE1075658752EL21FLEXCAN_RXQUEUE_TABLE256EL21FLEXCAN_TXQUEUE_TABLE16EE18frame_distributionER13CAN_message_t+0x21a>
  60:	3401      	adds	r4, #1
  62:	b2e2      	uxtb	r2, r4
  64:	4592      	cmp	sl, r2
  66:	d938      	bls.n	da <_ZN10FlexCAN_T4IL13CAN_DEV_TABLE1075658752EL21FLEXCAN_RXQUEUE_TABLE256EL21FLEXCAN_TXQUEUE_TABLE16EE18frame_distributionER13CAN_message_t+0xda>
  68:	f996 3014 	ldrsb.w	r3, [r6, #20]
  6c:	2b63      	cmp	r3, #99	; 0x63
  6e:	d034      	beq.n	da <_ZN10FlexCAN_T4IL13CAN_DEV_TABLE1075658752EL21FLEXCAN_RXQUEUE_TABLE256EL21FLEXCAN_TXQUEUE_TABLE16EE18frame_distributionER13CAN_message_t+0xda>
  70:	eb04 0844 	add.w	r8, r4, r4, lsl #1
  74:	eb05 0bc8 	add.w	fp, r5, r8, lsl #3
  78:	f50b 57f0 	add.w	r7, fp, #7680	; 0x1e00
  7c:	683b      	ldr	r3, [r7, #0]
  7e:	f013 4f60 	tst.w	r3, #3758096384	; 0xe0000000
  82:	d0ed      	beq.n	60 <_ZN10FlexCAN_T4IL13CAN_DEV_TABLE1075658752EL21FLEXCAN_RXQUEUE_TABLE256EL21FLEXCAN_TXQUEUE_TABLE16EE18frame_distributionER13CAN_message_t+0x60>
  84:	683b      	ldr	r3, [r7, #0]
  86:	0f5b      	lsrs	r3, r3, #29
  88:	2b01      	cmp	r3, #1
  8a:	683b      	ldr	r3, [r7, #0]
  8c:	d1df      	bne.n	4e <_ZN10FlexCAN_T4IL13CAN_DEV_TABLE1075658752EL21FLEXCAN_RXQUEUE_TABLE256EL21FLEXCAN_TXQUEUE_TABLE16EE18frame_distributionER13CAN_message_t+0x4e>
  8e:	f3c3 4300 	ubfx	r3, r3, #16, #1
  92:	79f2      	ldrb	r2, [r6, #7]
  94:	429a      	cmp	r2, r3
  96:	d1e3      	bne.n	60 <_ZN10FlexCAN_T4IL13CAN_DEV_TABLE1075658752EL21FLEXCAN_RXQUEUE_TABLE256EL21FLEXCAN_TXQUEUE_TABLE16EE18frame_distributionER13CAN_message_t+0x60>
  98:	683b      	ldr	r3, [r7, #0]
  9a:	f413 7f60 	tst.w	r3, #896	; 0x380
  9e:	d0df      	beq.n	60 <_ZN10FlexCAN_T4IL13CAN_DEV_TABLE1075658752EL21FLEXCAN_RXQUEUE_TABLE256EL21FLEXCAN_TXQUEUE_TABLE16EE18frame_distributionER13CAN_message_t+0x60>
  a0:	ea4f 0b48 	mov.w	fp, r8, lsl #1
  a4:	2300      	movs	r3, #0
  a6:	e006      	b.n	b6 <_ZN10FlexCAN_T4IL13CAN_DEV_TABLE1075658752EL21FLEXCAN_RXQUEUE_TABLE256EL21FLEXCAN_TXQUEUE_TABLE16EE18frame_distributionER13CAN_message_t+0xb6>
  a8:	683a      	ldr	r2, [r7, #0]
  aa:	fa5f f388 	uxtb.w	r3, r8
  ae:	f3c2 12c2 	ubfx	r2, r2, #7, #3
  b2:	4293      	cmp	r3, r2
  b4:	d2d4      	bcs.n	60 <_ZN10FlexCAN_T4IL13CAN_DEV_TABLE1075658752EL21FLEXCAN_RXQUEUE_TABLE256EL21FLEXCAN_TXQUEUE_TABLE16EE18frame_distributionER13CAN_message_t+0x60>
  b6:	f103 0801 	add.w	r8, r3, #1
  ba:	9a02      	ldr	r2, [sp, #8]
  bc:	eb0b 0308 	add.w	r3, fp, r8
  c0:	f503 63f0 	add.w	r3, r3, #1920	; 0x780
  c4:	f855 3023 	ldr.w	r3, [r5, r3, lsl #2]
  c8:	429a      	cmp	r2, r3
  ca:	d1ed      	bne.n	a8 <_ZN10FlexCAN_T4IL13CAN_DEV_TABLE1075658752EL21FLEXCAN_RXQUEUE_TABLE256EL21FLEXCAN_TXQUEUE_TABLE16EE18frame_distributionER13CAN_message_t+0xa8>
  cc:	a902      	add	r1, sp, #8
  ce:	4628      	mov	r0, r5
  d0:	f88d 901c 	strb.w	r9, [sp, #28]
  d4:	f7ff fffe 	bl	0 <_ZN10FlexCAN_T4IL13CAN_DEV_TABLE1075658752EL21FLEXCAN_RXQUEUE_TABLE256EL21FLEXCAN_TXQUEUE_TABLE16EE18frame_distributionER13CAN_message_t>
  d8:	e7e6      	b.n	a8 <_ZN10FlexCAN_T4IL13CAN_DEV_TABLE1075658752EL21FLEXCAN_RXQUEUE_TABLE256EL21FLEXCAN_TXQUEUE_TABLE16EE18frame_distributionER13CAN_message_t+0xa8>
  da:	2300      	movs	r3, #0
  dc:	4f67      	ldr	r7, [pc, #412]	; (27c <_ZN10FlexCAN_T4IL13CAN_DEV_TABLE1075658752EL21FLEXCAN_RXQUEUE_TABLE256EL21FLEXCAN_TXQUEUE_TABLE16EE18frame_distributionER13CAN_message_t+0x27c>)
  de:	f88d 300e 	strb.w	r3, [sp, #14]
  e2:	683c      	ldr	r4, [r7, #0]
  e4:	f014 5400 	ands.w	r4, r4, #536870912	; 0x20000000
  e8:	d03f      	beq.n	16a <_ZN10FlexCAN_T4IL13CAN_DEV_TABLE1075658752EL21FLEXCAN_RXQUEUE_TABLE256EL21FLEXCAN_TXQUEUE_TABLE16EE18frame_distributionER13CAN_message_t+0x16a>
  ea:	f7ff fffe 	bl	0 <_ZN10FlexCAN_T4IL13CAN_DEV_TABLE1075658752EL21FLEXCAN_RXQUEUE_TABLE256EL21FLEXCAN_TXQUEUE_TABLE16EE18frame_distributionER13CAN_message_t>
  ee:	683b      	ldr	r3, [r7, #0]
  f0:	4604      	mov	r4, r0
  f2:	f003 037f 	and.w	r3, r3, #127	; 0x7f
  f6:	3301      	adds	r3, #1
  f8:	4283      	cmp	r3, r0
  fa:	d933      	bls.n	164 <_ZN10FlexCAN_T4IL13CAN_DEV_TABLE1075658752EL21FLEXCAN_RXQUEUE_TABLE256EL21FLEXCAN_TXQUEUE_TABLE16EE18frame_distributionER13CAN_message_t+0x164>
  fc:	f242 1704 	movw	r7, #8452	; 0x2104
 100:	f242 1808 	movw	r8, #8456	; 0x2108
 104:	f8df 9174 	ldr.w	r9, [pc, #372]	; 27c <_ZN10FlexCAN_T4IL13CAN_DEV_TABLE1075658752EL21FLEXCAN_RXQUEUE_TABLE256EL21FLEXCAN_TXQUEUE_TABLE16EE18frame_distributionER13CAN_message_t+0x27c>
 108:	f996 3014 	ldrsb.w	r3, [r6, #20]
 10c:	42a3      	cmp	r3, r4
 10e:	d020      	beq.n	152 <_ZN10FlexCAN_T4IL13CAN_DEV_TABLE1075658752EL21FLEXCAN_RXQUEUE_TABLE256EL21FLEXCAN_TXQUEUE_TABLE16EE18frame_distributionER13CAN_message_t+0x152>
 110:	eb04 0144 	add.w	r1, r4, r4, lsl #1
 114:	eb05 02c1 	add.w	r2, r5, r1, lsl #3
 118:	f502 5a04 	add.w	sl, r2, #8448	; 0x2100
 11c:	f8da 3000 	ldr.w	r3, [sl]
 120:	f013 4f60 	tst.w	r3, #3758096384	; 0xe0000000
 124:	d015      	beq.n	152 <_ZN10FlexCAN_T4IL13CAN_DEV_TABLE1075658752EL21FLEXCAN_RXQUEUE_TABLE256EL21FLEXCAN_TXQUEUE_TABLE16EE18frame_distributionER13CAN_message_t+0x152>
 126:	f8da 3000 	ldr.w	r3, [sl]
 12a:	79f0      	ldrb	r0, [r6, #7]
 12c:	f3c3 63c0 	ubfx	r3, r3, #27, #1
 130:	4298      	cmp	r0, r3
 132:	d10e      	bne.n	152 <_ZN10FlexCAN_T4IL13CAN_DEV_TABLE1075658752EL21FLEXCAN_RXQUEUE_TABLE256EL21FLEXCAN_TXQUEUE_TABLE16EE18frame_distributionER13CAN_message_t+0x152>
 134:	f8da 3000 	ldr.w	r3, [sl]
 138:	0f5b      	lsrs	r3, r3, #29
 13a:	2b01      	cmp	r3, #1
 13c:	f8da 3000 	ldr.w	r3, [sl]
 140:	d041      	beq.n	1c6 <_ZN10FlexCAN_T4IL13CAN_DEV_TABLE1075658752EL21FLEXCAN_RXQUEUE_TABLE256EL21FLEXCAN_TXQUEUE_TABLE16EE18frame_distributionER13CAN_message_t+0x1c6>
 142:	0f5b      	lsrs	r3, r3, #29
 144:	2b02      	cmp	r3, #2
 146:	d012      	beq.n	16e <_ZN10FlexCAN_T4IL13CAN_DEV_TABLE1075658752EL21FLEXCAN_RXQUEUE_TABLE256EL21FLEXCAN_TXQUEUE_TABLE16EE18frame_distributionER13CAN_message_t+0x16e>
 148:	f8da 3000 	ldr.w	r3, [sl]
 14c:	0f5b      	lsrs	r3, r3, #29
 14e:	2b05      	cmp	r3, #5
 150:	d05b      	beq.n	20a <_ZN10FlexCAN_T4IL13CAN_DEV_TABLE1075658752EL21FLEXCAN_RXQUEUE_TABLE256EL21FLEXCAN_TXQUEUE_TABLE16EE18frame_distributionER13CAN_message_t+0x20a>
 152:	f8d9 3000 	ldr.w	r3, [r9]
 156:	3401      	adds	r4, #1
 158:	f003 037f 	and.w	r3, r3, #127	; 0x7f
 15c:	b2e4      	uxtb	r4, r4
 15e:	3301      	adds	r3, #1
 160:	429c      	cmp	r4, r3
 162:	d3d1      	bcc.n	108 <_ZN10FlexCAN_T4IL13CAN_DEV_TABLE1075658752EL21FLEXCAN_RXQUEUE_TABLE256EL21FLEXCAN_TXQUEUE_TABLE16EE18frame_distributionER13CAN_message_t+0x108>
 164:	b009      	add	sp, #36	; 0x24
 166:	e8bd 8ff0 	ldmia.w	sp!, {r4, r5, r6, r7, r8, r9, sl, fp, pc}
 16a:	683b      	ldr	r3, [r7, #0]
 16c:	e7c6      	b.n	fc <_ZN10FlexCAN_T4IL13CAN_DEV_TABLE1075658752EL21FLEXCAN_RXQUEUE_TABLE256EL21FLEXCAN_TXQUEUE_TABLE16EE18frame_distributionER13CAN_message_t+0xfc>
 16e:	59d1      	ldr	r1, [r2, r7]
 170:	9b02      	ldr	r3, [sp, #8]
 172:	428b      	cmp	r3, r1
 174:	d3ed      	bcc.n	152 <_ZN10FlexCAN_T4IL13CAN_DEV_TABLE1075658752EL21FLEXCAN_RXQUEUE_TABLE256EL21FLEXCAN_TXQUEUE_TABLE16EE18frame_distributionER13CAN_message_t+0x152>
 176:	f852 2008 	ldr.w	r2, [r2, r8]
 17a:	4293      	cmp	r3, r2
 17c:	d8e9      	bhi.n	152 <_ZN10FlexCAN_T4IL13CAN_DEV_TABLE1075658752EL21FLEXCAN_RXQUEUE_TABLE256EL21FLEXCAN_TXQUEUE_TABLE16EE18frame_distributionER13CAN_message_t+0x152>
 17e:	a902      	add	r1, sp, #8
 180:	4628      	mov	r0, r5
 182:	f88d 401c 	strb.w	r4, [sp, #28]
 186:	f7ff fffe 	bl	0 <_ZN10FlexCAN_T4IL13CAN_DEV_TABLE1075658752EL21FLEXCAN_RXQUEUE_TABLE256EL21FLEXCAN_TXQUEUE_TABLE16EE18frame_distributionER13CAN_message_t>
 18a:	e7e2      	b.n	152 <_ZN10FlexCAN_T4IL13CAN_DEV_TABLE1075658752EL21FLEXCAN_RXQUEUE_TABLE256EL21FLEXCAN_TXQUEUE_TABLE16EE18frame_distributionER13CAN_message_t+0x152>
 18c:	f3c3 4300 	ubfx	r3, r3, #16, #1
 190:	79f2      	ldrb	r2, [r6, #7]
 192:	429a      	cmp	r2, r3
 194:	f47f af64 	bne.w	60 <_ZN10FlexCAN_T4IL13CAN_DEV_TABLE1075658752EL21FLEXCAN_RXQUEUE_TABLE256EL21FLEXCAN_TXQUEUE_TABLE16EE18frame_distributionER13CAN_message_t+0x60>
 198:	f641 6304 	movw	r3, #7684	; 0x1e04
 19c:	f85b 2003 	ldr.w	r2, [fp, r3]
 1a0:	9b02      	ldr	r3, [sp, #8]
 1a2:	4293      	cmp	r3, r2
 1a4:	f4ff af5c 	bcc.w	60 <_ZN10FlexCAN_T4IL13CAN_DEV_TABLE1075658752EL21FLEXCAN_RXQUEUE_TABLE256EL21FLEXCAN_TXQUEUE_TABLE16EE18frame_distributionER13CAN_message_t+0x60>
 1a8:	f641 6208 	movw	r2, #7688	; 0x1e08
 1ac:	f85b 2002 	ldr.w	r2, [fp, r2]
 1b0:	4293      	cmp	r3, r2
 1b2:	f63f af55 	bhi.w	60 <_ZN10FlexCAN_T4IL13CAN_DEV_TABLE1075658752EL21FLEXCAN_RXQUEUE_TABLE256EL21FLEXCAN_TXQUEUE_TABLE16EE18frame_distributionER13CAN_message_t+0x60>
 1b6:	a902      	add	r1, sp, #8
 1b8:	4628      	mov	r0, r5
 1ba:	f88d 901c 	strb.w	r9, [sp, #28]
 1be:	f7ff fffe 	bl	0 <_ZN10FlexCAN_T4IL13CAN_DEV_TABLE1075658752EL21FLEXCAN_RXQUEUE_TABLE256EL21FLEXCAN_TXQUEUE_TABLE16EE18frame_distributionER13CAN_message_t>
 1c2:	e74d      	b.n	60 <_ZN10FlexCAN_T4IL13CAN_DEV_TABLE1075658752EL21FLEXCAN_RXQUEUE_TABLE256EL21FLEXCAN_TXQUEUE_TABLE16EE18frame_distributionER13CAN_message_t+0x60>
 1c4:	4770      	bx	lr
 1c6:	f413 7f60 	tst.w	r3, #896	; 0x380
 1ca:	d0c2      	beq.n	152 <_ZN10FlexCAN_T4IL13CAN_DEV_TABLE1075658752EL21FLEXCAN_RXQUEUE_TABLE256EL21FLEXCAN_TXQUEUE_TABLE16EE18frame_distributionER13CAN_message_t+0x152>
 1cc:	004a      	lsls	r2, r1, #1
 1ce:	2300      	movs	r3, #0
 1d0:	e007      	b.n	1e2 <_ZN10FlexCAN_T4IL13CAN_DEV_TABLE1075658752EL21FLEXCAN_RXQUEUE_TABLE256EL21FLEXCAN_TXQUEUE_TABLE16EE18frame_distributionER13CAN_message_t+0x1e2>
 1d2:	f8da 1000 	ldr.w	r1, [sl]
 1d6:	fa5f f38b 	uxtb.w	r3, fp
 1da:	f3c1 11c2 	ubfx	r1, r1, #7, #3
 1de:	428b      	cmp	r3, r1
 1e0:	d2b7      	bcs.n	152 <_ZN10FlexCAN_T4IL13CAN_DEV_TABLE1075658752EL21FLEXCAN_RXQUEUE_TABLE256EL21FLEXCAN_TXQUEUE_TABLE16EE18frame_distributionER13CAN_message_t+0x152>
 1e2:	f103 0b01 	add.w	fp, r3, #1
 1e6:	9902      	ldr	r1, [sp, #8]
 1e8:	eb02 030b 	add.w	r3, r2, fp
 1ec:	f503 6304 	add.w	r3, r3, #2112	; 0x840
 1f0:	f855 3023 	ldr.w	r3, [r5, r3, lsl #2]
 1f4:	4299      	cmp	r1, r3
 1f6:	d1ec      	bne.n	1d2 <_ZN10FlexCAN_T4IL13CAN_DEV_TABLE1075658752EL21FLEXCAN_RXQUEUE_TABLE256EL21FLEXCAN_TXQUEUE_TABLE16EE18frame_distributionER13CAN_message_t+0x1d2>
 1f8:	a902      	add	r1, sp, #8
 1fa:	4628      	mov	r0, r5
 1fc:	9200      	str	r2, [sp, #0]
 1fe:	f88d 401c 	strb.w	r4, [sp, #28]
 202:	f7ff fffe 	bl	0 <_ZN10FlexCAN_T4IL13CAN_DEV_TABLE1075658752EL21FLEXCAN_RXQUEUE_TABLE256EL21FLEXCAN_TXQUEUE_TABLE16EE18frame_distributionER13CAN_message_t>
 206:	9a00      	ldr	r2, [sp, #0]
 208:	e7e3      	b.n	1d2 <_ZN10FlexCAN_T4IL13CAN_DEV_TABLE1075658752EL21FLEXCAN_RXQUEUE_TABLE256EL21FLEXCAN_TXQUEUE_TABLE16EE18frame_distributionER13CAN_message_t+0x1d2>
 20a:	9a02      	ldr	r2, [sp, #8]
 20c:	4621      	mov	r1, r4
 20e:	4628      	mov	r0, r5
 210:	f7ff fffe 	bl	0 <_ZN10FlexCAN_T4IL13CAN_DEV_TABLE1075658752EL21FLEXCAN_RXQUEUE_TABLE256EL21FLEXCAN_TXQUEUE_TABLE16EE18frame_distributionER13CAN_message_t>
 214:	2800      	cmp	r0, #0
 216:	d09c      	beq.n	152 <_ZN10FlexCAN_T4IL13CAN_DEV_TABLE1075658752EL21FLEXCAN_RXQUEUE_TABLE256EL21FLEXCAN_TXQUEUE_TABLE16EE18frame_distributionER13CAN_message_t+0x152>
 218:	e7b1      	b.n	17e <_ZN10FlexCAN_T4IL13CAN_DEV_TABLE1075658752EL21FLEXCAN_RXQUEUE_TABLE256EL21FLEXCAN_TXQUEUE_TABLE16EE18frame_distributionER13CAN_message_t+0x17e>
 21a:	683b      	ldr	r3, [r7, #0]
 21c:	f413 7f60 	tst.w	r3, #896	; 0x380
 220:	f43f af1e 	beq.w	60 <_ZN10FlexCAN_T4IL13CAN_DEV_TABLE1075658752EL21FLEXCAN_RXQUEUE_TABLE256EL21FLEXCAN_TXQUEUE_TABLE16EE18frame_distributionER13CAN_message_t+0x60>
 224:	f641 6314 	movw	r3, #7700	; 0x1e14
 228:	2701      	movs	r7, #1
 22a:	445b      	add	r3, fp
 22c:	e00a      	b.n	244 <_ZN10FlexCAN_T4IL13CAN_DEV_TABLE1075658752EL21FLEXCAN_RXQUEUE_TABLE256EL21FLEXCAN_TXQUEUE_TABLE16EE18frame_distributionER13CAN_message_t+0x244>
 22e:	f50b 51f0 	add.w	r1, fp, #7680	; 0x1e00
 232:	3701      	adds	r7, #1
 234:	6809      	ldr	r1, [r1, #0]
 236:	b2ff      	uxtb	r7, r7
 238:	f3c1 11c2 	ubfx	r1, r1, #7, #3
 23c:	3101      	adds	r1, #1
 23e:	428f      	cmp	r7, r1
 240:	f4bf af0e 	bcs.w	60 <_ZN10FlexCAN_T4IL13CAN_DEV_TABLE1075658752EL21FLEXCAN_RXQUEUE_TABLE256EL21FLEXCAN_TXQUEUE_TABLE16EE18frame_distributionER13CAN_message_t+0x60>
 244:	eb07 0148 	add.w	r1, r7, r8, lsl #1
 248:	6818      	ldr	r0, [r3, #0]
 24a:	f501 61f0 	add.w	r1, r1, #1920	; 0x780
 24e:	f855 e021 	ldr.w	lr, [r5, r1, lsl #2]
 252:	9902      	ldr	r1, [sp, #8]
 254:	f8d3 c000 	ldr.w	ip, [r3]
 258:	4008      	ands	r0, r1
 25a:	ea0e 010c 	and.w	r1, lr, ip
 25e:	4288      	cmp	r0, r1
 260:	d1e5      	bne.n	22e <_ZN10FlexCAN_T4IL13CAN_DEV_TABLE1075658752EL21FLEXCAN_RXQUEUE_TABLE256EL21FLEXCAN_TXQUEUE_TABLE16EE18frame_distributionER13CAN_message_t+0x22e>
 262:	a902      	add	r1, sp, #8
 264:	4628      	mov	r0, r5
 266:	9301      	str	r3, [sp, #4]
 268:	f88d 200e 	strb.w	r2, [sp, #14]
 26c:	9200      	str	r2, [sp, #0]
 26e:	f88d 901c 	strb.w	r9, [sp, #28]
 272:	f7ff fffe 	bl	0 <_ZN10FlexCAN_T4IL13CAN_DEV_TABLE1075658752EL21FLEXCAN_RXQUEUE_TABLE256EL21FLEXCAN_TXQUEUE_TABLE16EE18frame_distributionER13CAN_message_t>
 276:	e9dd 2300 	ldrd	r2, r3, [sp]
 27a:	e7d8      	b.n	22e <_ZN10FlexCAN_T4IL13CAN_DEV_TABLE1075658752EL21FLEXCAN_RXQUEUE_TABLE256EL21FLEXCAN_TXQUEUE_TABLE16EE18frame_distributionER13CAN_message_t+0x22e>
 27c:	401d4000 	.word	0x401d4000

Disassembly of section .text._ZN10FlexCAN_T4IL13CAN_DEV_TABLE1075658752EL21FLEXCAN_RXQUEUE_TABLE256EL21FLEXCAN_TXQUEUE_TABLE16EE8readFIFOER13CAN_message_t:

00000000 <_ZN10FlexCAN_T4IL13CAN_DEV_TABLE1075658752EL21FLEXCAN_RXQUEUE_TABLE256EL21FLEXCAN_TXQUEUE_TABLE16EE8readFIFOER13CAN_message_t>:
   0:	4a26      	ldr	r2, [pc, #152]	; (9c <_ZN10FlexCAN_T4IL13CAN_DEV_TABLE1075658752EL21FLEXCAN_RXQUEUE_TABLE256EL21FLEXCAN_TXQUEUE_TABLE16EE8readFIFOER13CAN_message_t+0x9c>)
   2:	b538      	push	{r3, r4, r5, lr}
   4:	6813      	ldr	r3, [r2, #0]
   6:	f013 5300 	ands.w	r3, r3, #536870912	; 0x20000000
   a:	d045      	beq.n	98 <_ZN10FlexCAN_T4IL13CAN_DEV_TABLE1075658752EL21FLEXCAN_RXQUEUE_TABLE256EL21FLEXCAN_TXQUEUE_TABLE16EE8readFIFOER13CAN_message_t+0x98>
   c:	6813      	ldr	r3, [r2, #0]
   e:	4605      	mov	r5, r0
  10:	460c      	mov	r4, r1
  12:	f413 4300 	ands.w	r3, r3, #32768	; 0x8000
  16:	d102      	bne.n	1e <_ZN10FlexCAN_T4IL13CAN_DEV_TABLE1075658752EL21FLEXCAN_RXQUEUE_TABLE256EL21FLEXCAN_TXQUEUE_TABLE16EE8readFIFOER13CAN_message_t+0x1e>
  18:	6a92      	ldr	r2, [r2, #40]	; 0x28
  1a:	0692      	lsls	r2, r2, #26
  1c:	d43c      	bmi.n	98 <_ZN10FlexCAN_T4IL13CAN_DEV_TABLE1075658752EL21FLEXCAN_RXQUEUE_TABLE256EL21FLEXCAN_TXQUEUE_TABLE16EE8readFIFOER13CAN_message_t+0x98>
  1e:	4a1f      	ldr	r2, [pc, #124]	; (9c <_ZN10FlexCAN_T4IL13CAN_DEV_TABLE1075658752EL21FLEXCAN_RXQUEUE_TABLE256EL21FLEXCAN_TXQUEUE_TABLE16EE8readFIFOER13CAN_message_t+0x9c>)
  20:	6b13      	ldr	r3, [r2, #48]	; 0x30
  22:	f013 0320 	ands.w	r3, r3, #32
  26:	d037      	beq.n	98 <_ZN10FlexCAN_T4IL13CAN_DEV_TABLE1075658752EL21FLEXCAN_RXQUEUE_TABLE256EL21FLEXCAN_TXQUEUE_TABLE16EE8readFIFOER13CAN_message_t+0x98>
  28:	f8d2 3080 	ldr.w	r3, [r2, #128]	; 0x80
  2c:	f3c3 4103 	ubfx	r1, r3, #16, #4
  30:	f3c3 5000 	ubfx	r0, r3, #20, #1
  34:	80a3      	strh	r3, [r4, #4]
  36:	72e1      	strb	r1, [r4, #11]
  38:	f8d2 1084 	ldr.w	r1, [r2, #132]	; 0x84
  3c:	f403 1200 	and.w	r2, r3, #2097152	; 0x200000
  40:	7220      	strb	r0, [r4, #8]
  42:	0ddb      	lsrs	r3, r3, #23
  44:	2a00      	cmp	r2, #0
  46:	f021 4160 	bic.w	r1, r1, #3758096384	; 0xe0000000
  4a:	bf12      	itee	ne
  4c:	2201      	movne	r2, #1
  4e:	2200      	moveq	r2, #0
  50:	0c89      	lsreq	r1, r1, #18
  52:	71e2      	strb	r2, [r4, #7]
  54:	4a11      	ldr	r2, [pc, #68]	; (9c <_ZN10FlexCAN_T4IL13CAN_DEV_TABLE1075658752EL21FLEXCAN_RXQUEUE_TABLE256EL21FLEXCAN_TXQUEUE_TABLE16EE8readFIFOER13CAN_message_t+0x9c>)
  56:	6021      	str	r1, [r4, #0]
  58:	f505 5100 	add.w	r1, r5, #8192	; 0x2000
  5c:	f8d2 0088 	ldr.w	r0, [r2, #136]	; 0x88
  60:	ba00      	rev	r0, r0
  62:	60e0      	str	r0, [r4, #12]
  64:	f8d2 008c 	ldr.w	r0, [r2, #140]	; 0x8c
  68:	ba00      	rev	r0, r0
  6a:	6120      	str	r0, [r4, #16]
  6c:	f891 1915 	ldrb.w	r1, [r1, #2325]	; 0x915
  70:	71a3      	strb	r3, [r4, #6]
  72:	2363      	movs	r3, #99	; 0x63
  74:	7561      	strb	r1, [r4, #21]
  76:	7523      	strb	r3, [r4, #20]
  78:	6813      	ldr	r3, [r2, #0]
  7a:	041b      	lsls	r3, r3, #16
  7c:	d403      	bmi.n	86 <_ZN10FlexCAN_T4IL13CAN_DEV_TABLE1075658752EL21FLEXCAN_RXQUEUE_TABLE256EL21FLEXCAN_TXQUEUE_TABLE16EE8readFIFOER13CAN_message_t+0x86>
  7e:	6b13      	ldr	r3, [r2, #48]	; 0x30
  80:	f043 0320 	orr.w	r3, r3, #32
  84:	6313      	str	r3, [r2, #48]	; 0x30
  86:	4621      	mov	r1, r4
  88:	4628      	mov	r0, r5
  8a:	f7ff fffe 	bl	0 <_ZN10FlexCAN_T4IL13CAN_DEV_TABLE1075658752EL21FLEXCAN_RXQUEUE_TABLE256EL21FLEXCAN_TXQUEUE_TABLE16EE8readFIFOER13CAN_message_t>
  8e:	6821      	ldr	r1, [r4, #0]
  90:	4628      	mov	r0, r5
  92:	f7ff fffe 	bl	0 <_ZN10FlexCAN_T4IL13CAN_DEV_TABLE1075658752EL21FLEXCAN_RXQUEUE_TABLE256EL21FLEXCAN_TXQUEUE_TABLE16EE8readFIFOER13CAN_message_t>
  96:	bd38      	pop	{r3, r4, r5, pc}
  98:	4618      	mov	r0, r3
  9a:	bd38      	pop	{r3, r4, r5, pc}
  9c:	401d4000 	.word	0x401d4000

Disassembly of section .text._ZN10FlexCAN_T4IL13CAN_DEV_TABLE1075658752EL21FLEXCAN_RXQUEUE_TABLE256EL21FLEXCAN_TXQUEUE_TABLE16EE6readMBER13CAN_message_t:

00000000 <_ZN10FlexCAN_T4IL13CAN_DEV_TABLE1075658752EL21FLEXCAN_RXQUEUE_TABLE256EL21FLEXCAN_TXQUEUE_TABLE16EE6readMBER13CAN_message_t>:
   0:	4b7c      	ldr	r3, [pc, #496]	; (1f4 <_ZN10FlexCAN_T4IL13CAN_DEV_TABLE1075658752EL21FLEXCAN_RXQUEUE_TABLE256EL21FLEXCAN_TXQUEUE_TABLE16EE6readMBER13CAN_message_t+0x1f4>)
   2:	e92d 47f0 	stmdb	sp!, {r4, r5, r6, r7, r8, r9, sl, lr}
   6:	681f      	ldr	r7, [r3, #0]
   8:	4681      	mov	r9, r0
   a:	468a      	mov	sl, r1
   c:	f017 5700 	ands.w	r7, r7, #536870912	; 0x20000000
  10:	d002      	beq.n	18 <_ZN10FlexCAN_T4IL13CAN_DEV_TABLE1075658752EL21FLEXCAN_RXQUEUE_TABLE256EL21FLEXCAN_TXQUEUE_TABLE16EE6readMBER13CAN_message_t+0x18>
  12:	f7ff fffe 	bl	0 <_ZN10FlexCAN_T4IL13CAN_DEV_TABLE1075658752EL21FLEXCAN_RXQUEUE_TABLE256EL21FLEXCAN_TXQUEUE_TABLE16EE6readMBER13CAN_message_t>
  16:	4607      	mov	r7, r0
  18:	4c76      	ldr	r4, [pc, #472]	; (1f4 <_ZN10FlexCAN_T4IL13CAN_DEV_TABLE1075658752EL21FLEXCAN_RXQUEUE_TABLE256EL21FLEXCAN_TXQUEUE_TABLE16EE6readMBER13CAN_message_t+0x1f4>)
  1a:	f509 5600 	add.w	r6, r9, #8192	; 0x2000
  1e:	6822      	ldr	r2, [r4, #0]
  20:	f896 3914 	ldrb.w	r3, [r6, #2324]	; 0x914
  24:	f002 027f 	and.w	r2, r2, #127	; 0x7f
  28:	3201      	adds	r2, #1
  2a:	4293      	cmp	r3, r2
  2c:	f200 80dd 	bhi.w	1ea <_ZN10FlexCAN_T4IL13CAN_DEV_TABLE1075658752EL21FLEXCAN_RXQUEUE_TABLE256EL21FLEXCAN_TXQUEUE_TABLE16EE6readMBER13CAN_message_t+0x1ea>
  30:	2503      	movs	r5, #3
  32:	f8df 81c4 	ldr.w	r8, [pc, #452]	; 1f8 <_ZN10FlexCAN_T4IL13CAN_DEV_TABLE1075658752EL21FLEXCAN_RXQUEUE_TABLE256EL21FLEXCAN_TXQUEUE_TABLE16EE6readMBER13CAN_message_t+0x1f8>
  36:	e057      	b.n	e8 <_ZN10FlexCAN_T4IL13CAN_DEV_TABLE1075658752EL21FLEXCAN_RXQUEUE_TABLE256EL21FLEXCAN_TXQUEUE_TABLE16EE6readMBER13CAN_message_t+0xe8>
  38:	2900      	cmp	r1, #0
  3a:	d05d      	beq.n	f8 <_ZN10FlexCAN_T4IL13CAN_DEV_TABLE1075658752EL21FLEXCAN_RXQUEUE_TABLE256EL21FLEXCAN_TXQUEUE_TABLE16EE6readMBER13CAN_message_t+0xf8>
  3c:	fab1 f281 	clz	r2, r1
  40:	f1c2 0240 	rsb	r2, r2, #64	; 0x40
  44:	4293      	cmp	r3, r2
  46:	db54      	blt.n	f2 <_ZN10FlexCAN_T4IL13CAN_DEV_TABLE1075658752EL21FLEXCAN_RXQUEUE_TABLE256EL21FLEXCAN_TXQUEUE_TABLE16EE6readMBER13CAN_message_t+0xf2>
  48:	6820      	ldr	r0, [r4, #0]
  4a:	f010 5000 	ands.w	r0, r0, #536870912	; 0x20000000
  4e:	d001      	beq.n	54 <_ZN10FlexCAN_T4IL13CAN_DEV_TABLE1075658752EL21FLEXCAN_RXQUEUE_TABLE256EL21FLEXCAN_TXQUEUE_TABLE16EE6readMBER13CAN_message_t+0x54>
  50:	f7ff fffe 	bl	0 <_ZN10FlexCAN_T4IL13CAN_DEV_TABLE1075658752EL21FLEXCAN_RXQUEUE_TABLE256EL21FLEXCAN_TXQUEUE_TABLE16EE6readMBER13CAN_message_t>
  54:	3d01      	subs	r5, #1
  56:	f886 0914 	strb.w	r0, [r6, #2324]	; 0x914
  5a:	f015 05ff 	ands.w	r5, r5, #255	; 0xff
  5e:	f000 80c4 	beq.w	1ea <_ZN10FlexCAN_T4IL13CAN_DEV_TABLE1075658752EL21FLEXCAN_RXQUEUE_TABLE256EL21FLEXCAN_TXQUEUE_TABLE16EE6readMBER13CAN_message_t+0x1ea>
  62:	6823      	ldr	r3, [r4, #0]
  64:	009a      	lsls	r2, r3, #2
  66:	d505      	bpl.n	74 <_ZN10FlexCAN_T4IL13CAN_DEV_TABLE1075658752EL21FLEXCAN_RXQUEUE_TABLE256EL21FLEXCAN_TXQUEUE_TABLE16EE6readMBER13CAN_message_t+0x74>
  68:	4287      	cmp	r7, r0
  6a:	d903      	bls.n	74 <_ZN10FlexCAN_T4IL13CAN_DEV_TABLE1075658752EL21FLEXCAN_RXQUEUE_TABLE256EL21FLEXCAN_TXQUEUE_TABLE16EE6readMBER13CAN_message_t+0x74>
  6c:	1e78      	subs	r0, r7, #1
  6e:	b2c0      	uxtb	r0, r0
  70:	f886 0914 	strb.w	r0, [r6, #2324]	; 0x914
  74:	6823      	ldr	r3, [r4, #0]
  76:	f003 037f 	and.w	r3, r3, #127	; 0x7f
  7a:	3301      	adds	r3, #1
  7c:	4298      	cmp	r0, r3
  7e:	d30c      	bcc.n	9a <_ZN10FlexCAN_T4IL13CAN_DEV_TABLE1075658752EL21FLEXCAN_RXQUEUE_TABLE256EL21FLEXCAN_TXQUEUE_TABLE16EE6readMBER13CAN_message_t+0x9a>
  80:	6820      	ldr	r0, [r4, #0]
  82:	f010 5000 	ands.w	r0, r0, #536870912	; 0x20000000
  86:	d001      	beq.n	8c <_ZN10FlexCAN_T4IL13CAN_DEV_TABLE1075658752EL21FLEXCAN_RXQUEUE_TABLE256EL21FLEXCAN_TXQUEUE_TABLE16EE6readMBER13CAN_message_t+0x8c>
  88:	f7ff fffe 	bl	0 <_ZN10FlexCAN_T4IL13CAN_DEV_TABLE1075658752EL21FLEXCAN_RXQUEUE_TABLE256EL21FLEXCAN_TXQUEUE_TABLE16EE6readMBER13CAN_message_t>
  8c:	3d01      	subs	r5, #1
  8e:	f886 0914 	strb.w	r0, [r6, #2324]	; 0x914
  92:	f015 05ff 	ands.w	r5, r5, #255	; 0xff
  96:	f000 80a8 	beq.w	1ea <_ZN10FlexCAN_T4IL13CAN_DEV_TABLE1075658752EL21FLEXCAN_RXQUEUE_TABLE256EL21FLEXCAN_TXQUEUE_TABLE16EE6readMBER13CAN_message_t+0x1ea>
  9a:	f8d4 c024 	ldr.w	ip, [r4, #36]	; 0x24
  9e:	f1c0 0120 	rsb	r1, r0, #32
  a2:	6aa3      	ldr	r3, [r4, #40]	; 0x28
  a4:	f1a0 0220 	sub.w	r2, r0, #32
  a8:	fa0c f101 	lsl.w	r1, ip, r1
  ac:	40c3      	lsrs	r3, r0
  ae:	fa2c f202 	lsr.w	r2, ip, r2
  b2:	430b      	orrs	r3, r1
  b4:	4313      	orrs	r3, r2
  b6:	07db      	lsls	r3, r3, #31
  b8:	d40b      	bmi.n	d2 <_ZN10FlexCAN_T4IL13CAN_DEV_TABLE1075658752EL21FLEXCAN_RXQUEUE_TABLE256EL21FLEXCAN_TXQUEUE_TABLE16EE6readMBER13CAN_message_t+0xd2>
  ba:	eb00 0308 	add.w	r3, r0, r8
  be:	011b      	lsls	r3, r3, #4
  c0:	681a      	ldr	r2, [r3, #0]
  c2:	0111      	lsls	r1, r2, #4
  c4:	d405      	bmi.n	d2 <_ZN10FlexCAN_T4IL13CAN_DEV_TABLE1075658752EL21FLEXCAN_RXQUEUE_TABLE256EL21FLEXCAN_TXQUEUE_TABLE16EE6readMBER13CAN_message_t+0xd2>
  c6:	0e11      	lsrs	r1, r2, #24
  c8:	f001 0c0b 	and.w	ip, r1, #11
  cc:	f1bc 0f02 	cmp.w	ip, #2
  d0:	d016      	beq.n	100 <_ZN10FlexCAN_T4IL13CAN_DEV_TABLE1075658752EL21FLEXCAN_RXQUEUE_TABLE256EL21FLEXCAN_TXQUEUE_TABLE16EE6readMBER13CAN_message_t+0x100>
  d2:	3001      	adds	r0, #1
  d4:	b2c3      	uxtb	r3, r0
  d6:	f886 3914 	strb.w	r3, [r6, #2324]	; 0x914
  da:	6822      	ldr	r2, [r4, #0]
  dc:	f002 027f 	and.w	r2, r2, #127	; 0x7f
  e0:	3201      	adds	r2, #1
  e2:	4293      	cmp	r3, r2
  e4:	f200 8081 	bhi.w	1ea <_ZN10FlexCAN_T4IL13CAN_DEV_TABLE1075658752EL21FLEXCAN_RXQUEUE_TABLE256EL21FLEXCAN_TXQUEUE_TABLE16EE6readMBER13CAN_message_t+0x1ea>
  e8:	6ae1      	ldr	r1, [r4, #44]	; 0x2c
  ea:	6b22      	ldr	r2, [r4, #48]	; 0x30
  ec:	ea52 0001 	orrs.w	r0, r2, r1
  f0:	d1a2      	bne.n	38 <_ZN10FlexCAN_T4IL13CAN_DEV_TABLE1075658752EL21FLEXCAN_RXQUEUE_TABLE256EL21FLEXCAN_TXQUEUE_TABLE16EE6readMBER13CAN_message_t+0x38>
  f2:	f896 0914 	ldrb.w	r0, [r6, #2324]	; 0x914
  f6:	e7b4      	b.n	62 <_ZN10FlexCAN_T4IL13CAN_DEV_TABLE1075658752EL21FLEXCAN_RXQUEUE_TABLE256EL21FLEXCAN_TXQUEUE_TABLE16EE6readMBER13CAN_message_t+0x62>
  f8:	fab2 f282 	clz	r2, r2
  fc:	3220      	adds	r2, #32
  fe:	e79f      	b.n	40 <_ZN10FlexCAN_T4IL13CAN_DEV_TABLE1075658752EL21FLEXCAN_RXQUEUE_TABLE256EL21FLEXCAN_TXQUEUE_TABLE16EE6readMBER13CAN_message_t+0x40>
 100:	f402 1000 	and.w	r0, r2, #2097152	; 0x200000
 104:	f001 010f 	and.w	r1, r1, #15
 108:	2800      	cmp	r0, #0
 10a:	f3c2 5000 	ubfx	r0, r2, #20, #1
 10e:	f88a 0008 	strb.w	r0, [sl, #8]
 112:	bf14      	ite	ne
 114:	2001      	movne	r0, #1
 116:	2000      	moveq	r0, #0
 118:	f88a 0007 	strb.w	r0, [sl, #7]
 11c:	6858      	ldr	r0, [r3, #4]
 11e:	f020 4060 	bic.w	r0, r0, #3758096384	; 0xe0000000
 122:	bf08      	it	eq
 124:	0c80      	lsreq	r0, r0, #18
 126:	2906      	cmp	r1, #6
 128:	f8ca 0000 	str.w	r0, [sl]
 12c:	d102      	bne.n	134 <_ZN10FlexCAN_T4IL13CAN_DEV_TABLE1075658752EL21FLEXCAN_RXQUEUE_TABLE256EL21FLEXCAN_TXQUEUE_TABLE16EE6readMBER13CAN_message_t+0x134>
 12e:	2101      	movs	r1, #1
 130:	f88a 1009 	strb.w	r1, [sl, #9]
 134:	f3c2 4103 	ubfx	r1, r2, #16, #4
 138:	f88a 100b 	strb.w	r1, [sl, #11]
 13c:	f896 1914 	ldrb.w	r1, [r6, #2324]	; 0x914
 140:	1c48      	adds	r0, r1, #1
 142:	f886 0914 	strb.w	r0, [r6, #2324]	; 0x914
 146:	f88a 1014 	strb.w	r1, [sl, #20]
 14a:	f8aa 2004 	strh.w	r2, [sl, #4]
 14e:	f896 2915 	ldrb.w	r2, [r6, #2325]	; 0x915
 152:	f89a 1007 	ldrb.w	r1, [sl, #7]
 156:	f88a 2015 	strb.w	r2, [sl, #21]
 15a:	689a      	ldr	r2, [r3, #8]
 15c:	2900      	cmp	r1, #0
 15e:	f88a 200f 	strb.w	r2, [sl, #15]
 162:	bf18      	it	ne
 164:	f04f 618c 	movne.w	r1, #73400320	; 0x4600000
 168:	689a      	ldr	r2, [r3, #8]
 16a:	bf08      	it	eq
 16c:	f04f 6180 	moveq.w	r1, #67108864	; 0x4000000
 170:	0a12      	lsrs	r2, r2, #8
 172:	f88a 200e 	strb.w	r2, [sl, #14]
 176:	689a      	ldr	r2, [r3, #8]
 178:	0c12      	lsrs	r2, r2, #16
 17a:	f88a 200d 	strb.w	r2, [sl, #13]
 17e:	689a      	ldr	r2, [r3, #8]
 180:	0e12      	lsrs	r2, r2, #24
 182:	f88a 200c 	strb.w	r2, [sl, #12]
 186:	68da      	ldr	r2, [r3, #12]
 188:	f88a 2013 	strb.w	r2, [sl, #19]
 18c:	68da      	ldr	r2, [r3, #12]
 18e:	0a12      	lsrs	r2, r2, #8
 190:	f88a 2012 	strb.w	r2, [sl, #18]
 194:	68da      	ldr	r2, [r3, #12]
 196:	0c12      	lsrs	r2, r2, #16
 198:	f88a 2011 	strb.w	r2, [sl, #17]
 19c:	68da      	ldr	r2, [r3, #12]
 19e:	0e12      	lsrs	r2, r2, #24
 1a0:	f88a 2010 	strb.w	r2, [sl, #16]
 1a4:	6019      	str	r1, [r3, #0]
 1a6:	f89a 3014 	ldrb.w	r3, [sl, #20]
 1aa:	68a2      	ldr	r2, [r4, #8]
 1ac:	2b1f      	cmp	r3, #31
 1ae:	d814      	bhi.n	1da <_ZN10FlexCAN_T4IL13CAN_DEV_TABLE1075658752EL21FLEXCAN_RXQUEUE_TABLE256EL21FLEXCAN_TXQUEUE_TABLE16EE6readMBER13CAN_message_t+0x1da>
 1b0:	2201      	movs	r2, #1
 1b2:	fa02 f303 	lsl.w	r3, r2, r3
 1b6:	6b22      	ldr	r2, [r4, #48]	; 0x30
 1b8:	4313      	orrs	r3, r2
 1ba:	6323      	str	r3, [r4, #48]	; 0x30
 1bc:	4651      	mov	r1, sl
 1be:	4648      	mov	r0, r9
 1c0:	f7ff fffe 	bl	0 <_ZN10FlexCAN_T4IL13CAN_DEV_TABLE1075658752EL21FLEXCAN_RXQUEUE_TABLE256EL21FLEXCAN_TXQUEUE_TABLE16EE6readMBER13CAN_message_t>
 1c4:	f8da 2000 	ldr.w	r2, [sl]
 1c8:	f89a 1014 	ldrb.w	r1, [sl, #20]
 1cc:	4648      	mov	r0, r9
 1ce:	f7ff fffe 	bl	0 <_ZN10FlexCAN_T4IL13CAN_DEV_TABLE1075658752EL21FLEXCAN_RXQUEUE_TABLE256EL21FLEXCAN_TXQUEUE_TABLE16EE6readMBER13CAN_message_t>
 1d2:	b968      	cbnz	r0, 1f0 <_ZN10FlexCAN_T4IL13CAN_DEV_TABLE1075658752EL21FLEXCAN_RXQUEUE_TABLE256EL21FLEXCAN_TXQUEUE_TABLE16EE6readMBER13CAN_message_t+0x1f0>
 1d4:	f896 0914 	ldrb.w	r0, [r6, #2324]	; 0x914
 1d8:	e77b      	b.n	d2 <_ZN10FlexCAN_T4IL13CAN_DEV_TABLE1075658752EL21FLEXCAN_RXQUEUE_TABLE256EL21FLEXCAN_TXQUEUE_TABLE16EE6readMBER13CAN_message_t+0xd2>
 1da:	2201      	movs	r2, #1
 1dc:	3b20      	subs	r3, #32
 1de:	fa02 f303 	lsl.w	r3, r2, r3
 1e2:	6ae2      	ldr	r2, [r4, #44]	; 0x2c
 1e4:	4313      	orrs	r3, r2
 1e6:	62e3      	str	r3, [r4, #44]	; 0x2c
 1e8:	e7e8      	b.n	1bc <_ZN10FlexCAN_T4IL13CAN_DEV_TABLE1075658752EL21FLEXCAN_RXQUEUE_TABLE256EL21FLEXCAN_TXQUEUE_TABLE16EE6readMBER13CAN_message_t+0x1bc>
 1ea:	2000      	movs	r0, #0
 1ec:	e8bd 87f0 	ldmia.w	sp!, {r4, r5, r6, r7, r8, r9, sl, pc}
 1f0:	2001      	movs	r0, #1
 1f2:	e7fb      	b.n	1ec <_ZN10FlexCAN_T4IL13CAN_DEV_TABLE1075658752EL21FLEXCAN_RXQUEUE_TABLE256EL21FLEXCAN_TXQUEUE_TABLE16EE6readMBER13CAN_message_t+0x1ec>
 1f4:	401d4000 	.word	0x401d4000
 1f8:	0401d408 	.word	0x0401d408

Disassembly of section .text._ZN10FlexCAN_T4IL13CAN_DEV_TABLE1075658752EL21FLEXCAN_RXQUEUE_TABLE256EL21FLEXCAN_TXQUEUE_TABLE16EE4readER13CAN_message_t:

00000000 <_ZN10FlexCAN_T4IL13CAN_DEV_TABLE1075658752EL21FLEXCAN_RXQUEUE_TABLE256EL21FLEXCAN_TXQUEUE_TABLE16EE4readER13CAN_message_t>:
   0:	b538      	push	{r3, r4, r5, lr}
   2:	4604      	mov	r4, r0
   4:	460d      	mov	r5, r1
   6:	2000      	movs	r0, #0
   8:	2102      	movs	r1, #2
   a:	f7ff fffe 	bl	0 <_Z6randomll>
   e:	b970      	cbnz	r0, 2e <_ZN10FlexCAN_T4IL13CAN_DEV_TABLE1075658752EL21FLEXCAN_RXQUEUE_TABLE256EL21FLEXCAN_TXQUEUE_TABLE16EE4readER13CAN_message_t+0x2e>
  10:	4b09      	ldr	r3, [pc, #36]	; (38 <_ZN10FlexCAN_T4IL13CAN_DEV_TABLE1075658752EL21FLEXCAN_RXQUEUE_TABLE256EL21FLEXCAN_TXQUEUE_TABLE16EE4readER13CAN_message_t+0x38>)
  12:	681a      	ldr	r2, [r3, #0]
  14:	0091      	lsls	r1, r2, #2
  16:	d50a      	bpl.n	2e <_ZN10FlexCAN_T4IL13CAN_DEV_TABLE1075658752EL21FLEXCAN_RXQUEUE_TABLE256EL21FLEXCAN_TXQUEUE_TABLE16EE4readER13CAN_message_t+0x2e>
  18:	6a9a      	ldr	r2, [r3, #40]	; 0x28
  1a:	0692      	lsls	r2, r2, #26
  1c:	d407      	bmi.n	2e <_ZN10FlexCAN_T4IL13CAN_DEV_TABLE1075658752EL21FLEXCAN_RXQUEUE_TABLE256EL21FLEXCAN_TXQUEUE_TABLE16EE4readER13CAN_message_t+0x2e>
  1e:	6b1b      	ldr	r3, [r3, #48]	; 0x30
  20:	069b      	lsls	r3, r3, #26
  22:	d504      	bpl.n	2e <_ZN10FlexCAN_T4IL13CAN_DEV_TABLE1075658752EL21FLEXCAN_RXQUEUE_TABLE256EL21FLEXCAN_TXQUEUE_TABLE16EE4readER13CAN_message_t+0x2e>
  24:	4629      	mov	r1, r5
  26:	4620      	mov	r0, r4
  28:	f7ff fffe 	bl	0 <_ZN10FlexCAN_T4IL13CAN_DEV_TABLE1075658752EL21FLEXCAN_RXQUEUE_TABLE256EL21FLEXCAN_TXQUEUE_TABLE16EE4readER13CAN_message_t>
  2c:	bd38      	pop	{r3, r4, r5, pc}
  2e:	4629      	mov	r1, r5
  30:	4620      	mov	r0, r4
  32:	f7ff fffe 	bl	0 <_ZN10FlexCAN_T4IL13CAN_DEV_TABLE1075658752EL21FLEXCAN_RXQUEUE_TABLE256EL21FLEXCAN_TXQUEUE_TABLE16EE4readER13CAN_message_t>
  36:	bd38      	pop	{r3, r4, r5, pc}
  38:	401d4000 	.word	0x401d4000

Disassembly of section .text._ZN10FlexCAN_T4IL13CAN_DEV_TABLE1075658752EL21FLEXCAN_RXQUEUE_TABLE256EL21FLEXCAN_TXQUEUE_TABLE16EE17flexcan_interruptEv:

00000000 <_ZN10FlexCAN_T4IL13CAN_DEV_TABLE1075658752EL21FLEXCAN_RXQUEUE_TABLE256EL21FLEXCAN_TXQUEUE_TABLE16EE17flexcan_interruptEv>:
   0:	e92d 4ff0 	stmdb	sp!, {r4, r5, r6, r7, r8, r9, sl, fp, lr}
   4:	4d94      	ldr	r5, [pc, #592]	; (258 <_ZN10FlexCAN_T4IL13CAN_DEV_TABLE1075658752EL21FLEXCAN_RXQUEUE_TABLE256EL21FLEXCAN_TXQUEUE_TABLE16EE17flexcan_interruptEv+0x258>)
   6:	b09b      	sub	sp, #108	; 0x6c
   8:	4f94      	ldr	r7, [pc, #592]	; (25c <_ZN10FlexCAN_T4IL13CAN_DEV_TABLE1075658752EL21FLEXCAN_RXQUEUE_TABLE256EL21FLEXCAN_TXQUEUE_TABLE16EE17flexcan_interruptEv+0x25c>)
   a:	ac08      	add	r4, sp, #32
   c:	9004      	str	r0, [sp, #16]
   e:	cd0f      	ldmia	r5!, {r0, r1, r2, r3}
  10:	c40f      	stmia	r4!, {r0, r1, r2, r3}
  12:	e895 0003 	ldmia.w	r5, {r0, r1}
  16:	e884 0003 	stmia.w	r4, {r0, r1}
  1a:	6a7e      	ldr	r6, [r7, #36]	; 0x24
  1c:	6ab9      	ldr	r1, [r7, #40]	; 0x28
  1e:	f8d7 b02c 	ldr.w	fp, [r7, #44]	; 0x2c
  22:	6b38      	ldr	r0, [r7, #48]	; 0x30
  24:	683b      	ldr	r3, [r7, #0]
  26:	9102      	str	r1, [sp, #8]
  28:	f413 4300 	ands.w	r3, r3, #32768	; 0x8000
  2c:	9003      	str	r0, [sp, #12]
  2e:	d103      	bne.n	38 <_ZN10FlexCAN_T4IL13CAN_DEV_TABLE1075658752EL21FLEXCAN_RXQUEUE_TABLE256EL21FLEXCAN_TXQUEUE_TABLE16EE17flexcan_interruptEv+0x38>
  30:	683a      	ldr	r2, [r7, #0]
  32:	0094      	lsls	r4, r2, #2
  34:	f100 811a 	bmi.w	26c <_ZN10FlexCAN_T4IL13CAN_DEV_TABLE1075658752EL21FLEXCAN_RXQUEUE_TABLE256EL21FLEXCAN_TXQUEUE_TABLE16EE17flexcan_interruptEv+0x26c>
  38:	9b03      	ldr	r3, [sp, #12]
  3a:	f043 0301 	orr.w	r3, r3, #1
  3e:	f1bb 0f00 	cmp.w	fp, #0
  42:	f000 8105 	beq.w	250 <_ZN10FlexCAN_T4IL13CAN_DEV_TABLE1075658752EL21FLEXCAN_RXQUEUE_TABLE256EL21FLEXCAN_TXQUEUE_TABLE16EE17flexcan_interruptEv+0x250>
  46:	fabb f38b 	clz	r3, fp
  4a:	4d84      	ldr	r5, [pc, #528]	; (25c <_ZN10FlexCAN_T4IL13CAN_DEV_TABLE1075658752EL21FLEXCAN_RXQUEUE_TABLE256EL21FLEXCAN_TXQUEUE_TABLE16EE17flexcan_interruptEv+0x25c>)
  4c:	f1c3 0340 	rsb	r3, r3, #64	; 0x40
  50:	682c      	ldr	r4, [r5, #0]
  52:	b2df      	uxtb	r7, r3
  54:	f014 5400 	ands.w	r4, r4, #536870912	; 0x20000000
  58:	9701      	str	r7, [sp, #4]
  5a:	f000 8285 	beq.w	568 <_ZN10FlexCAN_T4IL13CAN_DEV_TABLE1075658752EL21FLEXCAN_RXQUEUE_TABLE256EL21FLEXCAN_TXQUEUE_TABLE16EE17flexcan_interruptEv+0x568>
  5e:	f7ff fffe 	bl	0 <_ZN10FlexCAN_T4IL13CAN_DEV_TABLE1075658752EL21FLEXCAN_RXQUEUE_TABLE256EL21FLEXCAN_TXQUEUE_TABLE16EE17flexcan_interruptEv>
  62:	682b      	ldr	r3, [r5, #0]
  64:	4604      	mov	r4, r0
  66:	f003 037f 	and.w	r3, r3, #127	; 0x7f
  6a:	3301      	adds	r3, #1
  6c:	4298      	cmp	r0, r3
  6e:	f080 80c2 	bcs.w	1f6 <_ZN10FlexCAN_T4IL13CAN_DEV_TABLE1075658752EL21FLEXCAN_RXQUEUE_TABLE256EL21FLEXCAN_TXQUEUE_TABLE16EE17flexcan_interruptEv+0x1f6>
  72:	4287      	cmp	r7, r0
  74:	f240 80bf 	bls.w	1f6 <_ZN10FlexCAN_T4IL13CAN_DEV_TABLE1075658752EL21FLEXCAN_RXQUEUE_TABLE256EL21FLEXCAN_TXQUEUE_TABLE16EE17flexcan_interruptEv+0x1f6>
  78:	9b04      	ldr	r3, [sp, #16]
  7a:	1c67      	adds	r7, r4, #1
  7c:	f8df 91dc 	ldr.w	r9, [pc, #476]	; 25c <_ZN10FlexCAN_T4IL13CAN_DEV_TABLE1075658752EL21FLEXCAN_RXQUEUE_TABLE256EL21FLEXCAN_TXQUEUE_TABLE16EE17flexcan_interruptEv+0x25c>
  80:	f503 5300 	add.w	r3, r3, #8192	; 0x2000
  84:	b2fd      	uxtb	r5, r7
  86:	9305      	str	r3, [sp, #20]
  88:	e018      	b.n	bc <_ZN10FlexCAN_T4IL13CAN_DEV_TABLE1075658752EL21FLEXCAN_RXQUEUE_TABLE256EL21FLEXCAN_TXQUEUE_TABLE16EE17flexcan_interruptEv+0xbc>
  8a:	2a04      	cmp	r2, #4
  8c:	f000 8162 	beq.w	354 <_ZN10FlexCAN_T4IL13CAN_DEV_TABLE1075658752EL21FLEXCAN_RXQUEUE_TABLE256EL21FLEXCAN_TXQUEUE_TABLE16EE17flexcan_interruptEv+0x354>
  90:	2a08      	cmp	r2, #8
  92:	f000 8203 	beq.w	49c <_ZN10FlexCAN_T4IL13CAN_DEV_TABLE1075658752EL21FLEXCAN_RXQUEUE_TABLE256EL21FLEXCAN_TXQUEUE_TABLE16EE17flexcan_interruptEv+0x49c>
  96:	f8d9 3000 	ldr.w	r3, [r9]
  9a:	b2fc      	uxtb	r4, r7
  9c:	9a01      	ldr	r2, [sp, #4]
  9e:	f003 037f 	and.w	r3, r3, #127	; 0x7f
  a2:	3301      	adds	r3, #1
  a4:	42a2      	cmp	r2, r4
  a6:	bf88      	it	hi
  a8:	42ab      	cmphi	r3, r5
  aa:	f105 0501 	add.w	r5, r5, #1
  ae:	bf94      	ite	ls
  b0:	2301      	movls	r3, #1
  b2:	2300      	movhi	r3, #0
  b4:	2b00      	cmp	r3, #0
  b6:	f040 809e 	bne.w	1f6 <_ZN10FlexCAN_T4IL13CAN_DEV_TABLE1075658752EL21FLEXCAN_RXQUEUE_TABLE256EL21FLEXCAN_TXQUEUE_TABLE16EE17flexcan_interruptEv+0x1f6>
  ba:	1c67      	adds	r7, r4, #1
  bc:	f1c4 0220 	rsb	r2, r4, #32
  c0:	9b02      	ldr	r3, [sp, #8]
  c2:	f1a4 0a20 	sub.w	sl, r4, #32
  c6:	fa06 f102 	lsl.w	r1, r6, r2
  ca:	40e3      	lsrs	r3, r4
  cc:	430b      	orrs	r3, r1
  ce:	fa26 f10a 	lsr.w	r1, r6, sl
  d2:	430b      	orrs	r3, r1
  d4:	07d8      	lsls	r0, r3, #31
  d6:	d5de      	bpl.n	96 <_ZN10FlexCAN_T4IL13CAN_DEV_TABLE1075658752EL21FLEXCAN_RXQUEUE_TABLE256EL21FLEXCAN_TXQUEUE_TABLE16EE17flexcan_interruptEv+0x96>
  d8:	9b03      	ldr	r3, [sp, #12]
  da:	fa0b f202 	lsl.w	r2, fp, r2
  de:	40e3      	lsrs	r3, r4
  e0:	4313      	orrs	r3, r2
  e2:	fa2b f20a 	lsr.w	r2, fp, sl
  e6:	4313      	orrs	r3, r2
  e8:	07d9      	lsls	r1, r3, #31
  ea:	d5d4      	bpl.n	96 <_ZN10FlexCAN_T4IL13CAN_DEV_TABLE1075658752EL21FLEXCAN_RXQUEUE_TABLE256EL21FLEXCAN_TXQUEUE_TABLE16EE17flexcan_interruptEv+0x96>
  ec:	f8df 8178 	ldr.w	r8, [pc, #376]	; 268 <_ZN10FlexCAN_T4IL13CAN_DEV_TABLE1075658752EL21FLEXCAN_RXQUEUE_TABLE256EL21FLEXCAN_TXQUEUE_TABLE16EE17flexcan_interruptEv+0x268>
  f0:	44a0      	add	r8, r4
  f2:	ea4f 1808 	mov.w	r8, r8, lsl #4
  f6:	f8d8 3000 	ldr.w	r3, [r8]
  fa:	0e19      	lsrs	r1, r3, #24
  fc:	f3c3 6203 	ubfx	r2, r3, #24, #4
 100:	f001 010b 	and.w	r1, r1, #11
 104:	2902      	cmp	r1, #2
 106:	d1c0      	bne.n	8a <_ZN10FlexCAN_T4IL13CAN_DEV_TABLE1075658752EL21FLEXCAN_RXQUEUE_TABLE256EL21FLEXCAN_TXQUEUE_TABLE16EE17flexcan_interruptEv+0x8a>
 108:	f8d8 1004 	ldr.w	r1, [r8, #4]
 10c:	f403 1000 	and.w	r0, r3, #2097152	; 0x200000
 110:	f021 4160 	bic.w	r1, r1, #3758096384	; 0xe0000000
 114:	2800      	cmp	r0, #0
 116:	bf12      	itee	ne
 118:	f04f 0c01 	movne.w	ip, #1
 11c:	f04f 0c00 	moveq.w	ip, #0
 120:	0c89      	lsreq	r1, r1, #18
 122:	2a06      	cmp	r2, #6
 124:	f88d c027 	strb.w	ip, [sp, #39]	; 0x27
 128:	9108      	str	r1, [sp, #32]
 12a:	d102      	bne.n	132 <_ZN10FlexCAN_T4IL13CAN_DEV_TABLE1075658752EL21FLEXCAN_RXQUEUE_TABLE256EL21FLEXCAN_TXQUEUE_TABLE16EE17flexcan_interruptEv+0x132>
 12c:	2201      	movs	r2, #1
 12e:	f88d 2029 	strb.w	r2, [sp, #41]	; 0x29
 132:	f8ad 3024 	strh.w	r3, [sp, #36]	; 0x24
 136:	f3c3 4303 	ubfx	r3, r3, #16, #4
 13a:	f88d 4034 	strb.w	r4, [sp, #52]	; 0x34
 13e:	2800      	cmp	r0, #0
 140:	f88d 302b 	strb.w	r3, [sp, #43]	; 0x2b
 144:	9b05      	ldr	r3, [sp, #20]
 146:	f893 3915 	ldrb.w	r3, [r3, #2325]	; 0x915
 14a:	f88d 3035 	strb.w	r3, [sp, #53]	; 0x35
 14e:	f8d8 3008 	ldr.w	r3, [r8, #8]
 152:	f88d 302f 	strb.w	r3, [sp, #47]	; 0x2f
 156:	f8d8 3008 	ldr.w	r3, [r8, #8]
 15a:	ea4f 2313 	mov.w	r3, r3, lsr #8
 15e:	f88d 302e 	strb.w	r3, [sp, #46]	; 0x2e
 162:	f8d8 3008 	ldr.w	r3, [r8, #8]
 166:	ea4f 4313 	mov.w	r3, r3, lsr #16
 16a:	f88d 302d 	strb.w	r3, [sp, #45]	; 0x2d
 16e:	f8d8 3008 	ldr.w	r3, [r8, #8]
 172:	ea4f 6313 	mov.w	r3, r3, lsr #24
 176:	f88d 302c 	strb.w	r3, [sp, #44]	; 0x2c
 17a:	f8d8 300c 	ldr.w	r3, [r8, #12]
 17e:	f88d 3033 	strb.w	r3, [sp, #51]	; 0x33
 182:	f8d8 300c 	ldr.w	r3, [r8, #12]
 186:	ea4f 2313 	mov.w	r3, r3, lsr #8
 18a:	f88d 3032 	strb.w	r3, [sp, #50]	; 0x32
 18e:	f8d8 300c 	ldr.w	r3, [r8, #12]
 192:	ea4f 4313 	mov.w	r3, r3, lsr #16
 196:	f88d 3031 	strb.w	r3, [sp, #49]	; 0x31
 19a:	f8d8 300c 	ldr.w	r3, [r8, #12]
 19e:	ea4f 6313 	mov.w	r3, r3, lsr #24
 1a2:	f88d 3030 	strb.w	r3, [sp, #48]	; 0x30
 1a6:	bf14      	ite	ne
 1a8:	f04f 638c 	movne.w	r3, #73400320	; 0x4600000
 1ac:	f04f 6380 	moveq.w	r3, #67108864	; 0x4000000
 1b0:	2c1f      	cmp	r4, #31
 1b2:	f8c8 3000 	str.w	r3, [r8]
 1b6:	f8d9 3008 	ldr.w	r3, [r9, #8]
 1ba:	f04f 0301 	mov.w	r3, #1
 1be:	d834      	bhi.n	22a <_ZN10FlexCAN_T4IL13CAN_DEV_TABLE1075658752EL21FLEXCAN_RXQUEUE_TABLE256EL21FLEXCAN_TXQUEUE_TABLE16EE17flexcan_interruptEv+0x22a>
 1c0:	f8d9 2030 	ldr.w	r2, [r9, #48]	; 0x30
 1c4:	40a3      	lsls	r3, r4
 1c6:	4621      	mov	r1, r4
 1c8:	9804      	ldr	r0, [sp, #16]
 1ca:	4313      	orrs	r3, r2
 1cc:	f8c9 3030 	str.w	r3, [r9, #48]	; 0x30
 1d0:	9a08      	ldr	r2, [sp, #32]
 1d2:	f7ff fffe 	bl	0 <_ZN10FlexCAN_T4IL13CAN_DEV_TABLE1075658752EL21FLEXCAN_RXQUEUE_TABLE256EL21FLEXCAN_TXQUEUE_TABLE16EE17flexcan_interruptEv>
 1d6:	2800      	cmp	r0, #0
 1d8:	d135      	bne.n	246 <_ZN10FlexCAN_T4IL13CAN_DEV_TABLE1075658752EL21FLEXCAN_RXQUEUE_TABLE256EL21FLEXCAN_TXQUEUE_TABLE16EE17flexcan_interruptEv+0x246>
 1da:	a908      	add	r1, sp, #32
 1dc:	9804      	ldr	r0, [sp, #16]
 1de:	f7ff fffe 	bl	0 <_ZN10FlexCAN_T4IL13CAN_DEV_TABLE1075658752EL21FLEXCAN_RXQUEUE_TABLE256EL21FLEXCAN_TXQUEUE_TABLE16EE17flexcan_interruptEv>
 1e2:	a808      	add	r0, sp, #32
 1e4:	f7ff fffe 	bl	0 <_Z11ext_output1RK13CAN_message_t>
 1e8:	a808      	add	r0, sp, #32
 1ea:	f7ff fffe 	bl	0 <_Z11ext_output2RK13CAN_message_t>
 1ee:	a808      	add	r0, sp, #32
 1f0:	f7ff fffe 	bl	0 <_Z11ext_output3RK13CAN_message_t>
 1f4:	e74f      	b.n	96 <_ZN10FlexCAN_T4IL13CAN_DEV_TABLE1075658752EL21FLEXCAN_RXQUEUE_TABLE256EL21FLEXCAN_TXQUEUE_TABLE16EE17flexcan_interruptEv+0x96>
 1f6:	4a19      	ldr	r2, [pc, #100]	; (25c <_ZN10FlexCAN_T4IL13CAN_DEV_TABLE1075658752EL21FLEXCAN_RXQUEUE_TABLE256EL21FLEXCAN_TXQUEUE_TABLE16EE17flexcan_interruptEv+0x25c>)
 1f8:	4819      	ldr	r0, [pc, #100]	; (260 <_ZN10FlexCAN_T4IL13CAN_DEV_TABLE1075658752EL21FLEXCAN_RXQUEUE_TABLE256EL21FLEXCAN_TXQUEUE_TABLE16EE17flexcan_interruptEv+0x260>)
 1fa:	6a11      	ldr	r1, [r2, #32]
 1fc:	6802      	ldr	r2, [r0, #0]
 1fe:	4b19      	ldr	r3, [pc, #100]	; (264 <_ZN10FlexCAN_T4IL13CAN_DEV_TABLE1075658752EL21FLEXCAN_RXQUEUE_TABLE256EL21FLEXCAN_TXQUEUE_TABLE16EE17flexcan_interruptEv+0x264>)
 200:	404a      	eors	r2, r1
 202:	4013      	ands	r3, r2
 204:	b143      	cbz	r3, 218 <_ZN10FlexCAN_T4IL13CAN_DEV_TABLE1075658752EL21FLEXCAN_RXQUEUE_TABLE256EL21FLEXCAN_TXQUEUE_TABLE16EE17flexcan_interruptEv+0x218>
 206:	9b04      	ldr	r3, [sp, #16]
 208:	f503 5380 	add.w	r3, r3, #4096	; 0x1000
 20c:	f8b3 2cd4 	ldrh.w	r2, [r3, #3284]	; 0xcd4
 210:	b292      	uxth	r2, r2
 212:	2a0f      	cmp	r2, #15
 214:	f240 81ac 	bls.w	570 <_ZN10FlexCAN_T4IL13CAN_DEV_TABLE1075658752EL21FLEXCAN_RXQUEUE_TABLE256EL21FLEXCAN_TXQUEUE_TABLE16EE17flexcan_interruptEv+0x570>
 218:	4a10      	ldr	r2, [pc, #64]	; (25c <_ZN10FlexCAN_T4IL13CAN_DEV_TABLE1075658752EL21FLEXCAN_RXQUEUE_TABLE256EL21FLEXCAN_TXQUEUE_TABLE16EE17flexcan_interruptEv+0x25c>)
 21a:	6a13      	ldr	r3, [r2, #32]
 21c:	430b      	orrs	r3, r1
 21e:	6213      	str	r3, [r2, #32]
 220:	f3bf 8f4f 	dsb	sy
 224:	b01b      	add	sp, #108	; 0x6c
 226:	e8bd 8ff0 	ldmia.w	sp!, {r4, r5, r6, r7, r8, r9, sl, fp, pc}
 22a:	f8d9 202c 	ldr.w	r2, [r9, #44]	; 0x2c
 22e:	fa03 f30a 	lsl.w	r3, r3, sl
 232:	4621      	mov	r1, r4
 234:	9804      	ldr	r0, [sp, #16]
 236:	4313      	orrs	r3, r2
 238:	f8c9 302c 	str.w	r3, [r9, #44]	; 0x2c
 23c:	9a08      	ldr	r2, [sp, #32]
 23e:	f7ff fffe 	bl	0 <_ZN10FlexCAN_T4IL13CAN_DEV_TABLE1075658752EL21FLEXCAN_RXQUEUE_TABLE256EL21FLEXCAN_TXQUEUE_TABLE16EE17flexcan_interruptEv>
 242:	2800      	cmp	r0, #0
 244:	d0c9      	beq.n	1da <_ZN10FlexCAN_T4IL13CAN_DEV_TABLE1075658752EL21FLEXCAN_RXQUEUE_TABLE256EL21FLEXCAN_TXQUEUE_TABLE16EE17flexcan_interruptEv+0x1da>
 246:	a908      	add	r1, sp, #32
 248:	9804      	ldr	r0, [sp, #16]
 24a:	f7ff fffe 	bl	0 <_ZN10FlexCAN_T4IL13CAN_DEV_TABLE1075658752EL21FLEXCAN_RXQUEUE_TABLE256EL21FLEXCAN_TXQUEUE_TABLE16EE17flexcan_interruptEv>
 24e:	e7c4      	b.n	1da <_ZN10FlexCAN_T4IL13CAN_DEV_TABLE1075658752EL21FLEXCAN_RXQUEUE_TABLE256EL21FLEXCAN_TXQUEUE_TABLE16EE17flexcan_interruptEv+0x1da>
 250:	fab3 f383 	clz	r3, r3
 254:	3320      	adds	r3, #32
 256:	e6f8      	b.n	4a <_ZN10FlexCAN_T4IL13CAN_DEV_TABLE1075658752EL21FLEXCAN_RXQUEUE_TABLE256EL21FLEXCAN_TXQUEUE_TABLE16EE17flexcan_interruptEv+0x4a>
 258:	00000040 	.word	0x00000040
 25c:	401d4000 	.word	0x401d4000
 260:	00000000 	.word	0x00000000
 264:	0007ffbf 	.word	0x0007ffbf
 268:	0401d408 	.word	0x0401d408
 26c:	0689      	lsls	r1, r1, #26
 26e:	f57f aee3 	bpl.w	38 <_ZN10FlexCAN_T4IL13CAN_DEV_TABLE1075658752EL21FLEXCAN_RXQUEUE_TABLE256EL21FLEXCAN_TXQUEUE_TABLE16EE17flexcan_interruptEv+0x38>
 272:	0682      	lsls	r2, r0, #26
 274:	f57f aee0 	bpl.w	38 <_ZN10FlexCAN_T4IL13CAN_DEV_TABLE1075658752EL21FLEXCAN_RXQUEUE_TABLE256EL21FLEXCAN_TXQUEUE_TABLE16EE17flexcan_interruptEv+0x38>
 278:	f8d7 2080 	ldr.w	r2, [r7, #128]	; 0x80
 27c:	4cbb      	ldr	r4, [pc, #748]	; (56c <_ZN10FlexCAN_T4IL13CAN_DEV_TABLE1075658752EL21FLEXCAN_RXQUEUE_TABLE256EL21FLEXCAN_TXQUEUE_TABLE16EE17flexcan_interruptEv+0x56c>)
 27e:	f402 1100 	and.w	r1, r2, #2097152	; 0x200000
 282:	f3c2 5000 	ubfx	r0, r2, #20, #1
 286:	f8ad 2024 	strh.w	r2, [sp, #36]	; 0x24
 28a:	2900      	cmp	r1, #0
 28c:	f3c2 4103 	ubfx	r1, r2, #16, #4
 290:	ea4f 52d2 	mov.w	r2, r2, lsr #23
 294:	f88d 102b 	strb.w	r1, [sp, #43]	; 0x2b
 298:	f8d7 1084 	ldr.w	r1, [r7, #132]	; 0x84
 29c:	f88d 0028 	strb.w	r0, [sp, #40]	; 0x28
 2a0:	bf18      	it	ne
 2a2:	2001      	movne	r0, #1
 2a4:	f021 4160 	bic.w	r1, r1, #3758096384	; 0xe0000000
 2a8:	bf08      	it	eq
 2aa:	2000      	moveq	r0, #0
 2ac:	f88d 2026 	strb.w	r2, [sp, #38]	; 0x26
 2b0:	f04f 0200 	mov.w	r2, #0
 2b4:	bf08      	it	eq
 2b6:	0c89      	lsreq	r1, r1, #18
 2b8:	f88d 0027 	strb.w	r0, [sp, #39]	; 0x27
 2bc:	a80c      	add	r0, sp, #48	; 0x30
 2be:	9108      	str	r1, [sp, #32]
 2c0:	f8d4 1088 	ldr.w	r1, [r4, #136]	; 0x88
 2c4:	40d1      	lsrs	r1, r2
 2c6:	3208      	adds	r2, #8
 2c8:	2a20      	cmp	r2, #32
 2ca:	f800 1d01 	strb.w	r1, [r0, #-1]!
 2ce:	d1f7      	bne.n	2c0 <_ZN10FlexCAN_T4IL13CAN_DEV_TABLE1075658752EL21FLEXCAN_RXQUEUE_TABLE256EL21FLEXCAN_TXQUEUE_TABLE16EE17flexcan_interruptEv+0x2c0>
 2d0:	a80d      	add	r0, sp, #52	; 0x34
 2d2:	49a6      	ldr	r1, [pc, #664]	; (56c <_ZN10FlexCAN_T4IL13CAN_DEV_TABLE1075658752EL21FLEXCAN_RXQUEUE_TABLE256EL21FLEXCAN_TXQUEUE_TABLE16EE17flexcan_interruptEv+0x56c>)
 2d4:	f8d1 208c 	ldr.w	r2, [r1, #140]	; 0x8c
 2d8:	40da      	lsrs	r2, r3
 2da:	3308      	adds	r3, #8
 2dc:	2b20      	cmp	r3, #32
 2de:	f800 2d01 	strb.w	r2, [r0, #-1]!
 2e2:	d1f7      	bne.n	2d4 <_ZN10FlexCAN_T4IL13CAN_DEV_TABLE1075658752EL21FLEXCAN_RXQUEUE_TABLE256EL21FLEXCAN_TXQUEUE_TABLE16EE17flexcan_interruptEv+0x2d4>
 2e4:	9b04      	ldr	r3, [sp, #16]
 2e6:	f503 5300 	add.w	r3, r3, #8192	; 0x2000
 2ea:	f893 3915 	ldrb.w	r3, [r3, #2325]	; 0x915
 2ee:	f88d 3035 	strb.w	r3, [sp, #53]	; 0x35
 2f2:	2363      	movs	r3, #99	; 0x63
 2f4:	f88d 3034 	strb.w	r3, [sp, #52]	; 0x34
 2f8:	688b      	ldr	r3, [r1, #8]
 2fa:	6b0b      	ldr	r3, [r1, #48]	; 0x30
 2fc:	f043 0320 	orr.w	r3, r3, #32
 300:	630b      	str	r3, [r1, #48]	; 0x30
 302:	9b03      	ldr	r3, [sp, #12]
 304:	065d      	lsls	r5, r3, #25
 306:	d503      	bpl.n	310 <_ZN10FlexCAN_T4IL13CAN_DEV_TABLE1075658752EL21FLEXCAN_RXQUEUE_TABLE256EL21FLEXCAN_TXQUEUE_TABLE16EE17flexcan_interruptEv+0x310>
 308:	6b0b      	ldr	r3, [r1, #48]	; 0x30
 30a:	f043 0340 	orr.w	r3, r3, #64	; 0x40
 30e:	630b      	str	r3, [r1, #48]	; 0x30
 310:	9b03      	ldr	r3, [sp, #12]
 312:	061c      	lsls	r4, r3, #24
 314:	d504      	bpl.n	320 <_ZN10FlexCAN_T4IL13CAN_DEV_TABLE1075658752EL21FLEXCAN_RXQUEUE_TABLE256EL21FLEXCAN_TXQUEUE_TABLE16EE17flexcan_interruptEv+0x320>
 316:	4a95      	ldr	r2, [pc, #596]	; (56c <_ZN10FlexCAN_T4IL13CAN_DEV_TABLE1075658752EL21FLEXCAN_RXQUEUE_TABLE256EL21FLEXCAN_TXQUEUE_TABLE16EE17flexcan_interruptEv+0x56c>)
 318:	6b13      	ldr	r3, [r2, #48]	; 0x30
 31a:	f043 0380 	orr.w	r3, r3, #128	; 0x80
 31e:	6313      	str	r3, [r2, #48]	; 0x30
 320:	9c04      	ldr	r4, [sp, #16]
 322:	a908      	add	r1, sp, #32
 324:	4620      	mov	r0, r4
 326:	f7ff fffe 	bl	0 <_ZN10FlexCAN_T4IL13CAN_DEV_TABLE1075658752EL21FLEXCAN_RXQUEUE_TABLE256EL21FLEXCAN_TXQUEUE_TABLE16EE17flexcan_interruptEv>
 32a:	a808      	add	r0, sp, #32
 32c:	f7ff fffe 	bl	0 <_Z11ext_output1RK13CAN_message_t>
 330:	a808      	add	r0, sp, #32
 332:	f7ff fffe 	bl	0 <_Z11ext_output2RK13CAN_message_t>
 336:	a808      	add	r0, sp, #32
 338:	f7ff fffe 	bl	0 <_Z11ext_output3RK13CAN_message_t>
 33c:	9908      	ldr	r1, [sp, #32]
 33e:	4620      	mov	r0, r4
 340:	f7ff fffe 	bl	0 <_ZN10FlexCAN_T4IL13CAN_DEV_TABLE1075658752EL21FLEXCAN_RXQUEUE_TABLE256EL21FLEXCAN_TXQUEUE_TABLE16EE17flexcan_interruptEv>
 344:	2800      	cmp	r0, #0
 346:	f43f ae77 	beq.w	38 <_ZN10FlexCAN_T4IL13CAN_DEV_TABLE1075658752EL21FLEXCAN_RXQUEUE_TABLE256EL21FLEXCAN_TXQUEUE_TABLE16EE17flexcan_interruptEv+0x38>
 34a:	a908      	add	r1, sp, #32
 34c:	9804      	ldr	r0, [sp, #16]
 34e:	f7ff fffe 	bl	0 <_ZN10FlexCAN_T4IL13CAN_DEV_TABLE1075658752EL21FLEXCAN_RXQUEUE_TABLE256EL21FLEXCAN_TXQUEUE_TABLE16EE17flexcan_interruptEv>
 352:	e671      	b.n	38 <_ZN10FlexCAN_T4IL13CAN_DEV_TABLE1075658752EL21FLEXCAN_RXQUEUE_TABLE256EL21FLEXCAN_TXQUEUE_TABLE16EE17flexcan_interruptEv+0x38>
 354:	f403 1200 	and.w	r2, r3, #2097152	; 0x200000
 358:	2a00      	cmp	r2, #0
 35a:	f8d8 2004 	ldr.w	r2, [r8, #4]
 35e:	f8ad 3024 	strh.w	r3, [sp, #36]	; 0x24
 362:	f3c3 4303 	ubfx	r3, r3, #16, #4
 366:	f88d 4034 	strb.w	r4, [sp, #52]	; 0x34
 36a:	f022 4260 	bic.w	r2, r2, #3758096384	; 0xe0000000
 36e:	f88d 302b 	strb.w	r3, [sp, #43]	; 0x2b
 372:	bf18      	it	ne
 374:	2101      	movne	r1, #1
 376:	9b05      	ldr	r3, [sp, #20]
 378:	bf04      	itt	eq
 37a:	0c92      	lsreq	r2, r2, #18
 37c:	2100      	moveq	r1, #0
 37e:	f893 3915 	ldrb.w	r3, [r3, #2325]	; 0x915
 382:	9208      	str	r2, [sp, #32]
 384:	f88d 3035 	strb.w	r3, [sp, #53]	; 0x35
 388:	f8d8 3008 	ldr.w	r3, [r8, #8]
 38c:	9a04      	ldr	r2, [sp, #16]
 38e:	f88d 302f 	strb.w	r3, [sp, #47]	; 0x2f
 392:	f8d8 3008 	ldr.w	r3, [r8, #8]
 396:	f88d 1027 	strb.w	r1, [sp, #39]	; 0x27
 39a:	0a1b      	lsrs	r3, r3, #8
 39c:	f88d 302e 	strb.w	r3, [sp, #46]	; 0x2e
 3a0:	f8d8 3008 	ldr.w	r3, [r8, #8]
 3a4:	0c1b      	lsrs	r3, r3, #16
 3a6:	f88d 302d 	strb.w	r3, [sp, #45]	; 0x2d
 3aa:	f8d8 3008 	ldr.w	r3, [r8, #8]
 3ae:	0e1b      	lsrs	r3, r3, #24
 3b0:	f88d 302c 	strb.w	r3, [sp, #44]	; 0x2c
 3b4:	f8d8 300c 	ldr.w	r3, [r8, #12]
 3b8:	f88d 3033 	strb.w	r3, [sp, #51]	; 0x33
 3bc:	f8d8 300c 	ldr.w	r3, [r8, #12]
 3c0:	0a1b      	lsrs	r3, r3, #8
 3c2:	f88d 3032 	strb.w	r3, [sp, #50]	; 0x32
 3c6:	f8d8 300c 	ldr.w	r3, [r8, #12]
 3ca:	0c1b      	lsrs	r3, r3, #16
 3cc:	f88d 3031 	strb.w	r3, [sp, #49]	; 0x31
 3d0:	f604 2302 	addw	r3, r4, #2562	; 0xa02
 3d4:	f852 3023 	ldr.w	r3, [r2, r3, lsl #2]
 3d8:	f8d8 200c 	ldr.w	r2, [r8, #12]
 3dc:	0e12      	lsrs	r2, r2, #24
 3de:	f88d 2030 	strb.w	r2, [sp, #48]	; 0x30
 3e2:	b10b      	cbz	r3, 3e8 <_ZN10FlexCAN_T4IL13CAN_DEV_TABLE1075658752EL21FLEXCAN_RXQUEUE_TABLE256EL21FLEXCAN_TXQUEUE_TABLE16EE17flexcan_interruptEv+0x3e8>
 3e4:	a808      	add	r0, sp, #32
 3e6:	4798      	blx	r3
 3e8:	9b05      	ldr	r3, [sp, #20]
 3ea:	f8d3 3908 	ldr.w	r3, [r3, #2312]	; 0x908
 3ee:	b10b      	cbz	r3, 3f4 <_ZN10FlexCAN_T4IL13CAN_DEV_TABLE1075658752EL21FLEXCAN_RXQUEUE_TABLE256EL21FLEXCAN_TXQUEUE_TABLE16EE17flexcan_interruptEv+0x3f4>
 3f0:	a808      	add	r0, sp, #32
 3f2:	4798      	blx	r3
 3f4:	9904      	ldr	r1, [sp, #16]
 3f6:	f501 5280 	add.w	r2, r1, #4096	; 0x1000
 3fa:	f8b2 3b1e 	ldrh.w	r3, [r2, #2846]	; 0xb1e
 3fe:	9207      	str	r2, [sp, #28]
 400:	b29b      	uxth	r3, r3
 402:	2b00      	cmp	r3, #0
 404:	f000 810f 	beq.w	626 <_ZN10FlexCAN_T4IL13CAN_DEV_TABLE1075658752EL21FLEXCAN_RXQUEUE_TABLE256EL21FLEXCAN_TXQUEUE_TABLE16EE17flexcan_interruptEv+0x626>
 408:	f8b2 3b1a 	ldrh.w	r3, [r2, #2842]	; 0xb1a
 40c:	221a      	movs	r2, #26
 40e:	f10d 0c50 	add.w	ip, sp, #80	; 0x50
 412:	f003 030f 	and.w	r3, r3, #15
 416:	46e0      	mov	r8, ip
 418:	fb02 1303 	mla	r3, r2, r3, r1
 41c:	f641 3232 	movw	r2, #6962	; 0x1b32
 420:	a90e      	add	r1, sp, #56	; 0x38
 422:	eb03 0a02 	add.w	sl, r3, r2
 426:	9106      	str	r1, [sp, #24]
 428:	468e      	mov	lr, r1
 42a:	5898      	ldr	r0, [r3, r2]
 42c:	f8da 1004 	ldr.w	r1, [sl, #4]
 430:	f8da 2008 	ldr.w	r2, [sl, #8]
 434:	f8da 300c 	ldr.w	r3, [sl, #12]
 438:	e8ac 000f 	stmia.w	ip!, {r0, r1, r2, r3}
 43c:	f8da 0010 	ldr.w	r0, [sl, #16]
 440:	f8da 1014 	ldr.w	r1, [sl, #20]
 444:	e8ac 0003 	stmia.w	ip!, {r0, r1}
 448:	e8b8 000f 	ldmia.w	r8!, {r0, r1, r2, r3}
 44c:	e8ae 000f 	stmia.w	lr!, {r0, r1, r2, r3}
 450:	e898 0003 	ldmia.w	r8, {r0, r1}
 454:	e88e 0003 	stmia.w	lr, {r0, r1}
 458:	f99d 304c 	ldrsb.w	r3, [sp, #76]	; 0x4c
 45c:	1c5a      	adds	r2, r3, #1
 45e:	f000 80f1 	beq.w	644 <_ZN10FlexCAN_T4IL13CAN_DEV_TABLE1075658752EL21FLEXCAN_RXQUEUE_TABLE256EL21FLEXCAN_TXQUEUE_TABLE16EE17flexcan_interruptEv+0x644>
 462:	429c      	cmp	r4, r3
 464:	f47f ae17 	bne.w	96 <_ZN10FlexCAN_T4IL13CAN_DEV_TABLE1075658752EL21FLEXCAN_RXQUEUE_TABLE256EL21FLEXCAN_TXQUEUE_TABLE16EE17flexcan_interruptEv+0x96>
 468:	9a06      	ldr	r2, [sp, #24]
 46a:	b2e1      	uxtb	r1, r4
 46c:	9804      	ldr	r0, [sp, #16]
 46e:	f7ff fffe 	bl	0 <_ZN10FlexCAN_T4IL13CAN_DEV_TABLE1075658752EL21FLEXCAN_RXQUEUE_TABLE256EL21FLEXCAN_TXQUEUE_TABLE16EE17flexcan_interruptEv>
 472:	9a07      	ldr	r2, [sp, #28]
 474:	f8b2 3b1a 	ldrh.w	r3, [r2, #2842]	; 0xb1a
 478:	3301      	adds	r3, #1
 47a:	f003 031f 	and.w	r3, r3, #31
 47e:	f8a2 3b1a 	strh.w	r3, [r2, #2842]	; 0xb1a
 482:	f8b2 3b1e 	ldrh.w	r3, [r2, #2846]	; 0xb1e
 486:	b29b      	uxth	r3, r3
 488:	2b00      	cmp	r3, #0
 48a:	f43f ae04 	beq.w	96 <_ZN10FlexCAN_T4IL13CAN_DEV_TABLE1075658752EL21FLEXCAN_RXQUEUE_TABLE256EL21FLEXCAN_TXQUEUE_TABLE16EE17flexcan_interruptEv+0x96>
 48e:	f8b2 3b1e 	ldrh.w	r3, [r2, #2846]	; 0xb1e
 492:	3b01      	subs	r3, #1
 494:	b29b      	uxth	r3, r3
 496:	f8a2 3b1e 	strh.w	r3, [r2, #2846]	; 0xb1e
 49a:	e5fc      	b.n	96 <_ZN10FlexCAN_T4IL13CAN_DEV_TABLE1075658752EL21FLEXCAN_RXQUEUE_TABLE256EL21FLEXCAN_TXQUEUE_TABLE16EE17flexcan_interruptEv+0x96>
 49c:	f403 1200 	and.w	r2, r3, #2097152	; 0x200000
 4a0:	2a00      	cmp	r2, #0
 4a2:	f8d8 2004 	ldr.w	r2, [r8, #4]
 4a6:	f8ad 3024 	strh.w	r3, [sp, #36]	; 0x24
 4aa:	f3c3 4303 	ubfx	r3, r3, #16, #4
 4ae:	f88d 4034 	strb.w	r4, [sp, #52]	; 0x34
 4b2:	f022 4260 	bic.w	r2, r2, #3758096384	; 0xe0000000
 4b6:	f88d 302b 	strb.w	r3, [sp, #43]	; 0x2b
 4ba:	bf18      	it	ne
 4bc:	2101      	movne	r1, #1
 4be:	9b05      	ldr	r3, [sp, #20]
 4c0:	bf04      	itt	eq
 4c2:	0c92      	lsreq	r2, r2, #18
 4c4:	2100      	moveq	r1, #0
 4c6:	f893 3915 	ldrb.w	r3, [r3, #2325]	; 0x915
 4ca:	9208      	str	r2, [sp, #32]
 4cc:	f88d 3035 	strb.w	r3, [sp, #53]	; 0x35
 4d0:	f8d8 3008 	ldr.w	r3, [r8, #8]
 4d4:	9a04      	ldr	r2, [sp, #16]
 4d6:	f88d 302f 	strb.w	r3, [sp, #47]	; 0x2f
 4da:	f8d8 3008 	ldr.w	r3, [r8, #8]
 4de:	f88d 1027 	strb.w	r1, [sp, #39]	; 0x27
 4e2:	0a1b      	lsrs	r3, r3, #8
 4e4:	f88d 302e 	strb.w	r3, [sp, #46]	; 0x2e
 4e8:	f8d8 3008 	ldr.w	r3, [r8, #8]
 4ec:	0c1b      	lsrs	r3, r3, #16
 4ee:	f88d 302d 	strb.w	r3, [sp, #45]	; 0x2d
 4f2:	f8d8 3008 	ldr.w	r3, [r8, #8]
 4f6:	0e1b      	lsrs	r3, r3, #24
 4f8:	f88d 302c 	strb.w	r3, [sp, #44]	; 0x2c
 4fc:	f8d8 300c 	ldr.w	r3, [r8, #12]
 500:	f88d 3033 	strb.w	r3, [sp, #51]	; 0x33
 504:	f8d8 300c 	ldr.w	r3, [r8, #12]
 508:	0a1b      	lsrs	r3, r3, #8
 50a:	f88d 3032 	strb.w	r3, [sp, #50]	; 0x32
 50e:	f8d8 300c 	ldr.w	r3, [r8, #12]
 512:	0c1b      	lsrs	r3, r3, #16
 514:	f88d 3031 	strb.w	r3, [sp, #49]	; 0x31
 518:	f8d8 300c 	ldr.w	r3, [r8, #12]
 51c:	0e1b      	lsrs	r3, r3, #24
 51e:	f88d 3030 	strb.w	r3, [sp, #48]	; 0x30
 522:	f604 2302 	addw	r3, r4, #2562	; 0xa02
 526:	f852 3023 	ldr.w	r3, [r2, r3, lsl #2]
 52a:	b10b      	cbz	r3, 530 <_ZN10FlexCAN_T4IL13CAN_DEV_TABLE1075658752EL21FLEXCAN_RXQUEUE_TABLE256EL21FLEXCAN_TXQUEUE_TABLE16EE17flexcan_interruptEv+0x530>
 52c:	a808      	add	r0, sp, #32
 52e:	4798      	blx	r3
 530:	9b05      	ldr	r3, [sp, #20]
 532:	f8d3 3908 	ldr.w	r3, [r3, #2312]	; 0x908
 536:	b10b      	cbz	r3, 53c <_ZN10FlexCAN_T4IL13CAN_DEV_TABLE1075658752EL21FLEXCAN_RXQUEUE_TABLE256EL21FLEXCAN_TXQUEUE_TABLE16EE17flexcan_interruptEv+0x53c>
 538:	a808      	add	r0, sp, #32
 53a:	4798      	blx	r3
 53c:	9904      	ldr	r1, [sp, #16]
 53e:	f501 5280 	add.w	r2, r1, #4096	; 0x1000
 542:	f8b2 3b1e 	ldrh.w	r3, [r2, #2846]	; 0xb1e
 546:	9207      	str	r2, [sp, #28]
 548:	b29b      	uxth	r3, r3
 54a:	2b00      	cmp	r3, #0
 54c:	f47f af5c 	bne.w	408 <_ZN10FlexCAN_T4IL13CAN_DEV_TABLE1075658752EL21FLEXCAN_RXQUEUE_TABLE256EL21FLEXCAN_TXQUEUE_TABLE16EE17flexcan_interruptEv+0x408>
 550:	2c1f      	cmp	r4, #31
 552:	f04f 0301 	mov.w	r3, #1
 556:	f200 8080 	bhi.w	65a <_ZN10FlexCAN_T4IL13CAN_DEV_TABLE1075658752EL21FLEXCAN_RXQUEUE_TABLE256EL21FLEXCAN_TXQUEUE_TABLE16EE17flexcan_interruptEv+0x65a>
 55a:	f8d9 2030 	ldr.w	r2, [r9, #48]	; 0x30
 55e:	40a3      	lsls	r3, r4
 560:	4313      	orrs	r3, r2
 562:	f8c9 3030 	str.w	r3, [r9, #48]	; 0x30
 566:	e596      	b.n	96 <_ZN10FlexCAN_T4IL13CAN_DEV_TABLE1075658752EL21FLEXCAN_RXQUEUE_TABLE256EL21FLEXCAN_TXQUEUE_TABLE16EE17flexcan_interruptEv+0x96>
 568:	682b      	ldr	r3, [r5, #0]
 56a:	e585      	b.n	78 <_ZN10FlexCAN_T4IL13CAN_DEV_TABLE1075658752EL21FLEXCAN_RXQUEUE_TABLE256EL21FLEXCAN_TXQUEUE_TABLE16EE17flexcan_interruptEv+0x78>
 56c:	401d4000 	.word	0x401d4000
 570:	f8b3 2cd4 	ldrh.w	r2, [r3, #3284]	; 0xcd4
 574:	b292      	uxth	r2, r2
 576:	2a0f      	cmp	r2, #15
 578:	d805      	bhi.n	586 <_ZN10FlexCAN_T4IL13CAN_DEV_TABLE1075658752EL21FLEXCAN_RXQUEUE_TABLE256EL21FLEXCAN_TXQUEUE_TABLE16EE17flexcan_interruptEv+0x586>
 57a:	f8b3 2cd4 	ldrh.w	r2, [r3, #3284]	; 0xcd4
 57e:	3201      	adds	r2, #1
 580:	b292      	uxth	r2, r2
 582:	f8a3 2cd4 	strh.w	r2, [r3, #3284]	; 0xcd4
 586:	f8b3 2cd2 	ldrh.w	r2, [r3, #3282]	; 0xcd2
 58a:	f8b3 4cd2 	ldrh.w	r4, [r3, #3282]	; 0xcd2
 58e:	f002 020f 	and.w	r2, r2, #15
 592:	b2a4      	uxth	r4, r4
 594:	eb03 0282 	add.w	r2, r3, r2, lsl #2
 598:	f8c2 1cd8 	str.w	r1, [r2, #3288]	; 0xcd8
 59c:	f8b3 2cd0 	ldrh.w	r2, [r3, #3280]	; 0xcd0
 5a0:	b292      	uxth	r2, r2
 5a2:	f082 0210 	eor.w	r2, r2, #16
 5a6:	4294      	cmp	r4, r2
 5a8:	d106      	bne.n	5b8 <_ZN10FlexCAN_T4IL13CAN_DEV_TABLE1075658752EL21FLEXCAN_RXQUEUE_TABLE256EL21FLEXCAN_TXQUEUE_TABLE16EE17flexcan_interruptEv+0x5b8>
 5aa:	f8b3 2cd0 	ldrh.w	r2, [r3, #3280]	; 0xcd0
 5ae:	3201      	adds	r2, #1
 5b0:	f002 021f 	and.w	r2, r2, #31
 5b4:	f8a3 2cd0 	strh.w	r2, [r3, #3280]	; 0xcd0
 5b8:	f8b3 2cd2 	ldrh.w	r2, [r3, #3282]	; 0xcd2
 5bc:	4c2b      	ldr	r4, [pc, #172]	; (66c <_ZN10FlexCAN_T4IL13CAN_DEV_TABLE1075658752EL21FLEXCAN_RXQUEUE_TABLE256EL21FLEXCAN_TXQUEUE_TABLE16EE17flexcan_interruptEv+0x66c>)
 5be:	3201      	adds	r2, #1
 5c0:	f002 021f 	and.w	r2, r2, #31
 5c4:	f8a3 2cd2 	strh.w	r2, [r3, #3282]	; 0xcd2
 5c8:	69e4      	ldr	r4, [r4, #28]
 5ca:	f8b3 2d9c 	ldrh.w	r2, [r3, #3484]	; 0xd9c
 5ce:	b2a4      	uxth	r4, r4
 5d0:	b292      	uxth	r2, r2
 5d2:	2a0f      	cmp	r2, #15
 5d4:	d805      	bhi.n	5e2 <_ZN10FlexCAN_T4IL13CAN_DEV_TABLE1075658752EL21FLEXCAN_RXQUEUE_TABLE256EL21FLEXCAN_TXQUEUE_TABLE16EE17flexcan_interruptEv+0x5e2>
 5d6:	f8b3 2d9c 	ldrh.w	r2, [r3, #3484]	; 0xd9c
 5da:	3201      	adds	r2, #1
 5dc:	b292      	uxth	r2, r2
 5de:	f8a3 2d9c 	strh.w	r2, [r3, #3484]	; 0xd9c
 5e2:	f8b3 2d9a 	ldrh.w	r2, [r3, #3482]	; 0xd9a
 5e6:	f002 020f 	and.w	r2, r2, #15
 5ea:	eb03 0242 	add.w	r2, r3, r2, lsl #1
 5ee:	f8a2 4d9e 	strh.w	r4, [r2, #3486]	; 0xd9e
 5f2:	f8b3 4d9a 	ldrh.w	r4, [r3, #3482]	; 0xd9a
 5f6:	f8b3 2d98 	ldrh.w	r2, [r3, #3480]	; 0xd98
 5fa:	b2a4      	uxth	r4, r4
 5fc:	b292      	uxth	r2, r2
 5fe:	f082 0210 	eor.w	r2, r2, #16
 602:	4294      	cmp	r4, r2
 604:	d106      	bne.n	614 <_ZN10FlexCAN_T4IL13CAN_DEV_TABLE1075658752EL21FLEXCAN_RXQUEUE_TABLE256EL21FLEXCAN_TXQUEUE_TABLE16EE17flexcan_interruptEv+0x614>
 606:	f8b3 2d98 	ldrh.w	r2, [r3, #3480]	; 0xd98
 60a:	3201      	adds	r2, #1
 60c:	f002 021f 	and.w	r2, r2, #31
 610:	f8a3 2d98 	strh.w	r2, [r3, #3480]	; 0xd98
 614:	f8b3 2d9a 	ldrh.w	r2, [r3, #3482]	; 0xd9a
 618:	6001      	str	r1, [r0, #0]
 61a:	3201      	adds	r2, #1
 61c:	f002 021f 	and.w	r2, r2, #31
 620:	f8a3 2d9a 	strh.w	r2, [r3, #3482]	; 0xd9a
 624:	e5f8      	b.n	218 <_ZN10FlexCAN_T4IL13CAN_DEV_TABLE1075658752EL21FLEXCAN_RXQUEUE_TABLE256EL21FLEXCAN_TXQUEUE_TABLE16EE17flexcan_interruptEv+0x218>
 626:	2c1f      	cmp	r4, #31
 628:	f04f 0301 	mov.w	r3, #1
 62c:	d80d      	bhi.n	64a <_ZN10FlexCAN_T4IL13CAN_DEV_TABLE1075658752EL21FLEXCAN_RXQUEUE_TABLE256EL21FLEXCAN_TXQUEUE_TABLE16EE17flexcan_interruptEv+0x64a>
 62e:	f8d9 2030 	ldr.w	r2, [r9, #48]	; 0x30
 632:	40a3      	lsls	r3, r4
 634:	4313      	orrs	r3, r2
 636:	f8c9 3030 	str.w	r3, [r9, #48]	; 0x30
 63a:	f04f 6300 	mov.w	r3, #134217728	; 0x8000000
 63e:	f8c8 3000 	str.w	r3, [r8]
 642:	e528      	b.n	96 <_ZN10FlexCAN_T4IL13CAN_DEV_TABLE1075658752EL21FLEXCAN_RXQUEUE_TABLE256EL21FLEXCAN_TXQUEUE_TABLE16EE17flexcan_interruptEv+0x96>
 644:	9a06      	ldr	r2, [sp, #24]
 646:	4621      	mov	r1, r4
 648:	e710      	b.n	46c <_ZN10FlexCAN_T4IL13CAN_DEV_TABLE1075658752EL21FLEXCAN_RXQUEUE_TABLE256EL21FLEXCAN_TXQUEUE_TABLE16EE17flexcan_interruptEv+0x46c>
 64a:	f8d9 202c 	ldr.w	r2, [r9, #44]	; 0x2c
 64e:	fa03 f30a 	lsl.w	r3, r3, sl
 652:	4313      	orrs	r3, r2
 654:	f8c9 302c 	str.w	r3, [r9, #44]	; 0x2c
 658:	e7ef      	b.n	63a <_ZN10FlexCAN_T4IL13CAN_DEV_TABLE1075658752EL21FLEXCAN_RXQUEUE_TABLE256EL21FLEXCAN_TXQUEUE_TABLE16EE17flexcan_interruptEv+0x63a>
 65a:	f8d9 202c 	ldr.w	r2, [r9, #44]	; 0x2c
 65e:	fa03 f30a 	lsl.w	r3, r3, sl
 662:	4313      	orrs	r3, r2
 664:	f8c9 302c 	str.w	r3, [r9, #44]	; 0x2c
 668:	e515      	b.n	96 <_ZN10FlexCAN_T4IL13CAN_DEV_TABLE1075658752EL21FLEXCAN_RXQUEUE_TABLE256EL21FLEXCAN_TXQUEUE_TABLE16EE17flexcan_interruptEv+0x96>
 66a:	bf00      	nop
 66c:	401d4000 	.word	0x401d4000

Disassembly of section .text._ZN10FlexCAN_T4IL13CAN_DEV_TABLE1075658752EL21FLEXCAN_RXQUEUE_TABLE256EL21FLEXCAN_TXQUEUE_TABLE16EE6eventsEv:

00000000 <_ZN10FlexCAN_T4IL13CAN_DEV_TABLE1075658752EL21FLEXCAN_RXQUEUE_TABLE256EL21FLEXCAN_TXQUEUE_TABLE16EE6eventsEv>:
   0:	e92d 43f0 	stmdb	sp!, {r4, r5, r6, r7, r8, r9, lr}
   4:	f500 5700 	add.w	r7, r0, #8192	; 0x2000
   8:	b08f      	sub	sp, #60	; 0x3c
   a:	4604      	mov	r4, r0
   c:	f897 3700 	ldrb.w	r3, [r7, #1792]	; 0x700
  10:	b913      	cbnz	r3, 18 <_ZN10FlexCAN_T4IL13CAN_DEV_TABLE1075658752EL21FLEXCAN_RXQUEUE_TABLE256EL21FLEXCAN_TXQUEUE_TABLE16EE6eventsEv+0x18>
  12:	2301      	movs	r3, #1
  14:	f887 3700 	strb.w	r3, [r7, #1792]	; 0x700
  18:	8b23      	ldrh	r3, [r4, #24]
  1a:	b29b      	uxth	r3, r3
  1c:	2b00      	cmp	r3, #0
  1e:	d157      	bne.n	d0 <_ZN10FlexCAN_T4IL13CAN_DEV_TABLE1075658752EL21FLEXCAN_RXQUEUE_TABLE256EL21FLEXCAN_TXQUEUE_TABLE16EE6eventsEv+0xd0>
  20:	f8d7 290c 	ldr.w	r2, [r7, #2316]	; 0x90c
  24:	f504 5680 	add.w	r6, r4, #4096	; 0x1000
  28:	4b72      	ldr	r3, [pc, #456]	; (1f4 <_ZN10FlexCAN_T4IL13CAN_DEV_TABLE1075658752EL21FLEXCAN_RXQUEUE_TABLE256EL21FLEXCAN_TXQUEUE_TABLE16EE6eventsEv+0x1f4>)
  2a:	f002 011f 	and.w	r1, r2, #31
  2e:	eb03 1352 	add.w	r3, r3, r2, lsr #5
  32:	2201      	movs	r2, #1
  34:	009b      	lsls	r3, r3, #2
  36:	408a      	lsls	r2, r1
  38:	601a      	str	r2, [r3, #0]
  3a:	f8b6 3b1e 	ldrh.w	r3, [r6, #2846]	; 0xb1e
  3e:	b29b      	uxth	r3, r3
  40:	b383      	cbz	r3, a4 <_ZN10FlexCAN_T4IL13CAN_DEV_TABLE1075658752EL21FLEXCAN_RXQUEUE_TABLE256EL21FLEXCAN_TXQUEUE_TABLE16EE6eventsEv+0xa4>
  42:	f8b6 3b1a 	ldrh.w	r3, [r6, #2842]	; 0xb1a
  46:	221a      	movs	r2, #26
  48:	ad08      	add	r5, sp, #32
  4a:	f10d 0c08 	add.w	ip, sp, #8
  4e:	f003 030f 	and.w	r3, r3, #15
  52:	46ae      	mov	lr, r5
  54:	fb02 4303 	mla	r3, r2, r3, r4
  58:	f641 3232 	movw	r2, #6962	; 0x1b32
  5c:	eb03 0802 	add.w	r8, r3, r2
  60:	5898      	ldr	r0, [r3, r2]
  62:	f8d8 1004 	ldr.w	r1, [r8, #4]
  66:	f8d8 2008 	ldr.w	r2, [r8, #8]
  6a:	f8d8 300c 	ldr.w	r3, [r8, #12]
  6e:	c50f      	stmia	r5!, {r0, r1, r2, r3}
  70:	f8d8 0010 	ldr.w	r0, [r8, #16]
  74:	f8d8 1014 	ldr.w	r1, [r8, #20]
  78:	c503      	stmia	r5!, {r0, r1}
  7a:	e8be 000f 	ldmia.w	lr!, {r0, r1, r2, r3}
  7e:	e8ac 000f 	stmia.w	ip!, {r0, r1, r2, r3}
  82:	e89e 0003 	ldmia.w	lr, {r0, r1}
  86:	e88c 0003 	stmia.w	ip, {r0, r1}
  8a:	f99d 101c 	ldrsb.w	r1, [sp, #28]
  8e:	1c4b      	adds	r3, r1, #1
  90:	d054      	beq.n	13c <_ZN10FlexCAN_T4IL13CAN_DEV_TABLE1075658752EL21FLEXCAN_RXQUEUE_TABLE256EL21FLEXCAN_TXQUEUE_TABLE16EE6eventsEv+0x13c>
  92:	4b59      	ldr	r3, [pc, #356]	; (1f8 <_ZN10FlexCAN_T4IL13CAN_DEV_TABLE1075658752EL21FLEXCAN_RXQUEUE_TABLE256EL21FLEXCAN_TXQUEUE_TABLE16EE6eventsEv+0x1f8>)
  94:	440b      	add	r3, r1
  96:	011b      	lsls	r3, r3, #4
  98:	681b      	ldr	r3, [r3, #0]
  9a:	f3c3 6303 	ubfx	r3, r3, #24, #4
  9e:	2b08      	cmp	r3, #8
  a0:	f000 808b 	beq.w	1ba <_ZN10FlexCAN_T4IL13CAN_DEV_TABLE1075658752EL21FLEXCAN_RXQUEUE_TABLE256EL21FLEXCAN_TXQUEUE_TABLE16EE6eventsEv+0x1ba>
  a4:	f8d7 290c 	ldr.w	r2, [r7, #2316]	; 0x90c
  a8:	4b54      	ldr	r3, [pc, #336]	; (1fc <_ZN10FlexCAN_T4IL13CAN_DEV_TABLE1075658752EL21FLEXCAN_RXQUEUE_TABLE256EL21FLEXCAN_TXQUEUE_TABLE16EE6eventsEv+0x1fc>)
  aa:	f002 011f 	and.w	r1, r2, #31
  ae:	eb03 1352 	add.w	r3, r3, r2, lsr #5
  b2:	2201      	movs	r2, #1
  b4:	009b      	lsls	r3, r3, #2
  b6:	408a      	lsls	r2, r1
  b8:	2100      	movs	r1, #0
  ba:	601a      	str	r2, [r3, #0]
  bc:	8b23      	ldrh	r3, [r4, #24]
  be:	f8b6 0b1e 	ldrh.w	r0, [r6, #2846]	; 0xb1e
  c2:	b29b      	uxth	r3, r3
  c4:	b280      	uxth	r0, r0
  c6:	ea40 3003 	orr.w	r0, r0, r3, lsl #12
  ca:	b00f      	add	sp, #60	; 0x3c
  cc:	e8bd 83f0 	ldmia.w	sp!, {r4, r5, r6, r7, r8, r9, pc}
  d0:	8aa6      	ldrh	r6, [r4, #20]
  d2:	231a      	movs	r3, #26
  d4:	f8b4 c014 	ldrh.w	ip, [r4, #20]
  d8:	ad08      	add	r5, sp, #32
  da:	b2f6      	uxtb	r6, r6
  dc:	f10c 0c01 	add.w	ip, ip, #1
  e0:	fb03 4606 	mla	r6, r3, r6, r4
  e4:	f3cc 0c08 	ubfx	ip, ip, #0, #9
  e8:	f8d6 011c 	ldr.w	r0, [r6, #284]	; 0x11c
  ec:	f8d6 1120 	ldr.w	r1, [r6, #288]	; 0x120
  f0:	f8d6 3128 	ldr.w	r3, [r6, #296]	; 0x128
  f4:	f8d6 2124 	ldr.w	r2, [r6, #292]	; 0x124
  f8:	c50f      	stmia	r5!, {r0, r1, r2, r3}
  fa:	f8d6 012c 	ldr.w	r0, [r6, #300]	; 0x12c
  fe:	f8d6 1130 	ldr.w	r1, [r6, #304]	; 0x130
 102:	f8a4 c014 	strh.w	ip, [r4, #20]
 106:	8b23      	ldrh	r3, [r4, #24]
 108:	b29b      	uxth	r3, r3
 10a:	c503      	stmia	r5!, {r0, r1}
 10c:	b11b      	cbz	r3, 116 <_ZN10FlexCAN_T4IL13CAN_DEV_TABLE1075658752EL21FLEXCAN_RXQUEUE_TABLE256EL21FLEXCAN_TXQUEUE_TABLE16EE6eventsEv+0x116>
 10e:	8b23      	ldrh	r3, [r4, #24]
 110:	3b01      	subs	r3, #1
 112:	b29b      	uxth	r3, r3
 114:	8323      	strh	r3, [r4, #24]
 116:	ad08      	add	r5, sp, #32
 118:	ae02      	add	r6, sp, #8
 11a:	cd0f      	ldmia	r5!, {r0, r1, r2, r3}
 11c:	c60f      	stmia	r6!, {r0, r1, r2, r3}
 11e:	e895 0003 	ldmia.w	r5, {r0, r1}
 122:	aa02      	add	r2, sp, #8
 124:	e886 0003 	stmia.w	r6, {r0, r1}
 128:	f89d 301c 	ldrb.w	r3, [sp, #28]
 12c:	f10d 0107 	add.w	r1, sp, #7
 130:	4620      	mov	r0, r4
 132:	f88d 3007 	strb.w	r3, [sp, #7]
 136:	f7ff fffe 	bl	0 <_ZN10FlexCAN_T4IL13CAN_DEV_TABLE1075658752EL21FLEXCAN_RXQUEUE_TABLE256EL21FLEXCAN_TXQUEUE_TABLE16EE6eventsEv>
 13a:	e771      	b.n	20 <_ZN10FlexCAN_T4IL13CAN_DEV_TABLE1075658752EL21FLEXCAN_RXQUEUE_TABLE256EL21FLEXCAN_TXQUEUE_TABLE16EE6eventsEv+0x20>
 13c:	f8df 80c0 	ldr.w	r8, [pc, #192]	; 200 <_ZN10FlexCAN_T4IL13CAN_DEV_TABLE1075658752EL21FLEXCAN_RXQUEUE_TABLE256EL21FLEXCAN_TXQUEUE_TABLE16EE6eventsEv+0x200>
 140:	f8d8 5000 	ldr.w	r5, [r8]
 144:	f015 5500 	ands.w	r5, r5, #536870912	; 0x20000000
 148:	d050      	beq.n	1ec <_ZN10FlexCAN_T4IL13CAN_DEV_TABLE1075658752EL21FLEXCAN_RXQUEUE_TABLE256EL21FLEXCAN_TXQUEUE_TABLE16EE6eventsEv+0x1ec>
 14a:	f7ff fffe 	bl	0 <_ZN10FlexCAN_T4IL13CAN_DEV_TABLE1075658752EL21FLEXCAN_RXQUEUE_TABLE256EL21FLEXCAN_TXQUEUE_TABLE16EE6eventsEv>
 14e:	f8d8 3000 	ldr.w	r3, [r8]
 152:	4605      	mov	r5, r0
 154:	f003 037f 	and.w	r3, r3, #127	; 0x7f
 158:	3301      	adds	r3, #1
 15a:	4283      	cmp	r3, r0
 15c:	d9a2      	bls.n	a4 <_ZN10FlexCAN_T4IL13CAN_DEV_TABLE1075658752EL21FLEXCAN_RXQUEUE_TABLE256EL21FLEXCAN_TXQUEUE_TABLE16EE6eventsEv+0xa4>
 15e:	f8df 9098 	ldr.w	r9, [pc, #152]	; 1f8 <_ZN10FlexCAN_T4IL13CAN_DEV_TABLE1075658752EL21FLEXCAN_RXQUEUE_TABLE256EL21FLEXCAN_TXQUEUE_TABLE16EE6eventsEv+0x1f8>
 162:	f8df 809c 	ldr.w	r8, [pc, #156]	; 200 <_ZN10FlexCAN_T4IL13CAN_DEV_TABLE1075658752EL21FLEXCAN_RXQUEUE_TABLE256EL21FLEXCAN_TXQUEUE_TABLE16EE6eventsEv+0x200>
 166:	e008      	b.n	17a <_ZN10FlexCAN_T4IL13CAN_DEV_TABLE1075658752EL21FLEXCAN_RXQUEUE_TABLE256EL21FLEXCAN_TXQUEUE_TABLE16EE6eventsEv+0x17a>
 168:	f8d8 3000 	ldr.w	r3, [r8]
 16c:	3501      	adds	r5, #1
 16e:	f003 037f 	and.w	r3, r3, #127	; 0x7f
 172:	b2ed      	uxtb	r5, r5
 174:	3301      	adds	r3, #1
 176:	429d      	cmp	r5, r3
 178:	d294      	bcs.n	a4 <_ZN10FlexCAN_T4IL13CAN_DEV_TABLE1075658752EL21FLEXCAN_RXQUEUE_TABLE256EL21FLEXCAN_TXQUEUE_TABLE16EE6eventsEv+0xa4>
 17a:	eb05 0309 	add.w	r3, r5, r9
 17e:	011b      	lsls	r3, r3, #4
 180:	681b      	ldr	r3, [r3, #0]
 182:	f3c3 6303 	ubfx	r3, r3, #24, #4
 186:	2b08      	cmp	r3, #8
 188:	d1ee      	bne.n	168 <_ZN10FlexCAN_T4IL13CAN_DEV_TABLE1075658752EL21FLEXCAN_RXQUEUE_TABLE256EL21FLEXCAN_TXQUEUE_TABLE16EE6eventsEv+0x168>
 18a:	aa02      	add	r2, sp, #8
 18c:	4629      	mov	r1, r5
 18e:	4620      	mov	r0, r4
 190:	f7ff fffe 	bl	0 <_ZN10FlexCAN_T4IL13CAN_DEV_TABLE1075658752EL21FLEXCAN_RXQUEUE_TABLE256EL21FLEXCAN_TXQUEUE_TABLE16EE6eventsEv>
 194:	f8b6 3b1a 	ldrh.w	r3, [r6, #2842]	; 0xb1a
 198:	3301      	adds	r3, #1
 19a:	f003 031f 	and.w	r3, r3, #31
 19e:	f8a6 3b1a 	strh.w	r3, [r6, #2842]	; 0xb1a
 1a2:	f8b6 3b1e 	ldrh.w	r3, [r6, #2846]	; 0xb1e
 1a6:	b29b      	uxth	r3, r3
 1a8:	2b00      	cmp	r3, #0
 1aa:	d0dd      	beq.n	168 <_ZN10FlexCAN_T4IL13CAN_DEV_TABLE1075658752EL21FLEXCAN_RXQUEUE_TABLE256EL21FLEXCAN_TXQUEUE_TABLE16EE6eventsEv+0x168>
 1ac:	f8b6 3b1e 	ldrh.w	r3, [r6, #2846]	; 0xb1e
 1b0:	3b01      	subs	r3, #1
 1b2:	b29b      	uxth	r3, r3
 1b4:	f8a6 3b1e 	strh.w	r3, [r6, #2846]	; 0xb1e
 1b8:	e7d6      	b.n	168 <_ZN10FlexCAN_T4IL13CAN_DEV_TABLE1075658752EL21FLEXCAN_RXQUEUE_TABLE256EL21FLEXCAN_TXQUEUE_TABLE16EE6eventsEv+0x168>
 1ba:	aa02      	add	r2, sp, #8
 1bc:	b2c9      	uxtb	r1, r1
 1be:	4620      	mov	r0, r4
 1c0:	f7ff fffe 	bl	0 <_ZN10FlexCAN_T4IL13CAN_DEV_TABLE1075658752EL21FLEXCAN_RXQUEUE_TABLE256EL21FLEXCAN_TXQUEUE_TABLE16EE6eventsEv>
 1c4:	f8b6 3b1a 	ldrh.w	r3, [r6, #2842]	; 0xb1a
 1c8:	3301      	adds	r3, #1
 1ca:	f003 031f 	and.w	r3, r3, #31
 1ce:	f8a6 3b1a 	strh.w	r3, [r6, #2842]	; 0xb1a
 1d2:	f8b6 3b1e 	ldrh.w	r3, [r6, #2846]	; 0xb1e
 1d6:	b29b      	uxth	r3, r3
 1d8:	2b00      	cmp	r3, #0
 1da:	f43f af63 	beq.w	a4 <_ZN10FlexCAN_T4IL13CAN_DEV_TABLE1075658752EL21FLEXCAN_RXQUEUE_TABLE256EL21FLEXCAN_TXQUEUE_TABLE16EE6eventsEv+0xa4>
 1de:	f8b6 3b1e 	ldrh.w	r3, [r6, #2846]	; 0xb1e
 1e2:	3b01      	subs	r3, #1
 1e4:	b29b      	uxth	r3, r3
 1e6:	f8a6 3b1e 	strh.w	r3, [r6, #2846]	; 0xb1e
 1ea:	e75b      	b.n	a4 <_ZN10FlexCAN_T4IL13CAN_DEV_TABLE1075658752EL21FLEXCAN_RXQUEUE_TABLE256EL21FLEXCAN_TXQUEUE_TABLE16EE6eventsEv+0xa4>
 1ec:	f8d8 3000 	ldr.w	r3, [r8]
 1f0:	e7b5      	b.n	15e <_ZN10FlexCAN_T4IL13CAN_DEV_TABLE1075658752EL21FLEXCAN_RXQUEUE_TABLE256EL21FLEXCAN_TXQUEUE_TABLE16EE6eventsEv+0x15e>
 1f2:	bf00      	nop
 1f4:	38003860 	.word	0x38003860
 1f8:	0401d408 	.word	0x0401d408
 1fc:	38003840 	.word	0x38003840
 200:	401d4000 	.word	0x401d4000
