
build/./libraries/Adafruit_BusIO/Adafruit_BusIO_Register.cpp.o:     file format elf32-littlearm

SYMBOL TABLE:
00000000 l    df *ABS*	00000000 Adafruit_BusIO_Register.cpp
00000000 l    d  .text	00000000 .text
00000000 l    d  .data	00000000 .data
00000000 l    d  .bss	00000000 .bss
00000000 l    d  .text._ZN23Adafruit_BusIO_RegisterC2EP18Adafruit_I2CDevicethhh	00000000 .text._ZN23Adafruit_BusIO_RegisterC2EP18Adafruit_I2CDevicethhh
00000000 l    d  .text._ZN23Adafruit_BusIO_RegisterC2EP18Adafruit_SPIDevicet26_Adafruit_BusIO_SPIRegTypehhh	00000000 .text._ZN23Adafruit_BusIO_RegisterC2EP18Adafruit_SPIDevicet26_Adafruit_BusIO_SPIRegTypehhh
00000000 l    d  .text._ZN23Adafruit_BusIO_RegisterC2EP18Adafruit_I2CDeviceP18Adafruit_SPIDevice26_Adafruit_BusIO_SPIRegTypethhh	00000000 .text._ZN23Adafruit_BusIO_RegisterC2EP18Adafruit_I2CDeviceP18Adafruit_SPIDevice26_Adafruit_BusIO_SPIRegTypethhh
00000000 l    d  .text._ZN23Adafruit_BusIO_Register5writeEPhh	00000000 .text._ZN23Adafruit_BusIO_Register5writeEPhh
00000000 l    d  .text._ZN23Adafruit_BusIO_Register5writeEmh	00000000 .text._ZN23Adafruit_BusIO_Register5writeEmh
00000000 l    d  .text._ZN23Adafruit_BusIO_Register10readCachedEv	00000000 .text._ZN23Adafruit_BusIO_Register10readCachedEv
00000000 l    d  .text._ZN23Adafruit_BusIO_Register4readEPhh	00000000 .text._ZN23Adafruit_BusIO_Register4readEPhh
00000000 l    d  .text._ZN23Adafruit_BusIO_Register4readEv	00000000 .text._ZN23Adafruit_BusIO_Register4readEv
00000000 l    d  .text._ZN23Adafruit_BusIO_Register4readEPt	00000000 .text._ZN23Adafruit_BusIO_Register4readEPt
00000000 l    d  .text._ZN23Adafruit_BusIO_Register4readEPh	00000000 .text._ZN23Adafruit_BusIO_Register4readEPh
00000000 l    d  .rodata._ZN23Adafruit_BusIO_Register5printEP6Stream.str1.4	00000000 .rodata._ZN23Adafruit_BusIO_Register5printEP6Stream.str1.4
00000000 l    d  .text._ZN23Adafruit_BusIO_Register5printEP6Stream	00000000 .text._ZN23Adafruit_BusIO_Register5printEP6Stream
00000000 l    d  .text._ZN23Adafruit_BusIO_Register7printlnEP6Stream	00000000 .text._ZN23Adafruit_BusIO_Register7printlnEP6Stream
00000000 l    d  .text._ZN27Adafruit_BusIO_RegisterBitsC2EP23Adafruit_BusIO_Registerhh	00000000 .text._ZN27Adafruit_BusIO_RegisterBitsC2EP23Adafruit_BusIO_Registerhh
00000000 l    d  .text._ZN27Adafruit_BusIO_RegisterBits4readEv	00000000 .text._ZN27Adafruit_BusIO_RegisterBits4readEv
00000000 l    d  .text._ZN27Adafruit_BusIO_RegisterBits5writeEm	00000000 .text._ZN27Adafruit_BusIO_RegisterBits5writeEm
00000000 l    d  .text._ZN23Adafruit_BusIO_Register5widthEv	00000000 .text._ZN23Adafruit_BusIO_Register5widthEv
00000000 l    d  .text._ZN23Adafruit_BusIO_Register8setWidthEh	00000000 .text._ZN23Adafruit_BusIO_Register8setWidthEh
00000000 l    d  .text._ZN23Adafruit_BusIO_Register10setAddressEt	00000000 .text._ZN23Adafruit_BusIO_Register10setAddressEt
00000000 l    d  .text._ZN23Adafruit_BusIO_Register15setAddressWidthEt	00000000 .text._ZN23Adafruit_BusIO_Register15setAddressWidthEt
00000000 l    d  .comment	00000000 .comment
00000000 l    d  .ARM.attributes	00000000 .ARM.attributes
00000000 g     F .text._ZN23Adafruit_BusIO_RegisterC2EP18Adafruit_I2CDevicethhh	0000001a _ZN23Adafruit_BusIO_RegisterC2EP18Adafruit_I2CDevicethhh
00000000 g     F .text._ZN23Adafruit_BusIO_RegisterC2EP18Adafruit_I2CDevicethhh	0000001a _ZN23Adafruit_BusIO_RegisterC1EP18Adafruit_I2CDevicethhh
00000000 g     F .text._ZN23Adafruit_BusIO_RegisterC2EP18Adafruit_SPIDevicet26_Adafruit_BusIO_SPIRegTypehhh	00000020 _ZN23Adafruit_BusIO_RegisterC2EP18Adafruit_SPIDevicet26_Adafruit_BusIO_SPIRegTypehhh
00000000 g     F .text._ZN23Adafruit_BusIO_RegisterC2EP18Adafruit_SPIDevicet26_Adafruit_BusIO_SPIRegTypehhh	00000020 _ZN23Adafruit_BusIO_RegisterC1EP18Adafruit_SPIDevicet26_Adafruit_BusIO_SPIRegTypehhh
00000000 g     F .text._ZN23Adafruit_BusIO_RegisterC2EP18Adafruit_I2CDeviceP18Adafruit_SPIDevice26_Adafruit_BusIO_SPIRegTypethhh	00000024 _ZN23Adafruit_BusIO_RegisterC2EP18Adafruit_I2CDeviceP18Adafruit_SPIDevice26_Adafruit_BusIO_SPIRegTypethhh
00000000 g     F .text._ZN23Adafruit_BusIO_RegisterC2EP18Adafruit_I2CDeviceP18Adafruit_SPIDevice26_Adafruit_BusIO_SPIRegTypethhh	00000024 _ZN23Adafruit_BusIO_RegisterC1EP18Adafruit_I2CDeviceP18Adafruit_SPIDevice26_Adafruit_BusIO_SPIRegTypethhh
00000000 g     F .text._ZN23Adafruit_BusIO_Register5writeEPhh	00000096 _ZN23Adafruit_BusIO_Register5writeEPhh
00000000         *UND*	00000000 _ZN18Adafruit_I2CDevice5writeEPKhjbS1_j
00000000         *UND*	00000000 _ZN18Adafruit_SPIDevice5writeEPKhjS1_j
00000000 g     F .text._ZN23Adafruit_BusIO_Register5writeEmh	00000058 _ZN23Adafruit_BusIO_Register5writeEmh
00000000 g     F .text._ZN23Adafruit_BusIO_Register10readCachedEv	00000004 _ZN23Adafruit_BusIO_Register10readCachedEv
00000000 g     F .text._ZN23Adafruit_BusIO_Register4readEPhh	0000009e _ZN23Adafruit_BusIO_Register4readEPhh
00000000         *UND*	00000000 _ZN18Adafruit_I2CDevice15write_then_readEPKhjPhjb
00000000         *UND*	00000000 _ZN18Adafruit_SPIDevice15write_then_readEPKhjPhjh
00000000 g     F .text._ZN23Adafruit_BusIO_Register4readEv	00000042 _ZN23Adafruit_BusIO_Register4readEv
00000000 g     F .text._ZN23Adafruit_BusIO_Register4readEPt	00000032 _ZN23Adafruit_BusIO_Register4readEPt
00000000 g     F .text._ZN23Adafruit_BusIO_Register4readEPh	00000018 _ZN23Adafruit_BusIO_Register4readEPh
00000000 g     F .text._ZN23Adafruit_BusIO_Register5printEP6Stream	0000002c _ZN23Adafruit_BusIO_Register5printEP6Stream
00000000         *UND*	00000000 _ZN5Print11printNumberEmhh
00000000 g     F .text._ZN23Adafruit_BusIO_Register7printlnEP6Stream	00000012 _ZN23Adafruit_BusIO_Register7printlnEP6Stream
00000000         *UND*	00000000 _ZN5Print7printlnEv
00000000 g     F .text._ZN27Adafruit_BusIO_RegisterBitsC2EP23Adafruit_BusIO_Registerhh	00000008 _ZN27Adafruit_BusIO_RegisterBitsC2EP23Adafruit_BusIO_Registerhh
00000000 g     F .text._ZN27Adafruit_BusIO_RegisterBitsC2EP23Adafruit_BusIO_Registerhh	00000008 _ZN27Adafruit_BusIO_RegisterBitsC1EP23Adafruit_BusIO_Registerhh
00000000 g     F .text._ZN27Adafruit_BusIO_RegisterBits4readEv	0000001a _ZN27Adafruit_BusIO_RegisterBits4readEv
00000000 g     F .text._ZN27Adafruit_BusIO_RegisterBits5writeEm	00000030 _ZN27Adafruit_BusIO_RegisterBits5writeEm
00000000 g     F .text._ZN23Adafruit_BusIO_Register5widthEv	00000004 _ZN23Adafruit_BusIO_Register5widthEv
00000000 g     F .text._ZN23Adafruit_BusIO_Register8setWidthEh	00000004 _ZN23Adafruit_BusIO_Register8setWidthEh
00000000 g     F .text._ZN23Adafruit_BusIO_Register10setAddressEt	00000004 _ZN23Adafruit_BusIO_Register10setAddressEt
00000000 g     F .text._ZN23Adafruit_BusIO_Register15setAddressWidthEt	00000004 _ZN23Adafruit_BusIO_Register15setAddressWidthEt


Contents of section .text._ZN23Adafruit_BusIO_RegisterC2EP18Adafruit_I2CDevicethhh:
 0000 03730023 42814361 9df80020 43609df8  .s.#B.Ca... C`..
 0010 04300160 82734373 704700bf           .0.`.sCspG..    
Contents of section .text._ZN23Adafruit_BusIO_RegisterC2EP18Adafruit_SPIDevicet26_Adafruit_BusIO_SPIRegTypehhh:
 0000 03720023 42814361 03609df8 00309df8  .r.#B.Ca.`...0..
 0010 04200373 9df80830 41608273 43737047  . .s...0A`.sCspG
Contents of section .text._ZN23Adafruit_BusIO_RegisterC2EP18Adafruit_I2CDeviceP18Adafruit_SPIDevice26_Adafruit_BusIO_SPIRegTypethhh:
 0000 0372bdf8 00304381 9df80430 c0e90012  .r...0C....0....
 0010 03730022 9df80810 9df80c30 81734261  .s.".......0.sBa
 0020 43737047                             CspG            
Contents of section .text._ZN23Adafruit_BusIO_Register5writeEPhh:
 0000 b0f80ac0 03460068 70b584b0 adf80cc0  .....F.hp.......
 0010 40b15c7b 03abcde9 00340123 fff7feff  @.\{.....4.#....
 0020 04b070bd 58680028 fad01e7a 5ffa8cf5  ..p.Xh.(...z_...
 0030 032e21d0 0c469646 76b1022e 11d165f0  ..!..F.Fv.....e.
 0040 7f058df8 0c505d7b 724603ab 21460095  .....P]{rF..!F..
 0050 fff7feff 04b070bd 05f07f05 8df80c50  ......p........P
 0060 f1e7012e efd19df8 0c2002f0 7f0242f0  ......... ....B.
 0070 40028df8 0c20e6e7 5c7b4fea 1c2c03ab  @.... ..\{O..,..
 0080 8df80d50 01342cf0 010c0094 8df80cc0  ...P.4,.........
 0090 fff7feff c4e700bf                    ........        
Contents of section .text._ZN23Adafruit_BusIO_Register5writeEmh:
 0000 30b562b9 047b042c 24d84161 5cb900f1  0.b..{.,$.Aa\...
 0010 0f0e2246 7146bde8 3040fff7 febf042a  .."FqF..0@.....*
 0020 144617d8 416100f1 0f0e04f1 0e03857b  .F..Aa.........{
 0030 00f10e02 50fa83f3 f4464db9 8cf80010  ....P....FM.....
 0040 013b090a 0cf1010c 9342e2d0 002df5d0  .;.......B...-..
 0050 1970f5e7 002030bd                    .p... 0.        
Contents of section .text._ZN23Adafruit_BusIO_Register10readCachedEv:
 0000 40697047                             @ipG            
Contents of section .text._ZN23Adafruit_BusIO_Register4readEPhh:
 0000 10b58446 84b04089 14460b46 c2b2adf8  ...F..@..F.F....
 0010 0c004fea 102edcf8 000048b1 00219cf8  ..O.......H..!..
 0020 0d200094 019103a9 fff7feff 04b010bd  . ..............
 0030 dcf80400 0028f9d0 9cf80810 03291ed0  .....(.......)..
 0040 79b10229 12d102f0 7f028df8 0c20ff21  y..)......... .!
 0050 9cf80d20 00940191 03a9fff7 feff04b0  ... ............
 0060 10bd62f0 7f028df8 0c20f0e7 0129eed1  ..b...... ...)..
 0070 9df80c20 62f03f02 8df80c20 e7e7ff21  ... b.?.... ...!
 0080 00948df8 0d204ef0 010e9cf8 0d200191  ..... N...... ..
 0090 03a90132 8df80ce0 fff7feff c6e700bf  ...2............
Contents of section .text._ZN23Adafruit_BusIO_Register4readEv:
 0000 70b500f1 0f05027b 04462946 fff7feff  p......{.F)F....
 0010 a0b1207b 70b10e30 a67b2946 04f10e02  .. {p..0.{)F....
 0020 23180020 000236b9 1c782043 013b0131  #.. ..6..x C.;.1
 0030 9342f7d1 70bd0c78 2043f7e7 4ff0ff30  .B..p..x C..O..0
 0040 70bd00bf                             p...            
Contents of section .text._ZN23Adafruit_BusIO_Register4readEPt:
 0000 38b50222 0d4600f1 0f010446 fff7feff  8..".F.....F....
 0010 38b1a37b 33b9237c 1b022b80 e27b1343  8..{3.#|..+..{.C
 0020 2b8038bd e37b1b02 2b80227c 13432b80  +.8..{..+."|.C+.
 0030 38bd00bf                             8...            
Contents of section .text._ZN23Adafruit_BusIO_Register4readEPh:
 0000 38b50122 0d4600f1 0f010446 fff7feff  8..".F.....F....
 0010 08b1e37b 2b7038bd                    ...{+p8.        
Contents of section .rodata._ZN23Adafruit_BusIO_Register5printEP6Stream.str1.4:
 0000 307800                               0x.             
Contents of section .text._ZN23Adafruit_BusIO_Register5printEP6Stream:
 0000 70b50c46 fff7feff 05460222 23682046  p..F.....F."#h F
 0010 05495b68 98472946 20460023 1022bde8  .I[h.G)F F.#."..
 0020 7040fff7 febf00bf 00000000           p@..........    
Contents of section .text._ZN23Adafruit_BusIO_Register7printlnEP6Stream:
 0000 10b50c46 fff7feff 2046bde8 1040fff7  ...F.... F...@..
 0010 febf00bf                             ....            
Contents of section .text._ZN27Adafruit_BusIO_RegisterBitsC2EP23Adafruit_BusIO_Registerhh:
 0000 01600271 43717047                    .`.qCqpG        
Contents of section .text._ZN27Adafruit_BusIO_RegisterBits4readEv:
 0000 10b50446 0068fff7 feff0123 21796279  ...F.h.....#!yby
 0010 8b40d040 013b1840 10bd00bf           .@.@.;.@....    
Contents of section .text._ZN27Adafruit_BusIO_RegisterBits5writeEm:
 0000 38b50546 00680c46 fff7feff 2a790123  8..F.h.F....*y.#
 0010 93406a79 2d68013b 1c409340 944020ea  .@jy-h.;.@.@.@ .
 0020 03012a7b 28462143 bde83840 fff7febf  ..*{(F!C..8@....
Contents of section .text._ZN23Adafruit_BusIO_Register5widthEv:
 0000 007b7047                             .{pG            
Contents of section .text._ZN23Adafruit_BusIO_Register8setWidthEh:
 0000 01737047                             .spG            
Contents of section .text._ZN23Adafruit_BusIO_Register10setAddressEt:
 0000 41817047                             A.pG            
Contents of section .text._ZN23Adafruit_BusIO_Register15setAddressWidthEt:
 0000 41737047                             AspG            
Contents of section .comment:
 0000 00474343 3a202841 726d2047 4e552054  .GCC: (Arm GNU T
 0010 6f6f6c63 6861696e 2031312e 332e5265  oolchain 11.3.Re
 0020 6c312920 31312e33 2e312032 30323230  l1) 11.3.1 20220
 0030 37313200                             712.            
Contents of section .ARM.attributes:
 0000 41310000 00616561 62690001 27000000  A1...aeabi..'...
 0010 0537452d 4d00060d 074d0902 0a081204  .7E-M....M......
 0020 14011501 17031801 19011a01 1c011e02  ................
 0030 2201                                 ".              

Disassembly of section .text._ZN23Adafruit_BusIO_RegisterC2EP18Adafruit_I2CDevicethhh:

00000000 <_ZN23Adafruit_BusIO_RegisterC1EP18Adafruit_I2CDevicethhh>:
   0:	7303      	strb	r3, [r0, #12]
   2:	2300      	movs	r3, #0
   4:	8142      	strh	r2, [r0, #10]
   6:	6143      	str	r3, [r0, #20]
   8:	f89d 2000 	ldrb.w	r2, [sp]
   c:	6043      	str	r3, [r0, #4]
   e:	f89d 3004 	ldrb.w	r3, [sp, #4]
  12:	6001      	str	r1, [r0, #0]
  14:	7382      	strb	r2, [r0, #14]
  16:	7343      	strb	r3, [r0, #13]
  18:	4770      	bx	lr
  1a:	bf00      	nop

Disassembly of section .text._ZN23Adafruit_BusIO_RegisterC2EP18Adafruit_SPIDevicet26_Adafruit_BusIO_SPIRegTypehhh:

00000000 <_ZN23Adafruit_BusIO_RegisterC1EP18Adafruit_SPIDevicet26_Adafruit_BusIO_SPIRegTypehhh>:
   0:	7203      	strb	r3, [r0, #8]
   2:	2300      	movs	r3, #0
   4:	8142      	strh	r2, [r0, #10]
   6:	6143      	str	r3, [r0, #20]
   8:	6003      	str	r3, [r0, #0]
   a:	f89d 3000 	ldrb.w	r3, [sp]
   e:	f89d 2004 	ldrb.w	r2, [sp, #4]
  12:	7303      	strb	r3, [r0, #12]
  14:	f89d 3008 	ldrb.w	r3, [sp, #8]
  18:	6041      	str	r1, [r0, #4]
  1a:	7382      	strb	r2, [r0, #14]
  1c:	7343      	strb	r3, [r0, #13]
  1e:	4770      	bx	lr

Disassembly of section .text._ZN23Adafruit_BusIO_RegisterC2EP18Adafruit_I2CDeviceP18Adafruit_SPIDevice26_Adafruit_BusIO_SPIRegTypethhh:

00000000 <_ZN23Adafruit_BusIO_RegisterC1EP18Adafruit_I2CDeviceP18Adafruit_SPIDevice26_Adafruit_BusIO_SPIRegTypethhh>:
   0:	7203      	strb	r3, [r0, #8]
   2:	f8bd 3000 	ldrh.w	r3, [sp]
   6:	8143      	strh	r3, [r0, #10]
   8:	f89d 3004 	ldrb.w	r3, [sp, #4]
   c:	e9c0 1200 	strd	r1, r2, [r0]
  10:	7303      	strb	r3, [r0, #12]
  12:	2200      	movs	r2, #0
  14:	f89d 1008 	ldrb.w	r1, [sp, #8]
  18:	f89d 300c 	ldrb.w	r3, [sp, #12]
  1c:	7381      	strb	r1, [r0, #14]
  1e:	6142      	str	r2, [r0, #20]
  20:	7343      	strb	r3, [r0, #13]
  22:	4770      	bx	lr

Disassembly of section .text._ZN23Adafruit_BusIO_Register5writeEPhh:

00000000 <_ZN23Adafruit_BusIO_Register5writeEPhh>:
   0:	f8b0 c00a 	ldrh.w	ip, [r0, #10]
   4:	4603      	mov	r3, r0
   6:	6800      	ldr	r0, [r0, #0]
   8:	b570      	push	{r4, r5, r6, lr}
   a:	b084      	sub	sp, #16
   c:	f8ad c00c 	strh.w	ip, [sp, #12]
  10:	b140      	cbz	r0, 24 <_ZN23Adafruit_BusIO_Register5writeEPhh+0x24>
  12:	7b5c      	ldrb	r4, [r3, #13]
  14:	ab03      	add	r3, sp, #12
  16:	e9cd 3400 	strd	r3, r4, [sp]
  1a:	2301      	movs	r3, #1
  1c:	f7ff fffe 	bl	0 <_ZN18Adafruit_I2CDevice5writeEPKhjbS1_j>
  20:	b004      	add	sp, #16
  22:	bd70      	pop	{r4, r5, r6, pc}
  24:	6858      	ldr	r0, [r3, #4]
  26:	2800      	cmp	r0, #0
  28:	d0fa      	beq.n	20 <_ZN23Adafruit_BusIO_Register5writeEPhh+0x20>
  2a:	7a1e      	ldrb	r6, [r3, #8]
  2c:	fa5f f58c 	uxtb.w	r5, ip
  30:	2e03      	cmp	r6, #3
  32:	d021      	beq.n	78 <_ZN23Adafruit_BusIO_Register5writeEPhh+0x78>
  34:	460c      	mov	r4, r1
  36:	4696      	mov	lr, r2
  38:	b176      	cbz	r6, 58 <_ZN23Adafruit_BusIO_Register5writeEPhh+0x58>
  3a:	2e02      	cmp	r6, #2
  3c:	d111      	bne.n	62 <_ZN23Adafruit_BusIO_Register5writeEPhh+0x62>
  3e:	f065 057f 	orn	r5, r5, #127	; 0x7f
  42:	f88d 500c 	strb.w	r5, [sp, #12]
  46:	7b5d      	ldrb	r5, [r3, #13]
  48:	4672      	mov	r2, lr
  4a:	ab03      	add	r3, sp, #12
  4c:	4621      	mov	r1, r4
  4e:	9500      	str	r5, [sp, #0]
  50:	f7ff fffe 	bl	0 <_ZN18Adafruit_SPIDevice5writeEPKhjS1_j>
  54:	b004      	add	sp, #16
  56:	bd70      	pop	{r4, r5, r6, pc}
  58:	f005 057f 	and.w	r5, r5, #127	; 0x7f
  5c:	f88d 500c 	strb.w	r5, [sp, #12]
  60:	e7f1      	b.n	46 <_ZN23Adafruit_BusIO_Register5writeEPhh+0x46>
  62:	2e01      	cmp	r6, #1
  64:	d1ef      	bne.n	46 <_ZN23Adafruit_BusIO_Register5writeEPhh+0x46>
  66:	f89d 200c 	ldrb.w	r2, [sp, #12]
  6a:	f002 027f 	and.w	r2, r2, #127	; 0x7f
  6e:	f042 0240 	orr.w	r2, r2, #64	; 0x40
  72:	f88d 200c 	strb.w	r2, [sp, #12]
  76:	e7e6      	b.n	46 <_ZN23Adafruit_BusIO_Register5writeEPhh+0x46>
  78:	7b5c      	ldrb	r4, [r3, #13]
  7a:	ea4f 2c1c 	mov.w	ip, ip, lsr #8
  7e:	ab03      	add	r3, sp, #12
  80:	f88d 500d 	strb.w	r5, [sp, #13]
  84:	3401      	adds	r4, #1
  86:	f02c 0c01 	bic.w	ip, ip, #1
  8a:	9400      	str	r4, [sp, #0]
  8c:	f88d c00c 	strb.w	ip, [sp, #12]
  90:	f7ff fffe 	bl	0 <_ZN18Adafruit_SPIDevice5writeEPKhjS1_j>
  94:	e7c4      	b.n	20 <_ZN23Adafruit_BusIO_Register5writeEPhh+0x20>
  96:	bf00      	nop

Disassembly of section .text._ZN23Adafruit_BusIO_Register5writeEmh:

00000000 <_ZN23Adafruit_BusIO_Register5writeEmh>:
   0:	b530      	push	{r4, r5, lr}
   2:	b962      	cbnz	r2, 1e <_ZN23Adafruit_BusIO_Register5writeEmh+0x1e>
   4:	7b04      	ldrb	r4, [r0, #12]
   6:	2c04      	cmp	r4, #4
   8:	d824      	bhi.n	54 <_ZN23Adafruit_BusIO_Register5writeEmh+0x54>
   a:	6141      	str	r1, [r0, #20]
   c:	b95c      	cbnz	r4, 26 <_ZN23Adafruit_BusIO_Register5writeEmh+0x26>
   e:	f100 0e0f 	add.w	lr, r0, #15
  12:	4622      	mov	r2, r4
  14:	4671      	mov	r1, lr
  16:	e8bd 4030 	ldmia.w	sp!, {r4, r5, lr}
  1a:	f7ff bffe 	b.w	0 <_ZN23Adafruit_BusIO_Register5writeEmh>
  1e:	2a04      	cmp	r2, #4
  20:	4614      	mov	r4, r2
  22:	d817      	bhi.n	54 <_ZN23Adafruit_BusIO_Register5writeEmh+0x54>
  24:	6141      	str	r1, [r0, #20]
  26:	f100 0e0f 	add.w	lr, r0, #15
  2a:	f104 030e 	add.w	r3, r4, #14
  2e:	7b85      	ldrb	r5, [r0, #14]
  30:	f100 020e 	add.w	r2, r0, #14
  34:	fa50 f383 	uxtab	r3, r0, r3
  38:	46f4      	mov	ip, lr
  3a:	b94d      	cbnz	r5, 50 <_ZN23Adafruit_BusIO_Register5writeEmh+0x50>
  3c:	f88c 1000 	strb.w	r1, [ip]
  40:	3b01      	subs	r3, #1
  42:	0a09      	lsrs	r1, r1, #8
  44:	f10c 0c01 	add.w	ip, ip, #1
  48:	4293      	cmp	r3, r2
  4a:	d0e2      	beq.n	12 <_ZN23Adafruit_BusIO_Register5writeEmh+0x12>
  4c:	2d00      	cmp	r5, #0
  4e:	d0f5      	beq.n	3c <_ZN23Adafruit_BusIO_Register5writeEmh+0x3c>
  50:	7019      	strb	r1, [r3, #0]
  52:	e7f5      	b.n	40 <_ZN23Adafruit_BusIO_Register5writeEmh+0x40>
  54:	2000      	movs	r0, #0
  56:	bd30      	pop	{r4, r5, pc}

Disassembly of section .text._ZN23Adafruit_BusIO_Register10readCachedEv:

00000000 <_ZN23Adafruit_BusIO_Register10readCachedEv>:
   0:	6940      	ldr	r0, [r0, #20]
   2:	4770      	bx	lr

Disassembly of section .text._ZN23Adafruit_BusIO_Register4readEPhh:

00000000 <_ZN23Adafruit_BusIO_Register4readEPhh>:
   0:	b510      	push	{r4, lr}
   2:	4684      	mov	ip, r0
   4:	b084      	sub	sp, #16
   6:	8940      	ldrh	r0, [r0, #10]
   8:	4614      	mov	r4, r2
   a:	460b      	mov	r3, r1
   c:	b2c2      	uxtb	r2, r0
   e:	f8ad 000c 	strh.w	r0, [sp, #12]
  12:	ea4f 2e10 	mov.w	lr, r0, lsr #8
  16:	f8dc 0000 	ldr.w	r0, [ip]
  1a:	b148      	cbz	r0, 30 <_ZN23Adafruit_BusIO_Register4readEPhh+0x30>
  1c:	2100      	movs	r1, #0
  1e:	f89c 200d 	ldrb.w	r2, [ip, #13]
  22:	9400      	str	r4, [sp, #0]
  24:	9101      	str	r1, [sp, #4]
  26:	a903      	add	r1, sp, #12
  28:	f7ff fffe 	bl	0 <_ZN18Adafruit_I2CDevice15write_then_readEPKhjPhjb>
  2c:	b004      	add	sp, #16
  2e:	bd10      	pop	{r4, pc}
  30:	f8dc 0004 	ldr.w	r0, [ip, #4]
  34:	2800      	cmp	r0, #0
  36:	d0f9      	beq.n	2c <_ZN23Adafruit_BusIO_Register4readEPhh+0x2c>
  38:	f89c 1008 	ldrb.w	r1, [ip, #8]
  3c:	2903      	cmp	r1, #3
  3e:	d01e      	beq.n	7e <_ZN23Adafruit_BusIO_Register4readEPhh+0x7e>
  40:	b179      	cbz	r1, 62 <_ZN23Adafruit_BusIO_Register4readEPhh+0x62>
  42:	2902      	cmp	r1, #2
  44:	d112      	bne.n	6c <_ZN23Adafruit_BusIO_Register4readEPhh+0x6c>
  46:	f002 027f 	and.w	r2, r2, #127	; 0x7f
  4a:	f88d 200c 	strb.w	r2, [sp, #12]
  4e:	21ff      	movs	r1, #255	; 0xff
  50:	f89c 200d 	ldrb.w	r2, [ip, #13]
  54:	9400      	str	r4, [sp, #0]
  56:	9101      	str	r1, [sp, #4]
  58:	a903      	add	r1, sp, #12
  5a:	f7ff fffe 	bl	0 <_ZN18Adafruit_SPIDevice15write_then_readEPKhjPhjh>
  5e:	b004      	add	sp, #16
  60:	bd10      	pop	{r4, pc}
  62:	f062 027f 	orn	r2, r2, #127	; 0x7f
  66:	f88d 200c 	strb.w	r2, [sp, #12]
  6a:	e7f0      	b.n	4e <_ZN23Adafruit_BusIO_Register4readEPhh+0x4e>
  6c:	2901      	cmp	r1, #1
  6e:	d1ee      	bne.n	4e <_ZN23Adafruit_BusIO_Register4readEPhh+0x4e>
  70:	f89d 200c 	ldrb.w	r2, [sp, #12]
  74:	f062 023f 	orn	r2, r2, #63	; 0x3f
  78:	f88d 200c 	strb.w	r2, [sp, #12]
  7c:	e7e7      	b.n	4e <_ZN23Adafruit_BusIO_Register4readEPhh+0x4e>
  7e:	21ff      	movs	r1, #255	; 0xff
  80:	9400      	str	r4, [sp, #0]
  82:	f88d 200d 	strb.w	r2, [sp, #13]
  86:	f04e 0e01 	orr.w	lr, lr, #1
  8a:	f89c 200d 	ldrb.w	r2, [ip, #13]
  8e:	9101      	str	r1, [sp, #4]
  90:	a903      	add	r1, sp, #12
  92:	3201      	adds	r2, #1
  94:	f88d e00c 	strb.w	lr, [sp, #12]
  98:	f7ff fffe 	bl	0 <_ZN18Adafruit_SPIDevice15write_then_readEPKhjPhjh>
  9c:	e7c6      	b.n	2c <_ZN23Adafruit_BusIO_Register4readEPhh+0x2c>
  9e:	bf00      	nop

Disassembly of section .text._ZN23Adafruit_BusIO_Register4readEv:

00000000 <_ZN23Adafruit_BusIO_Register4readEv>:
   0:	b570      	push	{r4, r5, r6, lr}
   2:	f100 050f 	add.w	r5, r0, #15
   6:	7b02      	ldrb	r2, [r0, #12]
   8:	4604      	mov	r4, r0
   a:	4629      	mov	r1, r5
   c:	f7ff fffe 	bl	0 <_ZN23Adafruit_BusIO_Register4readEv>
  10:	b1a0      	cbz	r0, 3c <_ZN23Adafruit_BusIO_Register4readEv+0x3c>
  12:	7b20      	ldrb	r0, [r4, #12]
  14:	b170      	cbz	r0, 34 <_ZN23Adafruit_BusIO_Register4readEv+0x34>
  16:	300e      	adds	r0, #14
  18:	7ba6      	ldrb	r6, [r4, #14]
  1a:	4629      	mov	r1, r5
  1c:	f104 020e 	add.w	r2, r4, #14
  20:	1823      	adds	r3, r4, r0
  22:	2000      	movs	r0, #0
  24:	0200      	lsls	r0, r0, #8
  26:	b936      	cbnz	r6, 36 <_ZN23Adafruit_BusIO_Register4readEv+0x36>
  28:	781c      	ldrb	r4, [r3, #0]
  2a:	4320      	orrs	r0, r4
  2c:	3b01      	subs	r3, #1
  2e:	3101      	adds	r1, #1
  30:	4293      	cmp	r3, r2
  32:	d1f7      	bne.n	24 <_ZN23Adafruit_BusIO_Register4readEv+0x24>
  34:	bd70      	pop	{r4, r5, r6, pc}
  36:	780c      	ldrb	r4, [r1, #0]
  38:	4320      	orrs	r0, r4
  3a:	e7f7      	b.n	2c <_ZN23Adafruit_BusIO_Register4readEv+0x2c>
  3c:	f04f 30ff 	mov.w	r0, #4294967295	; 0xffffffff
  40:	bd70      	pop	{r4, r5, r6, pc}
  42:	bf00      	nop

Disassembly of section .text._ZN23Adafruit_BusIO_Register4readEPt:

00000000 <_ZN23Adafruit_BusIO_Register4readEPt>:
   0:	b538      	push	{r3, r4, r5, lr}
   2:	2202      	movs	r2, #2
   4:	460d      	mov	r5, r1
   6:	f100 010f 	add.w	r1, r0, #15
   a:	4604      	mov	r4, r0
   c:	f7ff fffe 	bl	0 <_ZN23Adafruit_BusIO_Register4readEPt>
  10:	b138      	cbz	r0, 22 <_ZN23Adafruit_BusIO_Register4readEPt+0x22>
  12:	7ba3      	ldrb	r3, [r4, #14]
  14:	b933      	cbnz	r3, 24 <_ZN23Adafruit_BusIO_Register4readEPt+0x24>
  16:	7c23      	ldrb	r3, [r4, #16]
  18:	021b      	lsls	r3, r3, #8
  1a:	802b      	strh	r3, [r5, #0]
  1c:	7be2      	ldrb	r2, [r4, #15]
  1e:	4313      	orrs	r3, r2
  20:	802b      	strh	r3, [r5, #0]
  22:	bd38      	pop	{r3, r4, r5, pc}
  24:	7be3      	ldrb	r3, [r4, #15]
  26:	021b      	lsls	r3, r3, #8
  28:	802b      	strh	r3, [r5, #0]
  2a:	7c22      	ldrb	r2, [r4, #16]
  2c:	4313      	orrs	r3, r2
  2e:	802b      	strh	r3, [r5, #0]
  30:	bd38      	pop	{r3, r4, r5, pc}
  32:	bf00      	nop

Disassembly of section .text._ZN23Adafruit_BusIO_Register4readEPh:

00000000 <_ZN23Adafruit_BusIO_Register4readEPh>:
   0:	b538      	push	{r3, r4, r5, lr}
   2:	2201      	movs	r2, #1
   4:	460d      	mov	r5, r1
   6:	f100 010f 	add.w	r1, r0, #15
   a:	4604      	mov	r4, r0
   c:	f7ff fffe 	bl	0 <_ZN23Adafruit_BusIO_Register4readEPh>
  10:	b108      	cbz	r0, 16 <_ZN23Adafruit_BusIO_Register4readEPh+0x16>
  12:	7be3      	ldrb	r3, [r4, #15]
  14:	702b      	strb	r3, [r5, #0]
  16:	bd38      	pop	{r3, r4, r5, pc}

Disassembly of section .text._ZN23Adafruit_BusIO_Register5printEP6Stream:

00000000 <_ZN23Adafruit_BusIO_Register5printEP6Stream>:
   0:	b570      	push	{r4, r5, r6, lr}
   2:	460c      	mov	r4, r1
   4:	f7ff fffe 	bl	0 <_ZN23Adafruit_BusIO_Register5printEP6Stream>
   8:	4605      	mov	r5, r0
   a:	2202      	movs	r2, #2
   c:	6823      	ldr	r3, [r4, #0]
   e:	4620      	mov	r0, r4
  10:	4905      	ldr	r1, [pc, #20]	; (28 <_ZN23Adafruit_BusIO_Register5printEP6Stream+0x28>)
  12:	685b      	ldr	r3, [r3, #4]
  14:	4798      	blx	r3
  16:	4629      	mov	r1, r5
  18:	4620      	mov	r0, r4
  1a:	2300      	movs	r3, #0
  1c:	2210      	movs	r2, #16
  1e:	e8bd 4070 	ldmia.w	sp!, {r4, r5, r6, lr}
  22:	f7ff bffe 	b.w	0 <_ZN5Print11printNumberEmhh>
  26:	bf00      	nop
  28:	00000000 	.word	0x00000000

Disassembly of section .text._ZN23Adafruit_BusIO_Register7printlnEP6Stream:

00000000 <_ZN23Adafruit_BusIO_Register7printlnEP6Stream>:
   0:	b510      	push	{r4, lr}
   2:	460c      	mov	r4, r1
   4:	f7ff fffe 	bl	0 <_ZN23Adafruit_BusIO_Register7printlnEP6Stream>
   8:	4620      	mov	r0, r4
   a:	e8bd 4010 	ldmia.w	sp!, {r4, lr}
   e:	f7ff bffe 	b.w	0 <_ZN5Print7printlnEv>
  12:	bf00      	nop

Disassembly of section .text._ZN27Adafruit_BusIO_RegisterBitsC2EP23Adafruit_BusIO_Registerhh:

00000000 <_ZN27Adafruit_BusIO_RegisterBitsC1EP23Adafruit_BusIO_Registerhh>:
   0:	6001      	str	r1, [r0, #0]
   2:	7102      	strb	r2, [r0, #4]
   4:	7143      	strb	r3, [r0, #5]
   6:	4770      	bx	lr

Disassembly of section .text._ZN27Adafruit_BusIO_RegisterBits4readEv:

00000000 <_ZN27Adafruit_BusIO_RegisterBits4readEv>:
   0:	b510      	push	{r4, lr}
   2:	4604      	mov	r4, r0
   4:	6800      	ldr	r0, [r0, #0]
   6:	f7ff fffe 	bl	0 <_ZN27Adafruit_BusIO_RegisterBits4readEv>
   a:	2301      	movs	r3, #1
   c:	7921      	ldrb	r1, [r4, #4]
   e:	7962      	ldrb	r2, [r4, #5]
  10:	408b      	lsls	r3, r1
  12:	40d0      	lsrs	r0, r2
  14:	3b01      	subs	r3, #1
  16:	4018      	ands	r0, r3
  18:	bd10      	pop	{r4, pc}
  1a:	bf00      	nop

Disassembly of section .text._ZN27Adafruit_BusIO_RegisterBits5writeEm:

00000000 <_ZN27Adafruit_BusIO_RegisterBits5writeEm>:
   0:	b538      	push	{r3, r4, r5, lr}
   2:	4605      	mov	r5, r0
   4:	6800      	ldr	r0, [r0, #0]
   6:	460c      	mov	r4, r1
   8:	f7ff fffe 	bl	0 <_ZN27Adafruit_BusIO_RegisterBits5writeEm>
   c:	792a      	ldrb	r2, [r5, #4]
   e:	2301      	movs	r3, #1
  10:	4093      	lsls	r3, r2
  12:	796a      	ldrb	r2, [r5, #5]
  14:	682d      	ldr	r5, [r5, #0]
  16:	3b01      	subs	r3, #1
  18:	401c      	ands	r4, r3
  1a:	4093      	lsls	r3, r2
  1c:	4094      	lsls	r4, r2
  1e:	ea20 0103 	bic.w	r1, r0, r3
  22:	7b2a      	ldrb	r2, [r5, #12]
  24:	4628      	mov	r0, r5
  26:	4321      	orrs	r1, r4
  28:	e8bd 4038 	ldmia.w	sp!, {r3, r4, r5, lr}
  2c:	f7ff bffe 	b.w	0 <_ZN27Adafruit_BusIO_RegisterBits5writeEm>

Disassembly of section .text._ZN23Adafruit_BusIO_Register5widthEv:

00000000 <_ZN23Adafruit_BusIO_Register5widthEv>:
   0:	7b00      	ldrb	r0, [r0, #12]
   2:	4770      	bx	lr

Disassembly of section .text._ZN23Adafruit_BusIO_Register8setWidthEh:

00000000 <_ZN23Adafruit_BusIO_Register8setWidthEh>:
   0:	7301      	strb	r1, [r0, #12]
   2:	4770      	bx	lr

Disassembly of section .text._ZN23Adafruit_BusIO_Register10setAddressEt:

00000000 <_ZN23Adafruit_BusIO_Register10setAddressEt>:
   0:	8141      	strh	r1, [r0, #10]
   2:	4770      	bx	lr

Disassembly of section .text._ZN23Adafruit_BusIO_Register15setAddressWidthEt:

00000000 <_ZN23Adafruit_BusIO_Register15setAddressWidthEt>:
   0:	7341      	strb	r1, [r0, #13]
   2:	4770      	bx	lr
