
build/./libraries/Adafruit_LSM6DS/Adafruit_LSM6DSO32.cpp.o:     file format elf32-littlearm

SYMBOL TABLE:
00000000 l    df *ABS*	00000000 Adafruit_LSM6DSO32.cpp
00000000 l    d  .text	00000000 .text
00000000 l    d  .data	00000000 .data
00000000 l    d  .bss	00000000 .bss
00000000 l    d  .text._ZN18Adafruit_LSM6DSO32D2Ev	00000000 .text._ZN18Adafruit_LSM6DSO32D2Ev
00000000 l    d  .text._ZN18Adafruit_LSM6DSO32D0Ev	00000000 .text._ZN18Adafruit_LSM6DSO32D0Ev
00000000 l    d  .text._ZN18Adafruit_LSM6DSO32C2Ev	00000000 .text._ZN18Adafruit_LSM6DSO32C2Ev
00000000 l    d  .text._ZN18Adafruit_LSM6DSO3213getAccelRangeEv	00000000 .text._ZN18Adafruit_LSM6DSO3213getAccelRangeEv
00000000 l    d  .text._ZN18Adafruit_LSM6DSO325_readEv	00000000 .text._ZN18Adafruit_LSM6DSO325_readEv
00000000 l    d  .text._ZN18Adafruit_LSM6DSO3213setAccelRangeE17dso32_accel_range	00000000 .text._ZN18Adafruit_LSM6DSO3213setAccelRangeE17dso32_accel_range
00000000 l    d  .text._ZN18Adafruit_LSM6DSO325_initEl	00000000 .text._ZN18Adafruit_LSM6DSO325_initEl
00000000 l    d  .rodata._ZTV18Adafruit_LSM6DSO32	00000000 .rodata._ZTV18Adafruit_LSM6DSO32
00000000 l       .group	00000000 _ZN18Adafruit_LSM6DSO32D5Ev
00000000 l    d  .comment	00000000 .comment
00000000 l    d  .ARM.attributes	00000000 .ARM.attributes
00000000 l    d  .group	00000000 .group
00000000  w    F .text._ZN18Adafruit_LSM6DSO32D2Ev	00000014 _ZN18Adafruit_LSM6DSO32D2Ev
00000000         *UND*	00000000 _ZN15Adafruit_LSM6DSD2Ev
00000000         *UND*	00000000 _ZTV17Adafruit_LSM6DSOX
00000000  w    F .text._ZN18Adafruit_LSM6DSO32D2Ev	00000014 _ZN18Adafruit_LSM6DSO32D1Ev
00000000  w    F .text._ZN18Adafruit_LSM6DSO32D0Ev	0000001c _ZN18Adafruit_LSM6DSO32D0Ev
00000000         *UND*	00000000 _ZdlPvj
00000000 g     F .text._ZN18Adafruit_LSM6DSO32C2Ev	00000014 _ZN18Adafruit_LSM6DSO32C2Ev
00000000         *UND*	00000000 _ZN17Adafruit_LSM6DSOXC2Ev
00000000 g     F .text._ZN18Adafruit_LSM6DSO32C2Ev	00000014 _ZN18Adafruit_LSM6DSO32C1Ev
00000000 g     F .text._ZN18Adafruit_LSM6DSO3213getAccelRangeEv	00000036 _ZN18Adafruit_LSM6DSO3213getAccelRangeEv
00000000         *UND*	00000000 _ZN23Adafruit_BusIO_RegisterC1EP18Adafruit_I2CDeviceP18Adafruit_SPIDevice26_Adafruit_BusIO_SPIRegTypethhh
00000000         *UND*	00000000 _ZN27Adafruit_BusIO_RegisterBitsC1EP23Adafruit_BusIO_Registerhh
00000000         *UND*	00000000 _ZN27Adafruit_BusIO_RegisterBits4readEv
00000000 g     F .text._ZN18Adafruit_LSM6DSO325_readEv	000001dc _ZN18Adafruit_LSM6DSO325_readEv
00000000         *UND*	00000000 _ZN23Adafruit_BusIO_Register4readEPhh
00000000         *UND*	00000000 _ZN15Adafruit_LSM6DS12getGyroRangeEv
00000000 g     F .text._ZN18Adafruit_LSM6DSO3213setAccelRangeE17dso32_accel_range	0000003c _ZN18Adafruit_LSM6DSO3213setAccelRangeE17dso32_accel_range
00000000         *UND*	00000000 _ZN27Adafruit_BusIO_RegisterBits5writeEm
00000000         *UND*	00000000 delay
00000000 g     F .text._ZN18Adafruit_LSM6DSO325_initEl	000000a6 _ZN18Adafruit_LSM6DSO325_initEl
00000000         *UND*	00000000 _ZN23Adafruit_BusIO_Register4readEv
00000000         *UND*	00000000 _ZN15Adafruit_LSM6DS5resetEv
00000000         *UND*	00000000 _ZN15Adafruit_LSM6DS5_initEl
00000000 g     O .rodata._ZTV18Adafruit_LSM6DSO32	00000018 _ZTV18Adafruit_LSM6DSO32


Contents of section .group:
 0000 01000000 05000000 06000000 07000000  ................
 0010 08000000                             ....            
Contents of section .text._ZN18Adafruit_LSM6DSO32D2Ev:
 0000 034b10b5 04460360 fff7feff 204610bd  .K...F.`.... F..
 0010 08000000                             ....            
Contents of section .text._ZN18Adafruit_LSM6DSO32D0Ev:
 0000 054b10b5 04460360 fff7feff 54212046  .K...F.`....T! F
 0010 fff7feff 204610bd 08000000           .... F......    
Contents of section .text._ZN18Adafruit_LSM6DSO32C2Ev:
 0000 10b50446 fff7feff 014b2046 236010bd  ...F.....K F#`..
 0010 08000000                             ....            
Contents of section .text._ZN18Adafruit_LSM6DSO3213getAccelRangeEv:
 0000 00b50122 8db00023 1021cde9 0232cde9  ..."...#.!...2..
 0010 0012d0e9 0e1206a8 fff7feff 022306a9  .............#..
 0020 04a81a46 fff7feff 04a8fff7 feffc0b2  ...F............
 0030 0db05df8 04fb00bf                    ..].....        
Contents of section .text._ZN18Adafruit_LSM6DSO325_readEv:
 0000 30b50023 8fb00122 0e250446 0195cde9  0..#...".%.F....
 0010 02322022 0092d0e9 0e1208a8 fff7feff  .2 "............
 0020 2a4604a9 08a8fff7 feffbdf9 1030b3ee  *F...........0..
 0030 097bbdf8 122005ee 903abdf8 1400bdf8  .{... ...:......
 0040 1610b8ee e55b6381 a281bdf8 1c30069a  .....[c......0..
 0050 e0812046 21826260 23819fed 516ba5ee  .. F!.b`#...Qk..
 0060 067bb7ee c77b84ed 057afff7 feff0128  .{...{...z.....(
 0070 7fd00c28 6ad19fed 4c6ab4f9 0c302046  ...(j...Lj...0 F
 0080 9fed4a5a 06ee903a b4f90e30 dfed485a  ..JZ...:...0..HZ
 0090 07ee103a b4f91030 f8eee66a 07ee903a  ...:...0...j...:
 00a0 b8eec77a f8eee77a 66ee866a 27ee067a  ...z...zf..j'..z
 00b0 67ee867a 66ee856a 27ee057a 67ee857a  g..zf..j'..zg..z
 00c0 86eea56a c7ee256a 87eea57a 84ed096a  ...j..%j...z...j
 00d0 c4ed0a6a 84ed0b7a fff7feff 012845d0  ...j...z.....(E.
 00e0 032840d0 022836d1 9fed326a b4f90430  .(@..(6...2j...0
 00f0 9fed315a 06ee903a b4f90630 dfed2c5a  ..1Z...:...0..,Z
 0100 07ee103a b4f90830 f8eee66a 07ee903a  ...:...0...j...:
 0110 b8eec77a f8eee77a 66ee866a 27ee067a  ...z...zf..j'..z
 0120 67ee867a 66ee856a 27ee057a 67ee857a  g..zf..j'..zg..z
 0130 86eea56a c7ee256a 87eea57a 84ed066a  ...j..%j...z...j
 0140 c4ed076a 84ed087a 0fb030bd 082813d1  ...j...z..0..(..
 0150 9fed1a6a 91e7b7ee 006adfed 197a0028  ...j.....j...z.(
 0160 07fe866a c2e79fed 176abfe7 9fed166a  ...j.....j.....j
 0170 bce79fed 166a80e7 042802d1 9fed146a  .....j...(.....j
 0180 7be710b9 9fed136a 77e7b7ee 006adfed  {......jw....j..
 0190 127a0228 07fe866a 6fe700bf aff30080  .z.(...jo.......
 01a0 00000000 0000703f 00008c42 35fa8e3c  ......p?...B5..<
 01b0 00007a44 23db793e 0ae81c41 00000c42  ..zD#.y>...A...B
 01c0 23dbf93d 23dbf93e 23db793f 00000c43  #..=#..>#.y?...C
 01d0 00008c41 00000c41 00008c40           ...A...A...@    
Contents of section .text._ZN18Adafruit_LSM6DSO3213setAccelRangeE17dso32_accel_range:
 0000 10b50023 8cb00122 0c46cde9 02320192  ...#...".F...2..
 0010 10220092 d0e90e12 06a8fff7 feff0223  .".............#
 0020 06a904a8 1a46fff7 feff2146 04a8fff7  .....F....!F....
 0030 feff1420 fff7feff 0cb010bd           ... ........    
Contents of section .text._ZN18Adafruit_LSM6DSO325_initEl:
 0000 f0b50f23 9bb00127 00260093 04463346  ...#...'.&...F3F
 0010 01970d46 cde90267 d0e90e12 08a8fff7  ...F...g........
 0020 feff08a8 fff7feff 6c2802d0 30461bb0  ........l(..0F..
 0030 f0bdabb2 2046da19 23860233 6286a386  .... F..#..3b...
 0040 fff7feff 12230197 0ea80093 3346cde9  .....#......3F..
 0050 0267d4e9 0e12fff7 feff3a46 0ea90623  .g........:F...#
 0060 04a8fff7 feff3946 04a8fff7 feff1822  ......9F......."
 0070 33460197 009214a8 cde90267 d4e90e12  3F.........g....
 0080 fff7feff 3b463a46 14a906a8 fff7feff  ....;F:F........
 0090 394606a8 fff7feff 29462046 fff7feff  9F......)F F....
 00a0 38461bb0 f0bd00bf                    8F......        
Contents of section .rodata._ZTV18Adafruit_LSM6DSO32:
 0000 00000000 00000000 00000000 00000000  ................
 0010 00000000 00000000                    ........        
Contents of section .comment:
 0000 00474343 3a202841 726d2047 4e552054  .GCC: (Arm GNU T
 0010 6f6f6c63 6861696e 2031312e 332e5265  oolchain 11.3.Re
 0020 6c312920 31312e33 2e312032 30323230  l1) 11.3.1 20220
 0030 37313200                             712.            
Contents of section .ARM.attributes:
 0000 41310000 00616561 62690001 27000000  A1...aeabi..'...
 0010 0537452d 4d00060d 074d0902 0a081204  .7E-M....M......
 0020 14011501 17031801 19011a01 1c011e02  ................
 0030 2201                                 ".              

Disassembly of section .text._ZN18Adafruit_LSM6DSO32D2Ev:

00000000 <_ZN18Adafruit_LSM6DSO32D1Ev>:
   0:	4b03      	ldr	r3, [pc, #12]	; (10 <_ZN18Adafruit_LSM6DSO32D1Ev+0x10>)
   2:	b510      	push	{r4, lr}
   4:	4604      	mov	r4, r0
   6:	6003      	str	r3, [r0, #0]
   8:	f7ff fffe 	bl	0 <_ZN15Adafruit_LSM6DSD2Ev>
   c:	4620      	mov	r0, r4
   e:	bd10      	pop	{r4, pc}
  10:	00000008 	.word	0x00000008

Disassembly of section .text._ZN18Adafruit_LSM6DSO32D0Ev:

00000000 <_ZN18Adafruit_LSM6DSO32D0Ev>:
   0:	4b05      	ldr	r3, [pc, #20]	; (18 <_ZN18Adafruit_LSM6DSO32D0Ev+0x18>)
   2:	b510      	push	{r4, lr}
   4:	4604      	mov	r4, r0
   6:	6003      	str	r3, [r0, #0]
   8:	f7ff fffe 	bl	0 <_ZN15Adafruit_LSM6DSD2Ev>
   c:	2154      	movs	r1, #84	; 0x54
   e:	4620      	mov	r0, r4
  10:	f7ff fffe 	bl	0 <_ZdlPvj>
  14:	4620      	mov	r0, r4
  16:	bd10      	pop	{r4, pc}
  18:	00000008 	.word	0x00000008

Disassembly of section .text._ZN18Adafruit_LSM6DSO32C2Ev:

00000000 <_ZN18Adafruit_LSM6DSO32C1Ev>:
   0:	b510      	push	{r4, lr}
   2:	4604      	mov	r4, r0
   4:	f7ff fffe 	bl	0 <_ZN17Adafruit_LSM6DSOXC2Ev>
   8:	4b01      	ldr	r3, [pc, #4]	; (10 <_ZN18Adafruit_LSM6DSO32C1Ev+0x10>)
   a:	4620      	mov	r0, r4
   c:	6023      	str	r3, [r4, #0]
   e:	bd10      	pop	{r4, pc}
  10:	00000008 	.word	0x00000008

Disassembly of section .text._ZN18Adafruit_LSM6DSO3213getAccelRangeEv:

00000000 <_ZN18Adafruit_LSM6DSO3213getAccelRangeEv>:
   0:	b500      	push	{lr}
   2:	2201      	movs	r2, #1
   4:	b08d      	sub	sp, #52	; 0x34
   6:	2300      	movs	r3, #0
   8:	2110      	movs	r1, #16
   a:	e9cd 3202 	strd	r3, r2, [sp, #8]
   e:	e9cd 1200 	strd	r1, r2, [sp]
  12:	e9d0 120e 	ldrd	r1, r2, [r0, #56]	; 0x38
  16:	a806      	add	r0, sp, #24
  18:	f7ff fffe 	bl	0 <_ZN23Adafruit_BusIO_RegisterC1EP18Adafruit_I2CDeviceP18Adafruit_SPIDevice26_Adafruit_BusIO_SPIRegTypethhh>
  1c:	2302      	movs	r3, #2
  1e:	a906      	add	r1, sp, #24
  20:	a804      	add	r0, sp, #16
  22:	461a      	mov	r2, r3
  24:	f7ff fffe 	bl	0 <_ZN27Adafruit_BusIO_RegisterBitsC1EP23Adafruit_BusIO_Registerhh>
  28:	a804      	add	r0, sp, #16
  2a:	f7ff fffe 	bl	0 <_ZN27Adafruit_BusIO_RegisterBits4readEv>
  2e:	b2c0      	uxtb	r0, r0
  30:	b00d      	add	sp, #52	; 0x34
  32:	f85d fb04 	ldr.w	pc, [sp], #4
  36:	bf00      	nop

Disassembly of section .text._ZN18Adafruit_LSM6DSO325_readEv:

00000000 <_ZN18Adafruit_LSM6DSO325_readEv>:
   0:	b530      	push	{r4, r5, lr}
   2:	2300      	movs	r3, #0
   4:	b08f      	sub	sp, #60	; 0x3c
   6:	2201      	movs	r2, #1
   8:	250e      	movs	r5, #14
   a:	4604      	mov	r4, r0
   c:	9501      	str	r5, [sp, #4]
   e:	e9cd 3202 	strd	r3, r2, [sp, #8]
  12:	2220      	movs	r2, #32
  14:	9200      	str	r2, [sp, #0]
  16:	e9d0 120e 	ldrd	r1, r2, [r0, #56]	; 0x38
  1a:	a808      	add	r0, sp, #32
  1c:	f7ff fffe 	bl	0 <_ZN23Adafruit_BusIO_RegisterC1EP18Adafruit_I2CDeviceP18Adafruit_SPIDevice26_Adafruit_BusIO_SPIRegTypethhh>
  20:	462a      	mov	r2, r5
  22:	a904      	add	r1, sp, #16
  24:	a808      	add	r0, sp, #32
  26:	f7ff fffe 	bl	0 <_ZN23Adafruit_BusIO_Register4readEPhh>
  2a:	f9bd 3010 	ldrsh.w	r3, [sp, #16]
  2e:	eeb3 7b09 	vmov.f64	d7, #57	; 0x41c80000  25.0
  32:	f8bd 2012 	ldrh.w	r2, [sp, #18]
  36:	ee05 3a90 	vmov	s11, r3
  3a:	f8bd 0014 	ldrh.w	r0, [sp, #20]
  3e:	f8bd 1016 	ldrh.w	r1, [sp, #22]
  42:	eeb8 5be5 	vcvt.f64.s32	d5, s11
  46:	8163      	strh	r3, [r4, #10]
  48:	81a2      	strh	r2, [r4, #12]
  4a:	f8bd 301c 	ldrh.w	r3, [sp, #28]
  4e:	9a06      	ldr	r2, [sp, #24]
  50:	81e0      	strh	r0, [r4, #14]
  52:	4620      	mov	r0, r4
  54:	8221      	strh	r1, [r4, #16]
  56:	6062      	str	r2, [r4, #4]
  58:	8123      	strh	r3, [r4, #8]
  5a:	ed9f 6b51 	vldr	d6, [pc, #324]	; 1a0 <_ZN18Adafruit_LSM6DSO325_readEv+0x1a0>
  5e:	eea5 7b06 	vfma.f64	d7, d5, d6
  62:	eeb7 7bc7 	vcvt.f32.f64	s14, d7
  66:	ed84 7a05 	vstr	s14, [r4, #20]
  6a:	f7ff fffe 	bl	0 <_ZN15Adafruit_LSM6DS12getGyroRangeEv>
  6e:	2801      	cmp	r0, #1
  70:	d07f      	beq.n	172 <_ZN18Adafruit_LSM6DSO325_readEv+0x172>
  72:	280c      	cmp	r0, #12
  74:	d16a      	bne.n	14c <_ZN18Adafruit_LSM6DSO325_readEv+0x14c>
  76:	ed9f 6a4c 	vldr	s12, [pc, #304]	; 1a8 <_ZN18Adafruit_LSM6DSO325_readEv+0x1a8>
  7a:	f9b4 300c 	ldrsh.w	r3, [r4, #12]
  7e:	4620      	mov	r0, r4
  80:	ed9f 5a4a 	vldr	s10, [pc, #296]	; 1ac <_ZN18Adafruit_LSM6DSO325_readEv+0x1ac>
  84:	ee06 3a90 	vmov	s13, r3
  88:	f9b4 300e 	ldrsh.w	r3, [r4, #14]
  8c:	eddf 5a48 	vldr	s11, [pc, #288]	; 1b0 <_ZN18Adafruit_LSM6DSO325_readEv+0x1b0>
  90:	ee07 3a10 	vmov	s14, r3
  94:	f9b4 3010 	ldrsh.w	r3, [r4, #16]
  98:	eef8 6ae6 	vcvt.f32.s32	s13, s13
  9c:	ee07 3a90 	vmov	s15, r3
  a0:	eeb8 7ac7 	vcvt.f32.s32	s14, s14
  a4:	eef8 7ae7 	vcvt.f32.s32	s15, s15
  a8:	ee66 6a86 	vmul.f32	s13, s13, s12
  ac:	ee27 7a06 	vmul.f32	s14, s14, s12
  b0:	ee67 7a86 	vmul.f32	s15, s15, s12
  b4:	ee66 6a85 	vmul.f32	s13, s13, s10
  b8:	ee27 7a05 	vmul.f32	s14, s14, s10
  bc:	ee67 7a85 	vmul.f32	s15, s15, s10
  c0:	ee86 6aa5 	vdiv.f32	s12, s13, s11
  c4:	eec7 6a25 	vdiv.f32	s13, s14, s11
  c8:	ee87 7aa5 	vdiv.f32	s14, s15, s11
  cc:	ed84 6a09 	vstr	s12, [r4, #36]	; 0x24
  d0:	edc4 6a0a 	vstr	s13, [r4, #40]	; 0x28
  d4:	ed84 7a0b 	vstr	s14, [r4, #44]	; 0x2c
  d8:	f7ff fffe 	bl	0 <_ZN18Adafruit_LSM6DSO325_readEv>
  dc:	2801      	cmp	r0, #1
  de:	d045      	beq.n	16c <_ZN18Adafruit_LSM6DSO325_readEv+0x16c>
  e0:	2803      	cmp	r0, #3
  e2:	d040      	beq.n	166 <_ZN18Adafruit_LSM6DSO325_readEv+0x166>
  e4:	2802      	cmp	r0, #2
  e6:	d136      	bne.n	156 <_ZN18Adafruit_LSM6DSO325_readEv+0x156>
  e8:	ed9f 6a32 	vldr	s12, [pc, #200]	; 1b4 <_ZN18Adafruit_LSM6DSO325_readEv+0x1b4>
  ec:	f9b4 3004 	ldrsh.w	r3, [r4, #4]
  f0:	ed9f 5a31 	vldr	s10, [pc, #196]	; 1b8 <_ZN18Adafruit_LSM6DSO325_readEv+0x1b8>
  f4:	ee06 3a90 	vmov	s13, r3
  f8:	f9b4 3006 	ldrsh.w	r3, [r4, #6]
  fc:	eddf 5a2c 	vldr	s11, [pc, #176]	; 1b0 <_ZN18Adafruit_LSM6DSO325_readEv+0x1b0>
 100:	ee07 3a10 	vmov	s14, r3
 104:	f9b4 3008 	ldrsh.w	r3, [r4, #8]
 108:	eef8 6ae6 	vcvt.f32.s32	s13, s13
 10c:	ee07 3a90 	vmov	s15, r3
 110:	eeb8 7ac7 	vcvt.f32.s32	s14, s14
 114:	eef8 7ae7 	vcvt.f32.s32	s15, s15
 118:	ee66 6a86 	vmul.f32	s13, s13, s12
 11c:	ee27 7a06 	vmul.f32	s14, s14, s12
 120:	ee67 7a86 	vmul.f32	s15, s15, s12
 124:	ee66 6a85 	vmul.f32	s13, s13, s10
 128:	ee27 7a05 	vmul.f32	s14, s14, s10
 12c:	ee67 7a85 	vmul.f32	s15, s15, s10
 130:	ee86 6aa5 	vdiv.f32	s12, s13, s11
 134:	eec7 6a25 	vdiv.f32	s13, s14, s11
 138:	ee87 7aa5 	vdiv.f32	s14, s15, s11
 13c:	ed84 6a06 	vstr	s12, [r4, #24]
 140:	edc4 6a07 	vstr	s13, [r4, #28]
 144:	ed84 7a08 	vstr	s14, [r4, #32]
 148:	b00f      	add	sp, #60	; 0x3c
 14a:	bd30      	pop	{r4, r5, pc}
 14c:	2808      	cmp	r0, #8
 14e:	d113      	bne.n	178 <_ZN18Adafruit_LSM6DSO325_readEv+0x178>
 150:	ed9f 6a1a 	vldr	s12, [pc, #104]	; 1bc <_ZN18Adafruit_LSM6DSO325_readEv+0x1bc>
 154:	e791      	b.n	7a <_ZN18Adafruit_LSM6DSO325_readEv+0x7a>
 156:	eeb7 6a00 	vmov.f32	s12, #112	; 0x3f800000  1.0
 15a:	eddf 7a19 	vldr	s15, [pc, #100]	; 1c0 <_ZN18Adafruit_LSM6DSO325_readEv+0x1c0>
 15e:	2800      	cmp	r0, #0
 160:	fe07 6a86 	vseleq.f32	s12, s15, s12
 164:	e7c2      	b.n	ec <_ZN18Adafruit_LSM6DSO325_readEv+0xec>
 166:	ed9f 6a17 	vldr	s12, [pc, #92]	; 1c4 <_ZN18Adafruit_LSM6DSO325_readEv+0x1c4>
 16a:	e7bf      	b.n	ec <_ZN18Adafruit_LSM6DSO325_readEv+0xec>
 16c:	ed9f 6a16 	vldr	s12, [pc, #88]	; 1c8 <_ZN18Adafruit_LSM6DSO325_readEv+0x1c8>
 170:	e7bc      	b.n	ec <_ZN18Adafruit_LSM6DSO325_readEv+0xec>
 172:	ed9f 6a16 	vldr	s12, [pc, #88]	; 1cc <_ZN18Adafruit_LSM6DSO325_readEv+0x1cc>
 176:	e780      	b.n	7a <_ZN18Adafruit_LSM6DSO325_readEv+0x7a>
 178:	2804      	cmp	r0, #4
 17a:	d102      	bne.n	182 <_ZN18Adafruit_LSM6DSO325_readEv+0x182>
 17c:	ed9f 6a14 	vldr	s12, [pc, #80]	; 1d0 <_ZN18Adafruit_LSM6DSO325_readEv+0x1d0>
 180:	e77b      	b.n	7a <_ZN18Adafruit_LSM6DSO325_readEv+0x7a>
 182:	b910      	cbnz	r0, 18a <_ZN18Adafruit_LSM6DSO325_readEv+0x18a>
 184:	ed9f 6a13 	vldr	s12, [pc, #76]	; 1d4 <_ZN18Adafruit_LSM6DSO325_readEv+0x1d4>
 188:	e777      	b.n	7a <_ZN18Adafruit_LSM6DSO325_readEv+0x7a>
 18a:	eeb7 6a00 	vmov.f32	s12, #112	; 0x3f800000  1.0
 18e:	eddf 7a12 	vldr	s15, [pc, #72]	; 1d8 <_ZN18Adafruit_LSM6DSO325_readEv+0x1d8>
 192:	2802      	cmp	r0, #2
 194:	fe07 6a86 	vseleq.f32	s12, s15, s12
 198:	e76f      	b.n	7a <_ZN18Adafruit_LSM6DSO325_readEv+0x7a>
 19a:	bf00      	nop
 19c:	f3af 8000 	nop.w
 1a0:	00000000 	.word	0x00000000
 1a4:	3f700000 	.word	0x3f700000
 1a8:	428c0000 	.word	0x428c0000
 1ac:	3c8efa35 	.word	0x3c8efa35
 1b0:	447a0000 	.word	0x447a0000
 1b4:	3e79db23 	.word	0x3e79db23
 1b8:	411ce80a 	.word	0x411ce80a
 1bc:	420c0000 	.word	0x420c0000
 1c0:	3df9db23 	.word	0x3df9db23
 1c4:	3ef9db23 	.word	0x3ef9db23
 1c8:	3f79db23 	.word	0x3f79db23
 1cc:	430c0000 	.word	0x430c0000
 1d0:	418c0000 	.word	0x418c0000
 1d4:	410c0000 	.word	0x410c0000
 1d8:	408c0000 	.word	0x408c0000

Disassembly of section .text._ZN18Adafruit_LSM6DSO3213setAccelRangeE17dso32_accel_range:

00000000 <_ZN18Adafruit_LSM6DSO3213setAccelRangeE17dso32_accel_range>:
   0:	b510      	push	{r4, lr}
   2:	2300      	movs	r3, #0
   4:	b08c      	sub	sp, #48	; 0x30
   6:	2201      	movs	r2, #1
   8:	460c      	mov	r4, r1
   a:	e9cd 3202 	strd	r3, r2, [sp, #8]
   e:	9201      	str	r2, [sp, #4]
  10:	2210      	movs	r2, #16
  12:	9200      	str	r2, [sp, #0]
  14:	e9d0 120e 	ldrd	r1, r2, [r0, #56]	; 0x38
  18:	a806      	add	r0, sp, #24
  1a:	f7ff fffe 	bl	0 <_ZN23Adafruit_BusIO_RegisterC1EP18Adafruit_I2CDeviceP18Adafruit_SPIDevice26_Adafruit_BusIO_SPIRegTypethhh>
  1e:	2302      	movs	r3, #2
  20:	a906      	add	r1, sp, #24
  22:	a804      	add	r0, sp, #16
  24:	461a      	mov	r2, r3
  26:	f7ff fffe 	bl	0 <_ZN27Adafruit_BusIO_RegisterBitsC1EP23Adafruit_BusIO_Registerhh>
  2a:	4621      	mov	r1, r4
  2c:	a804      	add	r0, sp, #16
  2e:	f7ff fffe 	bl	0 <_ZN27Adafruit_BusIO_RegisterBits5writeEm>
  32:	2014      	movs	r0, #20
  34:	f7ff fffe 	bl	0 <delay>
  38:	b00c      	add	sp, #48	; 0x30
  3a:	bd10      	pop	{r4, pc}

Disassembly of section .text._ZN18Adafruit_LSM6DSO325_initEl:

00000000 <_ZN18Adafruit_LSM6DSO325_initEl>:
   0:	b5f0      	push	{r4, r5, r6, r7, lr}
   2:	230f      	movs	r3, #15
   4:	b09b      	sub	sp, #108	; 0x6c
   6:	2701      	movs	r7, #1
   8:	2600      	movs	r6, #0
   a:	9300      	str	r3, [sp, #0]
   c:	4604      	mov	r4, r0
   e:	4633      	mov	r3, r6
  10:	9701      	str	r7, [sp, #4]
  12:	460d      	mov	r5, r1
  14:	e9cd 6702 	strd	r6, r7, [sp, #8]
  18:	e9d0 120e 	ldrd	r1, r2, [r0, #56]	; 0x38
  1c:	a808      	add	r0, sp, #32
  1e:	f7ff fffe 	bl	0 <_ZN23Adafruit_BusIO_RegisterC1EP18Adafruit_I2CDeviceP18Adafruit_SPIDevice26_Adafruit_BusIO_SPIRegTypethhh>
  22:	a808      	add	r0, sp, #32
  24:	f7ff fffe 	bl	0 <_ZN23Adafruit_BusIO_Register4readEv>
  28:	286c      	cmp	r0, #108	; 0x6c
  2a:	d002      	beq.n	32 <_ZN18Adafruit_LSM6DSO325_initEl+0x32>
  2c:	4630      	mov	r0, r6
  2e:	b01b      	add	sp, #108	; 0x6c
  30:	bdf0      	pop	{r4, r5, r6, r7, pc}
  32:	b2ab      	uxth	r3, r5
  34:	4620      	mov	r0, r4
  36:	19da      	adds	r2, r3, r7
  38:	8623      	strh	r3, [r4, #48]	; 0x30
  3a:	3302      	adds	r3, #2
  3c:	8662      	strh	r2, [r4, #50]	; 0x32
  3e:	86a3      	strh	r3, [r4, #52]	; 0x34
  40:	f7ff fffe 	bl	0 <_ZN15Adafruit_LSM6DS5resetEv>
  44:	2312      	movs	r3, #18
  46:	9701      	str	r7, [sp, #4]
  48:	a80e      	add	r0, sp, #56	; 0x38
  4a:	9300      	str	r3, [sp, #0]
  4c:	4633      	mov	r3, r6
  4e:	e9cd 6702 	strd	r6, r7, [sp, #8]
  52:	e9d4 120e 	ldrd	r1, r2, [r4, #56]	; 0x38
  56:	f7ff fffe 	bl	0 <_ZN23Adafruit_BusIO_RegisterC1EP18Adafruit_I2CDeviceP18Adafruit_SPIDevice26_Adafruit_BusIO_SPIRegTypethhh>
  5a:	463a      	mov	r2, r7
  5c:	a90e      	add	r1, sp, #56	; 0x38
  5e:	2306      	movs	r3, #6
  60:	a804      	add	r0, sp, #16
  62:	f7ff fffe 	bl	0 <_ZN27Adafruit_BusIO_RegisterBitsC1EP23Adafruit_BusIO_Registerhh>
  66:	4639      	mov	r1, r7
  68:	a804      	add	r0, sp, #16
  6a:	f7ff fffe 	bl	0 <_ZN27Adafruit_BusIO_RegisterBits5writeEm>
  6e:	2218      	movs	r2, #24
  70:	4633      	mov	r3, r6
  72:	9701      	str	r7, [sp, #4]
  74:	9200      	str	r2, [sp, #0]
  76:	a814      	add	r0, sp, #80	; 0x50
  78:	e9cd 6702 	strd	r6, r7, [sp, #8]
  7c:	e9d4 120e 	ldrd	r1, r2, [r4, #56]	; 0x38
  80:	f7ff fffe 	bl	0 <_ZN23Adafruit_BusIO_RegisterC1EP18Adafruit_I2CDeviceP18Adafruit_SPIDevice26_Adafruit_BusIO_SPIRegTypethhh>
  84:	463b      	mov	r3, r7
  86:	463a      	mov	r2, r7
  88:	a914      	add	r1, sp, #80	; 0x50
  8a:	a806      	add	r0, sp, #24
  8c:	f7ff fffe 	bl	0 <_ZN27Adafruit_BusIO_RegisterBitsC1EP23Adafruit_BusIO_Registerhh>
  90:	4639      	mov	r1, r7
  92:	a806      	add	r0, sp, #24
  94:	f7ff fffe 	bl	0 <_ZN27Adafruit_BusIO_RegisterBits5writeEm>
  98:	4629      	mov	r1, r5
  9a:	4620      	mov	r0, r4
  9c:	f7ff fffe 	bl	0 <_ZN15Adafruit_LSM6DS5_initEl>
  a0:	4638      	mov	r0, r7
  a2:	b01b      	add	sp, #108	; 0x6c
  a4:	bdf0      	pop	{r4, r5, r6, r7, pc}
  a6:	bf00      	nop
