
build/./libraries/QNEthernet/src/internal/ConnectionManager.cpp.o:     file format elf32-littlearm

SYMBOL TABLE:
00000000 l    df *ABS*	00000000 ConnectionManager.cpp
00000000 l    d  .text	00000000 .text
00000000 l    d  .data	00000000 .data
00000000 l    d  .bss	00000000 .bss
00000000 l    d  .text._ZNSt23_Sp_counted_ptr_inplaceIN9qindesign7network8internal16ConnectionHolderESaIS3_ELN9__gnu_cxx12_Lock_policyE0EED2Ev	00000000 .text._ZNSt23_Sp_counted_ptr_inplaceIN9qindesign7network8internal16ConnectionHolderESaIS3_ELN9__gnu_cxx12_Lock_policyE0EED2Ev
00000000 l    d  .text._ZN10StaticInitIN9qindesign8security12RandomDeviceEED2Ev	00000000 .text._ZN10StaticInitIN9qindesign8security12RandomDeviceEED2Ev
00000000 l    d  .text._ZNSt23_Sp_counted_ptr_inplaceIN9qindesign7network8internal16ConnectionHolderESaIS3_ELN9__gnu_cxx12_Lock_policyE0EED0Ev	00000000 .text._ZNSt23_Sp_counted_ptr_inplaceIN9qindesign7network8internal16ConnectionHolderESaIS3_ELN9__gnu_cxx12_Lock_policyE0EED0Ev
00000000 l    d  .text._ZNSt23_Sp_counted_ptr_inplaceIN9qindesign7network8internal16ConnectionHolderESaIS3_ELN9__gnu_cxx12_Lock_policyE0EE10_M_destroyEv	00000000 .text._ZNSt23_Sp_counted_ptr_inplaceIN9qindesign7network8internal16ConnectionHolderESaIS3_ELN9__gnu_cxx12_Lock_policyE0EE10_M_destroyEv
00000000 l    d  .text._ZNSt23_Sp_counted_ptr_inplaceIN9qindesign7network8internal16ConnectionHolderESaIS3_ELN9__gnu_cxx12_Lock_policyE0EE14_M_get_deleterERKSt9type_info	00000000 .text._ZNSt23_Sp_counted_ptr_inplaceIN9qindesign7network8internal16ConnectionHolderESaIS3_ELN9__gnu_cxx12_Lock_policyE0EE14_M_get_deleterERKSt9type_info
00000000 l    d  .text._ZN10StaticInitIN9qindesign7network13EthernetClassEED2Ev	00000000 .text._ZN10StaticInitIN9qindesign7network13EthernetClassEED2Ev
00000000 l    d  .text._ZN10StaticInitIN9qindesign7network9MDNSClassEED2Ev	00000000 .text._ZN10StaticInitIN9qindesign7network9MDNSClassEED2Ev
00000000 l    d  .rodata._ZN9qindesign7network8internalL18maybeCopyRemainingEPNS1_16ConnectionHolderE.str1.4	00000000 .rodata._ZN9qindesign7network8internalL18maybeCopyRemainingEPNS1_16ConnectionHolderE.str1.4
00000000 l    d  .text._ZN9qindesign7network8internalL18maybeCopyRemainingEPNS1_16ConnectionHolderE	00000000 .text._ZN9qindesign7network8internalL18maybeCopyRemainingEPNS1_16ConnectionHolderE
00000000 l     F .text._ZN9qindesign7network8internalL18maybeCopyRemainingEPNS1_16ConnectionHolderE	00000108 _ZN9qindesign7network8internalL18maybeCopyRemainingEPNS1_16ConnectionHolderE
00000000 l    d  .text._ZNSt6vectorIhSaIhEE15_M_range_insertIPhEEvN9__gnu_cxx17__normal_iteratorIS3_S1_EET_S7_St20forward_iterator_tag.isra.0	00000000 .text._ZNSt6vectorIhSaIhEE15_M_range_insertIPhEEvN9__gnu_cxx17__normal_iteratorIS3_S1_EET_S7_St20forward_iterator_tag.isra.0
00000000 l     F .text._ZNSt6vectorIhSaIhEE15_M_range_insertIPhEEvN9__gnu_cxx17__normal_iteratorIS3_S1_EET_S7_St20forward_iterator_tag.isra.0	00000148 _ZNSt6vectorIhSaIhEE15_M_range_insertIPhEEvN9__gnu_cxx17__normal_iteratorIS3_S1_EET_S7_St20forward_iterator_tag.isra.0
00000000 l    d  .text._ZNSt23_Sp_counted_ptr_inplaceIN9qindesign7network8internal16ConnectionHolderESaIS3_ELN9__gnu_cxx12_Lock_policyE0EE10_M_disposeEv	00000000 .text._ZNSt23_Sp_counted_ptr_inplaceIN9qindesign7network8internal16ConnectionHolderESaIS3_ELN9__gnu_cxx12_Lock_policyE0EE10_M_disposeEv
00000000 l    d  .text._ZN9qindesign7network8internal17ConnectionManager13connectedFuncEPvP7tcp_pcba	00000000 .text._ZN9qindesign7network8internal17ConnectionManager13connectedFuncEPvP7tcp_pcba
00000000 l    d  .text._ZN9qindesign7network8internal17ConnectionManager7errFuncEPva	00000000 .text._ZN9qindesign7network8internal17ConnectionManager7errFuncEPva
00000000 l    d  .text._ZN9qindesign7network8internal17ConnectionManagerD2Ev	00000000 .text._ZN9qindesign7network8internal17ConnectionManagerD2Ev
00000000 l    d  .text._ZNSt17_Function_handlerIFvPN9qindesign7network8internal15ConnectionStateEEZNS2_17ConnectionManager13addConnectionERKSt10shared_ptrINS2_16ConnectionHolderEEEUlS4_E_E10_M_managerERSt9_Any_dataRKSE_St18_Manager_operation	00000000 .text._ZNSt17_Function_handlerIFvPN9qindesign7network8internal15ConnectionStateEEZNS2_17ConnectionManager13addConnectionERKSt10shared_ptrINS2_16ConnectionHolderEEEUlS4_E_E10_M_managerERSt9_Any_dataRKSE_St18_Manager_operation
00000000 l     F .text._ZNSt17_Function_handlerIFvPN9qindesign7network8internal15ConnectionStateEEZNS2_17ConnectionManager13addConnectionERKSt10shared_ptrINS2_16ConnectionHolderEEEUlS4_E_E10_M_managerERSt9_Any_dataRKSE_St18_Manager_operation	00000074 _ZNSt17_Function_handlerIFvPN9qindesign7network8internal15ConnectionStateEEZNS2_17ConnectionManager13addConnectionERKSt10shared_ptrINS2_16ConnectionHolderEEEUlS4_E_E10_M_managerERSt9_Any_dataRKSE_St18_Manager_operation
00000000 l    d  .text._ZN9qindesign7network8internal17ConnectionManager8instanceEv	00000000 .text._ZN9qindesign7network8internal17ConnectionManager8instanceEv
00000000 l    d  .text._ZNK9qindesign7network8internal17ConnectionManager11isListeningEt	00000000 .text._ZNK9qindesign7network8internal17ConnectionManager11isListeningEt
00000000 l    d  .text._ZN9qindesign7network8internal17ConnectionManager13stopListeningEt	00000000 .text._ZN9qindesign7network8internal17ConnectionManager13stopListeningEt
00000000 l    d  .text._ZNK9qindesign7network8internal17ConnectionManager13findConnectedEt	00000000 .text._ZNK9qindesign7network8internal17ConnectionManager13findConnectedEt
00000000 l    d  .text._ZNK9qindesign7network8internal17ConnectionManager13findAvailableEt	00000000 .text._ZNK9qindesign7network8internal17ConnectionManager13findAvailableEt
00000000 l    d  .text._ZN9qindesign7network8internal17ConnectionManager5writeEth	00000000 .text._ZN9qindesign7network8internal17ConnectionManager5writeEth
00000000 l    d  .text._ZN9qindesign7network8internal17ConnectionManager5writeEtPKhj	00000000 .text._ZN9qindesign7network8internal17ConnectionManager5writeEtPKhj
00000000 l    d  .text._ZN9qindesign7network8internal17ConnectionManager5flushEt	00000000 .text._ZN9qindesign7network8internal17ConnectionManager5flushEt
00000000 l    d  .text._ZN9qindesign7network8internal17ConnectionManager17availableForWriteEt	00000000 .text._ZN9qindesign7network8internal17ConnectionManager17availableForWriteEt
00000000 l    d  .rodata._ZNSt6vectorIhSaIhEE7reserveEj.str1.4	00000000 .rodata._ZNSt6vectorIhSaIhEE7reserveEj.str1.4
00000000 l    d  .text._ZNSt6vectorIhSaIhEE7reserveEj	00000000 .text._ZNSt6vectorIhSaIhEE7reserveEj
00000000 l    d  .rodata._ZNSt6vectorIhSaIhEE17_M_default_appendEj.str1.4	00000000 .rodata._ZNSt6vectorIhSaIhEE17_M_default_appendEj.str1.4
00000000 l    d  .text._ZNSt6vectorIhSaIhEE17_M_default_appendEj	00000000 .text._ZNSt6vectorIhSaIhEE17_M_default_appendEj
00000000 l    d  .text._ZN9qindesign7network8internal17ConnectionManager8recvFuncEPvP7tcp_pcbP4pbufa	00000000 .text._ZN9qindesign7network8internal17ConnectionManager8recvFuncEPvP7tcp_pcbP4pbufa
00000000 l    d  .rodata._ZNSt6vectorISt10shared_ptrIN9qindesign7network8internal16ConnectionHolderEESaIS5_EE17_M_realloc_insertIJRKS5_EEEvN9__gnu_cxx17__normal_iteratorIPS5_S7_EEDpOT_.str1.4	00000000 .rodata._ZNSt6vectorISt10shared_ptrIN9qindesign7network8internal16ConnectionHolderEESaIS5_EE17_M_realloc_insertIJRKS5_EEEvN9__gnu_cxx17__normal_iteratorIPS5_S7_EEDpOT_.str1.4
00000000 l    d  .text._ZNSt6vectorISt10shared_ptrIN9qindesign7network8internal16ConnectionHolderEESaIS5_EE17_M_realloc_insertIJRKS5_EEEvN9__gnu_cxx17__normal_iteratorIPS5_S7_EEDpOT_	00000000 .text._ZNSt6vectorISt10shared_ptrIN9qindesign7network8internal16ConnectionHolderEESaIS5_EE17_M_realloc_insertIJRKS5_EEEvN9__gnu_cxx17__normal_iteratorIPS5_S7_EEDpOT_
00000000 l    d  .text._ZN9qindesign7network8internal17ConnectionManager13addConnectionERKSt10shared_ptrINS1_16ConnectionHolderEE	00000000 .text._ZN9qindesign7network8internal17ConnectionManager13addConnectionERKSt10shared_ptrINS1_16ConnectionHolderEE
00000000 l     F .text._ZNSt17_Function_handlerIFvPN9qindesign7network8internal15ConnectionStateEEZNS2_17ConnectionManager13addConnectionERKSt10shared_ptrINS2_16ConnectionHolderEEEUlS4_E_E9_M_invokeERKSt9_Any_dataOS4_	0000015e _ZNSt17_Function_handlerIFvPN9qindesign7network8internal15ConnectionStateEEZNS2_17ConnectionManager13addConnectionERKSt10shared_ptrINS2_16ConnectionHolderEEEUlS4_E_E9_M_invokeERKSt9_Any_dataOS4_
00000000 l    d  .text._ZN9qindesign7network8internal17ConnectionManager10acceptFuncEPvP7tcp_pcba	00000000 .text._ZN9qindesign7network8internal17ConnectionManager10acceptFuncEPvP7tcp_pcba
00000000 l    d  .text._ZN9qindesign7network8internal17ConnectionManager7connectEPK8ip4_addrt	00000000 .text._ZN9qindesign7network8internal17ConnectionManager7connectEPK8ip4_addrt
00000000 l    d  .text._ZNSt6vectorISt10shared_ptrIN9qindesign7network8internal16ConnectionHolderEESaIS5_EE8_M_eraseEN9__gnu_cxx17__normal_iteratorIPS5_S7_EE	00000000 .text._ZNSt6vectorISt10shared_ptrIN9qindesign7network8internal16ConnectionHolderEESaIS5_EE8_M_eraseEN9__gnu_cxx17__normal_iteratorIPS5_S7_EE
00000000 l    d  .text._ZN9qindesign7network8internal17ConnectionManager6removeERKSt10shared_ptrINS1_16ConnectionHolderEE	00000000 .text._ZN9qindesign7network8internal17ConnectionManager6removeERKSt10shared_ptrINS1_16ConnectionHolderEE
00000000 l    d  .text._ZNSt17_Function_handlerIFvPN9qindesign7network8internal15ConnectionStateEEZNS2_17ConnectionManager13addConnectionERKSt10shared_ptrINS2_16ConnectionHolderEEEUlS4_E_E9_M_invokeERKSt9_Any_dataOS4_	00000000 .text._ZNSt17_Function_handlerIFvPN9qindesign7network8internal15ConnectionStateEEZNS2_17ConnectionManager13addConnectionERKSt10shared_ptrINS2_16ConnectionHolderEEEUlS4_E_E9_M_invokeERKSt9_Any_dataOS4_
00000000 l    d  .text._ZNSt6vectorIP7tcp_pcbSaIS1_EE17_M_realloc_insertIJRKS1_EEEvN9__gnu_cxx17__normal_iteratorIPS1_S3_EEDpOT_	00000000 .text._ZNSt6vectorIP7tcp_pcbSaIS1_EE17_M_realloc_insertIJRKS1_EEEvN9__gnu_cxx17__normal_iteratorIPS1_S3_EEDpOT_
00000000 l    d  .text._ZN9qindesign7network8internal17ConnectionManager6listenEtb	00000000 .text._ZN9qindesign7network8internal17ConnectionManager6listenEtb
00000000 l    d  .text.startup._GLOBAL__sub_I__ZN9qindesign7network8internal17ConnectionManager8instanceEv	00000000 .text.startup._GLOBAL__sub_I__ZN9qindesign7network8internal17ConnectionManager8instanceEv
00000000 l     F .text.startup._GLOBAL__sub_I__ZN9qindesign7network8internal17ConnectionManager8instanceEv	000000ac _GLOBAL__sub_I__ZN9qindesign7network8internal17ConnectionManager8instanceEv
00000000 l    d  .init_array	00000000 .init_array
00000000 l    d  .rodata._ZTVSt23_Sp_counted_ptr_inplaceIN9qindesign7network8internal16ConnectionHolderESaIS3_ELN9__gnu_cxx12_Lock_policyE0EE	00000000 .rodata._ZTVSt23_Sp_counted_ptr_inplaceIN9qindesign7network8internal16ConnectionHolderESaIS3_ELN9__gnu_cxx12_Lock_policyE0EE
00000000 l    d  .rodata._ZZNSt19_Sp_make_shared_tag5_S_tiEvE5__tag	00000000 .rodata._ZZNSt19_Sp_make_shared_tag5_S_tiEvE5__tag
00000000 l    d  .bss._ZGVZN9qindesign7network8internal17ConnectionManager8instanceEvE8instance	00000000 .bss._ZGVZN9qindesign7network8internal17ConnectionManager8instanceEvE8instance
00000000 l     O .bss._ZGVZN9qindesign7network8internal17ConnectionManager8instanceEvE8instance	00000004 _ZGVZN9qindesign7network8internal17ConnectionManager8instanceEvE8instance
00000000 l    d  .bss._ZN9qindesign7networkL12EthernetInitE	00000000 .bss._ZN9qindesign7networkL12EthernetInitE
00000000 l     O .bss._ZN9qindesign7networkL12EthernetInitE	00000001 _ZN9qindesign7networkL12EthernetInitE
00000000 l    d  .bss._ZN9qindesign7networkL8MDNSInitE	00000000 .bss._ZN9qindesign7networkL8MDNSInitE
00000000 l     O .bss._ZN9qindesign7networkL8MDNSInitE	00000001 _ZN9qindesign7networkL8MDNSInitE
00000000 l    d  .bss._ZN9qindesign8securityL16randomDeviceInitE	00000000 .bss._ZN9qindesign8securityL16randomDeviceInitE
00000000 l     O .bss._ZN9qindesign8securityL16randomDeviceInitE	00000001 _ZN9qindesign8securityL16randomDeviceInitE
00000000 l    d  .bss._ZZN9qindesign7network8internal17ConnectionManager8instanceEvE8instance	00000000 .bss._ZZN9qindesign7network8internal17ConnectionManager8instanceEvE8instance
00000000 l     O .bss._ZZN9qindesign7network8internal17ConnectionManager8instanceEvE8instance	00000018 _ZZN9qindesign7network8internal17ConnectionManager8instanceEvE8instance
00000000 l       .group	00000000 _ZNSt23_Sp_counted_ptr_inplaceIN9qindesign7network8internal16ConnectionHolderESaIS3_ELN9__gnu_cxx12_Lock_policyE0EED5Ev
00000000 l       .group	00000000 _ZN10StaticInitIN9qindesign8security12RandomDeviceEED5Ev
00000000 l       .group	00000000 _ZN10StaticInitIN9qindesign7network13EthernetClassEED5Ev
00000000 l       .group	00000000 _ZN10StaticInitIN9qindesign7network9MDNSClassEED5Ev
00000000 l       .group	00000000 _ZN9qindesign7network8internal17ConnectionManagerD5Ev
00000000 l    d  .comment	00000000 .comment
00000000 l    d  .ARM.attributes	00000000 .ARM.attributes
00000000 l    d  .group	00000000 .group
00000000 l    d  .group	00000000 .group
00000000 l    d  .group	00000000 .group
00000000 l    d  .group	00000000 .group
00000000 l    d  .group	00000000 .group
00000000 l    d  .group	00000000 .group
00000000 l    d  .group	00000000 .group
00000000 l    d  .group	00000000 .group
00000000 l    d  .group	00000000 .group
00000000 l    d  .group	00000000 .group
00000000 l    d  .group	00000000 .group
00000000 l    d  .group	00000000 .group
00000000 l    d  .group	00000000 .group
00000000 l    d  .group	00000000 .group
00000000 l    d  .group	00000000 .group
00000000  w    F .text._ZNSt23_Sp_counted_ptr_inplaceIN9qindesign7network8internal16ConnectionHolderESaIS3_ELN9__gnu_cxx12_Lock_policyE0EED2Ev	00000002 _ZNSt23_Sp_counted_ptr_inplaceIN9qindesign7network8internal16ConnectionHolderESaIS3_ELN9__gnu_cxx12_Lock_policyE0EED2Ev
00000000  w    F .text._ZNSt23_Sp_counted_ptr_inplaceIN9qindesign7network8internal16ConnectionHolderESaIS3_ELN9__gnu_cxx12_Lock_policyE0EED2Ev	00000002 _ZNSt23_Sp_counted_ptr_inplaceIN9qindesign7network8internal16ConnectionHolderESaIS3_ELN9__gnu_cxx12_Lock_policyE0EED1Ev
00000000  w    F .text._ZN10StaticInitIN9qindesign8security12RandomDeviceEED2Ev	00000018 _ZN10StaticInitIN9qindesign8security12RandomDeviceEED2Ev
00000000         *UND*	00000000 _ZN10StaticInitIN9qindesign8security12RandomDeviceEE13nifty_counterE
00000000         *UND*	00000000 _ZN10StaticInitIN9qindesign8security12RandomDeviceEE2pTE
00000000  w    F .text._ZN10StaticInitIN9qindesign8security12RandomDeviceEED2Ev	00000018 _ZN10StaticInitIN9qindesign8security12RandomDeviceEED1Ev
00000000  w    F .text._ZNSt23_Sp_counted_ptr_inplaceIN9qindesign7network8internal16ConnectionHolderESaIS3_ELN9__gnu_cxx12_Lock_policyE0EED0Ev	0000000e _ZNSt23_Sp_counted_ptr_inplaceIN9qindesign7network8internal16ConnectionHolderESaIS3_ELN9__gnu_cxx12_Lock_policyE0EED0Ev
00000000         *UND*	00000000 _ZdlPvj
00000000  w    F .text._ZNSt23_Sp_counted_ptr_inplaceIN9qindesign7network8internal16ConnectionHolderESaIS3_ELN9__gnu_cxx12_Lock_policyE0EE10_M_destroyEv	00000006 _ZNSt23_Sp_counted_ptr_inplaceIN9qindesign7network8internal16ConnectionHolderESaIS3_ELN9__gnu_cxx12_Lock_policyE0EE10_M_destroyEv
00000000  w    F .text._ZNSt23_Sp_counted_ptr_inplaceIN9qindesign7network8internal16ConnectionHolderESaIS3_ELN9__gnu_cxx12_Lock_policyE0EE14_M_get_deleterERKSt9type_info	00000020 _ZNSt23_Sp_counted_ptr_inplaceIN9qindesign7network8internal16ConnectionHolderESaIS3_ELN9__gnu_cxx12_Lock_policyE0EE14_M_get_deleterERKSt9type_info
00000000         *UND*	00000000 _ZNSt19_Sp_make_shared_tag5_S_eqERKSt9type_info
00000000  w    O .rodata._ZZNSt19_Sp_make_shared_tag5_S_tiEvE5__tag	00000008 _ZZNSt19_Sp_make_shared_tag5_S_tiEvE5__tag
00000000  w    F .text._ZN10StaticInitIN9qindesign7network13EthernetClassEED2Ev	00000028 _ZN10StaticInitIN9qindesign7network13EthernetClassEED2Ev
00000000         *UND*	00000000 _ZN9qindesign7network13EthernetClassD1Ev
00000000         *UND*	00000000 _ZN10StaticInitIN9qindesign7network13EthernetClassEE13nifty_counterE
00000000         *UND*	00000000 _ZN10StaticInitIN9qindesign7network13EthernetClassEE2pTE
00000000  w    F .text._ZN10StaticInitIN9qindesign7network13EthernetClassEED2Ev	00000028 _ZN10StaticInitIN9qindesign7network13EthernetClassEED1Ev
00000000  w    F .text._ZN10StaticInitIN9qindesign7network9MDNSClassEED2Ev	00000028 _ZN10StaticInitIN9qindesign7network9MDNSClassEED2Ev
00000000         *UND*	00000000 _ZN9qindesign7network9MDNSClassD1Ev
00000000         *UND*	00000000 _ZN10StaticInitIN9qindesign7network9MDNSClassEE13nifty_counterE
00000000         *UND*	00000000 _ZN10StaticInitIN9qindesign7network9MDNSClassEE2pTE
00000000  w    F .text._ZN10StaticInitIN9qindesign7network9MDNSClassEED2Ev	00000028 _ZN10StaticInitIN9qindesign7network9MDNSClassEED1Ev
00000000         *UND*	00000000 memmove
00000000         *UND*	00000000 memcpy
00000000         *UND*	00000000 _Znwj
00000000         *UND*	00000000 _ZSt20__throw_length_errorPKc
00000000  w    F .text._ZNSt23_Sp_counted_ptr_inplaceIN9qindesign7network8internal16ConnectionHolderESaIS3_ELN9__gnu_cxx12_Lock_policyE0EE10_M_disposeEv	0000005a _ZNSt23_Sp_counted_ptr_inplaceIN9qindesign7network8internal16ConnectionHolderESaIS3_ELN9__gnu_cxx12_Lock_policyE0EE10_M_disposeEv
00000000         *UND*	00000000 tcp_arg
00000000 g     F .text._ZN9qindesign7network8internal17ConnectionManager13connectedFuncEPvP7tcp_pcba	00000092 _ZN9qindesign7network8internal17ConnectionManager13connectedFuncEPvP7tcp_pcba
00000000         *UND*	00000000 tcp_close
00000000         *UND*	00000000 tcp_abort
00000000 g     F .text._ZN9qindesign7network8internal17ConnectionManager7errFuncEPva	0000006c _ZN9qindesign7network8internal17ConnectionManager7errFuncEPva
00000000  w    F .text._ZN9qindesign7network8internal17ConnectionManagerD2Ev	00000054 _ZN9qindesign7network8internal17ConnectionManagerD2Ev
00000000  w    F .text._ZN9qindesign7network8internal17ConnectionManagerD2Ev	00000054 _ZN9qindesign7network8internal17ConnectionManagerD1Ev
00000000 g     F .text._ZN9qindesign7network8internal17ConnectionManager8instanceEv	00000050 _ZN9qindesign7network8internal17ConnectionManager8instanceEv
00000000         *UND*	00000000 __cxa_guard_acquire
00000000         *UND*	00000000 __aeabi_atexit
00000000         *UND*	00000000 __cxa_guard_release
00000000         *UND*	00000000 .hidden __dso_handle
00000000 g     F .text._ZNK9qindesign7network8internal17ConnectionManager11isListeningEt	0000010e _ZNK9qindesign7network8internal17ConnectionManager11isListeningEt
00000000         *UND*	00000000 tcp_tcp_get_tcp_addrinfo
00000000 g     F .text._ZN9qindesign7network8internal17ConnectionManager13stopListeningEt	0000014a _ZN9qindesign7network8internal17ConnectionManager13stopListeningEt
00000000 g     F .text._ZNK9qindesign7network8internal17ConnectionManager13findConnectedEt	00000154 _ZNK9qindesign7network8internal17ConnectionManager13findConnectedEt
00000000 g     F .text._ZNK9qindesign7network8internal17ConnectionManager13findAvailableEt	000001c6 _ZNK9qindesign7network8internal17ConnectionManager13findAvailableEt
00000000 g     F .text._ZN9qindesign7network8internal17ConnectionManager5writeEth	0000008c _ZN9qindesign7network8internal17ConnectionManager5writeEth
00000000         *UND*	00000000 tcp_write
00000000         *UND*	00000000 tcp_output
00000000         *UND*	00000000 _ZN9qindesign7network13EthernetClass4loopEv
00000000         *UND*	00000000 _ZN9qindesign7network8EthernetE
00000000 g     F .text._ZN9qindesign7network8internal17ConnectionManager5writeEtPKhj	000000b4 _ZN9qindesign7network8internal17ConnectionManager5writeEtPKhj
00000000 g     F .text._ZN9qindesign7network8internal17ConnectionManager5flushEt	00000070 _ZN9qindesign7network8internal17ConnectionManager5flushEt
00000000 g     F .text._ZN9qindesign7network8internal17ConnectionManager17availableForWriteEt	00000064 _ZN9qindesign7network8internal17ConnectionManager17availableForWriteEt
00000000  w    F .text._ZNSt6vectorIhSaIhEE7reserveEj	0000006c _ZNSt6vectorIhSaIhEE7reserveEj
00000000  w    F .text._ZNSt6vectorIhSaIhEE17_M_default_appendEj	000000d8 _ZNSt6vectorIhSaIhEE17_M_default_appendEj
00000000         *UND*	00000000 memset
00000000 g     F .text._ZN9qindesign7network8internal17ConnectionManager8recvFuncEPvP7tcp_pcbP4pbufa	0000019a _ZN9qindesign7network8internal17ConnectionManager8recvFuncEPvP7tcp_pcbP4pbufa
00000000         *UND*	00000000 tcp_recved
00000000         *UND*	00000000 pbuf_free
00000000  w    F .text._ZNSt6vectorISt10shared_ptrIN9qindesign7network8internal16ConnectionHolderEESaIS5_EE17_M_realloc_insertIJRKS5_EEEvN9__gnu_cxx17__normal_iteratorIPS5_S7_EEDpOT_	00000128 _ZNSt6vectorISt10shared_ptrIN9qindesign7network8internal16ConnectionHolderEESaIS5_EE17_M_realloc_insertIJRKS5_EEEvN9__gnu_cxx17__normal_iteratorIPS5_S7_EEDpOT_
00000000 g     F .text._ZN9qindesign7network8internal17ConnectionManager13addConnectionERKSt10shared_ptrINS1_16ConnectionHolderEE	000000f0 _ZN9qindesign7network8internal17ConnectionManager13addConnectionERKSt10shared_ptrINS1_16ConnectionHolderEE
00000000 g     F .text._ZN9qindesign7network8internal17ConnectionManager10acceptFuncEPvP7tcp_pcba	00000148 _ZN9qindesign7network8internal17ConnectionManager10acceptFuncEPvP7tcp_pcba
00000000         *UND*	00000000 tcp_err
00000000         *UND*	00000000 tcp_recv
00000000  w    O .rodata._ZTVSt23_Sp_counted_ptr_inplaceIN9qindesign7network8internal16ConnectionHolderESaIS3_ELN9__gnu_cxx12_Lock_policyE0EE	0000001c _ZTVSt23_Sp_counted_ptr_inplaceIN9qindesign7network8internal16ConnectionHolderESaIS3_ELN9__gnu_cxx12_Lock_policyE0EE
00000000 g     F .text._ZN9qindesign7network8internal17ConnectionManager7connectEPK8ip4_addrt	00000190 _ZN9qindesign7network8internal17ConnectionManager7connectEPK8ip4_addrt
00000000         *UND*	00000000 tcp_new_ip_type
00000000         *UND*	00000000 tcp_bind
00000000         *UND*	00000000 tcp_connect
00000000         *UND*	00000000 ip_addr_any
00000000  w    F .text._ZNSt6vectorISt10shared_ptrIN9qindesign7network8internal16ConnectionHolderEESaIS5_EE8_M_eraseEN9__gnu_cxx17__normal_iteratorIPS5_S7_EE	00000096 _ZNSt6vectorISt10shared_ptrIN9qindesign7network8internal16ConnectionHolderEESaIS5_EE8_M_eraseEN9__gnu_cxx17__normal_iteratorIPS5_S7_EE
00000000 g     F .text._ZN9qindesign7network8internal17ConnectionManager6removeERKSt10shared_ptrINS1_16ConnectionHolderEE	00000188 _ZN9qindesign7network8internal17ConnectionManager6removeERKSt10shared_ptrINS1_16ConnectionHolderEE
00000000  w    F .text._ZNSt6vectorIP7tcp_pcbSaIS1_EE17_M_realloc_insertIJRKS1_EEEvN9__gnu_cxx17__normal_iteratorIPS1_S3_EEDpOT_	000000d4 _ZNSt6vectorIP7tcp_pcbSaIS1_EE17_M_realloc_insertIJRKS1_EEEvN9__gnu_cxx17__normal_iteratorIPS1_S3_EEDpOT_
00000000 g     F .text._ZN9qindesign7network8internal17ConnectionManager6listenEtb	000000bc _ZN9qindesign7network8internal17ConnectionManager6listenEtb
00000000         *UND*	00000000 tcp_listen_with_backlog
00000000         *UND*	00000000 tcp_accept
00000000         *UND*	00000000 _ZN9qindesign7network9MDNSClassC1Ev
00000000         *UND*	00000000 _ZN9qindesign7network13EthernetClassC1Ev
00000000         *UND*	00000000 _ZN9qindesign8security12RandomDeviceC1Ev
00000000         *UND*	00000000 _ZN10StaticInitIN9qindesign7network9MDNSClassEE3bufE
00000000         *UND*	00000000 _ZN10StaticInitIN9qindesign7network13EthernetClassEE3bufE
00000000         *UND*	00000000 _ZN10StaticInitIN9qindesign8security12RandomDeviceEE3bufE


Contents of section .group:
 0000 01000000 13000000 16000000 17000000  ................
Contents of section .group:
 0000 01000000 14000000 15000000           ............    
Contents of section .group:
 0000 01000000 18000000 19000000           ............    
Contents of section .group:
 0000 01000000 1a000000 1b000000           ............    
Contents of section .group:
 0000 01000000 1c000000 1d000000           ............    
Contents of section .group:
 0000 01000000 1e000000 1f000000           ............    
Contents of section .group:
 0000 01000000 25000000 26000000           ....%...&...    
Contents of section .group:
 0000 01000000 2b000000 2c000000           ....+...,...    
Contents of section .group:
 0000 01000000 42000000 43000000           ....B...C...    
Contents of section .group:
 0000 01000000 45000000 46000000           ....E...F...    
Contents of section .group:
 0000 01000000 4a000000 4b000000           ....J...K...    
Contents of section .group:
 0000 01000000 52000000                    ....R...        
Contents of section .group:
 0000 01000000 57000000 58000000           ....W...X...    
Contents of section .group:
 0000 01000000 5f000000 60000000           ...._...`...    
Contents of section .group:
 0000 01000000 61000000                    ....a...        
Contents of section .text._ZNSt23_Sp_counted_ptr_inplaceIN9qindesign7network8internal16ConnectionHolderESaIS3_ELN9__gnu_cxx12_Lock_policyE0EED2Ev:
 0000 704700bf                             pG..            
Contents of section .text._ZN10StaticInitIN9qindesign8security12RandomDeviceEED2Ev:
 0000 034a1368 013b1360 0bb9024a 13607047  .J.h.;.`...J.`pG
 0010 00000000 00000000                    ........        
Contents of section .text._ZNSt23_Sp_counted_ptr_inplaceIN9qindesign7network8internal16ConnectionHolderESaIS3_ELN9__gnu_cxx12_Lock_policyE0EED0Ev:
 0000 10b50446 2421fff7 feff2046 10bd00bf  ...F$!.... F....
Contents of section .text._ZNSt23_Sp_counted_ptr_inplaceIN9qindesign7network8internal16ConnectionHolderESaIS3_ELN9__gnu_cxx12_Lock_policyE0EE10_M_destroyEv:
 0000 2421fff7 febf00bf                    $!......        
Contents of section .text._ZNSt23_Sp_counted_ptr_inplaceIN9qindesign7network8internal16ConnectionHolderESaIS3_ELN9__gnu_cxx12_Lock_policyE0EE14_M_get_deleterERKSt9type_info:
 0000 064b9942 10b500f1 0c0405d0 0846fff7  .K.B.........F..
 0010 feff0028 08bf0024 204610bd 00000000  ...(...$ F......
Contents of section .text._ZN10StaticInitIN9qindesign7network13EthernetClassEED2Ev:
 0000 074b70b5 1c680546 013c1c60 0cb12846  .Kp..h.F.<.`..(F
 0010 70bd044e 3068fff7 feff2846 346070bd  p..N0h....(F4`p.
 0020 00000000 00000000                    ........        
Contents of section .text._ZN10StaticInitIN9qindesign7network9MDNSClassEED2Ev:
 0000 074b70b5 1c680546 013c1c60 0cb12846  .Kp..h.F.<.`..(F
 0010 70bd044e 3068fff7 feff2846 346070bd  p..N0h....(F4`p.
 0020 00000000 00000000                    ........        
Contents of section .rodata._ZN9qindesign7network8internalL18maybeCopyRemainingEPNS1_16ConnectionHolderE.str1.4:
 0000 76656374 6f723a3a 5f4d5f72 616e6765  vector::_M_range
 0010 5f696e73 65727400                    _insert.        
Contents of section .text._ZN9qindesign7network8internalL18maybeCopyRemainingEPNS1_16ConnectionHolderE:
 0000 2de9f04f d0e90373 00210446 9f424368  -..O...s.!.F.BCh
 0010 83b018bf 07619d68 81601e69 5b68e81a  .....a.h.`.i[h..
 0020 864202d3 03b0bde8 f08f1e44 d4f81080  .B.........D....
 0030 b542f7d0 6369ad1b a3eb0803 9d4208d8  .B..ci.......B..
 0040 2a463146 4046fff7 feff2369 2b442361  *F1F@F....#i+D#a
 0050 e8e7a8eb 070a6ff0 0042a2eb 0a039d42  ......o..B.....B
 0060 4cd8aa45 534638bf 2b4613eb 0a0343d2  L..ESF8.+F....C.
 0070 abb99946 9b46baf1 000f1dd1 31462a46  ...F.F......1F*F
 0080 58465d44 fff7feff 2369b3eb 08062cd1  XF]D....#i....,.
 0090 554427bb c4f81490 c4e903b5 c2e79342  UD'............B
 00a0 28bf1346 99464846 fff7feff e7688346  (..F.FHF.....h.F
 00b0 8144a8eb 070adee7 0beb0a03 52463946  .D..........RF9F
 00c0 58460193 fff7feff 019b3146 2a461846  XF........1F*F.F
 00d0 5d19fff7 feff2669 b6eb0806 05d16169  ].....&i......ai
 00e0 3846c91b fff7feff d4e74146 28463246  8F........AF(F2F
 00f0 b246fff7 feffcbe7 9146d4e7 0148fff7  .F.......F...H..
 0100 feff00bf 00000000                    ........        
Contents of section .text._ZNSt6vectorIhSaIhEE15_M_range_insertIPhEEvN9__gnu_cxx17__normal_iteratorIS3_S1_EET_S7_St20forward_iterator_tag.isra.0:
 0000 9a4254d0 2de9f84f a3eb0208 17460446  .BT.-..O.....F.F
 0010 0e46d0e9 0152521b 904517d8 a5eb0109  .F...RR..E......
 0020 c84545d2 a5eb0809 42462846 4946fff7  .EE.....BF(FIF..
 0030 feff6368 b9eb0602 43446360 67d14246  ..ch....CDc`g.BF
 0040 39463046 bde8f84f fff7febf d0f80090  9F0F...O........
 0050 6ff00042 a5eb0905 531b9845 6dd8a845  o..B....S..Em..E
 0060 434638bf 2b46ed18 6ad2adb9 aa46b6eb  CF8.+F..j....F..
 0070 090236d1 39464246 5046d044 fff7feff  ..6.9FBFPF.D....
 0080 6768bf1b 4ed1b844 b9f1000f 38d1a560  gh..N..D....8..`
 0090 c4e900a8 bde8f88f 954228bf 15462846  .........B(..F(F
 00a0 fff7feff d4f80090 82460544 dfe77047  .........F.D..pG
 00b0 07eb0901 5a1a3bd1 a8eb0900 28446060  ....Z.;.....(D``
 00c0 b9f1000f e6d04a46 3146fff7 feff6368  ......JF1F....ch
 00d0 39463046 4b444a46 6360bde8 f84ffff7  9F0FKDJFc`...O..
 00e0 febf0aeb 020b4946 5046fff7 feff3946  ......IFPF....9F
 00f0 42465846 fff7feff 6768d844 bf1b11d1  BFXF....gh.D....
 0100 a1684846 a1eb0901 fff7feff bfe7a81a  .hHF............
 0110 3146fff7 feff4246 39463046 bde8f84f  1F....BF9F0F...O
 0120 fff7febf 31463a46 4046fff7 feffaae7  ....1F:F@F......
 0130 2846fff7 feff6568 bee70248 fff7feff  (F....eh...H....
 0140 1546ace7 00000000                    .F......        
Contents of section .text._ZNSt23_Sp_counted_ptr_inplaceIN9qindesign7network8internal16ConnectionHolderESaIS3_ELN9__gnu_cxx12_Lock_policyE0EE10_M_disposeEv:
 0000 30b50446 806983b0 18b1216a 091afff7  0..F.i....!j....
 0010 feff2469 fcb10021 2068fff7 feffe369  ..$i...! h.....i
 0020 63b104f1 1405236a 01a90194 28469847  c.....#j....(F.G
 0030 e3691bb1 03222946 28469847 606818b1  .i...")F(F.G`h..
 0040 e168091a fff7feff 24212046 03b0bde8  .h......$! F....
 0050 3040fff7 febf03b0 30bd00bf           0@......0...    
Contents of section .text._ZN9qindesign7network8internal17ConnectionManager13connectedFuncEPvP7tcp_pcba:
 0000 002843d0 f0b50e46 b1fa81f1 83b04909  .(C....F......I.
 0010 002e38d0 002a1446 02700cbf 01220022  ..8..*.F.p..."."
 0020 427022d0 45684160 ddb12868 fff7feff  Bp".EhA`..(h....
 0030 eb6963b1 05f11407 2b6a01a9 01953846  .ic.....+j....8F
 0040 9847eb69 1bb10322 39463846 98476868  .G.i..."9F8F.Ghh
 0050 18b1e968 091afff7 feff2421 2846fff7  ...h......$!(F..
 0060 feff24f0 02040f34 02d10020 03b0f0bd  ..$....4... ....
 0070 3046fff7 feff0028 f7d03046 fff7feff  0F.....(..0F....
 0080 6ff00c00 f2e76ff0 0f00efe7 6ff00f00  o.....o.....o...
 0090 704700bf                             pG..            
Contents of section .text._ZN9qindesign7network8internal17ConnectionManager7errFuncEPva:
 0000 002832d0 b1fa81f3 42685b09 30b50446  .(2.....Bh[.0..F
 0010 83b00170 437002b1 09b903b0 30bdfff7  ...pCp......0...
 0020 feff6568 00216160 002df6d0 2868fff7  ..eh.!a`.-..(h..
 0030 feffeb69 63b105f1 14042b6a 01a90195  ...ic.....+j....
 0040 20469847 eb691bb1 03222146 20469847   F.G.i..."!F F.G
 0050 686818b1 e968091a fff7feff 24212846  hh...h......$!(F
 0060 03b0bde8 3040fff7 febf7047           ....0@....pG    
Contents of section .text._ZN9qindesign7network8internal17ConnectionManagerD2Ev:
 0000 f8b50746 c06818b1 7969091a fff7feff  ...F.h..yi......
 0010 d7e90056 b54215d0 6c680835 7cb16368  ...V.B..lh.5|.ch
 0020 2046013b 636053b9 23689b68 9847a368   F.;c`S.#h.h.G.h
 0030 2046013b a36013b9 2368db68 9847ae42   F.;.`..#h.h.G.B
 0040 ead13e68 26b1b968 3046891b fff7feff  ..>h&..h0F......
 0050 3846f8bd                             8F..            
Contents of section .text._ZNSt17_Function_handlerIFvPN9qindesign7network8internal15ConnectionStateEEZNS2_17ConnectionManager13addConnectionERKSt10shared_ptrINS2_16ConnectionHolderEEEUlS4_E_E10_M_managerERSt9_Any_dataRKSE_St18_Manager_operation:
 0000 012a38b5 044603d1 0b680360 002038bd  .*8..F...h.`. 8.
 0010 022a1fd0 032a03d0 002af7d1 0260f5e7  .*...*...*...`..
 0020 0468002c f2d0a568 7db16b68 013b6b60  .h.,...h}.kh.;k`
 0030 5bb92b68 28469b68 9847ab68 013bab60  [.+h(F.h.G.h.;.`
 0040 1bb92b68 2846db68 98470c21 2046fff7  ..+h(F.h.G.! F..
 0050 feffdbe7 0d680c20 fff7feff ab68d5e9  .....h. .....h..
 0060 00128360 c0e90012 13b15a68 01325a60  ...`......Zh.2Z`
 0070 2060cbe7                              `..            
Contents of section .text._ZN9qindesign7network8internal17ConnectionManager8instanceEv:
 0000 38b50f4d 2c68bff3 5b8f14f0 010401d0  8..M,h..[.......
 0010 0c4838bd 2846fff7 feff0028 f8d00948  .H8.(F.....(...H
 0020 094a0a49 c0e90044 c0e90244 c0e90444  .J.I...D...D...D
 0030 fff7feff 2846fff7 feff0248 38bd00bf  ....(F.....H8...
 0040 00000000 00000000 00000000 00000000  ................
Contents of section .text._ZNK9qindesign7network8internal17ConnectionManager11isListeningEt:
 0000 2de9f041 d0e90348 82b00746 a8eb0403  -..A...H...F....
 0010 0d461e11 002e78dd 04eb0616 26e06068  .F....x.....&.`h
 0020 48b10df1 06030022 0121fff7 feffbdf8  H......".!......
 0030 06309d42 2ed0a068 48b10df1 06030022  .0.B...hH......"
 0040 0121fff7 feffbdf8 06309d42 24d0e068  .!.......0.B$..h
 0050 48b10df1 06030022 0121fff7 feffbdf8  H......".!......
 0060 06309d42 1ad01034 a64219d0 20680028  .0.B...4.B.. h.(
 0070 d5d00df1 06030022 0121fff7 feffbdf8  .......".!......
 0080 06309d42 cbd13869 001b18bf 012002b0  .0.B..8i..... ..
 0090 bde8f081 0434f6e7 0834f4e7 0c34f2e7  .....4...4...4..
 00a0 a8eb0403 9b10022b 12d0032b 03d0012b  .......+...+...+
 00b0 11d04446 e7e72068 48b10df1 06030022  ..DF.. hH......"
 00c0 0121fff7 feffbdf8 06309d42 dbd00434  .!.......0.B...4
 00d0 206878b9 04342068 0028ead0 0df10603   hx..4 h.(......
 00e0 00220121 fff7feff bdf80630 9d42cad0  .".!.......0.B..
 00f0 4446c8e7 0df10603 00220121 fff7feff  DF.......".!....
 0100 bdf80630 9d42e5d1 bde79b10 cbe700bf  ...0.B..........
Contents of section .text._ZN9qindesign7network8internal17ConnectionManager13stopListeningEt:
 0000 2de9f041 d0e90348 82b00746 a8eb0403  -..A...H...F....
 0010 0d461e11 002e40f3 968004eb 061626e0  .F....@.......&.
 0020 606848b1 0df10603 00220121 fff7feff  `hH......".!....
 0030 bdf80630 9d423ed0 a06848b1 0df10603  ...0.B>..hH.....
 0040 00220121 fff7feff bdf80630 9d423ad0  .".!.......0.B:.
 0050 e06848b1 0df10603 00220121 fff7feff  .hH......".!....
 0060 bdf80630 9d4230d0 1034b442 36d02068  ...0.B0..4.B6. h
 0070 0028d5d0 0df10603 00220121 fff7feff  .(.......".!....
 0080 bdf80630 9d42cbd1 3a69a242 17d02146  ...0.B..:i.B..!F
 0090 51f8045b 8a4204d0 521a2046 fff7feff  Q..[.B..R. F....
 00a0 39690439 28463961 fff7feff 78b90120  9i.9(F9a....x.. 
 00b0 02b0bde8 f0810434 3a69a242 e7d10020  .......4:i.B... 
 00c0 02b0bde8 f0810834 dee70c34 dce72846  .......4...4..(F
 00d0 fff7feff 012002b0 bde8f081 a8eb0403  ..... ..........
 00e0 9b10022b 12d0032b 03d0012b 11d04446  ...+...+...+..DF
 00f0 cae72068 48b10df1 06030022 0121fff7  .. hH......".!..
 0100 feffbdf8 06309d42 bed00434 206878b9  .....0.B...4 hx.
 0110 04342068 0028ead0 0df10603 00220121  .4 h.(.......".!
 0120 fff7feff bdf80630 9d42add0 4446abe7  .......0.B..DF..
 0130 0df10603 00220121 fff7feff bdf80630  .....".!.......0
 0140 9d42e5d1 a0e79b10 cbe700bf           .B..........    
Contents of section .text._ZNK9qindesign7network8internal17ConnectionManager13findConnectedEt:
 0000 2de9f047 d1e9004a 82b08846 aaeb0403  -..G...J...F....
 0010 81461646 5f11002f 40f39a80 04eb4717  .F.F_../@.....G.
 0020 2ce0a368 5d6855b1 0df10603 00220121  ,..h]hU......".!
 0030 2868fff7 feffbdf8 06309e42 3dd02369  (h.......0.B=.#i
 0040 586850b1 0df10603 00220121 0068fff7  XhP......".!.h..
 0050 feffbdf8 06309e42 3bd0a369 586850b1  .....0.B;..iXhP.
 0060 0df10603 00220121 0068fff7 feffbdf8  .....".!.h......
 0070 06309e42 2fd02034 a7422ed0 23685d68  .0.B/. 4.B..#h]h
 0080 002dced0 0df10603 00220121 2868fff7  .-.......".!(h..
 0090 feffbdf8 06309e42 c3d1d8f8 0430a342  .....0.B.....0.B
 00a0 10d0d4e9 0023c9e9 002313b1 5a680132  .....#...#..Zh.2
 00b0 5a604846 02b0bde8 f0870834 d8f80430  Z`HF.......4...0
 00c0 a342eed1 00234846 c9e90033 02b0bde8  .B...#HF...3....
 00d0 f0871034 e1e71834 dfe7aaeb 0403db10  ...4...4........
 00e0 022b14d0 032b03d0 012b14d0 5446d4e7  .+...+...+..TF..
 00f0 23685b68 53b11868 00220df1 06030121  #h[hS..h.".....!
 0100 fff7feff bdf80630 9e42c6d0 08342368  .......0.B...4#h
 0110 5b688bb9 08342368 5b68002b e6d01868  [h...4#h[h.+...h
 0120 00220df1 06030121 fff7feff bdf80630  .".....!.......0
 0130 9e42b2d0 5446b0e7 18680022 0df10603  .B..TF...h."....
 0140 0121fff7 feffbdf8 06309e42 e2d1a4e7  .!.......0.B....
 0150 db10c5e7                             ....            
Contents of section .text._ZNK9qindesign7network8internal17ConnectionManager13findAvailableEt:
 0000 2de9f04f d1e9004a 83b08846 aaeb0403  -..O...J...F....
 0010 81461646 5f11002f 40f3ca80 04eb4717  .F.F_../@.....G.
 0020 2ee0d4f8 08b0dbf8 045055b1 0df10603  .........PU.....
 0030 00220121 2868fff7 feffbdf8 06309e42  .".!(h.......0.B
 0040 47d02569 686850b1 0df10603 00220121  G.%ihhP......".!
 0050 0068fff7 feffbdf8 06309e42 4dd0a569  .h.......0.BM..i
 0060 686850b1 0df10603 00220121 0068fff7  hhP......".!.h..
 0070 feffbdf8 06309e42 48d02034 a7424ed0  .....0.BH. 4.BN.
 0080 d4f800b0 dbf80450 002dcad0 0df10603  .......P.-......
 0090 00220121 2868fff7 feffbdf8 06309e42  .".!(h.......0.B
 00a0 bfd1dbf8 0420d2e9 01131269 5b1a9a42  ..... .....i[..B
 00b0 b7d2d8f8 0430a342 18d0d4e9 0023c9e9  .....0.B.....#..
 00c0 002313b1 5a680132 5a604846 03b0bde8  .#..Zh.2Z`HF....
 00d0 f08fdbf8 0420d2e9 01131269 5b1a9a42  ..... .....i[..B
 00e0 afd20834 d8f80430 a342e6d1 00234846  ...4...0.B...#HF
 00f0 c9e90033 03b0bde8 f08f6a68 d2e90113  ...3......jh....
 0100 12695b1a 9a42aad2 1034d2e7 6a68d2e9  .i[..B...4..jh..
 0110 01131269 5b1a9a42 afd21834 c9e7aaeb  ...i[..B...4....
 0120 0403db10 022b14d0 032b03d0 012b14d0  .....+...+...+..
 0130 5446bee7 25686b68 53b11868 00220df1  TF..%hkhS..h."..
 0140 06030121 fff7feff bdf80630 9e4231d0  ...!.......0.B1.
 0150 08342568 6b68c3b9 08342568 6b68002b  .4%hkh...4%hkh.+
 0160 e6d01868 00220df1 06030121 fff7feff  ...h.".....!....
 0170 bdf80630 9e42dbd1 6a68d2e9 01131269  ...0.B..jh.....i
 0180 5b1a9a42 95d35446 93e71868 00220df1  [..B..TF...h."..
 0190 06030121 fff7feff bdf80630 9e42dbd1  ...!.......0.B..
 01a0 6a68d2e9 01131269 5b1a9a42 81d3d3e7  jh.....i[..B....
 01b0 db10b7e7 6a68d2e9 01131269 5b1a9a42  ....jh.....i[..B
 01c0 fff477af c4e700bf                    ..w.....        
Contents of section .text._ZN9qindesign7network8internal17ConnectionManager5writeEth:
 0000 f0b5d0e9 004683b0 1f4ba642 1f68adf8  .....F...K.B.h..
 0010 04108df8 062008d1 2fe00123 0df10601  ..... ../..#....
 0020 1a46fff7 feffb442 27d02568 0df10203  .F.....B'.%h....
 0030 00220121 68680834 0028f4d0 0068fff7  .".!hh.4.(...h..
 0040 feffbdf8 0230bdf8 04209a42 ebd16b68  .....0... .B..kh
 0050 1868b0f8 6430002b dfd1fff7 feff0346  .h..d0.+.......F
 0060 3846002b dfd1fff7 feff6b68 1868b0f8  8F.+......kh.h..
 0070 6430002b d1d1b442 d7d13846 fff7feff  d0.+...B..8F....
 0080 012003b0 f0bd00bf 00000000           . ..........    
Contents of section .text._ZN9qindesign7network8internal17ConnectionManager5writeEtPKhj:
 0000 2de9f04f 4ff6ff74 83b0a342 28bf2346  -..OO..t...B(.#F
 0010 d0e90046 9946a642 40d01ffa 83f8244b  ...F.F.B@.....$K
 0020 0f469246 d3f800b0 05e04245 28bf4246  .F.F......BE(.BF
 0030 3abbb442 2bd02568 0df10603 00220121  :..B+.%h.....".!
 0040 68680834 0028f4d0 0068fff7 feffbdf8  hh.4.(...h......
 0050 06309f42 edd16b68 1868b0f8 64209045  .0.B..kh.h..d .E
 0060 e3d9fff7 feff0028 e3d15846 fff7feff  .......(..XF....
 0070 6b681868 b0f86420 424528bf 4246002a  kh.h..d BE(.BF.*
 0080 d7d00123 5146fff7 feffb442 d3d15846  ...#QF.....B..XF
 0090 fff7feff 484603b0 bde8f08f 044bd3f8  ....HF.......K..
 00a0 00b05846 fff7feff 484603b0 bde8f08f  ..XF....HF......
 00b0 00000000                             ....            
Contents of section .text._ZN9qindesign7network8internal17ConnectionManager5flushEt:
 0000 2de9f041 d0e90046 82b0a642 25d0174b  -..A...F...B%..K
 0010 0f46d3f8 008001e0 b44218d0 25680df1  .F.......B..%h..
 0020 06030022 01216868 08340028 f4d00068  ...".!hh.4.(...h
 0030 fff7feff bdf80630 9f42edd1 6b681868  .......0.B..kh.h
 0040 fff7feff 4046fff7 feffb442 e6d14046  ....@F.....B..@F
 0050 02b0bde8 f041fff7 febf044b d3f80080  .....A.....K....
 0060 404602b0 bde8f041 fff7febf 00000000  @F.....A........
Contents of section .text._ZN9qindesign7network8internal17ConnectionManager17availableForWriteEt:
 0000 2de9f047 d0e90047 82b0a742 26d08946  -..G...G...B&..F
 0010 4ff6ff78 4ff0000a 26680df1 06030022  O..xO...&h....."
 0020 01217568 08347db1 2868fff7 feffbdf8  .!uh.4}.(h......
 0030 06309945 08d17368 4ff0010a 1b68b3f8  .0.E..shO....h..
 0040 64309845 28bf9846 bc42e5d1 baf1000f  d0.E(..F.B......
 0050 14bf4046 002002b0 bde8f087 002002b0  ..@F. ....... ..
 0060 bde8f087                             ....            
Contents of section .rodata._ZNSt6vectorIhSaIhEE7reserveEj.str1.4:
 0000 76656374 6f723a3a 72657365 72766500  vector::reserve.
Contents of section .text._ZNSt6vectorIhSaIhEE7reserveEj:
 0000 2de9f041 0d1e2cdb 06680446 83689b1b  -..A..,..h.F.h..
 0010 ab4201d3 bde8f081 4268921b 9046ddb1  .B......Bh...F..
 0020 2846fff7 feff2668 62680746 921b002a  (F....&hbh.F...*
 0030 08dc9eb9 07eb0803 3d44c4e9 0073a560  ........=D...s.`
 0040 bde8f081 31463846 fff7feff a168891b  ....1F8F.....h..
 0050 3046fff7 feffede7 2f46e8e7 a168891b  0F....../F...h..
 0060 f6e70148 fff7feff 00000000           ...H........    
Contents of section .rodata._ZNSt6vectorIhSaIhEE17_M_default_appendEj.str1.4:
 0000 76656374 6f723a3a 5f4d5f64 65666175  vector::_M_defau
 0010 6c745f61 7070656e 6400               lt_append.      
Contents of section .text._ZNSt6vectorIhSaIhEE17_M_default_appendEj:
 0000 00293bd0 82682de9 f843d0e9 00530c46  .);..h-..C...S.F
 0010 6ff00041 d21a5d1b 06469442 a1eb0500  o..A..]..F.B....
 0020 23d9a042 51d3ac42 234638bf 2b46ef18  #..BQ..B#F8.+F..
 0030 4ed257bb b8460021 012c08eb 050008f8  N.W..F.!.,......
 0040 051001d0 621e38d1 d6e90092 a2eb0902  ....b.8.........
 0050 002a23dc b9f1000f 33d12544 c6f80080  .*#.....3.%D....
 0060 b7604544 7560bde8 f8830021 1846012c  .`EDu`.....!.F.,
 0070 00f8011b 03d17060 bde8f883 7047621e  ......p`....pGb.
 0080 03eb0405 15d12846 f5e78f42 28bf0f46  ......(F...B(..F
 0090 3846fff7 feff8046 0744cce7 49464046  8F.....F.D..IF@F
 00a0 fff7feff b168a1eb 09014846 fff7feff  .....h....HF....
 00b0 d3e7fff7 feff2846 dde70130 fff7feff  ......(F...0....
 00c0 c2e7b168 a1eb0901 efe70248 fff7feff  ...h.......H....
 00d0 0f46dde7 00000000                    .F......        
Contents of section .text._ZN9qindesign7network8internal17ConnectionManager8recvFuncEPvP7tcp_pcbP4pbufa:
 0000 002800f0 c7802de9 f0470f46 82b00029  .(....-..G.F...)
 0010 00f0af80 04461646 98460370 002a38d0  .....F.F.F.p.*8.
 0020 002b36d1 01234568 437055b3 286905f1  .+6..#EhCpU.(i..
 0030 0408b6f8 08e0d5f8 04c0d5e9 02239b1a  .............#..
 0040 1146a2eb 0c0a03eb 0009ce45 00f29a80  .F.........E....
 0050 73450ad2 baeb000a 68d16245 2a461cbf  sE......h.bE*F..
 0060 6146c5f8 08c00023 13613446 00e0a968  aF.....#.a4F...h
 0070 62684046 63891344 fff7feff 2468002c  bh@Fc..D....$h.,
 0080 f5d13846 3189fff7 feff3046 fff7feff  ..8F1.....0F....
 0090 45e00023 63706368 002b44d0 2046fff7  E..#cpch.+D. F..
 00a0 feff9eb1 04f10c09 35466a68 48466b89  ........5FjhHFk.
 00b0 21691344 fff7feff 2d68002d f5d13846  !i.D....-h.-..8F
 00c0 3189fff7 feff3046 fff7feff 65680021  1.....0F....eh.!
 00d0 6160ddb1 2868fff7 feffeb69 63b105f1  a`..(h.....ic...
 00e0 14042b6a 01a90195 20469847 eb691bb1  ..+j.... F.G.i..
 00f0 03222146 20469847 686818b1 e968091a  ."!F F.Ghh...h..
 0100 fff7feff 24212846 fff7feff 28f00208  ....$!(F....(...
 0110 18f10f0f 03d03846 fff7feff 60bb0020  ......8F....`.. 
 0120 02b0bde8 f087002e f0d0c8e7 0ceb0001  ................
 0130 531a0fd1 a2eb0c03 11469a45 02d810d3  S........F.E....
 0140 626890e7 aaeb0301 4046fff7 feff6268  bh......@F....bh
 0150 a96888e7 60461a46 fff7feff d5e901c2  .h..`F.F........
 0160 e8e70ceb 0a036268 99421cbf 1946ab60  ......bh.B...F.`
 0170 79e76ff0 0f00d3e7 3846fff7 feff6ff0  y.o.....8F....o.
 0180 0c00cde7 38461ffa 89f1fff7 feff6ff0  ....8F........o.
 0190 0400c5e7 6ff00f00 704700bf           ....o...pG..    
Contents of section .rodata._ZNSt6vectorISt10shared_ptrIN9qindesign7network8internal16ConnectionHolderEESaIS5_EE17_M_realloc_insertIJRKS5_EEEvN9__gnu_cxx17__normal_iteratorIPS5_S7_EEDpOT_.str1.4:
 0000 76656374 6f723a3a 5f4d5f72 65616c6c  vector::_M_reall
 0010 6f635f69 6e736572 7400               oc_insert.      
Contents of section .text._ZNSt6vectorISt10shared_ptrIN9qindesign7network8internal16ConnectionHolderEESaIS5_EE17_M_realloc_insertIJRKS5_EEEvN9__gnu_cxx17__normal_iteratorIPS5_S7_EEDpOT_:
 0000 2de9f04f d0e900b3 85b08846 0e466ff0  -..O.......F.Fo.
 0010 70410293 a3eb0b03 b1ebe30f 7cd01546  pA..........|..F
 0020 da108246 a8eb0b07 012a1346 38bf0123  ...F.....*.F8..#
 0030 9b186fd2 002b60d1 08240193 0093009a  ..o..+`..$......
 0040 2b68d119 d3516a68 4a6012b1 53680133  +h...QjhJ`..Sh.3
 0050 5360d845 2cd00bf1 08075d46 009c4ff0  S`.E,.....]F..O.
 0060 00090396 00e01c46 57f8083c c4e90039  .......FW..<...9
 0070 6b68c5f8 04906360 6e6847f8 089c7eb1  kh....c`nhG...~.
 0080 7368013b 73605bb9 33683046 9b689847  sh.;s`[.3h0F.h.G
 0090 b368013b b3601bb9 33683046 db689847  .h.;.`..3h0F.h.G
 00a0 083504f1 08030837 4545dcd1 039e1034  .5.....7EE.....4
 00b0 029b9845 1fd0a3eb 080804eb 08050834  ...E...........4
 00c0 d6e90023 ac4206f1 080644e9 0223f6d1  ...#.B....D..#..
 00d0 bbf1000f 06d0daf8 08105846 a1eb0b01  ..........XF....
 00e0 fff7feff 009bcae9 0035019b caf80830  .........5.....0
 00f0 05b0bde8 f08f2546 eae78b42 28bf0b46  ......%F...B(..F
 0100 dc002046 fff7feff 02190090 00f10804  .. F............
 0110 019294e7 024cf4e7 0248fff7 feff00bf  .....L...H......
 0120 f8ffff7f 00000000                    ........        
Contents of section .text._ZN9qindesign7network8internal17ConnectionManager13addConnectionERKSt10shared_ptrINS1_16ConnectionHolderEE:
 0000 2de9f041 0d4686b0 0646d0e9 01139942  -..A.F...F.....B
 0010 65d0d5e9 0023c1e9 002313b1 5a680132  e....#...#..Zh.2
 0020 5a600831 7160d5e9 0084002c 49d06368  Z`.1q`.....,I.ch
 0030 02add8f8 04700c20 01336360 00230293  .....p. .3c`.#..
 0040 0593c5e9 0133fff7 feff6368 84600133  .....3....ch.`.3
 0050 c0e90068 63606a46 07f11403 0290dff8  ...hc`jF........
 0060 8cc0214e 95e80300 82e80300 93e80300  ..!N............
 0070 85e80300 92e80300 83e80300 fb693a6a  .............i:j
 0080 c7f81cc0 04933e62 05921bb1 03222946  ......>b.....")F
 0090 28469847 94b16368 013b6360 73b92368  (F.G..ch.;c`s.#h
 00a0 20469b68 9847a368 013ba360 33b92368   F.h.G.h.;.`3.#h
 00b0 2046db68 06b0bde8 f0411847 06b0bde8   F.h.....A.G....
 00c0 f08102ad d8f80470 0c200294 0594c5e9  .......p. ......
 00d0 0144fff7 feff8460 c0e90068 bbe72a46  .D.....`...h..*F
 00e0 fff7feff 9fe700bf 00000000 00000000  ................
Contents of section .text._ZN9qindesign7network8internal17ConnectionManager10acceptFuncEPvP7tcp_pcba:
 0000 002800f0 97802de9 f0430f46 85b00029  .(....-..C.F...)
 0010 00f08d80 144692b1 22f00204 0f3403d1  .....F.."....4..
 0020 002005b0 bde8f083 0846fff7 feff0028  . .......F.....(
 0030 f6d03846 fff7feff 6ff00c00 f1e78046  ..8F....o......F
 0040 2420fff7 feff0123 06463c4a 05460390  $ .....#.F<J.F..
 0050 c0e90133 46f80c2b c460b460 43730461  ...3F..+.`.`Cs.a
 0060 04620296 c0e90644 2420fff7 feff3146  .b.....D$ ....1F
 0070 06460462 c0e90074 c0e90244 c0e90444  .F.b...t...D...D
 0080 c0e90644 3846fff7 feff41f2 d061301d  ...D8F....A..a0.
 0090 fff7feff d5f81090 2e61b9f1 000f23d0  .........a....#.
 00a0 2146d9f8 0000fff7 feffd9f8 1c307bb1  !F...........0{.
 00b0 09f11404 d9f82030 01a9cdf8 04902046  ...... 0...... F
 00c0 9847d9f8 1c301bb1 03222146 20469847  .G...0..."!F F.G
 00d0 d9f80400 20b1d9f8 0c10091a fff7feff  .... ...........
 00e0 24214846 fff7feff 15493846 fff7feff  $!HF.....I8F....
 00f0 14493846 fff7feff 02a94046 fff7feff  .I8F......@F....
 0100 039c002c 8cd06368 013b6360 002b87d1  ...,..ch.;c`.+..
 0110 23682046 9b689847 a368013b a360002b  #h F.h.G.h.;.`.+
 0120 7ff47eaf 23682046 db689847 78e76ff0  ..~.#h F.h.Gx.o.
 0130 0f0076e7 6ff00f00 704700bf 08000000  ..v.o...pG......
 0140 00000000 00000000                    ........        
Contents of section .text._ZN9qindesign7network8internal17ConnectionManager7connectEPK8ip4_addrt:
 0000 2de9f04f 044687b0 1546002a 00f09180  -..O.F...F.*....
 0010 00208946 9846fff7 feff0746 002800f0  . .F.F.....F.(..
 0020 98800022 5449fff7 feff0646 002840f0  ..."TI.....F.(@.
 0030 86802420 fff7feff 01238346 82460590  ..$ .....#.F.F..
 0040 c0e90133 4d4b4bf8 0c3bc660 cbf80860  ...3MKK..;.`...`
 0050 06610662 cdf810b0 c0e90666 2420fff7  .a.b.......f$ ..
 0060 feff5946 83460662 c0e90076 c0e90266  ..YF.F.b...v...f
 0070 c0e90466 c0e90666 3846fff7 feff41f2  ...f...f8F....A.
 0080 d0610bf1 0400fff7 feffdaf8 1030caf8  .a...........0..
 0090 10b013b3 18683146 0193fff7 feff019b  .....h1F........
 00a0 da6972b1 03f1140b 1a6a0393 03a95846  .ir......j....XF
 00b0 9047019b de6926b1 03225946 5846b047  .G...i&.."YFXF.G
 00c0 019b5868 28b1d968 0193091a fff7feff  ..Xh(..h........
 00d0 019b1846 2421fff7 feff2949 3846fff7  ...F$!....)I8F..
 00e0 feff2849 3846fff7 feff4246 2946264b  ..(I8F....BF)F&K
 00f0 3846fff7 feffb0b3 3846fff7 feffdaf8  8F......8F......
 0100 04300022 013bc4e9 0022caf8 043093b9  .0.".;..."...0..
 0110 daf80030 50469b68 9847daf8 0830013b  ...0PF.h.G...0.;
 0120 caf80830 3bb9daf8 00305046 db689847  ...0;....0PF.h.G
 0130 01e0c0e9 00222046 07b0bde8 f08f3846  ....." F......8F
 0140 fff7feff 00232046 c4e90033 07b0bde8  .....# F...3....
 0150 f08f0e4b 1868fff7 feff2046 c4e90077  ...K.h.... F...w
 0160 07b0bde8 f08f04a9 4846fff7 feffdde9  ........HF......
 0170 0423c4e9 0023dee7 00000000 08000000  .#...#..........
 0180 00000000 00000000 00000000 00000000  ................
Contents of section .text._ZNSt6vectorISt10shared_ptrIN9qindesign7network8internal16ConnectionHolderEESaIS5_EE8_M_eraseEN9__gnu_cxx17__normal_iteratorIPS5_S7_EE:
 0000 2de9f843 426801f1 08038146 88469a42  -..CBh.....F.F.B
 0010 25d0d31a 002b4fea e3063add 01f11004  %....+O...:.....
 0020 002754f8 043c54e9 035244e9 027744e9  .'T..<T..RD..wD.
 0030 04230834 7db16b68 2846013b 6b6053b9  .#.4}.kh(F.;k`S.
 0040 2b689b68 9847ab68 2846013b ab6013b9  +h.h.G.h(F.;.`..
 0050 2b68db68 9847013e e3d1d9f8 0430a3f1  +h.h.G.>.....0..
 0060 080253f8 044cc9f8 04207cb1 6368013b  ..S..L... |.ch.;
 0070 63605bb9 23682046 9b689847 a368013b  c`[.#h F.h.G.h.;
 0080 a3601bb9 23682046 db689847 4046bde8  .`..#h F.h.G@F..
 0090 f8831346 e3e700bf                    ...F....        
Contents of section .text._ZN9qindesign7network8internal17ConnectionManager6removeERKSt10shared_ptrINS1_16ConnectionHolderEE:
 0000 2de9f041 d1e90056 0746d0e9 004836b1  -..A...V.F...H6.
 0010 7368da1c 7260002a 74d00433 7360a8eb  sh..r`.*t..3s`..
 0020 04035a11 db10002a 40f38180 04eb4212  ..Z....*@.....B.
 0030 0ee0a368 9d4200f0 9e802369 9d4200f0  ...h.B....#i.B..
 0040 9d80a369 9d4200f0 9c802034 a2426bd0  ...i.B.... 4.Bk.
 0050 23689d42 edd1a046 002e3bd0 7368013b  #h.B...F..;.sh.;
 0060 73604bb9 33683046 9b689847 b368013b  s`K.3h0F.h.G.h.;
 0070 b360002b 6fd07368 013b7360 6bb93368  .`.+o.sh.;s`k.3h
 0080 30469b68 9847b368 013bb360 002b60d1  0F.h.G.h.;.`.+`.
 0090 33683046 db689847 7368013b 73606bb9  3h0F.h.Gsh.;s`k.
 00a0 33683046 9b689847 b368013b b360002b  3h0F.h.G.h.;.`.+
 00b0 4dd13368 3046db68 98477368 013b7360  M.3h0F.h.Gsh.;s`
 00c0 43b93368 30469b68 9847b368 013bb360  C.3h0F.h.G.h.;.`
 00d0 002b37d0 7b684345 23d0d8f8 00305c68  .+7.{hCE#....0\h
 00e0 4cb1e369 3bb104f1 14010322 08469847  L..i;......".F.G
 00f0 0023c4e9 07334146 3846fff7 feff0120  .#...3AF8F..... 
 0100 bde8f081 33683046 9b689847 b368013b  ....3h0F.h.G.h.;
 0110 b3601bb9 33683046 db689847 73680133  .`..3h0F.h.Gsh.3
 0120 7ce70020 bde8f081 a8eb0403 db10022b  |.. ...........+
 0130 1bd0032b 14d0012b 8ed12368 9d4208bf  ...+...+..#h.B..
 0140 a04689e7 33683046 db689847 c2e77368  .F..3h0F.h.G..sh
 0150 b4e77368 a1e73368 3046db68 98478ae7  ..sh..3h0F.h.G..
 0160 23689d42 3ff477af 08342368 9d423ff4  #h.B?.w..4#h.B?.
 0170 72af0834 e1e704f1 08086de7 04f11008  r..4......m.....
 0180 6ae704f1 180867e7                    j.....g.        
Contents of section .text._ZNSt17_Function_handlerIFvPN9qindesign7network8internal15ConnectionStateEEZNS2_17ConnectionManager13addConnectionERKSt10shared_ptrINS2_16ConnectionHolderEEEUlS4_E_E9_M_invokeERKSt9_Any_dataOS4_:
 0000 2de9f041 0768d7e9 0035be68 d3e90048  -..A.h...5.h...H
 0010 36b17368 da1c7260 002a63d0 04337360  6.sh..r`.*c..3s`
 0020 a8eb0403 5a11db10 002a6ddd 04eb4212  ....Z....*m...B.
 0030 0ee0a368 9d4200f0 89802369 9d4200f0  ...h.B....#i.B..
 0040 8880a369 9d4200f0 87802034 a24258d0  ...i.B.... 4.BX.
 0050 23689d42 edd1a046 002e3ad0 7368013b  #h.B...F..:.sh.;
 0060 73604bb9 33683046 9b689847 b368013b  s`K.3h0F.h.G.h.;
 0070 b360002b 5cd07368 013b7360 6bb93368  .`.+\.sh.;s`k.3h
 0080 30469b68 9847b368 013bb360 002b4dd1  0F.h.G.h.;.`.+M.
 0090 33683046 db689847 7368013b 73606bb9  3h0F.h.Gsh.;s`k.
 00a0 33683046 9b689847 b368013b b360002b  3h0F.h.G.h.;.`.+
 00b0 3ad13368 3046db68 98477368 013b7360  :.3h0F.h.Gsh.;s`
 00c0 3bb93368 30469b68 9847b368 013bb360  ;.3h0F.h.G.h.;.`
 00d0 2bb33868 43684345 02d04146 fff7feff  +.8hChCE..AF....
 00e0 bde8f081 33683046 9b689847 b368013b  ....3h0F.h.G.h.;
 00f0 b3601bb9 33683046 db689847 73680133  .`..3h0F.h.Gsh.3
 0100 8de7a8eb 0403db10 022b1ad0 032b14d0  .........+...+..
 0110 012ba1d1 23689d42 08bfa046 9ce73368  .+..#h.B...F..3h
 0120 3046db68 9847d4e7 7368c7e7 7368b4e7  0F.h.G..sh..sh..
 0130 33683046 db689847 9de72368 9d428ad0  3h0F.h.G..#h.B..
 0140 08342368 9d4286d0 0834e3e7 04f10808  .4#h.B...4......
 0150 82e704f1 10087fe7 04f11808 7ce700bf  ............|...
Contents of section .text._ZNSt6vectorIP7tcp_pcbSaIS1_EE17_M_realloc_insertIJRKS1_EEEvN9__gnu_cxx17__normal_iteratorIPS1_S3_EEDpOT_:
 0000 2de9f84f d0e90089 0f469246 6ff06041  -..O.....F.Fo.`A
 0010 a9eb0802 b1eba20f 54d09310 0646a7eb  ........T....F..
 0020 0805012b 1a4638bf 01229c18 48d2002c  ...+.F8.."..H..,
 0030 3cd1a346 daf80030 002d4bf8 053024dc  <..F...0.-K..0$.
 0040 a9eb0709 0435b9f1 000f5d44 13dc4d44  .....5....]D..MD
 0050 b8f1000f 04d1b460 c6e900b5 bde8f88f  .......`........
 0060 b168a1eb 08014046 fff7feff b460c6e9  .h....@F.....`..
 0070 00b5bde8 f88f2846 39464a46 4d44fff7  ......(F9FJFMD..
 0080 feffb8f1 000fe6d0 eae7a9eb 07092a46  ..............*F
 0090 41465846 0435fff7 feffb9f1 000f5d44  AFXF.5........]D
 00a0 e9dcb168 4d44a1eb 0801dce7 8c4228bf  ...hMD.......B(.
 00b0 0c46a400 2046fff7 feff8346 0444b9e7  .F.. F.....F.D..
 00c0 024cf7e7 0248fff7 feff00bf fcffff7f  .L...H..........
 00d0 00000000                             ....            
Contents of section .text._ZN9qindesign7network8internal17ConnectionManager6listenEtb:
 0000 70b584b0 06462e20 1446adf8 0610fff7  p....F. .F......
 0010 feff0390 002843d0 05460cbb bdf80620  .....(C..F..... 
 0020 28462349 fff7feff 88bbff21 2846fff7  (F#I.......!(F..
 0030 feff0446 88b30390 d6e90413 99421fd0  ...F.........B..
 0040 41f8040b 31613146 2046fff7 feff2046  A...1a1F F.... F
 0050 1849fff7 feffbdf8 060030b1 04b070bd  .I........0...p.
 0060 437a43f0 04034372 d8e70246 0df10603  CzC...Cr...F....
 0070 01212046 fff7feff bdf80600 04b070bd  .! F..........p.
 0080 03aa06f1 0c00fff7 feff039c dbe72846  ..............(F
 0090 fff7feff 4ff0ff30 e0e72846 fff7feff  ....O..0..(F....
 00a0 054b1868 fff7feff 4ff0ff30 d6e700bf  .K.h....O..0....
 00b0 00000000 00000000 00000000           ............    
Contents of section .text.startup._GLOBAL__sub_I__ZN9qindesign7network8internal17ConnectionManager8instanceEv:
 0000 1a4a1368 591c10b5 1160d3b1 184a1949  .J.hY....`...J.I
 0010 1948fff7 feff194a 1368591c 1160f3b1  .H.....J.hY..`..
 0020 134a1749 1748fff7 feff174a 1368591c  .J.I.H.....J.hY.
 0030 11606bb1 0e4a1549 1548bde8 1040fff7  .`k..J.I.H...@..
 0040 febf144c 2046fff7 feff134b 1c60dde7  ...L F.....K.`..
 0050 124c2046 fff7feff 114b1c60 eae7114c  .L F.....K.`...L
 0060 2046fff7 feff104b 1c60d9e7 00000000   F.....K.`......
 0070 00000000 00000000 00000000 00000000  ................
 0080 00000000 00000000 00000000 00000000  ................
 0090 00000000 00000000 00000000 00000000  ................
 00a0 00000000 00000000 00000000           ............    
Contents of section .init_array:
 0000 00000000                             ....            
Contents of section .rodata._ZTVSt23_Sp_counted_ptr_inplaceIN9qindesign7network8internal16ConnectionHolderESaIS3_ELN9__gnu_cxx12_Lock_policyE0EE:
 0000 00000000 00000000 00000000 00000000  ................
 0010 00000000 00000000 00000000           ............    
Contents of section .rodata._ZZNSt19_Sp_make_shared_tag5_S_tiEvE5__tag:
 0000 00000000 00000000                    ........        
Contents of section .comment:
 0000 00474343 3a202841 726d2047 4e552054  .GCC: (Arm GNU T
 0010 6f6f6c63 6861696e 2031312e 332e5265  oolchain 11.3.Re
 0020 6c312920 31312e33 2e312032 30323230  l1) 11.3.1 20220
 0030 37313200                             712.            
Contents of section .ARM.attributes:
 0000 41310000 00616561 62690001 27000000  A1...aeabi..'...
 0010 0537452d 4d00060d 074d0902 0a081204  .7E-M....M......
 0020 14011501 17031801 19011a01 1c011e02  ................
 0030 2201                                 ".              

Disassembly of section .text._ZNSt23_Sp_counted_ptr_inplaceIN9qindesign7network8internal16ConnectionHolderESaIS3_ELN9__gnu_cxx12_Lock_policyE0EED2Ev:

00000000 <_ZNSt23_Sp_counted_ptr_inplaceIN9qindesign7network8internal16ConnectionHolderESaIS3_ELN9__gnu_cxx12_Lock_policyE0EED1Ev>:
   0:	4770      	bx	lr
   2:	bf00      	nop

Disassembly of section .text._ZN10StaticInitIN9qindesign8security12RandomDeviceEED2Ev:

00000000 <_ZN10StaticInitIN9qindesign8security12RandomDeviceEED1Ev>:
   0:	4a03      	ldr	r2, [pc, #12]	; (10 <_ZN10StaticInitIN9qindesign8security12RandomDeviceEED1Ev+0x10>)
   2:	6813      	ldr	r3, [r2, #0]
   4:	3b01      	subs	r3, #1
   6:	6013      	str	r3, [r2, #0]
   8:	b90b      	cbnz	r3, e <_ZN10StaticInitIN9qindesign8security12RandomDeviceEED1Ev+0xe>
   a:	4a02      	ldr	r2, [pc, #8]	; (14 <_ZN10StaticInitIN9qindesign8security12RandomDeviceEED1Ev+0x14>)
   c:	6013      	str	r3, [r2, #0]
   e:	4770      	bx	lr
  10:	00000000 	.word	0x00000000
  14:	00000000 	.word	0x00000000

Disassembly of section .text._ZNSt23_Sp_counted_ptr_inplaceIN9qindesign7network8internal16ConnectionHolderESaIS3_ELN9__gnu_cxx12_Lock_policyE0EED0Ev:

00000000 <_ZNSt23_Sp_counted_ptr_inplaceIN9qindesign7network8internal16ConnectionHolderESaIS3_ELN9__gnu_cxx12_Lock_policyE0EED0Ev>:
   0:	b510      	push	{r4, lr}
   2:	4604      	mov	r4, r0
   4:	2124      	movs	r1, #36	; 0x24
   6:	f7ff fffe 	bl	0 <_ZdlPvj>
   a:	4620      	mov	r0, r4
   c:	bd10      	pop	{r4, pc}
   e:	bf00      	nop

Disassembly of section .text._ZNSt23_Sp_counted_ptr_inplaceIN9qindesign7network8internal16ConnectionHolderESaIS3_ELN9__gnu_cxx12_Lock_policyE0EE10_M_destroyEv:

00000000 <_ZNSt23_Sp_counted_ptr_inplaceIN9qindesign7network8internal16ConnectionHolderESaIS3_ELN9__gnu_cxx12_Lock_policyE0EE10_M_destroyEv>:
   0:	2124      	movs	r1, #36	; 0x24
   2:	f7ff bffe 	b.w	0 <_ZdlPvj>
   6:	bf00      	nop

Disassembly of section .text._ZNSt23_Sp_counted_ptr_inplaceIN9qindesign7network8internal16ConnectionHolderESaIS3_ELN9__gnu_cxx12_Lock_policyE0EE14_M_get_deleterERKSt9type_info:

00000000 <_ZNSt23_Sp_counted_ptr_inplaceIN9qindesign7network8internal16ConnectionHolderESaIS3_ELN9__gnu_cxx12_Lock_policyE0EE14_M_get_deleterERKSt9type_info>:
   0:	4b06      	ldr	r3, [pc, #24]	; (1c <_ZNSt23_Sp_counted_ptr_inplaceIN9qindesign7network8internal16ConnectionHolderESaIS3_ELN9__gnu_cxx12_Lock_policyE0EE14_M_get_deleterERKSt9type_info+0x1c>)
   2:	4299      	cmp	r1, r3
   4:	b510      	push	{r4, lr}
   6:	f100 040c 	add.w	r4, r0, #12
   a:	d005      	beq.n	18 <_ZNSt23_Sp_counted_ptr_inplaceIN9qindesign7network8internal16ConnectionHolderESaIS3_ELN9__gnu_cxx12_Lock_policyE0EE14_M_get_deleterERKSt9type_info+0x18>
   c:	4608      	mov	r0, r1
   e:	f7ff fffe 	bl	0 <_ZNSt19_Sp_make_shared_tag5_S_eqERKSt9type_info>
  12:	2800      	cmp	r0, #0
  14:	bf08      	it	eq
  16:	2400      	moveq	r4, #0
  18:	4620      	mov	r0, r4
  1a:	bd10      	pop	{r4, pc}
  1c:	00000000 	.word	0x00000000

Disassembly of section .text._ZN10StaticInitIN9qindesign7network13EthernetClassEED2Ev:

00000000 <_ZN10StaticInitIN9qindesign7network13EthernetClassEED1Ev>:
   0:	4b07      	ldr	r3, [pc, #28]	; (20 <_ZN10StaticInitIN9qindesign7network13EthernetClassEED1Ev+0x20>)
   2:	b570      	push	{r4, r5, r6, lr}
   4:	681c      	ldr	r4, [r3, #0]
   6:	4605      	mov	r5, r0
   8:	3c01      	subs	r4, #1
   a:	601c      	str	r4, [r3, #0]
   c:	b10c      	cbz	r4, 12 <_ZN10StaticInitIN9qindesign7network13EthernetClassEED1Ev+0x12>
   e:	4628      	mov	r0, r5
  10:	bd70      	pop	{r4, r5, r6, pc}
  12:	4e04      	ldr	r6, [pc, #16]	; (24 <_ZN10StaticInitIN9qindesign7network13EthernetClassEED1Ev+0x24>)
  14:	6830      	ldr	r0, [r6, #0]
  16:	f7ff fffe 	bl	0 <_ZN9qindesign7network13EthernetClassD1Ev>
  1a:	4628      	mov	r0, r5
  1c:	6034      	str	r4, [r6, #0]
  1e:	bd70      	pop	{r4, r5, r6, pc}
  20:	00000000 	.word	0x00000000
  24:	00000000 	.word	0x00000000

Disassembly of section .text._ZN10StaticInitIN9qindesign7network9MDNSClassEED2Ev:

00000000 <_ZN10StaticInitIN9qindesign7network9MDNSClassEED1Ev>:
   0:	4b07      	ldr	r3, [pc, #28]	; (20 <_ZN10StaticInitIN9qindesign7network9MDNSClassEED1Ev+0x20>)
   2:	b570      	push	{r4, r5, r6, lr}
   4:	681c      	ldr	r4, [r3, #0]
   6:	4605      	mov	r5, r0
   8:	3c01      	subs	r4, #1
   a:	601c      	str	r4, [r3, #0]
   c:	b10c      	cbz	r4, 12 <_ZN10StaticInitIN9qindesign7network9MDNSClassEED1Ev+0x12>
   e:	4628      	mov	r0, r5
  10:	bd70      	pop	{r4, r5, r6, pc}
  12:	4e04      	ldr	r6, [pc, #16]	; (24 <_ZN10StaticInitIN9qindesign7network9MDNSClassEED1Ev+0x24>)
  14:	6830      	ldr	r0, [r6, #0]
  16:	f7ff fffe 	bl	0 <_ZN9qindesign7network9MDNSClassD1Ev>
  1a:	4628      	mov	r0, r5
  1c:	6034      	str	r4, [r6, #0]
  1e:	bd70      	pop	{r4, r5, r6, pc}
  20:	00000000 	.word	0x00000000
  24:	00000000 	.word	0x00000000

Disassembly of section .text._ZN9qindesign7network8internalL18maybeCopyRemainingEPNS1_16ConnectionHolderE:

00000000 <_ZN9qindesign7network8internalL18maybeCopyRemainingEPNS1_16ConnectionHolderE>:
   0:	e92d 4ff0 	stmdb	sp!, {r4, r5, r6, r7, r8, r9, sl, fp, lr}
   4:	e9d0 7303 	ldrd	r7, r3, [r0, #12]
   8:	2100      	movs	r1, #0
   a:	4604      	mov	r4, r0
   c:	429f      	cmp	r7, r3
   e:	6843      	ldr	r3, [r0, #4]
  10:	b083      	sub	sp, #12
  12:	bf18      	it	ne
  14:	6107      	strne	r7, [r0, #16]
  16:	689d      	ldr	r5, [r3, #8]
  18:	6081      	str	r1, [r0, #8]
  1a:	691e      	ldr	r6, [r3, #16]
  1c:	685b      	ldr	r3, [r3, #4]
  1e:	1ae8      	subs	r0, r5, r3
  20:	4286      	cmp	r6, r0
  22:	d302      	bcc.n	2a <_ZN9qindesign7network8internalL18maybeCopyRemainingEPNS1_16ConnectionHolderE+0x2a>
  24:	b003      	add	sp, #12
  26:	e8bd 8ff0 	ldmia.w	sp!, {r4, r5, r6, r7, r8, r9, sl, fp, pc}
  2a:	441e      	add	r6, r3
  2c:	f8d4 8010 	ldr.w	r8, [r4, #16]
  30:	42b5      	cmp	r5, r6
  32:	d0f7      	beq.n	24 <_ZN9qindesign7network8internalL18maybeCopyRemainingEPNS1_16ConnectionHolderE+0x24>
  34:	6963      	ldr	r3, [r4, #20]
  36:	1bad      	subs	r5, r5, r6
  38:	eba3 0308 	sub.w	r3, r3, r8
  3c:	429d      	cmp	r5, r3
  3e:	d808      	bhi.n	52 <_ZN9qindesign7network8internalL18maybeCopyRemainingEPNS1_16ConnectionHolderE+0x52>
  40:	462a      	mov	r2, r5
  42:	4631      	mov	r1, r6
  44:	4640      	mov	r0, r8
  46:	f7ff fffe 	bl	0 <memmove>
  4a:	6923      	ldr	r3, [r4, #16]
  4c:	442b      	add	r3, r5
  4e:	6123      	str	r3, [r4, #16]
  50:	e7e8      	b.n	24 <_ZN9qindesign7network8internalL18maybeCopyRemainingEPNS1_16ConnectionHolderE+0x24>
  52:	eba8 0a07 	sub.w	sl, r8, r7
  56:	f06f 4200 	mvn.w	r2, #2147483648	; 0x80000000
  5a:	eba2 030a 	sub.w	r3, r2, sl
  5e:	429d      	cmp	r5, r3
  60:	d84c      	bhi.n	fc <_ZN9qindesign7network8internalL18maybeCopyRemainingEPNS1_16ConnectionHolderE+0xfc>
  62:	45aa      	cmp	sl, r5
  64:	4653      	mov	r3, sl
  66:	bf38      	it	cc
  68:	462b      	movcc	r3, r5
  6a:	eb13 030a 	adds.w	r3, r3, sl
  6e:	d243      	bcs.n	f8 <_ZN9qindesign7network8internalL18maybeCopyRemainingEPNS1_16ConnectionHolderE+0xf8>
  70:	b9ab      	cbnz	r3, 9e <_ZN9qindesign7network8internalL18maybeCopyRemainingEPNS1_16ConnectionHolderE+0x9e>
  72:	4699      	mov	r9, r3
  74:	469b      	mov	fp, r3
  76:	f1ba 0f00 	cmp.w	sl, #0
  7a:	d11d      	bne.n	b8 <_ZN9qindesign7network8internalL18maybeCopyRemainingEPNS1_16ConnectionHolderE+0xb8>
  7c:	4631      	mov	r1, r6
  7e:	462a      	mov	r2, r5
  80:	4658      	mov	r0, fp
  82:	445d      	add	r5, fp
  84:	f7ff fffe 	bl	0 <memcpy>
  88:	6923      	ldr	r3, [r4, #16]
  8a:	ebb3 0608 	subs.w	r6, r3, r8
  8e:	d12c      	bne.n	ea <_ZN9qindesign7network8internalL18maybeCopyRemainingEPNS1_16ConnectionHolderE+0xea>
  90:	4455      	add	r5, sl
  92:	bb27      	cbnz	r7, de <_ZN9qindesign7network8internalL18maybeCopyRemainingEPNS1_16ConnectionHolderE+0xde>
  94:	f8c4 9014 	str.w	r9, [r4, #20]
  98:	e9c4 b503 	strd	fp, r5, [r4, #12]
  9c:	e7c2      	b.n	24 <_ZN9qindesign7network8internalL18maybeCopyRemainingEPNS1_16ConnectionHolderE+0x24>
  9e:	4293      	cmp	r3, r2
  a0:	bf28      	it	cs
  a2:	4613      	movcs	r3, r2
  a4:	4699      	mov	r9, r3
  a6:	4648      	mov	r0, r9
  a8:	f7ff fffe 	bl	0 <_Znwj>
  ac:	68e7      	ldr	r7, [r4, #12]
  ae:	4683      	mov	fp, r0
  b0:	4481      	add	r9, r0
  b2:	eba8 0a07 	sub.w	sl, r8, r7
  b6:	e7de      	b.n	76 <_ZN9qindesign7network8internalL18maybeCopyRemainingEPNS1_16ConnectionHolderE+0x76>
  b8:	eb0b 030a 	add.w	r3, fp, sl
  bc:	4652      	mov	r2, sl
  be:	4639      	mov	r1, r7
  c0:	4658      	mov	r0, fp
  c2:	9301      	str	r3, [sp, #4]
  c4:	f7ff fffe 	bl	0 <memmove>
  c8:	9b01      	ldr	r3, [sp, #4]
  ca:	4631      	mov	r1, r6
  cc:	462a      	mov	r2, r5
  ce:	4618      	mov	r0, r3
  d0:	195d      	adds	r5, r3, r5
  d2:	f7ff fffe 	bl	0 <memcpy>
  d6:	6926      	ldr	r6, [r4, #16]
  d8:	ebb6 0608 	subs.w	r6, r6, r8
  dc:	d105      	bne.n	ea <_ZN9qindesign7network8internalL18maybeCopyRemainingEPNS1_16ConnectionHolderE+0xea>
  de:	6961      	ldr	r1, [r4, #20]
  e0:	4638      	mov	r0, r7
  e2:	1bc9      	subs	r1, r1, r7
  e4:	f7ff fffe 	bl	0 <_ZdlPvj>
  e8:	e7d4      	b.n	94 <_ZN9qindesign7network8internalL18maybeCopyRemainingEPNS1_16ConnectionHolderE+0x94>
  ea:	4641      	mov	r1, r8
  ec:	4628      	mov	r0, r5
  ee:	4632      	mov	r2, r6
  f0:	46b2      	mov	sl, r6
  f2:	f7ff fffe 	bl	0 <memcpy>
  f6:	e7cb      	b.n	90 <_ZN9qindesign7network8internalL18maybeCopyRemainingEPNS1_16ConnectionHolderE+0x90>
  f8:	4691      	mov	r9, r2
  fa:	e7d4      	b.n	a6 <_ZN9qindesign7network8internalL18maybeCopyRemainingEPNS1_16ConnectionHolderE+0xa6>
  fc:	4801      	ldr	r0, [pc, #4]	; (104 <_ZN9qindesign7network8internalL18maybeCopyRemainingEPNS1_16ConnectionHolderE+0x104>)
  fe:	f7ff fffe 	bl	0 <_ZSt20__throw_length_errorPKc>
 102:	bf00      	nop
 104:	00000000 	.word	0x00000000

Disassembly of section .text._ZNSt6vectorIhSaIhEE15_M_range_insertIPhEEvN9__gnu_cxx17__normal_iteratorIS3_S1_EET_S7_St20forward_iterator_tag.isra.0:

00000000 <_ZNSt6vectorIhSaIhEE15_M_range_insertIPhEEvN9__gnu_cxx17__normal_iteratorIS3_S1_EET_S7_St20forward_iterator_tag.isra.0>:
   0:	429a      	cmp	r2, r3
   2:	d054      	beq.n	ae <_ZNSt6vectorIhSaIhEE15_M_range_insertIPhEEvN9__gnu_cxx17__normal_iteratorIS3_S1_EET_S7_St20forward_iterator_tag.isra.0+0xae>
   4:	e92d 4ff8 	stmdb	sp!, {r3, r4, r5, r6, r7, r8, r9, sl, fp, lr}
   8:	eba3 0802 	sub.w	r8, r3, r2
   c:	4617      	mov	r7, r2
   e:	4604      	mov	r4, r0
  10:	460e      	mov	r6, r1
  12:	e9d0 5201 	ldrd	r5, r2, [r0, #4]
  16:	1b52      	subs	r2, r2, r5
  18:	4590      	cmp	r8, r2
  1a:	d817      	bhi.n	4c <_ZNSt6vectorIhSaIhEE15_M_range_insertIPhEEvN9__gnu_cxx17__normal_iteratorIS3_S1_EET_S7_St20forward_iterator_tag.isra.0+0x4c>
  1c:	eba5 0901 	sub.w	r9, r5, r1
  20:	45c8      	cmp	r8, r9
  22:	d245      	bcs.n	b0 <_ZNSt6vectorIhSaIhEE15_M_range_insertIPhEEvN9__gnu_cxx17__normal_iteratorIS3_S1_EET_S7_St20forward_iterator_tag.isra.0+0xb0>
  24:	eba5 0908 	sub.w	r9, r5, r8
  28:	4642      	mov	r2, r8
  2a:	4628      	mov	r0, r5
  2c:	4649      	mov	r1, r9
  2e:	f7ff fffe 	bl	0 <memmove>
  32:	6863      	ldr	r3, [r4, #4]
  34:	ebb9 0206 	subs.w	r2, r9, r6
  38:	4443      	add	r3, r8
  3a:	6063      	str	r3, [r4, #4]
  3c:	d167      	bne.n	10e <_ZNSt6vectorIhSaIhEE15_M_range_insertIPhEEvN9__gnu_cxx17__normal_iteratorIS3_S1_EET_S7_St20forward_iterator_tag.isra.0+0x10e>
  3e:	4642      	mov	r2, r8
  40:	4639      	mov	r1, r7
  42:	4630      	mov	r0, r6
  44:	e8bd 4ff8 	ldmia.w	sp!, {r3, r4, r5, r6, r7, r8, r9, sl, fp, lr}
  48:	f7ff bffe 	b.w	0 <memmove>
  4c:	f8d0 9000 	ldr.w	r9, [r0]
  50:	f06f 4200 	mvn.w	r2, #2147483648	; 0x80000000
  54:	eba5 0509 	sub.w	r5, r5, r9
  58:	1b53      	subs	r3, r2, r5
  5a:	4598      	cmp	r8, r3
  5c:	d86d      	bhi.n	13a <_ZNSt6vectorIhSaIhEE15_M_range_insertIPhEEvN9__gnu_cxx17__normal_iteratorIS3_S1_EET_S7_St20forward_iterator_tag.isra.0+0x13a>
  5e:	45a8      	cmp	r8, r5
  60:	4643      	mov	r3, r8
  62:	bf38      	it	cc
  64:	462b      	movcc	r3, r5
  66:	18ed      	adds	r5, r5, r3
  68:	d26a      	bcs.n	140 <_ZNSt6vectorIhSaIhEE15_M_range_insertIPhEEvN9__gnu_cxx17__normal_iteratorIS3_S1_EET_S7_St20forward_iterator_tag.isra.0+0x140>
  6a:	b9ad      	cbnz	r5, 98 <_ZNSt6vectorIhSaIhEE15_M_range_insertIPhEEvN9__gnu_cxx17__normal_iteratorIS3_S1_EET_S7_St20forward_iterator_tag.isra.0+0x98>
  6c:	46aa      	mov	sl, r5
  6e:	ebb6 0209 	subs.w	r2, r6, r9
  72:	d136      	bne.n	e2 <_ZNSt6vectorIhSaIhEE15_M_range_insertIPhEEvN9__gnu_cxx17__normal_iteratorIS3_S1_EET_S7_St20forward_iterator_tag.isra.0+0xe2>
  74:	4639      	mov	r1, r7
  76:	4642      	mov	r2, r8
  78:	4650      	mov	r0, sl
  7a:	44d0      	add	r8, sl
  7c:	f7ff fffe 	bl	0 <memcpy>
  80:	6867      	ldr	r7, [r4, #4]
  82:	1bbf      	subs	r7, r7, r6
  84:	d14e      	bne.n	124 <_ZNSt6vectorIhSaIhEE15_M_range_insertIPhEEvN9__gnu_cxx17__normal_iteratorIS3_S1_EET_S7_St20forward_iterator_tag.isra.0+0x124>
  86:	44b8      	add	r8, r7
  88:	f1b9 0f00 	cmp.w	r9, #0
  8c:	d138      	bne.n	100 <_ZNSt6vectorIhSaIhEE15_M_range_insertIPhEEvN9__gnu_cxx17__normal_iteratorIS3_S1_EET_S7_St20forward_iterator_tag.isra.0+0x100>
  8e:	60a5      	str	r5, [r4, #8]
  90:	e9c4 a800 	strd	sl, r8, [r4]
  94:	e8bd 8ff8 	ldmia.w	sp!, {r3, r4, r5, r6, r7, r8, r9, sl, fp, pc}
  98:	4295      	cmp	r5, r2
  9a:	bf28      	it	cs
  9c:	4615      	movcs	r5, r2
  9e:	4628      	mov	r0, r5
  a0:	f7ff fffe 	bl	0 <_Znwj>
  a4:	f8d4 9000 	ldr.w	r9, [r4]
  a8:	4682      	mov	sl, r0
  aa:	4405      	add	r5, r0
  ac:	e7df      	b.n	6e <_ZNSt6vectorIhSaIhEE15_M_range_insertIPhEEvN9__gnu_cxx17__normal_iteratorIS3_S1_EET_S7_St20forward_iterator_tag.isra.0+0x6e>
  ae:	4770      	bx	lr
  b0:	eb07 0109 	add.w	r1, r7, r9
  b4:	1a5a      	subs	r2, r3, r1
  b6:	d13b      	bne.n	130 <_ZNSt6vectorIhSaIhEE15_M_range_insertIPhEEvN9__gnu_cxx17__normal_iteratorIS3_S1_EET_S7_St20forward_iterator_tag.isra.0+0x130>
  b8:	eba8 0009 	sub.w	r0, r8, r9
  bc:	4428      	add	r0, r5
  be:	6060      	str	r0, [r4, #4]
  c0:	f1b9 0f00 	cmp.w	r9, #0
  c4:	d0e6      	beq.n	94 <_ZNSt6vectorIhSaIhEE15_M_range_insertIPhEEvN9__gnu_cxx17__normal_iteratorIS3_S1_EET_S7_St20forward_iterator_tag.isra.0+0x94>
  c6:	464a      	mov	r2, r9
  c8:	4631      	mov	r1, r6
  ca:	f7ff fffe 	bl	0 <memmove>
  ce:	6863      	ldr	r3, [r4, #4]
  d0:	4639      	mov	r1, r7
  d2:	4630      	mov	r0, r6
  d4:	444b      	add	r3, r9
  d6:	464a      	mov	r2, r9
  d8:	6063      	str	r3, [r4, #4]
  da:	e8bd 4ff8 	ldmia.w	sp!, {r3, r4, r5, r6, r7, r8, r9, sl, fp, lr}
  de:	f7ff bffe 	b.w	0 <memmove>
  e2:	eb0a 0b02 	add.w	fp, sl, r2
  e6:	4649      	mov	r1, r9
  e8:	4650      	mov	r0, sl
  ea:	f7ff fffe 	bl	0 <memmove>
  ee:	4639      	mov	r1, r7
  f0:	4642      	mov	r2, r8
  f2:	4658      	mov	r0, fp
  f4:	f7ff fffe 	bl	0 <memcpy>
  f8:	6867      	ldr	r7, [r4, #4]
  fa:	44d8      	add	r8, fp
  fc:	1bbf      	subs	r7, r7, r6
  fe:	d111      	bne.n	124 <_ZNSt6vectorIhSaIhEE15_M_range_insertIPhEEvN9__gnu_cxx17__normal_iteratorIS3_S1_EET_S7_St20forward_iterator_tag.isra.0+0x124>
 100:	68a1      	ldr	r1, [r4, #8]
 102:	4648      	mov	r0, r9
 104:	eba1 0109 	sub.w	r1, r1, r9
 108:	f7ff fffe 	bl	0 <_ZdlPvj>
 10c:	e7bf      	b.n	8e <_ZNSt6vectorIhSaIhEE15_M_range_insertIPhEEvN9__gnu_cxx17__normal_iteratorIS3_S1_EET_S7_St20forward_iterator_tag.isra.0+0x8e>
 10e:	1aa8      	subs	r0, r5, r2
 110:	4631      	mov	r1, r6
 112:	f7ff fffe 	bl	0 <memmove>
 116:	4642      	mov	r2, r8
 118:	4639      	mov	r1, r7
 11a:	4630      	mov	r0, r6
 11c:	e8bd 4ff8 	ldmia.w	sp!, {r3, r4, r5, r6, r7, r8, r9, sl, fp, lr}
 120:	f7ff bffe 	b.w	0 <memmove>
 124:	4631      	mov	r1, r6
 126:	463a      	mov	r2, r7
 128:	4640      	mov	r0, r8
 12a:	f7ff fffe 	bl	0 <memcpy>
 12e:	e7aa      	b.n	86 <_ZNSt6vectorIhSaIhEE15_M_range_insertIPhEEvN9__gnu_cxx17__normal_iteratorIS3_S1_EET_S7_St20forward_iterator_tag.isra.0+0x86>
 130:	4628      	mov	r0, r5
 132:	f7ff fffe 	bl	0 <memmove>
 136:	6865      	ldr	r5, [r4, #4]
 138:	e7be      	b.n	b8 <_ZNSt6vectorIhSaIhEE15_M_range_insertIPhEEvN9__gnu_cxx17__normal_iteratorIS3_S1_EET_S7_St20forward_iterator_tag.isra.0+0xb8>
 13a:	4802      	ldr	r0, [pc, #8]	; (144 <_ZNSt6vectorIhSaIhEE15_M_range_insertIPhEEvN9__gnu_cxx17__normal_iteratorIS3_S1_EET_S7_St20forward_iterator_tag.isra.0+0x144>)
 13c:	f7ff fffe 	bl	0 <_ZSt20__throw_length_errorPKc>
 140:	4615      	mov	r5, r2
 142:	e7ac      	b.n	9e <_ZNSt6vectorIhSaIhEE15_M_range_insertIPhEEvN9__gnu_cxx17__normal_iteratorIS3_S1_EET_S7_St20forward_iterator_tag.isra.0+0x9e>
 144:	00000000 	.word	0x00000000

Disassembly of section .text._ZNSt23_Sp_counted_ptr_inplaceIN9qindesign7network8internal16ConnectionHolderESaIS3_ELN9__gnu_cxx12_Lock_policyE0EE10_M_disposeEv:

00000000 <_ZNSt23_Sp_counted_ptr_inplaceIN9qindesign7network8internal16ConnectionHolderESaIS3_ELN9__gnu_cxx12_Lock_policyE0EE10_M_disposeEv>:
   0:	b530      	push	{r4, r5, lr}
   2:	4604      	mov	r4, r0
   4:	6980      	ldr	r0, [r0, #24]
   6:	b083      	sub	sp, #12
   8:	b118      	cbz	r0, 12 <_ZNSt23_Sp_counted_ptr_inplaceIN9qindesign7network8internal16ConnectionHolderESaIS3_ELN9__gnu_cxx12_Lock_policyE0EE10_M_disposeEv+0x12>
   a:	6a21      	ldr	r1, [r4, #32]
   c:	1a09      	subs	r1, r1, r0
   e:	f7ff fffe 	bl	0 <_ZdlPvj>
  12:	6924      	ldr	r4, [r4, #16]
  14:	b1fc      	cbz	r4, 56 <_ZNSt23_Sp_counted_ptr_inplaceIN9qindesign7network8internal16ConnectionHolderESaIS3_ELN9__gnu_cxx12_Lock_policyE0EE10_M_disposeEv+0x56>
  16:	2100      	movs	r1, #0
  18:	6820      	ldr	r0, [r4, #0]
  1a:	f7ff fffe 	bl	0 <tcp_arg>
  1e:	69e3      	ldr	r3, [r4, #28]
  20:	b163      	cbz	r3, 3c <_ZNSt23_Sp_counted_ptr_inplaceIN9qindesign7network8internal16ConnectionHolderESaIS3_ELN9__gnu_cxx12_Lock_policyE0EE10_M_disposeEv+0x3c>
  22:	f104 0514 	add.w	r5, r4, #20
  26:	6a23      	ldr	r3, [r4, #32]
  28:	a901      	add	r1, sp, #4
  2a:	9401      	str	r4, [sp, #4]
  2c:	4628      	mov	r0, r5
  2e:	4798      	blx	r3
  30:	69e3      	ldr	r3, [r4, #28]
  32:	b11b      	cbz	r3, 3c <_ZNSt23_Sp_counted_ptr_inplaceIN9qindesign7network8internal16ConnectionHolderESaIS3_ELN9__gnu_cxx12_Lock_policyE0EE10_M_disposeEv+0x3c>
  34:	2203      	movs	r2, #3
  36:	4629      	mov	r1, r5
  38:	4628      	mov	r0, r5
  3a:	4798      	blx	r3
  3c:	6860      	ldr	r0, [r4, #4]
  3e:	b118      	cbz	r0, 48 <_ZNSt23_Sp_counted_ptr_inplaceIN9qindesign7network8internal16ConnectionHolderESaIS3_ELN9__gnu_cxx12_Lock_policyE0EE10_M_disposeEv+0x48>
  40:	68e1      	ldr	r1, [r4, #12]
  42:	1a09      	subs	r1, r1, r0
  44:	f7ff fffe 	bl	0 <_ZdlPvj>
  48:	2124      	movs	r1, #36	; 0x24
  4a:	4620      	mov	r0, r4
  4c:	b003      	add	sp, #12
  4e:	e8bd 4030 	ldmia.w	sp!, {r4, r5, lr}
  52:	f7ff bffe 	b.w	0 <_ZdlPvj>
  56:	b003      	add	sp, #12
  58:	bd30      	pop	{r4, r5, pc}
  5a:	bf00      	nop

Disassembly of section .text._ZN9qindesign7network8internal17ConnectionManager13connectedFuncEPvP7tcp_pcba:

00000000 <_ZN9qindesign7network8internal17ConnectionManager13connectedFuncEPvP7tcp_pcba>:
   0:	2800      	cmp	r0, #0
   2:	d043      	beq.n	8c <_ZN9qindesign7network8internal17ConnectionManager13connectedFuncEPvP7tcp_pcba+0x8c>
   4:	b5f0      	push	{r4, r5, r6, r7, lr}
   6:	460e      	mov	r6, r1
   8:	fab1 f181 	clz	r1, r1
   c:	b083      	sub	sp, #12
   e:	0949      	lsrs	r1, r1, #5
  10:	2e00      	cmp	r6, #0
  12:	d038      	beq.n	86 <_ZN9qindesign7network8internal17ConnectionManager13connectedFuncEPvP7tcp_pcba+0x86>
  14:	2a00      	cmp	r2, #0
  16:	4614      	mov	r4, r2
  18:	7002      	strb	r2, [r0, #0]
  1a:	bf0c      	ite	eq
  1c:	2201      	moveq	r2, #1
  1e:	2200      	movne	r2, #0
  20:	7042      	strb	r2, [r0, #1]
  22:	d022      	beq.n	6a <_ZN9qindesign7network8internal17ConnectionManager13connectedFuncEPvP7tcp_pcba+0x6a>
  24:	6845      	ldr	r5, [r0, #4]
  26:	6041      	str	r1, [r0, #4]
  28:	b1dd      	cbz	r5, 62 <_ZN9qindesign7network8internal17ConnectionManager13connectedFuncEPvP7tcp_pcba+0x62>
  2a:	6828      	ldr	r0, [r5, #0]
  2c:	f7ff fffe 	bl	0 <tcp_arg>
  30:	69eb      	ldr	r3, [r5, #28]
  32:	b163      	cbz	r3, 4e <_ZN9qindesign7network8internal17ConnectionManager13connectedFuncEPvP7tcp_pcba+0x4e>
  34:	f105 0714 	add.w	r7, r5, #20
  38:	6a2b      	ldr	r3, [r5, #32]
  3a:	a901      	add	r1, sp, #4
  3c:	9501      	str	r5, [sp, #4]
  3e:	4638      	mov	r0, r7
  40:	4798      	blx	r3
  42:	69eb      	ldr	r3, [r5, #28]
  44:	b11b      	cbz	r3, 4e <_ZN9qindesign7network8internal17ConnectionManager13connectedFuncEPvP7tcp_pcba+0x4e>
  46:	2203      	movs	r2, #3
  48:	4639      	mov	r1, r7
  4a:	4638      	mov	r0, r7
  4c:	4798      	blx	r3
  4e:	6868      	ldr	r0, [r5, #4]
  50:	b118      	cbz	r0, 5a <_ZN9qindesign7network8internal17ConnectionManager13connectedFuncEPvP7tcp_pcba+0x5a>
  52:	68e9      	ldr	r1, [r5, #12]
  54:	1a09      	subs	r1, r1, r0
  56:	f7ff fffe 	bl	0 <_ZdlPvj>
  5a:	2124      	movs	r1, #36	; 0x24
  5c:	4628      	mov	r0, r5
  5e:	f7ff fffe 	bl	0 <_ZdlPvj>
  62:	f024 0402 	bic.w	r4, r4, #2
  66:	340f      	adds	r4, #15
  68:	d102      	bne.n	70 <_ZN9qindesign7network8internal17ConnectionManager13connectedFuncEPvP7tcp_pcba+0x70>
  6a:	2000      	movs	r0, #0
  6c:	b003      	add	sp, #12
  6e:	bdf0      	pop	{r4, r5, r6, r7, pc}
  70:	4630      	mov	r0, r6
  72:	f7ff fffe 	bl	0 <tcp_close>
  76:	2800      	cmp	r0, #0
  78:	d0f7      	beq.n	6a <_ZN9qindesign7network8internal17ConnectionManager13connectedFuncEPvP7tcp_pcba+0x6a>
  7a:	4630      	mov	r0, r6
  7c:	f7ff fffe 	bl	0 <tcp_abort>
  80:	f06f 000c 	mvn.w	r0, #12
  84:	e7f2      	b.n	6c <_ZN9qindesign7network8internal17ConnectionManager13connectedFuncEPvP7tcp_pcba+0x6c>
  86:	f06f 000f 	mvn.w	r0, #15
  8a:	e7ef      	b.n	6c <_ZN9qindesign7network8internal17ConnectionManager13connectedFuncEPvP7tcp_pcba+0x6c>
  8c:	f06f 000f 	mvn.w	r0, #15
  90:	4770      	bx	lr
  92:	bf00      	nop

Disassembly of section .text._ZN9qindesign7network8internal17ConnectionManager7errFuncEPva:

00000000 <_ZN9qindesign7network8internal17ConnectionManager7errFuncEPva>:
   0:	2800      	cmp	r0, #0
   2:	d032      	beq.n	6a <_ZN9qindesign7network8internal17ConnectionManager7errFuncEPva+0x6a>
   4:	fab1 f381 	clz	r3, r1
   8:	6842      	ldr	r2, [r0, #4]
   a:	095b      	lsrs	r3, r3, #5
   c:	b530      	push	{r4, r5, lr}
   e:	4604      	mov	r4, r0
  10:	b083      	sub	sp, #12
  12:	7001      	strb	r1, [r0, #0]
  14:	7043      	strb	r3, [r0, #1]
  16:	b102      	cbz	r2, 1a <_ZN9qindesign7network8internal17ConnectionManager7errFuncEPva+0x1a>
  18:	b909      	cbnz	r1, 1e <_ZN9qindesign7network8internal17ConnectionManager7errFuncEPva+0x1e>
  1a:	b003      	add	sp, #12
  1c:	bd30      	pop	{r4, r5, pc}
  1e:	f7ff fffe 	bl	0 <_ZN9qindesign7network8internal17ConnectionManager7errFuncEPva>
  22:	6865      	ldr	r5, [r4, #4]
  24:	2100      	movs	r1, #0
  26:	6061      	str	r1, [r4, #4]
  28:	2d00      	cmp	r5, #0
  2a:	d0f6      	beq.n	1a <_ZN9qindesign7network8internal17ConnectionManager7errFuncEPva+0x1a>
  2c:	6828      	ldr	r0, [r5, #0]
  2e:	f7ff fffe 	bl	0 <tcp_arg>
  32:	69eb      	ldr	r3, [r5, #28]
  34:	b163      	cbz	r3, 50 <_ZN9qindesign7network8internal17ConnectionManager7errFuncEPva+0x50>
  36:	f105 0414 	add.w	r4, r5, #20
  3a:	6a2b      	ldr	r3, [r5, #32]
  3c:	a901      	add	r1, sp, #4
  3e:	9501      	str	r5, [sp, #4]
  40:	4620      	mov	r0, r4
  42:	4798      	blx	r3
  44:	69eb      	ldr	r3, [r5, #28]
  46:	b11b      	cbz	r3, 50 <_ZN9qindesign7network8internal17ConnectionManager7errFuncEPva+0x50>
  48:	2203      	movs	r2, #3
  4a:	4621      	mov	r1, r4
  4c:	4620      	mov	r0, r4
  4e:	4798      	blx	r3
  50:	6868      	ldr	r0, [r5, #4]
  52:	b118      	cbz	r0, 5c <_ZN9qindesign7network8internal17ConnectionManager7errFuncEPva+0x5c>
  54:	68e9      	ldr	r1, [r5, #12]
  56:	1a09      	subs	r1, r1, r0
  58:	f7ff fffe 	bl	0 <_ZdlPvj>
  5c:	2124      	movs	r1, #36	; 0x24
  5e:	4628      	mov	r0, r5
  60:	b003      	add	sp, #12
  62:	e8bd 4030 	ldmia.w	sp!, {r4, r5, lr}
  66:	f7ff bffe 	b.w	0 <_ZdlPvj>
  6a:	4770      	bx	lr

Disassembly of section .text._ZN9qindesign7network8internal17ConnectionManagerD2Ev:

00000000 <_ZN9qindesign7network8internal17ConnectionManagerD1Ev>:
   0:	b5f8      	push	{r3, r4, r5, r6, r7, lr}
   2:	4607      	mov	r7, r0
   4:	68c0      	ldr	r0, [r0, #12]
   6:	b118      	cbz	r0, 10 <_ZN9qindesign7network8internal17ConnectionManagerD1Ev+0x10>
   8:	6979      	ldr	r1, [r7, #20]
   a:	1a09      	subs	r1, r1, r0
   c:	f7ff fffe 	bl	0 <_ZdlPvj>
  10:	e9d7 5600 	ldrd	r5, r6, [r7]
  14:	42b5      	cmp	r5, r6
  16:	d015      	beq.n	44 <_ZN9qindesign7network8internal17ConnectionManagerD1Ev+0x44>
  18:	686c      	ldr	r4, [r5, #4]
  1a:	3508      	adds	r5, #8
  1c:	b17c      	cbz	r4, 3e <_ZN9qindesign7network8internal17ConnectionManagerD1Ev+0x3e>
  1e:	6863      	ldr	r3, [r4, #4]
  20:	4620      	mov	r0, r4
  22:	3b01      	subs	r3, #1
  24:	6063      	str	r3, [r4, #4]
  26:	b953      	cbnz	r3, 3e <_ZN9qindesign7network8internal17ConnectionManagerD1Ev+0x3e>
  28:	6823      	ldr	r3, [r4, #0]
  2a:	689b      	ldr	r3, [r3, #8]
  2c:	4798      	blx	r3
  2e:	68a3      	ldr	r3, [r4, #8]
  30:	4620      	mov	r0, r4
  32:	3b01      	subs	r3, #1
  34:	60a3      	str	r3, [r4, #8]
  36:	b913      	cbnz	r3, 3e <_ZN9qindesign7network8internal17ConnectionManagerD1Ev+0x3e>
  38:	6823      	ldr	r3, [r4, #0]
  3a:	68db      	ldr	r3, [r3, #12]
  3c:	4798      	blx	r3
  3e:	42ae      	cmp	r6, r5
  40:	d1ea      	bne.n	18 <_ZN9qindesign7network8internal17ConnectionManagerD1Ev+0x18>
  42:	683e      	ldr	r6, [r7, #0]
  44:	b126      	cbz	r6, 50 <_ZN9qindesign7network8internal17ConnectionManagerD1Ev+0x50>
  46:	68b9      	ldr	r1, [r7, #8]
  48:	4630      	mov	r0, r6
  4a:	1b89      	subs	r1, r1, r6
  4c:	f7ff fffe 	bl	0 <_ZdlPvj>
  50:	4638      	mov	r0, r7
  52:	bdf8      	pop	{r3, r4, r5, r6, r7, pc}

Disassembly of section .text._ZNSt17_Function_handlerIFvPN9qindesign7network8internal15ConnectionStateEEZNS2_17ConnectionManager13addConnectionERKSt10shared_ptrINS2_16ConnectionHolderEEEUlS4_E_E10_M_managerERSt9_Any_dataRKSE_St18_Manager_operation:

00000000 <_ZNSt17_Function_handlerIFvPN9qindesign7network8internal15ConnectionStateEEZNS2_17ConnectionManager13addConnectionERKSt10shared_ptrINS2_16ConnectionHolderEEEUlS4_E_E10_M_managerERSt9_Any_dataRKSE_St18_Manager_operation>:
   0:	2a01      	cmp	r2, #1
   2:	b538      	push	{r3, r4, r5, lr}
   4:	4604      	mov	r4, r0
   6:	d103      	bne.n	10 <_ZNSt17_Function_handlerIFvPN9qindesign7network8internal15ConnectionStateEEZNS2_17ConnectionManager13addConnectionERKSt10shared_ptrINS2_16ConnectionHolderEEEUlS4_E_E10_M_managerERSt9_Any_dataRKSE_St18_Manager_operation+0x10>
   8:	680b      	ldr	r3, [r1, #0]
   a:	6003      	str	r3, [r0, #0]
   c:	2000      	movs	r0, #0
   e:	bd38      	pop	{r3, r4, r5, pc}
  10:	2a02      	cmp	r2, #2
  12:	d01f      	beq.n	54 <_ZNSt17_Function_handlerIFvPN9qindesign7network8internal15ConnectionStateEEZNS2_17ConnectionManager13addConnectionERKSt10shared_ptrINS2_16ConnectionHolderEEEUlS4_E_E10_M_managerERSt9_Any_dataRKSE_St18_Manager_operation+0x54>
  14:	2a03      	cmp	r2, #3
  16:	d003      	beq.n	20 <_ZNSt17_Function_handlerIFvPN9qindesign7network8internal15ConnectionStateEEZNS2_17ConnectionManager13addConnectionERKSt10shared_ptrINS2_16ConnectionHolderEEEUlS4_E_E10_M_managerERSt9_Any_dataRKSE_St18_Manager_operation+0x20>
  18:	2a00      	cmp	r2, #0
  1a:	d1f7      	bne.n	c <_ZNSt17_Function_handlerIFvPN9qindesign7network8internal15ConnectionStateEEZNS2_17ConnectionManager13addConnectionERKSt10shared_ptrINS2_16ConnectionHolderEEEUlS4_E_E10_M_managerERSt9_Any_dataRKSE_St18_Manager_operation+0xc>
  1c:	6002      	str	r2, [r0, #0]
  1e:	e7f5      	b.n	c <_ZNSt17_Function_handlerIFvPN9qindesign7network8internal15ConnectionStateEEZNS2_17ConnectionManager13addConnectionERKSt10shared_ptrINS2_16ConnectionHolderEEEUlS4_E_E10_M_managerERSt9_Any_dataRKSE_St18_Manager_operation+0xc>
  20:	6804      	ldr	r4, [r0, #0]
  22:	2c00      	cmp	r4, #0
  24:	d0f2      	beq.n	c <_ZNSt17_Function_handlerIFvPN9qindesign7network8internal15ConnectionStateEEZNS2_17ConnectionManager13addConnectionERKSt10shared_ptrINS2_16ConnectionHolderEEEUlS4_E_E10_M_managerERSt9_Any_dataRKSE_St18_Manager_operation+0xc>
  26:	68a5      	ldr	r5, [r4, #8]
  28:	b17d      	cbz	r5, 4a <_ZNSt17_Function_handlerIFvPN9qindesign7network8internal15ConnectionStateEEZNS2_17ConnectionManager13addConnectionERKSt10shared_ptrINS2_16ConnectionHolderEEEUlS4_E_E10_M_managerERSt9_Any_dataRKSE_St18_Manager_operation+0x4a>
  2a:	686b      	ldr	r3, [r5, #4]
  2c:	3b01      	subs	r3, #1
  2e:	606b      	str	r3, [r5, #4]
  30:	b95b      	cbnz	r3, 4a <_ZNSt17_Function_handlerIFvPN9qindesign7network8internal15ConnectionStateEEZNS2_17ConnectionManager13addConnectionERKSt10shared_ptrINS2_16ConnectionHolderEEEUlS4_E_E10_M_managerERSt9_Any_dataRKSE_St18_Manager_operation+0x4a>
  32:	682b      	ldr	r3, [r5, #0]
  34:	4628      	mov	r0, r5
  36:	689b      	ldr	r3, [r3, #8]
  38:	4798      	blx	r3
  3a:	68ab      	ldr	r3, [r5, #8]
  3c:	3b01      	subs	r3, #1
  3e:	60ab      	str	r3, [r5, #8]
  40:	b91b      	cbnz	r3, 4a <_ZNSt17_Function_handlerIFvPN9qindesign7network8internal15ConnectionStateEEZNS2_17ConnectionManager13addConnectionERKSt10shared_ptrINS2_16ConnectionHolderEEEUlS4_E_E10_M_managerERSt9_Any_dataRKSE_St18_Manager_operation+0x4a>
  42:	682b      	ldr	r3, [r5, #0]
  44:	4628      	mov	r0, r5
  46:	68db      	ldr	r3, [r3, #12]
  48:	4798      	blx	r3
  4a:	210c      	movs	r1, #12
  4c:	4620      	mov	r0, r4
  4e:	f7ff fffe 	bl	0 <_ZdlPvj>
  52:	e7db      	b.n	c <_ZNSt17_Function_handlerIFvPN9qindesign7network8internal15ConnectionStateEEZNS2_17ConnectionManager13addConnectionERKSt10shared_ptrINS2_16ConnectionHolderEEEUlS4_E_E10_M_managerERSt9_Any_dataRKSE_St18_Manager_operation+0xc>
  54:	680d      	ldr	r5, [r1, #0]
  56:	200c      	movs	r0, #12
  58:	f7ff fffe 	bl	0 <_Znwj>
  5c:	68ab      	ldr	r3, [r5, #8]
  5e:	e9d5 1200 	ldrd	r1, r2, [r5]
  62:	6083      	str	r3, [r0, #8]
  64:	e9c0 1200 	strd	r1, r2, [r0]
  68:	b113      	cbz	r3, 70 <_ZNSt17_Function_handlerIFvPN9qindesign7network8internal15ConnectionStateEEZNS2_17ConnectionManager13addConnectionERKSt10shared_ptrINS2_16ConnectionHolderEEEUlS4_E_E10_M_managerERSt9_Any_dataRKSE_St18_Manager_operation+0x70>
  6a:	685a      	ldr	r2, [r3, #4]
  6c:	3201      	adds	r2, #1
  6e:	605a      	str	r2, [r3, #4]
  70:	6020      	str	r0, [r4, #0]
  72:	e7cb      	b.n	c <_ZNSt17_Function_handlerIFvPN9qindesign7network8internal15ConnectionStateEEZNS2_17ConnectionManager13addConnectionERKSt10shared_ptrINS2_16ConnectionHolderEEEUlS4_E_E10_M_managerERSt9_Any_dataRKSE_St18_Manager_operation+0xc>

Disassembly of section .text._ZN9qindesign7network8internal17ConnectionManager8instanceEv:

00000000 <_ZN9qindesign7network8internal17ConnectionManager8instanceEv>:
   0:	b538      	push	{r3, r4, r5, lr}
   2:	4d0f      	ldr	r5, [pc, #60]	; (40 <_ZN9qindesign7network8internal17ConnectionManager8instanceEv+0x40>)
   4:	682c      	ldr	r4, [r5, #0]
   6:	f3bf 8f5b 	dmb	ish
   a:	f014 0401 	ands.w	r4, r4, #1
   e:	d001      	beq.n	14 <_ZN9qindesign7network8internal17ConnectionManager8instanceEv+0x14>
  10:	480c      	ldr	r0, [pc, #48]	; (44 <_ZN9qindesign7network8internal17ConnectionManager8instanceEv+0x44>)
  12:	bd38      	pop	{r3, r4, r5, pc}
  14:	4628      	mov	r0, r5
  16:	f7ff fffe 	bl	0 <__cxa_guard_acquire>
  1a:	2800      	cmp	r0, #0
  1c:	d0f8      	beq.n	10 <_ZN9qindesign7network8internal17ConnectionManager8instanceEv+0x10>
  1e:	4809      	ldr	r0, [pc, #36]	; (44 <_ZN9qindesign7network8internal17ConnectionManager8instanceEv+0x44>)
  20:	4a09      	ldr	r2, [pc, #36]	; (48 <_ZN9qindesign7network8internal17ConnectionManager8instanceEv+0x48>)
  22:	490a      	ldr	r1, [pc, #40]	; (4c <_ZN9qindesign7network8internal17ConnectionManager8instanceEv+0x4c>)
  24:	e9c0 4400 	strd	r4, r4, [r0]
  28:	e9c0 4402 	strd	r4, r4, [r0, #8]
  2c:	e9c0 4404 	strd	r4, r4, [r0, #16]
  30:	f7ff fffe 	bl	0 <__aeabi_atexit>
  34:	4628      	mov	r0, r5
  36:	f7ff fffe 	bl	0 <__cxa_guard_release>
  3a:	4802      	ldr	r0, [pc, #8]	; (44 <_ZN9qindesign7network8internal17ConnectionManager8instanceEv+0x44>)
  3c:	bd38      	pop	{r3, r4, r5, pc}
  3e:	bf00      	nop
  40:	00000000 	.word	0x00000000
  44:	00000000 	.word	0x00000000
  48:	00000000 	.word	0x00000000
  4c:	00000000 	.word	0x00000000

Disassembly of section .text._ZNK9qindesign7network8internal17ConnectionManager11isListeningEt:

00000000 <_ZNK9qindesign7network8internal17ConnectionManager11isListeningEt>:
   0:	e92d 41f0 	stmdb	sp!, {r4, r5, r6, r7, r8, lr}
   4:	e9d0 4803 	ldrd	r4, r8, [r0, #12]
   8:	b082      	sub	sp, #8
   a:	4607      	mov	r7, r0
   c:	eba8 0304 	sub.w	r3, r8, r4
  10:	460d      	mov	r5, r1
  12:	111e      	asrs	r6, r3, #4
  14:	2e00      	cmp	r6, #0
  16:	dd78      	ble.n	10a <_ZNK9qindesign7network8internal17ConnectionManager11isListeningEt+0x10a>
  18:	eb04 1606 	add.w	r6, r4, r6, lsl #4
  1c:	e026      	b.n	6c <_ZNK9qindesign7network8internal17ConnectionManager11isListeningEt+0x6c>
  1e:	6860      	ldr	r0, [r4, #4]
  20:	b148      	cbz	r0, 36 <_ZNK9qindesign7network8internal17ConnectionManager11isListeningEt+0x36>
  22:	f10d 0306 	add.w	r3, sp, #6
  26:	2200      	movs	r2, #0
  28:	2101      	movs	r1, #1
  2a:	f7ff fffe 	bl	0 <tcp_tcp_get_tcp_addrinfo>
  2e:	f8bd 3006 	ldrh.w	r3, [sp, #6]
  32:	429d      	cmp	r5, r3
  34:	d02e      	beq.n	94 <_ZNK9qindesign7network8internal17ConnectionManager11isListeningEt+0x94>
  36:	68a0      	ldr	r0, [r4, #8]
  38:	b148      	cbz	r0, 4e <_ZNK9qindesign7network8internal17ConnectionManager11isListeningEt+0x4e>
  3a:	f10d 0306 	add.w	r3, sp, #6
  3e:	2200      	movs	r2, #0
  40:	2101      	movs	r1, #1
  42:	f7ff fffe 	bl	0 <tcp_tcp_get_tcp_addrinfo>
  46:	f8bd 3006 	ldrh.w	r3, [sp, #6]
  4a:	429d      	cmp	r5, r3
  4c:	d024      	beq.n	98 <_ZNK9qindesign7network8internal17ConnectionManager11isListeningEt+0x98>
  4e:	68e0      	ldr	r0, [r4, #12]
  50:	b148      	cbz	r0, 66 <_ZNK9qindesign7network8internal17ConnectionManager11isListeningEt+0x66>
  52:	f10d 0306 	add.w	r3, sp, #6
  56:	2200      	movs	r2, #0
  58:	2101      	movs	r1, #1
  5a:	f7ff fffe 	bl	0 <tcp_tcp_get_tcp_addrinfo>
  5e:	f8bd 3006 	ldrh.w	r3, [sp, #6]
  62:	429d      	cmp	r5, r3
  64:	d01a      	beq.n	9c <_ZNK9qindesign7network8internal17ConnectionManager11isListeningEt+0x9c>
  66:	3410      	adds	r4, #16
  68:	42a6      	cmp	r6, r4
  6a:	d019      	beq.n	a0 <_ZNK9qindesign7network8internal17ConnectionManager11isListeningEt+0xa0>
  6c:	6820      	ldr	r0, [r4, #0]
  6e:	2800      	cmp	r0, #0
  70:	d0d5      	beq.n	1e <_ZNK9qindesign7network8internal17ConnectionManager11isListeningEt+0x1e>
  72:	f10d 0306 	add.w	r3, sp, #6
  76:	2200      	movs	r2, #0
  78:	2101      	movs	r1, #1
  7a:	f7ff fffe 	bl	0 <tcp_tcp_get_tcp_addrinfo>
  7e:	f8bd 3006 	ldrh.w	r3, [sp, #6]
  82:	429d      	cmp	r5, r3
  84:	d1cb      	bne.n	1e <_ZNK9qindesign7network8internal17ConnectionManager11isListeningEt+0x1e>
  86:	6938      	ldr	r0, [r7, #16]
  88:	1b00      	subs	r0, r0, r4
  8a:	bf18      	it	ne
  8c:	2001      	movne	r0, #1
  8e:	b002      	add	sp, #8
  90:	e8bd 81f0 	ldmia.w	sp!, {r4, r5, r6, r7, r8, pc}
  94:	3404      	adds	r4, #4
  96:	e7f6      	b.n	86 <_ZNK9qindesign7network8internal17ConnectionManager11isListeningEt+0x86>
  98:	3408      	adds	r4, #8
  9a:	e7f4      	b.n	86 <_ZNK9qindesign7network8internal17ConnectionManager11isListeningEt+0x86>
  9c:	340c      	adds	r4, #12
  9e:	e7f2      	b.n	86 <_ZNK9qindesign7network8internal17ConnectionManager11isListeningEt+0x86>
  a0:	eba8 0304 	sub.w	r3, r8, r4
  a4:	109b      	asrs	r3, r3, #2
  a6:	2b02      	cmp	r3, #2
  a8:	d012      	beq.n	d0 <_ZNK9qindesign7network8internal17ConnectionManager11isListeningEt+0xd0>
  aa:	2b03      	cmp	r3, #3
  ac:	d003      	beq.n	b6 <_ZNK9qindesign7network8internal17ConnectionManager11isListeningEt+0xb6>
  ae:	2b01      	cmp	r3, #1
  b0:	d011      	beq.n	d6 <_ZNK9qindesign7network8internal17ConnectionManager11isListeningEt+0xd6>
  b2:	4644      	mov	r4, r8
  b4:	e7e7      	b.n	86 <_ZNK9qindesign7network8internal17ConnectionManager11isListeningEt+0x86>
  b6:	6820      	ldr	r0, [r4, #0]
  b8:	b148      	cbz	r0, ce <_ZNK9qindesign7network8internal17ConnectionManager11isListeningEt+0xce>
  ba:	f10d 0306 	add.w	r3, sp, #6
  be:	2200      	movs	r2, #0
  c0:	2101      	movs	r1, #1
  c2:	f7ff fffe 	bl	0 <tcp_tcp_get_tcp_addrinfo>
  c6:	f8bd 3006 	ldrh.w	r3, [sp, #6]
  ca:	429d      	cmp	r5, r3
  cc:	d0db      	beq.n	86 <_ZNK9qindesign7network8internal17ConnectionManager11isListeningEt+0x86>
  ce:	3404      	adds	r4, #4
  d0:	6820      	ldr	r0, [r4, #0]
  d2:	b978      	cbnz	r0, f4 <_ZNK9qindesign7network8internal17ConnectionManager11isListeningEt+0xf4>
  d4:	3404      	adds	r4, #4
  d6:	6820      	ldr	r0, [r4, #0]
  d8:	2800      	cmp	r0, #0
  da:	d0ea      	beq.n	b2 <_ZNK9qindesign7network8internal17ConnectionManager11isListeningEt+0xb2>
  dc:	f10d 0306 	add.w	r3, sp, #6
  e0:	2200      	movs	r2, #0
  e2:	2101      	movs	r1, #1
  e4:	f7ff fffe 	bl	0 <tcp_tcp_get_tcp_addrinfo>
  e8:	f8bd 3006 	ldrh.w	r3, [sp, #6]
  ec:	429d      	cmp	r5, r3
  ee:	d0ca      	beq.n	86 <_ZNK9qindesign7network8internal17ConnectionManager11isListeningEt+0x86>
  f0:	4644      	mov	r4, r8
  f2:	e7c8      	b.n	86 <_ZNK9qindesign7network8internal17ConnectionManager11isListeningEt+0x86>
  f4:	f10d 0306 	add.w	r3, sp, #6
  f8:	2200      	movs	r2, #0
  fa:	2101      	movs	r1, #1
  fc:	f7ff fffe 	bl	0 <tcp_tcp_get_tcp_addrinfo>
 100:	f8bd 3006 	ldrh.w	r3, [sp, #6]
 104:	429d      	cmp	r5, r3
 106:	d1e5      	bne.n	d4 <_ZNK9qindesign7network8internal17ConnectionManager11isListeningEt+0xd4>
 108:	e7bd      	b.n	86 <_ZNK9qindesign7network8internal17ConnectionManager11isListeningEt+0x86>
 10a:	109b      	asrs	r3, r3, #2
 10c:	e7cb      	b.n	a6 <_ZNK9qindesign7network8internal17ConnectionManager11isListeningEt+0xa6>
 10e:	bf00      	nop

Disassembly of section .text._ZN9qindesign7network8internal17ConnectionManager13stopListeningEt:

00000000 <_ZN9qindesign7network8internal17ConnectionManager13stopListeningEt>:
   0:	e92d 41f0 	stmdb	sp!, {r4, r5, r6, r7, r8, lr}
   4:	e9d0 4803 	ldrd	r4, r8, [r0, #12]
   8:	b082      	sub	sp, #8
   a:	4607      	mov	r7, r0
   c:	eba8 0304 	sub.w	r3, r8, r4
  10:	460d      	mov	r5, r1
  12:	111e      	asrs	r6, r3, #4
  14:	2e00      	cmp	r6, #0
  16:	f340 8096 	ble.w	146 <_ZN9qindesign7network8internal17ConnectionManager13stopListeningEt+0x146>
  1a:	eb04 1606 	add.w	r6, r4, r6, lsl #4
  1e:	e026      	b.n	6e <_ZN9qindesign7network8internal17ConnectionManager13stopListeningEt+0x6e>
  20:	6860      	ldr	r0, [r4, #4]
  22:	b148      	cbz	r0, 38 <_ZN9qindesign7network8internal17ConnectionManager13stopListeningEt+0x38>
  24:	f10d 0306 	add.w	r3, sp, #6
  28:	2200      	movs	r2, #0
  2a:	2101      	movs	r1, #1
  2c:	f7ff fffe 	bl	0 <tcp_tcp_get_tcp_addrinfo>
  30:	f8bd 3006 	ldrh.w	r3, [sp, #6]
  34:	429d      	cmp	r5, r3
  36:	d03e      	beq.n	b6 <_ZN9qindesign7network8internal17ConnectionManager13stopListeningEt+0xb6>
  38:	68a0      	ldr	r0, [r4, #8]
  3a:	b148      	cbz	r0, 50 <_ZN9qindesign7network8internal17ConnectionManager13stopListeningEt+0x50>
  3c:	f10d 0306 	add.w	r3, sp, #6
  40:	2200      	movs	r2, #0
  42:	2101      	movs	r1, #1
  44:	f7ff fffe 	bl	0 <tcp_tcp_get_tcp_addrinfo>
  48:	f8bd 3006 	ldrh.w	r3, [sp, #6]
  4c:	429d      	cmp	r5, r3
  4e:	d03a      	beq.n	c6 <_ZN9qindesign7network8internal17ConnectionManager13stopListeningEt+0xc6>
  50:	68e0      	ldr	r0, [r4, #12]
  52:	b148      	cbz	r0, 68 <_ZN9qindesign7network8internal17ConnectionManager13stopListeningEt+0x68>
  54:	f10d 0306 	add.w	r3, sp, #6
  58:	2200      	movs	r2, #0
  5a:	2101      	movs	r1, #1
  5c:	f7ff fffe 	bl	0 <tcp_tcp_get_tcp_addrinfo>
  60:	f8bd 3006 	ldrh.w	r3, [sp, #6]
  64:	429d      	cmp	r5, r3
  66:	d030      	beq.n	ca <_ZN9qindesign7network8internal17ConnectionManager13stopListeningEt+0xca>
  68:	3410      	adds	r4, #16
  6a:	42b4      	cmp	r4, r6
  6c:	d036      	beq.n	dc <_ZN9qindesign7network8internal17ConnectionManager13stopListeningEt+0xdc>
  6e:	6820      	ldr	r0, [r4, #0]
  70:	2800      	cmp	r0, #0
  72:	d0d5      	beq.n	20 <_ZN9qindesign7network8internal17ConnectionManager13stopListeningEt+0x20>
  74:	f10d 0306 	add.w	r3, sp, #6
  78:	2200      	movs	r2, #0
  7a:	2101      	movs	r1, #1
  7c:	f7ff fffe 	bl	0 <tcp_tcp_get_tcp_addrinfo>
  80:	f8bd 3006 	ldrh.w	r3, [sp, #6]
  84:	429d      	cmp	r5, r3
  86:	d1cb      	bne.n	20 <_ZN9qindesign7network8internal17ConnectionManager13stopListeningEt+0x20>
  88:	693a      	ldr	r2, [r7, #16]
  8a:	42a2      	cmp	r2, r4
  8c:	d017      	beq.n	be <_ZN9qindesign7network8internal17ConnectionManager13stopListeningEt+0xbe>
  8e:	4621      	mov	r1, r4
  90:	f851 5b04 	ldr.w	r5, [r1], #4
  94:	428a      	cmp	r2, r1
  96:	d004      	beq.n	a2 <_ZN9qindesign7network8internal17ConnectionManager13stopListeningEt+0xa2>
  98:	1a52      	subs	r2, r2, r1
  9a:	4620      	mov	r0, r4
  9c:	f7ff fffe 	bl	0 <memmove>
  a0:	6939      	ldr	r1, [r7, #16]
  a2:	3904      	subs	r1, #4
  a4:	4628      	mov	r0, r5
  a6:	6139      	str	r1, [r7, #16]
  a8:	f7ff fffe 	bl	0 <tcp_close>
  ac:	b978      	cbnz	r0, ce <_ZN9qindesign7network8internal17ConnectionManager13stopListeningEt+0xce>
  ae:	2001      	movs	r0, #1
  b0:	b002      	add	sp, #8
  b2:	e8bd 81f0 	ldmia.w	sp!, {r4, r5, r6, r7, r8, pc}
  b6:	3404      	adds	r4, #4
  b8:	693a      	ldr	r2, [r7, #16]
  ba:	42a2      	cmp	r2, r4
  bc:	d1e7      	bne.n	8e <_ZN9qindesign7network8internal17ConnectionManager13stopListeningEt+0x8e>
  be:	2000      	movs	r0, #0
  c0:	b002      	add	sp, #8
  c2:	e8bd 81f0 	ldmia.w	sp!, {r4, r5, r6, r7, r8, pc}
  c6:	3408      	adds	r4, #8
  c8:	e7de      	b.n	88 <_ZN9qindesign7network8internal17ConnectionManager13stopListeningEt+0x88>
  ca:	340c      	adds	r4, #12
  cc:	e7dc      	b.n	88 <_ZN9qindesign7network8internal17ConnectionManager13stopListeningEt+0x88>
  ce:	4628      	mov	r0, r5
  d0:	f7ff fffe 	bl	0 <tcp_abort>
  d4:	2001      	movs	r0, #1
  d6:	b002      	add	sp, #8
  d8:	e8bd 81f0 	ldmia.w	sp!, {r4, r5, r6, r7, r8, pc}
  dc:	eba8 0304 	sub.w	r3, r8, r4
  e0:	109b      	asrs	r3, r3, #2
  e2:	2b02      	cmp	r3, #2
  e4:	d012      	beq.n	10c <_ZN9qindesign7network8internal17ConnectionManager13stopListeningEt+0x10c>
  e6:	2b03      	cmp	r3, #3
  e8:	d003      	beq.n	f2 <_ZN9qindesign7network8internal17ConnectionManager13stopListeningEt+0xf2>
  ea:	2b01      	cmp	r3, #1
  ec:	d011      	beq.n	112 <_ZN9qindesign7network8internal17ConnectionManager13stopListeningEt+0x112>
  ee:	4644      	mov	r4, r8
  f0:	e7ca      	b.n	88 <_ZN9qindesign7network8internal17ConnectionManager13stopListeningEt+0x88>
  f2:	6820      	ldr	r0, [r4, #0]
  f4:	b148      	cbz	r0, 10a <_ZN9qindesign7network8internal17ConnectionManager13stopListeningEt+0x10a>
  f6:	f10d 0306 	add.w	r3, sp, #6
  fa:	2200      	movs	r2, #0
  fc:	2101      	movs	r1, #1
  fe:	f7ff fffe 	bl	0 <tcp_tcp_get_tcp_addrinfo>
 102:	f8bd 3006 	ldrh.w	r3, [sp, #6]
 106:	429d      	cmp	r5, r3
 108:	d0be      	beq.n	88 <_ZN9qindesign7network8internal17ConnectionManager13stopListeningEt+0x88>
 10a:	3404      	adds	r4, #4
 10c:	6820      	ldr	r0, [r4, #0]
 10e:	b978      	cbnz	r0, 130 <_ZN9qindesign7network8internal17ConnectionManager13stopListeningEt+0x130>
 110:	3404      	adds	r4, #4
 112:	6820      	ldr	r0, [r4, #0]
 114:	2800      	cmp	r0, #0
 116:	d0ea      	beq.n	ee <_ZN9qindesign7network8internal17ConnectionManager13stopListeningEt+0xee>
 118:	f10d 0306 	add.w	r3, sp, #6
 11c:	2200      	movs	r2, #0
 11e:	2101      	movs	r1, #1
 120:	f7ff fffe 	bl	0 <tcp_tcp_get_tcp_addrinfo>
 124:	f8bd 3006 	ldrh.w	r3, [sp, #6]
 128:	429d      	cmp	r5, r3
 12a:	d0ad      	beq.n	88 <_ZN9qindesign7network8internal17ConnectionManager13stopListeningEt+0x88>
 12c:	4644      	mov	r4, r8
 12e:	e7ab      	b.n	88 <_ZN9qindesign7network8internal17ConnectionManager13stopListeningEt+0x88>
 130:	f10d 0306 	add.w	r3, sp, #6
 134:	2200      	movs	r2, #0
 136:	2101      	movs	r1, #1
 138:	f7ff fffe 	bl	0 <tcp_tcp_get_tcp_addrinfo>
 13c:	f8bd 3006 	ldrh.w	r3, [sp, #6]
 140:	429d      	cmp	r5, r3
 142:	d1e5      	bne.n	110 <_ZN9qindesign7network8internal17ConnectionManager13stopListeningEt+0x110>
 144:	e7a0      	b.n	88 <_ZN9qindesign7network8internal17ConnectionManager13stopListeningEt+0x88>
 146:	109b      	asrs	r3, r3, #2
 148:	e7cb      	b.n	e2 <_ZN9qindesign7network8internal17ConnectionManager13stopListeningEt+0xe2>
 14a:	bf00      	nop

Disassembly of section .text._ZNK9qindesign7network8internal17ConnectionManager13findConnectedEt:

00000000 <_ZNK9qindesign7network8internal17ConnectionManager13findConnectedEt>:
   0:	e92d 47f0 	stmdb	sp!, {r4, r5, r6, r7, r8, r9, sl, lr}
   4:	e9d1 4a00 	ldrd	r4, sl, [r1]
   8:	b082      	sub	sp, #8
   a:	4688      	mov	r8, r1
   c:	ebaa 0304 	sub.w	r3, sl, r4
  10:	4681      	mov	r9, r0
  12:	4616      	mov	r6, r2
  14:	115f      	asrs	r7, r3, #5
  16:	2f00      	cmp	r7, #0
  18:	f340 809a 	ble.w	150 <_ZNK9qindesign7network8internal17ConnectionManager13findConnectedEt+0x150>
  1c:	eb04 1747 	add.w	r7, r4, r7, lsl #5
  20:	e02c      	b.n	7c <_ZNK9qindesign7network8internal17ConnectionManager13findConnectedEt+0x7c>
  22:	68a3      	ldr	r3, [r4, #8]
  24:	685d      	ldr	r5, [r3, #4]
  26:	b155      	cbz	r5, 3e <_ZNK9qindesign7network8internal17ConnectionManager13findConnectedEt+0x3e>
  28:	f10d 0306 	add.w	r3, sp, #6
  2c:	2200      	movs	r2, #0
  2e:	2101      	movs	r1, #1
  30:	6828      	ldr	r0, [r5, #0]
  32:	f7ff fffe 	bl	0 <tcp_tcp_get_tcp_addrinfo>
  36:	f8bd 3006 	ldrh.w	r3, [sp, #6]
  3a:	429e      	cmp	r6, r3
  3c:	d03d      	beq.n	ba <_ZNK9qindesign7network8internal17ConnectionManager13findConnectedEt+0xba>
  3e:	6923      	ldr	r3, [r4, #16]
  40:	6858      	ldr	r0, [r3, #4]
  42:	b150      	cbz	r0, 5a <_ZNK9qindesign7network8internal17ConnectionManager13findConnectedEt+0x5a>
  44:	f10d 0306 	add.w	r3, sp, #6
  48:	2200      	movs	r2, #0
  4a:	2101      	movs	r1, #1
  4c:	6800      	ldr	r0, [r0, #0]
  4e:	f7ff fffe 	bl	0 <tcp_tcp_get_tcp_addrinfo>
  52:	f8bd 3006 	ldrh.w	r3, [sp, #6]
  56:	429e      	cmp	r6, r3
  58:	d03b      	beq.n	d2 <_ZNK9qindesign7network8internal17ConnectionManager13findConnectedEt+0xd2>
  5a:	69a3      	ldr	r3, [r4, #24]
  5c:	6858      	ldr	r0, [r3, #4]
  5e:	b150      	cbz	r0, 76 <_ZNK9qindesign7network8internal17ConnectionManager13findConnectedEt+0x76>
  60:	f10d 0306 	add.w	r3, sp, #6
  64:	2200      	movs	r2, #0
  66:	2101      	movs	r1, #1
  68:	6800      	ldr	r0, [r0, #0]
  6a:	f7ff fffe 	bl	0 <tcp_tcp_get_tcp_addrinfo>
  6e:	f8bd 3006 	ldrh.w	r3, [sp, #6]
  72:	429e      	cmp	r6, r3
  74:	d02f      	beq.n	d6 <_ZNK9qindesign7network8internal17ConnectionManager13findConnectedEt+0xd6>
  76:	3420      	adds	r4, #32
  78:	42a7      	cmp	r7, r4
  7a:	d02e      	beq.n	da <_ZNK9qindesign7network8internal17ConnectionManager13findConnectedEt+0xda>
  7c:	6823      	ldr	r3, [r4, #0]
  7e:	685d      	ldr	r5, [r3, #4]
  80:	2d00      	cmp	r5, #0
  82:	d0ce      	beq.n	22 <_ZNK9qindesign7network8internal17ConnectionManager13findConnectedEt+0x22>
  84:	f10d 0306 	add.w	r3, sp, #6
  88:	2200      	movs	r2, #0
  8a:	2101      	movs	r1, #1
  8c:	6828      	ldr	r0, [r5, #0]
  8e:	f7ff fffe 	bl	0 <tcp_tcp_get_tcp_addrinfo>
  92:	f8bd 3006 	ldrh.w	r3, [sp, #6]
  96:	429e      	cmp	r6, r3
  98:	d1c3      	bne.n	22 <_ZNK9qindesign7network8internal17ConnectionManager13findConnectedEt+0x22>
  9a:	f8d8 3004 	ldr.w	r3, [r8, #4]
  9e:	42a3      	cmp	r3, r4
  a0:	d010      	beq.n	c4 <_ZNK9qindesign7network8internal17ConnectionManager13findConnectedEt+0xc4>
  a2:	e9d4 2300 	ldrd	r2, r3, [r4]
  a6:	e9c9 2300 	strd	r2, r3, [r9]
  aa:	b113      	cbz	r3, b2 <_ZNK9qindesign7network8internal17ConnectionManager13findConnectedEt+0xb2>
  ac:	685a      	ldr	r2, [r3, #4]
  ae:	3201      	adds	r2, #1
  b0:	605a      	str	r2, [r3, #4]
  b2:	4648      	mov	r0, r9
  b4:	b002      	add	sp, #8
  b6:	e8bd 87f0 	ldmia.w	sp!, {r4, r5, r6, r7, r8, r9, sl, pc}
  ba:	3408      	adds	r4, #8
  bc:	f8d8 3004 	ldr.w	r3, [r8, #4]
  c0:	42a3      	cmp	r3, r4
  c2:	d1ee      	bne.n	a2 <_ZNK9qindesign7network8internal17ConnectionManager13findConnectedEt+0xa2>
  c4:	2300      	movs	r3, #0
  c6:	4648      	mov	r0, r9
  c8:	e9c9 3300 	strd	r3, r3, [r9]
  cc:	b002      	add	sp, #8
  ce:	e8bd 87f0 	ldmia.w	sp!, {r4, r5, r6, r7, r8, r9, sl, pc}
  d2:	3410      	adds	r4, #16
  d4:	e7e1      	b.n	9a <_ZNK9qindesign7network8internal17ConnectionManager13findConnectedEt+0x9a>
  d6:	3418      	adds	r4, #24
  d8:	e7df      	b.n	9a <_ZNK9qindesign7network8internal17ConnectionManager13findConnectedEt+0x9a>
  da:	ebaa 0304 	sub.w	r3, sl, r4
  de:	10db      	asrs	r3, r3, #3
  e0:	2b02      	cmp	r3, #2
  e2:	d014      	beq.n	10e <_ZNK9qindesign7network8internal17ConnectionManager13findConnectedEt+0x10e>
  e4:	2b03      	cmp	r3, #3
  e6:	d003      	beq.n	f0 <_ZNK9qindesign7network8internal17ConnectionManager13findConnectedEt+0xf0>
  e8:	2b01      	cmp	r3, #1
  ea:	d014      	beq.n	116 <_ZNK9qindesign7network8internal17ConnectionManager13findConnectedEt+0x116>
  ec:	4654      	mov	r4, sl
  ee:	e7d4      	b.n	9a <_ZNK9qindesign7network8internal17ConnectionManager13findConnectedEt+0x9a>
  f0:	6823      	ldr	r3, [r4, #0]
  f2:	685b      	ldr	r3, [r3, #4]
  f4:	b153      	cbz	r3, 10c <_ZNK9qindesign7network8internal17ConnectionManager13findConnectedEt+0x10c>
  f6:	6818      	ldr	r0, [r3, #0]
  f8:	2200      	movs	r2, #0
  fa:	f10d 0306 	add.w	r3, sp, #6
  fe:	2101      	movs	r1, #1
 100:	f7ff fffe 	bl	0 <tcp_tcp_get_tcp_addrinfo>
 104:	f8bd 3006 	ldrh.w	r3, [sp, #6]
 108:	429e      	cmp	r6, r3
 10a:	d0c6      	beq.n	9a <_ZNK9qindesign7network8internal17ConnectionManager13findConnectedEt+0x9a>
 10c:	3408      	adds	r4, #8
 10e:	6823      	ldr	r3, [r4, #0]
 110:	685b      	ldr	r3, [r3, #4]
 112:	b98b      	cbnz	r3, 138 <_ZNK9qindesign7network8internal17ConnectionManager13findConnectedEt+0x138>
 114:	3408      	adds	r4, #8
 116:	6823      	ldr	r3, [r4, #0]
 118:	685b      	ldr	r3, [r3, #4]
 11a:	2b00      	cmp	r3, #0
 11c:	d0e6      	beq.n	ec <_ZNK9qindesign7network8internal17ConnectionManager13findConnectedEt+0xec>
 11e:	6818      	ldr	r0, [r3, #0]
 120:	2200      	movs	r2, #0
 122:	f10d 0306 	add.w	r3, sp, #6
 126:	2101      	movs	r1, #1
 128:	f7ff fffe 	bl	0 <tcp_tcp_get_tcp_addrinfo>
 12c:	f8bd 3006 	ldrh.w	r3, [sp, #6]
 130:	429e      	cmp	r6, r3
 132:	d0b2      	beq.n	9a <_ZNK9qindesign7network8internal17ConnectionManager13findConnectedEt+0x9a>
 134:	4654      	mov	r4, sl
 136:	e7b0      	b.n	9a <_ZNK9qindesign7network8internal17ConnectionManager13findConnectedEt+0x9a>
 138:	6818      	ldr	r0, [r3, #0]
 13a:	2200      	movs	r2, #0
 13c:	f10d 0306 	add.w	r3, sp, #6
 140:	2101      	movs	r1, #1
 142:	f7ff fffe 	bl	0 <tcp_tcp_get_tcp_addrinfo>
 146:	f8bd 3006 	ldrh.w	r3, [sp, #6]
 14a:	429e      	cmp	r6, r3
 14c:	d1e2      	bne.n	114 <_ZNK9qindesign7network8internal17ConnectionManager13findConnectedEt+0x114>
 14e:	e7a4      	b.n	9a <_ZNK9qindesign7network8internal17ConnectionManager13findConnectedEt+0x9a>
 150:	10db      	asrs	r3, r3, #3
 152:	e7c5      	b.n	e0 <_ZNK9qindesign7network8internal17ConnectionManager13findConnectedEt+0xe0>

Disassembly of section .text._ZNK9qindesign7network8internal17ConnectionManager13findAvailableEt:

00000000 <_ZNK9qindesign7network8internal17ConnectionManager13findAvailableEt>:
   0:	e92d 4ff0 	stmdb	sp!, {r4, r5, r6, r7, r8, r9, sl, fp, lr}
   4:	e9d1 4a00 	ldrd	r4, sl, [r1]
   8:	b083      	sub	sp, #12
   a:	4688      	mov	r8, r1
   c:	ebaa 0304 	sub.w	r3, sl, r4
  10:	4681      	mov	r9, r0
  12:	4616      	mov	r6, r2
  14:	115f      	asrs	r7, r3, #5
  16:	2f00      	cmp	r7, #0
  18:	f340 80ca 	ble.w	1b0 <_ZNK9qindesign7network8internal17ConnectionManager13findAvailableEt+0x1b0>
  1c:	eb04 1747 	add.w	r7, r4, r7, lsl #5
  20:	e02e      	b.n	80 <_ZNK9qindesign7network8internal17ConnectionManager13findAvailableEt+0x80>
  22:	f8d4 b008 	ldr.w	fp, [r4, #8]
  26:	f8db 5004 	ldr.w	r5, [fp, #4]
  2a:	b155      	cbz	r5, 42 <_ZNK9qindesign7network8internal17ConnectionManager13findAvailableEt+0x42>
  2c:	f10d 0306 	add.w	r3, sp, #6
  30:	2200      	movs	r2, #0
  32:	2101      	movs	r1, #1
  34:	6828      	ldr	r0, [r5, #0]
  36:	f7ff fffe 	bl	0 <tcp_tcp_get_tcp_addrinfo>
  3a:	f8bd 3006 	ldrh.w	r3, [sp, #6]
  3e:	429e      	cmp	r6, r3
  40:	d047      	beq.n	d2 <_ZNK9qindesign7network8internal17ConnectionManager13findAvailableEt+0xd2>
  42:	6925      	ldr	r5, [r4, #16]
  44:	6868      	ldr	r0, [r5, #4]
  46:	b150      	cbz	r0, 5e <_ZNK9qindesign7network8internal17ConnectionManager13findAvailableEt+0x5e>
  48:	f10d 0306 	add.w	r3, sp, #6
  4c:	2200      	movs	r2, #0
  4e:	2101      	movs	r1, #1
  50:	6800      	ldr	r0, [r0, #0]
  52:	f7ff fffe 	bl	0 <tcp_tcp_get_tcp_addrinfo>
  56:	f8bd 3006 	ldrh.w	r3, [sp, #6]
  5a:	429e      	cmp	r6, r3
  5c:	d04d      	beq.n	fa <_ZNK9qindesign7network8internal17ConnectionManager13findAvailableEt+0xfa>
  5e:	69a5      	ldr	r5, [r4, #24]
  60:	6868      	ldr	r0, [r5, #4]
  62:	b150      	cbz	r0, 7a <_ZNK9qindesign7network8internal17ConnectionManager13findAvailableEt+0x7a>
  64:	f10d 0306 	add.w	r3, sp, #6
  68:	2200      	movs	r2, #0
  6a:	2101      	movs	r1, #1
  6c:	6800      	ldr	r0, [r0, #0]
  6e:	f7ff fffe 	bl	0 <tcp_tcp_get_tcp_addrinfo>
  72:	f8bd 3006 	ldrh.w	r3, [sp, #6]
  76:	429e      	cmp	r6, r3
  78:	d048      	beq.n	10c <_ZNK9qindesign7network8internal17ConnectionManager13findAvailableEt+0x10c>
  7a:	3420      	adds	r4, #32
  7c:	42a7      	cmp	r7, r4
  7e:	d04e      	beq.n	11e <_ZNK9qindesign7network8internal17ConnectionManager13findAvailableEt+0x11e>
  80:	f8d4 b000 	ldr.w	fp, [r4]
  84:	f8db 5004 	ldr.w	r5, [fp, #4]
  88:	2d00      	cmp	r5, #0
  8a:	d0ca      	beq.n	22 <_ZNK9qindesign7network8internal17ConnectionManager13findAvailableEt+0x22>
  8c:	f10d 0306 	add.w	r3, sp, #6
  90:	2200      	movs	r2, #0
  92:	2101      	movs	r1, #1
  94:	6828      	ldr	r0, [r5, #0]
  96:	f7ff fffe 	bl	0 <tcp_tcp_get_tcp_addrinfo>
  9a:	f8bd 3006 	ldrh.w	r3, [sp, #6]
  9e:	429e      	cmp	r6, r3
  a0:	d1bf      	bne.n	22 <_ZNK9qindesign7network8internal17ConnectionManager13findAvailableEt+0x22>
  a2:	f8db 2004 	ldr.w	r2, [fp, #4]
  a6:	e9d2 1301 	ldrd	r1, r3, [r2, #4]
  aa:	6912      	ldr	r2, [r2, #16]
  ac:	1a5b      	subs	r3, r3, r1
  ae:	429a      	cmp	r2, r3
  b0:	d2b7      	bcs.n	22 <_ZNK9qindesign7network8internal17ConnectionManager13findAvailableEt+0x22>
  b2:	f8d8 3004 	ldr.w	r3, [r8, #4]
  b6:	42a3      	cmp	r3, r4
  b8:	d018      	beq.n	ec <_ZNK9qindesign7network8internal17ConnectionManager13findAvailableEt+0xec>
  ba:	e9d4 2300 	ldrd	r2, r3, [r4]
  be:	e9c9 2300 	strd	r2, r3, [r9]
  c2:	b113      	cbz	r3, ca <_ZNK9qindesign7network8internal17ConnectionManager13findAvailableEt+0xca>
  c4:	685a      	ldr	r2, [r3, #4]
  c6:	3201      	adds	r2, #1
  c8:	605a      	str	r2, [r3, #4]
  ca:	4648      	mov	r0, r9
  cc:	b003      	add	sp, #12
  ce:	e8bd 8ff0 	ldmia.w	sp!, {r4, r5, r6, r7, r8, r9, sl, fp, pc}
  d2:	f8db 2004 	ldr.w	r2, [fp, #4]
  d6:	e9d2 1301 	ldrd	r1, r3, [r2, #4]
  da:	6912      	ldr	r2, [r2, #16]
  dc:	1a5b      	subs	r3, r3, r1
  de:	429a      	cmp	r2, r3
  e0:	d2af      	bcs.n	42 <_ZNK9qindesign7network8internal17ConnectionManager13findAvailableEt+0x42>
  e2:	3408      	adds	r4, #8
  e4:	f8d8 3004 	ldr.w	r3, [r8, #4]
  e8:	42a3      	cmp	r3, r4
  ea:	d1e6      	bne.n	ba <_ZNK9qindesign7network8internal17ConnectionManager13findAvailableEt+0xba>
  ec:	2300      	movs	r3, #0
  ee:	4648      	mov	r0, r9
  f0:	e9c9 3300 	strd	r3, r3, [r9]
  f4:	b003      	add	sp, #12
  f6:	e8bd 8ff0 	ldmia.w	sp!, {r4, r5, r6, r7, r8, r9, sl, fp, pc}
  fa:	686a      	ldr	r2, [r5, #4]
  fc:	e9d2 1301 	ldrd	r1, r3, [r2, #4]
 100:	6912      	ldr	r2, [r2, #16]
 102:	1a5b      	subs	r3, r3, r1
 104:	429a      	cmp	r2, r3
 106:	d2aa      	bcs.n	5e <_ZNK9qindesign7network8internal17ConnectionManager13findAvailableEt+0x5e>
 108:	3410      	adds	r4, #16
 10a:	e7d2      	b.n	b2 <_ZNK9qindesign7network8internal17ConnectionManager13findAvailableEt+0xb2>
 10c:	686a      	ldr	r2, [r5, #4]
 10e:	e9d2 1301 	ldrd	r1, r3, [r2, #4]
 112:	6912      	ldr	r2, [r2, #16]
 114:	1a5b      	subs	r3, r3, r1
 116:	429a      	cmp	r2, r3
 118:	d2af      	bcs.n	7a <_ZNK9qindesign7network8internal17ConnectionManager13findAvailableEt+0x7a>
 11a:	3418      	adds	r4, #24
 11c:	e7c9      	b.n	b2 <_ZNK9qindesign7network8internal17ConnectionManager13findAvailableEt+0xb2>
 11e:	ebaa 0304 	sub.w	r3, sl, r4
 122:	10db      	asrs	r3, r3, #3
 124:	2b02      	cmp	r3, #2
 126:	d014      	beq.n	152 <_ZNK9qindesign7network8internal17ConnectionManager13findAvailableEt+0x152>
 128:	2b03      	cmp	r3, #3
 12a:	d003      	beq.n	134 <_ZNK9qindesign7network8internal17ConnectionManager13findAvailableEt+0x134>
 12c:	2b01      	cmp	r3, #1
 12e:	d014      	beq.n	15a <_ZNK9qindesign7network8internal17ConnectionManager13findAvailableEt+0x15a>
 130:	4654      	mov	r4, sl
 132:	e7be      	b.n	b2 <_ZNK9qindesign7network8internal17ConnectionManager13findAvailableEt+0xb2>
 134:	6825      	ldr	r5, [r4, #0]
 136:	686b      	ldr	r3, [r5, #4]
 138:	b153      	cbz	r3, 150 <_ZNK9qindesign7network8internal17ConnectionManager13findAvailableEt+0x150>
 13a:	6818      	ldr	r0, [r3, #0]
 13c:	2200      	movs	r2, #0
 13e:	f10d 0306 	add.w	r3, sp, #6
 142:	2101      	movs	r1, #1
 144:	f7ff fffe 	bl	0 <tcp_tcp_get_tcp_addrinfo>
 148:	f8bd 3006 	ldrh.w	r3, [sp, #6]
 14c:	429e      	cmp	r6, r3
 14e:	d031      	beq.n	1b4 <_ZNK9qindesign7network8internal17ConnectionManager13findAvailableEt+0x1b4>
 150:	3408      	adds	r4, #8
 152:	6825      	ldr	r5, [r4, #0]
 154:	686b      	ldr	r3, [r5, #4]
 156:	b9c3      	cbnz	r3, 18a <_ZNK9qindesign7network8internal17ConnectionManager13findAvailableEt+0x18a>
 158:	3408      	adds	r4, #8
 15a:	6825      	ldr	r5, [r4, #0]
 15c:	686b      	ldr	r3, [r5, #4]
 15e:	2b00      	cmp	r3, #0
 160:	d0e6      	beq.n	130 <_ZNK9qindesign7network8internal17ConnectionManager13findAvailableEt+0x130>
 162:	6818      	ldr	r0, [r3, #0]
 164:	2200      	movs	r2, #0
 166:	f10d 0306 	add.w	r3, sp, #6
 16a:	2101      	movs	r1, #1
 16c:	f7ff fffe 	bl	0 <tcp_tcp_get_tcp_addrinfo>
 170:	f8bd 3006 	ldrh.w	r3, [sp, #6]
 174:	429e      	cmp	r6, r3
 176:	d1db      	bne.n	130 <_ZNK9qindesign7network8internal17ConnectionManager13findAvailableEt+0x130>
 178:	686a      	ldr	r2, [r5, #4]
 17a:	e9d2 1301 	ldrd	r1, r3, [r2, #4]
 17e:	6912      	ldr	r2, [r2, #16]
 180:	1a5b      	subs	r3, r3, r1
 182:	429a      	cmp	r2, r3
 184:	d395      	bcc.n	b2 <_ZNK9qindesign7network8internal17ConnectionManager13findAvailableEt+0xb2>
 186:	4654      	mov	r4, sl
 188:	e793      	b.n	b2 <_ZNK9qindesign7network8internal17ConnectionManager13findAvailableEt+0xb2>
 18a:	6818      	ldr	r0, [r3, #0]
 18c:	2200      	movs	r2, #0
 18e:	f10d 0306 	add.w	r3, sp, #6
 192:	2101      	movs	r1, #1
 194:	f7ff fffe 	bl	0 <tcp_tcp_get_tcp_addrinfo>
 198:	f8bd 3006 	ldrh.w	r3, [sp, #6]
 19c:	429e      	cmp	r6, r3
 19e:	d1db      	bne.n	158 <_ZNK9qindesign7network8internal17ConnectionManager13findAvailableEt+0x158>
 1a0:	686a      	ldr	r2, [r5, #4]
 1a2:	e9d2 1301 	ldrd	r1, r3, [r2, #4]
 1a6:	6912      	ldr	r2, [r2, #16]
 1a8:	1a5b      	subs	r3, r3, r1
 1aa:	429a      	cmp	r2, r3
 1ac:	d381      	bcc.n	b2 <_ZNK9qindesign7network8internal17ConnectionManager13findAvailableEt+0xb2>
 1ae:	e7d3      	b.n	158 <_ZNK9qindesign7network8internal17ConnectionManager13findAvailableEt+0x158>
 1b0:	10db      	asrs	r3, r3, #3
 1b2:	e7b7      	b.n	124 <_ZNK9qindesign7network8internal17ConnectionManager13findAvailableEt+0x124>
 1b4:	686a      	ldr	r2, [r5, #4]
 1b6:	e9d2 1301 	ldrd	r1, r3, [r2, #4]
 1ba:	6912      	ldr	r2, [r2, #16]
 1bc:	1a5b      	subs	r3, r3, r1
 1be:	429a      	cmp	r2, r3
 1c0:	f4ff af77 	bcc.w	b2 <_ZNK9qindesign7network8internal17ConnectionManager13findAvailableEt+0xb2>
 1c4:	e7c4      	b.n	150 <_ZNK9qindesign7network8internal17ConnectionManager13findAvailableEt+0x150>
 1c6:	bf00      	nop

Disassembly of section .text._ZN9qindesign7network8internal17ConnectionManager5writeEth:

00000000 <_ZN9qindesign7network8internal17ConnectionManager5writeEth>:
   0:	b5f0      	push	{r4, r5, r6, r7, lr}
   2:	e9d0 4600 	ldrd	r4, r6, [r0]
   6:	b083      	sub	sp, #12
   8:	4b1f      	ldr	r3, [pc, #124]	; (88 <_ZN9qindesign7network8internal17ConnectionManager5writeEth+0x88>)
   a:	42a6      	cmp	r6, r4
   c:	681f      	ldr	r7, [r3, #0]
   e:	f8ad 1004 	strh.w	r1, [sp, #4]
  12:	f88d 2006 	strb.w	r2, [sp, #6]
  16:	d108      	bne.n	2a <_ZN9qindesign7network8internal17ConnectionManager5writeEth+0x2a>
  18:	e02f      	b.n	7a <_ZN9qindesign7network8internal17ConnectionManager5writeEth+0x7a>
  1a:	2301      	movs	r3, #1
  1c:	f10d 0106 	add.w	r1, sp, #6
  20:	461a      	mov	r2, r3
  22:	f7ff fffe 	bl	0 <tcp_write>
  26:	42b4      	cmp	r4, r6
  28:	d027      	beq.n	7a <_ZN9qindesign7network8internal17ConnectionManager5writeEth+0x7a>
  2a:	6825      	ldr	r5, [r4, #0]
  2c:	f10d 0302 	add.w	r3, sp, #2
  30:	2200      	movs	r2, #0
  32:	2101      	movs	r1, #1
  34:	6868      	ldr	r0, [r5, #4]
  36:	3408      	adds	r4, #8
  38:	2800      	cmp	r0, #0
  3a:	d0f4      	beq.n	26 <_ZN9qindesign7network8internal17ConnectionManager5writeEth+0x26>
  3c:	6800      	ldr	r0, [r0, #0]
  3e:	f7ff fffe 	bl	0 <tcp_tcp_get_tcp_addrinfo>
  42:	f8bd 3002 	ldrh.w	r3, [sp, #2]
  46:	f8bd 2004 	ldrh.w	r2, [sp, #4]
  4a:	429a      	cmp	r2, r3
  4c:	d1eb      	bne.n	26 <_ZN9qindesign7network8internal17ConnectionManager5writeEth+0x26>
  4e:	686b      	ldr	r3, [r5, #4]
  50:	6818      	ldr	r0, [r3, #0]
  52:	f8b0 3064 	ldrh.w	r3, [r0, #100]	; 0x64
  56:	2b00      	cmp	r3, #0
  58:	d1df      	bne.n	1a <_ZN9qindesign7network8internal17ConnectionManager5writeEth+0x1a>
  5a:	f7ff fffe 	bl	0 <tcp_output>
  5e:	4603      	mov	r3, r0
  60:	4638      	mov	r0, r7
  62:	2b00      	cmp	r3, #0
  64:	d1df      	bne.n	26 <_ZN9qindesign7network8internal17ConnectionManager5writeEth+0x26>
  66:	f7ff fffe 	bl	0 <_ZN9qindesign7network13EthernetClass4loopEv>
  6a:	686b      	ldr	r3, [r5, #4]
  6c:	6818      	ldr	r0, [r3, #0]
  6e:	f8b0 3064 	ldrh.w	r3, [r0, #100]	; 0x64
  72:	2b00      	cmp	r3, #0
  74:	d1d1      	bne.n	1a <_ZN9qindesign7network8internal17ConnectionManager5writeEth+0x1a>
  76:	42b4      	cmp	r4, r6
  78:	d1d7      	bne.n	2a <_ZN9qindesign7network8internal17ConnectionManager5writeEth+0x2a>
  7a:	4638      	mov	r0, r7
  7c:	f7ff fffe 	bl	0 <_ZN9qindesign7network13EthernetClass4loopEv>
  80:	2001      	movs	r0, #1
  82:	b003      	add	sp, #12
  84:	bdf0      	pop	{r4, r5, r6, r7, pc}
  86:	bf00      	nop
  88:	00000000 	.word	0x00000000

Disassembly of section .text._ZN9qindesign7network8internal17ConnectionManager5writeEtPKhj:

00000000 <_ZN9qindesign7network8internal17ConnectionManager5writeEtPKhj>:
   0:	e92d 4ff0 	stmdb	sp!, {r4, r5, r6, r7, r8, r9, sl, fp, lr}
   4:	f64f 74ff 	movw	r4, #65535	; 0xffff
   8:	b083      	sub	sp, #12
   a:	42a3      	cmp	r3, r4
   c:	bf28      	it	cs
   e:	4623      	movcs	r3, r4
  10:	e9d0 4600 	ldrd	r4, r6, [r0]
  14:	4699      	mov	r9, r3
  16:	42a6      	cmp	r6, r4
  18:	d040      	beq.n	9c <_ZN9qindesign7network8internal17ConnectionManager5writeEtPKhj+0x9c>
  1a:	fa1f f883 	uxth.w	r8, r3
  1e:	4b24      	ldr	r3, [pc, #144]	; (b0 <_ZN9qindesign7network8internal17ConnectionManager5writeEtPKhj+0xb0>)
  20:	460f      	mov	r7, r1
  22:	4692      	mov	sl, r2
  24:	f8d3 b000 	ldr.w	fp, [r3]
  28:	e005      	b.n	36 <_ZN9qindesign7network8internal17ConnectionManager5writeEtPKhj+0x36>
  2a:	4542      	cmp	r2, r8
  2c:	bf28      	it	cs
  2e:	4642      	movcs	r2, r8
  30:	bb3a      	cbnz	r2, 82 <_ZN9qindesign7network8internal17ConnectionManager5writeEtPKhj+0x82>
  32:	42b4      	cmp	r4, r6
  34:	d02b      	beq.n	8e <_ZN9qindesign7network8internal17ConnectionManager5writeEtPKhj+0x8e>
  36:	6825      	ldr	r5, [r4, #0]
  38:	f10d 0306 	add.w	r3, sp, #6
  3c:	2200      	movs	r2, #0
  3e:	2101      	movs	r1, #1
  40:	6868      	ldr	r0, [r5, #4]
  42:	3408      	adds	r4, #8
  44:	2800      	cmp	r0, #0
  46:	d0f4      	beq.n	32 <_ZN9qindesign7network8internal17ConnectionManager5writeEtPKhj+0x32>
  48:	6800      	ldr	r0, [r0, #0]
  4a:	f7ff fffe 	bl	0 <tcp_tcp_get_tcp_addrinfo>
  4e:	f8bd 3006 	ldrh.w	r3, [sp, #6]
  52:	429f      	cmp	r7, r3
  54:	d1ed      	bne.n	32 <_ZN9qindesign7network8internal17ConnectionManager5writeEtPKhj+0x32>
  56:	686b      	ldr	r3, [r5, #4]
  58:	6818      	ldr	r0, [r3, #0]
  5a:	f8b0 2064 	ldrh.w	r2, [r0, #100]	; 0x64
  5e:	4590      	cmp	r8, r2
  60:	d9e3      	bls.n	2a <_ZN9qindesign7network8internal17ConnectionManager5writeEtPKhj+0x2a>
  62:	f7ff fffe 	bl	0 <tcp_output>
  66:	2800      	cmp	r0, #0
  68:	d1e3      	bne.n	32 <_ZN9qindesign7network8internal17ConnectionManager5writeEtPKhj+0x32>
  6a:	4658      	mov	r0, fp
  6c:	f7ff fffe 	bl	0 <_ZN9qindesign7network13EthernetClass4loopEv>
  70:	686b      	ldr	r3, [r5, #4]
  72:	6818      	ldr	r0, [r3, #0]
  74:	f8b0 2064 	ldrh.w	r2, [r0, #100]	; 0x64
  78:	4542      	cmp	r2, r8
  7a:	bf28      	it	cs
  7c:	4642      	movcs	r2, r8
  7e:	2a00      	cmp	r2, #0
  80:	d0d7      	beq.n	32 <_ZN9qindesign7network8internal17ConnectionManager5writeEtPKhj+0x32>
  82:	2301      	movs	r3, #1
  84:	4651      	mov	r1, sl
  86:	f7ff fffe 	bl	0 <tcp_write>
  8a:	42b4      	cmp	r4, r6
  8c:	d1d3      	bne.n	36 <_ZN9qindesign7network8internal17ConnectionManager5writeEtPKhj+0x36>
  8e:	4658      	mov	r0, fp
  90:	f7ff fffe 	bl	0 <_ZN9qindesign7network13EthernetClass4loopEv>
  94:	4648      	mov	r0, r9
  96:	b003      	add	sp, #12
  98:	e8bd 8ff0 	ldmia.w	sp!, {r4, r5, r6, r7, r8, r9, sl, fp, pc}
  9c:	4b04      	ldr	r3, [pc, #16]	; (b0 <_ZN9qindesign7network8internal17ConnectionManager5writeEtPKhj+0xb0>)
  9e:	f8d3 b000 	ldr.w	fp, [r3]
  a2:	4658      	mov	r0, fp
  a4:	f7ff fffe 	bl	0 <_ZN9qindesign7network13EthernetClass4loopEv>
  a8:	4648      	mov	r0, r9
  aa:	b003      	add	sp, #12
  ac:	e8bd 8ff0 	ldmia.w	sp!, {r4, r5, r6, r7, r8, r9, sl, fp, pc}
  b0:	00000000 	.word	0x00000000

Disassembly of section .text._ZN9qindesign7network8internal17ConnectionManager5flushEt:

00000000 <_ZN9qindesign7network8internal17ConnectionManager5flushEt>:
   0:	e92d 41f0 	stmdb	sp!, {r4, r5, r6, r7, r8, lr}
   4:	e9d0 4600 	ldrd	r4, r6, [r0]
   8:	b082      	sub	sp, #8
   a:	42a6      	cmp	r6, r4
   c:	d025      	beq.n	5a <_ZN9qindesign7network8internal17ConnectionManager5flushEt+0x5a>
   e:	4b17      	ldr	r3, [pc, #92]	; (6c <_ZN9qindesign7network8internal17ConnectionManager5flushEt+0x6c>)
  10:	460f      	mov	r7, r1
  12:	f8d3 8000 	ldr.w	r8, [r3]
  16:	e001      	b.n	1c <_ZN9qindesign7network8internal17ConnectionManager5flushEt+0x1c>
  18:	42b4      	cmp	r4, r6
  1a:	d018      	beq.n	4e <_ZN9qindesign7network8internal17ConnectionManager5flushEt+0x4e>
  1c:	6825      	ldr	r5, [r4, #0]
  1e:	f10d 0306 	add.w	r3, sp, #6
  22:	2200      	movs	r2, #0
  24:	2101      	movs	r1, #1
  26:	6868      	ldr	r0, [r5, #4]
  28:	3408      	adds	r4, #8
  2a:	2800      	cmp	r0, #0
  2c:	d0f4      	beq.n	18 <_ZN9qindesign7network8internal17ConnectionManager5flushEt+0x18>
  2e:	6800      	ldr	r0, [r0, #0]
  30:	f7ff fffe 	bl	0 <tcp_tcp_get_tcp_addrinfo>
  34:	f8bd 3006 	ldrh.w	r3, [sp, #6]
  38:	429f      	cmp	r7, r3
  3a:	d1ed      	bne.n	18 <_ZN9qindesign7network8internal17ConnectionManager5flushEt+0x18>
  3c:	686b      	ldr	r3, [r5, #4]
  3e:	6818      	ldr	r0, [r3, #0]
  40:	f7ff fffe 	bl	0 <tcp_output>
  44:	4640      	mov	r0, r8
  46:	f7ff fffe 	bl	0 <_ZN9qindesign7network13EthernetClass4loopEv>
  4a:	42b4      	cmp	r4, r6
  4c:	d1e6      	bne.n	1c <_ZN9qindesign7network8internal17ConnectionManager5flushEt+0x1c>
  4e:	4640      	mov	r0, r8
  50:	b002      	add	sp, #8
  52:	e8bd 41f0 	ldmia.w	sp!, {r4, r5, r6, r7, r8, lr}
  56:	f7ff bffe 	b.w	0 <_ZN9qindesign7network13EthernetClass4loopEv>
  5a:	4b04      	ldr	r3, [pc, #16]	; (6c <_ZN9qindesign7network8internal17ConnectionManager5flushEt+0x6c>)
  5c:	f8d3 8000 	ldr.w	r8, [r3]
  60:	4640      	mov	r0, r8
  62:	b002      	add	sp, #8
  64:	e8bd 41f0 	ldmia.w	sp!, {r4, r5, r6, r7, r8, lr}
  68:	f7ff bffe 	b.w	0 <_ZN9qindesign7network13EthernetClass4loopEv>
  6c:	00000000 	.word	0x00000000

Disassembly of section .text._ZN9qindesign7network8internal17ConnectionManager17availableForWriteEt:

00000000 <_ZN9qindesign7network8internal17ConnectionManager17availableForWriteEt>:
   0:	e92d 47f0 	stmdb	sp!, {r4, r5, r6, r7, r8, r9, sl, lr}
   4:	e9d0 4700 	ldrd	r4, r7, [r0]
   8:	b082      	sub	sp, #8
   a:	42a7      	cmp	r7, r4
   c:	d026      	beq.n	5c <_ZN9qindesign7network8internal17ConnectionManager17availableForWriteEt+0x5c>
   e:	4689      	mov	r9, r1
  10:	f64f 78ff 	movw	r8, #65535	; 0xffff
  14:	f04f 0a00 	mov.w	sl, #0
  18:	6826      	ldr	r6, [r4, #0]
  1a:	f10d 0306 	add.w	r3, sp, #6
  1e:	2200      	movs	r2, #0
  20:	2101      	movs	r1, #1
  22:	6875      	ldr	r5, [r6, #4]
  24:	3408      	adds	r4, #8
  26:	b17d      	cbz	r5, 48 <_ZN9qindesign7network8internal17ConnectionManager17availableForWriteEt+0x48>
  28:	6828      	ldr	r0, [r5, #0]
  2a:	f7ff fffe 	bl	0 <tcp_tcp_get_tcp_addrinfo>
  2e:	f8bd 3006 	ldrh.w	r3, [sp, #6]
  32:	4599      	cmp	r9, r3
  34:	d108      	bne.n	48 <_ZN9qindesign7network8internal17ConnectionManager17availableForWriteEt+0x48>
  36:	6873      	ldr	r3, [r6, #4]
  38:	f04f 0a01 	mov.w	sl, #1
  3c:	681b      	ldr	r3, [r3, #0]
  3e:	f8b3 3064 	ldrh.w	r3, [r3, #100]	; 0x64
  42:	4598      	cmp	r8, r3
  44:	bf28      	it	cs
  46:	4698      	movcs	r8, r3
  48:	42bc      	cmp	r4, r7
  4a:	d1e5      	bne.n	18 <_ZN9qindesign7network8internal17ConnectionManager17availableForWriteEt+0x18>
  4c:	f1ba 0f00 	cmp.w	sl, #0
  50:	bf14      	ite	ne
  52:	4640      	movne	r0, r8
  54:	2000      	moveq	r0, #0
  56:	b002      	add	sp, #8
  58:	e8bd 87f0 	ldmia.w	sp!, {r4, r5, r6, r7, r8, r9, sl, pc}
  5c:	2000      	movs	r0, #0
  5e:	b002      	add	sp, #8
  60:	e8bd 87f0 	ldmia.w	sp!, {r4, r5, r6, r7, r8, r9, sl, pc}

Disassembly of section .text._ZNSt6vectorIhSaIhEE7reserveEj:

00000000 <_ZNSt6vectorIhSaIhEE7reserveEj>:
   0:	e92d 41f0 	stmdb	sp!, {r4, r5, r6, r7, r8, lr}
   4:	1e0d      	subs	r5, r1, #0
   6:	db2c      	blt.n	62 <_ZNSt6vectorIhSaIhEE7reserveEj+0x62>
   8:	6806      	ldr	r6, [r0, #0]
   a:	4604      	mov	r4, r0
   c:	6883      	ldr	r3, [r0, #8]
   e:	1b9b      	subs	r3, r3, r6
  10:	42ab      	cmp	r3, r5
  12:	d301      	bcc.n	18 <_ZNSt6vectorIhSaIhEE7reserveEj+0x18>
  14:	e8bd 81f0 	ldmia.w	sp!, {r4, r5, r6, r7, r8, pc}
  18:	6842      	ldr	r2, [r0, #4]
  1a:	1b92      	subs	r2, r2, r6
  1c:	4690      	mov	r8, r2
  1e:	b1dd      	cbz	r5, 58 <_ZNSt6vectorIhSaIhEE7reserveEj+0x58>
  20:	4628      	mov	r0, r5
  22:	f7ff fffe 	bl	0 <_Znwj>
  26:	6826      	ldr	r6, [r4, #0]
  28:	6862      	ldr	r2, [r4, #4]
  2a:	4607      	mov	r7, r0
  2c:	1b92      	subs	r2, r2, r6
  2e:	2a00      	cmp	r2, #0
  30:	dc08      	bgt.n	44 <_ZNSt6vectorIhSaIhEE7reserveEj+0x44>
  32:	b99e      	cbnz	r6, 5c <_ZNSt6vectorIhSaIhEE7reserveEj+0x5c>
  34:	eb07 0308 	add.w	r3, r7, r8
  38:	443d      	add	r5, r7
  3a:	e9c4 7300 	strd	r7, r3, [r4]
  3e:	60a5      	str	r5, [r4, #8]
  40:	e8bd 81f0 	ldmia.w	sp!, {r4, r5, r6, r7, r8, pc}
  44:	4631      	mov	r1, r6
  46:	4638      	mov	r0, r7
  48:	f7ff fffe 	bl	0 <memmove>
  4c:	68a1      	ldr	r1, [r4, #8]
  4e:	1b89      	subs	r1, r1, r6
  50:	4630      	mov	r0, r6
  52:	f7ff fffe 	bl	0 <_ZdlPvj>
  56:	e7ed      	b.n	34 <_ZNSt6vectorIhSaIhEE7reserveEj+0x34>
  58:	462f      	mov	r7, r5
  5a:	e7e8      	b.n	2e <_ZNSt6vectorIhSaIhEE7reserveEj+0x2e>
  5c:	68a1      	ldr	r1, [r4, #8]
  5e:	1b89      	subs	r1, r1, r6
  60:	e7f6      	b.n	50 <_ZNSt6vectorIhSaIhEE7reserveEj+0x50>
  62:	4801      	ldr	r0, [pc, #4]	; (68 <_ZNSt6vectorIhSaIhEE7reserveEj+0x68>)
  64:	f7ff fffe 	bl	0 <_ZSt20__throw_length_errorPKc>
  68:	00000000 	.word	0x00000000

Disassembly of section .text._ZNSt6vectorIhSaIhEE17_M_default_appendEj:

00000000 <_ZNSt6vectorIhSaIhEE17_M_default_appendEj>:
   0:	2900      	cmp	r1, #0
   2:	d03b      	beq.n	7c <_ZNSt6vectorIhSaIhEE17_M_default_appendEj+0x7c>
   4:	6882      	ldr	r2, [r0, #8]
   6:	e92d 43f8 	stmdb	sp!, {r3, r4, r5, r6, r7, r8, r9, lr}
   a:	e9d0 5300 	ldrd	r5, r3, [r0]
   e:	460c      	mov	r4, r1
  10:	f06f 4100 	mvn.w	r1, #2147483648	; 0x80000000
  14:	1ad2      	subs	r2, r2, r3
  16:	1b5d      	subs	r5, r3, r5
  18:	4606      	mov	r6, r0
  1a:	4294      	cmp	r4, r2
  1c:	eba1 0005 	sub.w	r0, r1, r5
  20:	d923      	bls.n	6a <_ZNSt6vectorIhSaIhEE17_M_default_appendEj+0x6a>
  22:	42a0      	cmp	r0, r4
  24:	d351      	bcc.n	ca <_ZNSt6vectorIhSaIhEE17_M_default_appendEj+0xca>
  26:	42ac      	cmp	r4, r5
  28:	4623      	mov	r3, r4
  2a:	bf38      	it	cc
  2c:	462b      	movcc	r3, r5
  2e:	18ef      	adds	r7, r5, r3
  30:	d24e      	bcs.n	d0 <_ZNSt6vectorIhSaIhEE17_M_default_appendEj+0xd0>
  32:	bb57      	cbnz	r7, 8a <_ZNSt6vectorIhSaIhEE17_M_default_appendEj+0x8a>
  34:	46b8      	mov	r8, r7
  36:	2100      	movs	r1, #0
  38:	2c01      	cmp	r4, #1
  3a:	eb08 0005 	add.w	r0, r8, r5
  3e:	f808 1005 	strb.w	r1, [r8, r5]
  42:	d001      	beq.n	48 <_ZNSt6vectorIhSaIhEE17_M_default_appendEj+0x48>
  44:	1e62      	subs	r2, r4, #1
  46:	d138      	bne.n	ba <_ZNSt6vectorIhSaIhEE17_M_default_appendEj+0xba>
  48:	e9d6 9200 	ldrd	r9, r2, [r6]
  4c:	eba2 0209 	sub.w	r2, r2, r9
  50:	2a00      	cmp	r2, #0
  52:	dc23      	bgt.n	9c <_ZNSt6vectorIhSaIhEE17_M_default_appendEj+0x9c>
  54:	f1b9 0f00 	cmp.w	r9, #0
  58:	d133      	bne.n	c2 <_ZNSt6vectorIhSaIhEE17_M_default_appendEj+0xc2>
  5a:	4425      	add	r5, r4
  5c:	f8c6 8000 	str.w	r8, [r6]
  60:	60b7      	str	r7, [r6, #8]
  62:	4445      	add	r5, r8
  64:	6075      	str	r5, [r6, #4]
  66:	e8bd 83f8 	ldmia.w	sp!, {r3, r4, r5, r6, r7, r8, r9, pc}
  6a:	2100      	movs	r1, #0
  6c:	4618      	mov	r0, r3
  6e:	2c01      	cmp	r4, #1
  70:	f800 1b01 	strb.w	r1, [r0], #1
  74:	d103      	bne.n	7e <_ZNSt6vectorIhSaIhEE17_M_default_appendEj+0x7e>
  76:	6070      	str	r0, [r6, #4]
  78:	e8bd 83f8 	ldmia.w	sp!, {r3, r4, r5, r6, r7, r8, r9, pc}
  7c:	4770      	bx	lr
  7e:	1e62      	subs	r2, r4, #1
  80:	eb03 0504 	add.w	r5, r3, r4
  84:	d115      	bne.n	b2 <_ZNSt6vectorIhSaIhEE17_M_default_appendEj+0xb2>
  86:	4628      	mov	r0, r5
  88:	e7f5      	b.n	76 <_ZNSt6vectorIhSaIhEE17_M_default_appendEj+0x76>
  8a:	428f      	cmp	r7, r1
  8c:	bf28      	it	cs
  8e:	460f      	movcs	r7, r1
  90:	4638      	mov	r0, r7
  92:	f7ff fffe 	bl	0 <_Znwj>
  96:	4680      	mov	r8, r0
  98:	4407      	add	r7, r0
  9a:	e7cc      	b.n	36 <_ZNSt6vectorIhSaIhEE17_M_default_appendEj+0x36>
  9c:	4649      	mov	r1, r9
  9e:	4640      	mov	r0, r8
  a0:	f7ff fffe 	bl	0 <memmove>
  a4:	68b1      	ldr	r1, [r6, #8]
  a6:	eba1 0109 	sub.w	r1, r1, r9
  aa:	4648      	mov	r0, r9
  ac:	f7ff fffe 	bl	0 <_ZdlPvj>
  b0:	e7d3      	b.n	5a <_ZNSt6vectorIhSaIhEE17_M_default_appendEj+0x5a>
  b2:	f7ff fffe 	bl	0 <memset>
  b6:	4628      	mov	r0, r5
  b8:	e7dd      	b.n	76 <_ZNSt6vectorIhSaIhEE17_M_default_appendEj+0x76>
  ba:	3001      	adds	r0, #1
  bc:	f7ff fffe 	bl	0 <memset>
  c0:	e7c2      	b.n	48 <_ZNSt6vectorIhSaIhEE17_M_default_appendEj+0x48>
  c2:	68b1      	ldr	r1, [r6, #8]
  c4:	eba1 0109 	sub.w	r1, r1, r9
  c8:	e7ef      	b.n	aa <_ZNSt6vectorIhSaIhEE17_M_default_appendEj+0xaa>
  ca:	4802      	ldr	r0, [pc, #8]	; (d4 <_ZNSt6vectorIhSaIhEE17_M_default_appendEj+0xd4>)
  cc:	f7ff fffe 	bl	0 <_ZSt20__throw_length_errorPKc>
  d0:	460f      	mov	r7, r1
  d2:	e7dd      	b.n	90 <_ZNSt6vectorIhSaIhEE17_M_default_appendEj+0x90>
  d4:	00000000 	.word	0x00000000

Disassembly of section .text._ZN9qindesign7network8internal17ConnectionManager8recvFuncEPvP7tcp_pcbP4pbufa:

00000000 <_ZN9qindesign7network8internal17ConnectionManager8recvFuncEPvP7tcp_pcbP4pbufa>:
   0:	2800      	cmp	r0, #0
   2:	f000 80c7 	beq.w	194 <_ZN9qindesign7network8internal17ConnectionManager8recvFuncEPvP7tcp_pcbP4pbufa+0x194>
   6:	e92d 47f0 	stmdb	sp!, {r4, r5, r6, r7, r8, r9, sl, lr}
   a:	460f      	mov	r7, r1
   c:	b082      	sub	sp, #8
   e:	2900      	cmp	r1, #0
  10:	f000 80af 	beq.w	172 <_ZN9qindesign7network8internal17ConnectionManager8recvFuncEPvP7tcp_pcbP4pbufa+0x172>
  14:	4604      	mov	r4, r0
  16:	4616      	mov	r6, r2
  18:	4698      	mov	r8, r3
  1a:	7003      	strb	r3, [r0, #0]
  1c:	2a00      	cmp	r2, #0
  1e:	d038      	beq.n	92 <_ZN9qindesign7network8internal17ConnectionManager8recvFuncEPvP7tcp_pcbP4pbufa+0x92>
  20:	2b00      	cmp	r3, #0
  22:	d136      	bne.n	92 <_ZN9qindesign7network8internal17ConnectionManager8recvFuncEPvP7tcp_pcbP4pbufa+0x92>
  24:	2301      	movs	r3, #1
  26:	6845      	ldr	r5, [r0, #4]
  28:	7043      	strb	r3, [r0, #1]
  2a:	b355      	cbz	r5, 82 <_ZN9qindesign7network8internal17ConnectionManager8recvFuncEPvP7tcp_pcbP4pbufa+0x82>
  2c:	6928      	ldr	r0, [r5, #16]
  2e:	f105 0804 	add.w	r8, r5, #4
  32:	f8b6 e008 	ldrh.w	lr, [r6, #8]
  36:	f8d5 c004 	ldr.w	ip, [r5, #4]
  3a:	e9d5 2302 	ldrd	r2, r3, [r5, #8]
  3e:	1a9b      	subs	r3, r3, r2
  40:	4611      	mov	r1, r2
  42:	eba2 0a0c 	sub.w	sl, r2, ip
  46:	eb03 0900 	add.w	r9, r3, r0
  4a:	45ce      	cmp	lr, r9
  4c:	f200 809a 	bhi.w	184 <_ZN9qindesign7network8internal17ConnectionManager8recvFuncEPvP7tcp_pcbP4pbufa+0x184>
  50:	4573      	cmp	r3, lr
  52:	d20a      	bcs.n	6a <_ZN9qindesign7network8internal17ConnectionManager8recvFuncEPvP7tcp_pcbP4pbufa+0x6a>
  54:	ebba 0a00 	subs.w	sl, sl, r0
  58:	d168      	bne.n	12c <_ZN9qindesign7network8internal17ConnectionManager8recvFuncEPvP7tcp_pcbP4pbufa+0x12c>
  5a:	4562      	cmp	r2, ip
  5c:	462a      	mov	r2, r5
  5e:	bf1c      	itt	ne
  60:	4661      	movne	r1, ip
  62:	f8c5 c008 	strne.w	ip, [r5, #8]
  66:	2300      	movs	r3, #0
  68:	6113      	str	r3, [r2, #16]
  6a:	4634      	mov	r4, r6
  6c:	e000      	b.n	70 <_ZN9qindesign7network8internal17ConnectionManager8recvFuncEPvP7tcp_pcbP4pbufa+0x70>
  6e:	68a9      	ldr	r1, [r5, #8]
  70:	6862      	ldr	r2, [r4, #4]
  72:	4640      	mov	r0, r8
  74:	8963      	ldrh	r3, [r4, #10]
  76:	4413      	add	r3, r2
  78:	f7ff fffe 	bl	0 <_ZN9qindesign7network8internal17ConnectionManager8recvFuncEPvP7tcp_pcbP4pbufa>
  7c:	6824      	ldr	r4, [r4, #0]
  7e:	2c00      	cmp	r4, #0
  80:	d1f5      	bne.n	6e <_ZN9qindesign7network8internal17ConnectionManager8recvFuncEPvP7tcp_pcbP4pbufa+0x6e>
  82:	4638      	mov	r0, r7
  84:	8931      	ldrh	r1, [r6, #8]
  86:	f7ff fffe 	bl	0 <tcp_recved>
  8a:	4630      	mov	r0, r6
  8c:	f7ff fffe 	bl	0 <pbuf_free>
  90:	e045      	b.n	11e <_ZN9qindesign7network8internal17ConnectionManager8recvFuncEPvP7tcp_pcbP4pbufa+0x11e>
  92:	2300      	movs	r3, #0
  94:	7063      	strb	r3, [r4, #1]
  96:	6863      	ldr	r3, [r4, #4]
  98:	2b00      	cmp	r3, #0
  9a:	d044      	beq.n	126 <_ZN9qindesign7network8internal17ConnectionManager8recvFuncEPvP7tcp_pcbP4pbufa+0x126>
  9c:	4620      	mov	r0, r4
  9e:	f7ff fffe 	bl	0 <_ZN9qindesign7network8internal17ConnectionManager8recvFuncEPvP7tcp_pcbP4pbufa>
  a2:	b19e      	cbz	r6, cc <_ZN9qindesign7network8internal17ConnectionManager8recvFuncEPvP7tcp_pcbP4pbufa+0xcc>
  a4:	f104 090c 	add.w	r9, r4, #12
  a8:	4635      	mov	r5, r6
  aa:	686a      	ldr	r2, [r5, #4]
  ac:	4648      	mov	r0, r9
  ae:	896b      	ldrh	r3, [r5, #10]
  b0:	6921      	ldr	r1, [r4, #16]
  b2:	4413      	add	r3, r2
  b4:	f7ff fffe 	bl	0 <_ZN9qindesign7network8internal17ConnectionManager8recvFuncEPvP7tcp_pcbP4pbufa>
  b8:	682d      	ldr	r5, [r5, #0]
  ba:	2d00      	cmp	r5, #0
  bc:	d1f5      	bne.n	aa <_ZN9qindesign7network8internal17ConnectionManager8recvFuncEPvP7tcp_pcbP4pbufa+0xaa>
  be:	4638      	mov	r0, r7
  c0:	8931      	ldrh	r1, [r6, #8]
  c2:	f7ff fffe 	bl	0 <tcp_recved>
  c6:	4630      	mov	r0, r6
  c8:	f7ff fffe 	bl	0 <pbuf_free>
  cc:	6865      	ldr	r5, [r4, #4]
  ce:	2100      	movs	r1, #0
  d0:	6061      	str	r1, [r4, #4]
  d2:	b1dd      	cbz	r5, 10c <_ZN9qindesign7network8internal17ConnectionManager8recvFuncEPvP7tcp_pcbP4pbufa+0x10c>
  d4:	6828      	ldr	r0, [r5, #0]
  d6:	f7ff fffe 	bl	0 <tcp_arg>
  da:	69eb      	ldr	r3, [r5, #28]
  dc:	b163      	cbz	r3, f8 <_ZN9qindesign7network8internal17ConnectionManager8recvFuncEPvP7tcp_pcbP4pbufa+0xf8>
  de:	f105 0414 	add.w	r4, r5, #20
  e2:	6a2b      	ldr	r3, [r5, #32]
  e4:	a901      	add	r1, sp, #4
  e6:	9501      	str	r5, [sp, #4]
  e8:	4620      	mov	r0, r4
  ea:	4798      	blx	r3
  ec:	69eb      	ldr	r3, [r5, #28]
  ee:	b11b      	cbz	r3, f8 <_ZN9qindesign7network8internal17ConnectionManager8recvFuncEPvP7tcp_pcbP4pbufa+0xf8>
  f0:	2203      	movs	r2, #3
  f2:	4621      	mov	r1, r4
  f4:	4620      	mov	r0, r4
  f6:	4798      	blx	r3
  f8:	6868      	ldr	r0, [r5, #4]
  fa:	b118      	cbz	r0, 104 <_ZN9qindesign7network8internal17ConnectionManager8recvFuncEPvP7tcp_pcbP4pbufa+0x104>
  fc:	68e9      	ldr	r1, [r5, #12]
  fe:	1a09      	subs	r1, r1, r0
 100:	f7ff fffe 	bl	0 <_ZdlPvj>
 104:	2124      	movs	r1, #36	; 0x24
 106:	4628      	mov	r0, r5
 108:	f7ff fffe 	bl	0 <_ZdlPvj>
 10c:	f028 0802 	bic.w	r8, r8, #2
 110:	f118 0f0f 	cmn.w	r8, #15
 114:	d003      	beq.n	11e <_ZN9qindesign7network8internal17ConnectionManager8recvFuncEPvP7tcp_pcbP4pbufa+0x11e>
 116:	4638      	mov	r0, r7
 118:	f7ff fffe 	bl	0 <tcp_close>
 11c:	bb60      	cbnz	r0, 178 <_ZN9qindesign7network8internal17ConnectionManager8recvFuncEPvP7tcp_pcbP4pbufa+0x178>
 11e:	2000      	movs	r0, #0
 120:	b002      	add	sp, #8
 122:	e8bd 87f0 	ldmia.w	sp!, {r4, r5, r6, r7, r8, r9, sl, pc}
 126:	2e00      	cmp	r6, #0
 128:	d0f0      	beq.n	10c <_ZN9qindesign7network8internal17ConnectionManager8recvFuncEPvP7tcp_pcbP4pbufa+0x10c>
 12a:	e7c8      	b.n	be <_ZN9qindesign7network8internal17ConnectionManager8recvFuncEPvP7tcp_pcbP4pbufa+0xbe>
 12c:	eb0c 0100 	add.w	r1, ip, r0
 130:	1a53      	subs	r3, r2, r1
 132:	d10f      	bne.n	154 <_ZN9qindesign7network8internal17ConnectionManager8recvFuncEPvP7tcp_pcbP4pbufa+0x154>
 134:	eba2 030c 	sub.w	r3, r2, ip
 138:	4611      	mov	r1, r2
 13a:	459a      	cmp	sl, r3
 13c:	d802      	bhi.n	144 <_ZN9qindesign7network8internal17ConnectionManager8recvFuncEPvP7tcp_pcbP4pbufa+0x144>
 13e:	d310      	bcc.n	162 <_ZN9qindesign7network8internal17ConnectionManager8recvFuncEPvP7tcp_pcbP4pbufa+0x162>
 140:	6862      	ldr	r2, [r4, #4]
 142:	e790      	b.n	66 <_ZN9qindesign7network8internal17ConnectionManager8recvFuncEPvP7tcp_pcbP4pbufa+0x66>
 144:	ebaa 0103 	sub.w	r1, sl, r3
 148:	4640      	mov	r0, r8
 14a:	f7ff fffe 	bl	0 <_ZN9qindesign7network8internal17ConnectionManager8recvFuncEPvP7tcp_pcbP4pbufa>
 14e:	6862      	ldr	r2, [r4, #4]
 150:	68a9      	ldr	r1, [r5, #8]
 152:	e788      	b.n	66 <_ZN9qindesign7network8internal17ConnectionManager8recvFuncEPvP7tcp_pcbP4pbufa+0x66>
 154:	4660      	mov	r0, ip
 156:	461a      	mov	r2, r3
 158:	f7ff fffe 	bl	0 <memmove>
 15c:	e9d5 c201 	ldrd	ip, r2, [r5, #4]
 160:	e7e8      	b.n	134 <_ZN9qindesign7network8internal17ConnectionManager8recvFuncEPvP7tcp_pcbP4pbufa+0x134>
 162:	eb0c 030a 	add.w	r3, ip, sl
 166:	6862      	ldr	r2, [r4, #4]
 168:	4299      	cmp	r1, r3
 16a:	bf1c      	itt	ne
 16c:	4619      	movne	r1, r3
 16e:	60ab      	strne	r3, [r5, #8]
 170:	e779      	b.n	66 <_ZN9qindesign7network8internal17ConnectionManager8recvFuncEPvP7tcp_pcbP4pbufa+0x66>
 172:	f06f 000f 	mvn.w	r0, #15
 176:	e7d3      	b.n	120 <_ZN9qindesign7network8internal17ConnectionManager8recvFuncEPvP7tcp_pcbP4pbufa+0x120>
 178:	4638      	mov	r0, r7
 17a:	f7ff fffe 	bl	0 <tcp_abort>
 17e:	f06f 000c 	mvn.w	r0, #12
 182:	e7cd      	b.n	120 <_ZN9qindesign7network8internal17ConnectionManager8recvFuncEPvP7tcp_pcbP4pbufa+0x120>
 184:	4638      	mov	r0, r7
 186:	fa1f f189 	uxth.w	r1, r9
 18a:	f7ff fffe 	bl	0 <tcp_recved>
 18e:	f06f 0004 	mvn.w	r0, #4
 192:	e7c5      	b.n	120 <_ZN9qindesign7network8internal17ConnectionManager8recvFuncEPvP7tcp_pcbP4pbufa+0x120>
 194:	f06f 000f 	mvn.w	r0, #15
 198:	4770      	bx	lr
 19a:	bf00      	nop

Disassembly of section .text._ZNSt6vectorISt10shared_ptrIN9qindesign7network8internal16ConnectionHolderEESaIS5_EE17_M_realloc_insertIJRKS5_EEEvN9__gnu_cxx17__normal_iteratorIPS5_S7_EEDpOT_:

00000000 <_ZNSt6vectorISt10shared_ptrIN9qindesign7network8internal16ConnectionHolderEESaIS5_EE17_M_realloc_insertIJRKS5_EEEvN9__gnu_cxx17__normal_iteratorIPS5_S7_EEDpOT_>:
   0:	e92d 4ff0 	stmdb	sp!, {r4, r5, r6, r7, r8, r9, sl, fp, lr}
   4:	e9d0 b300 	ldrd	fp, r3, [r0]
   8:	b085      	sub	sp, #20
   a:	4688      	mov	r8, r1
   c:	460e      	mov	r6, r1
   e:	f06f 4170 	mvn.w	r1, #4026531840	; 0xf0000000
  12:	9302      	str	r3, [sp, #8]
  14:	eba3 030b 	sub.w	r3, r3, fp
  18:	ebb1 0fe3 	cmp.w	r1, r3, asr #3
  1c:	d07c      	beq.n	118 <_ZNSt6vectorISt10shared_ptrIN9qindesign7network8internal16ConnectionHolderEESaIS5_EE17_M_realloc_insertIJRKS5_EEEvN9__gnu_cxx17__normal_iteratorIPS5_S7_EEDpOT_+0x118>
  1e:	4615      	mov	r5, r2
  20:	10da      	asrs	r2, r3, #3
  22:	4682      	mov	sl, r0
  24:	eba8 070b 	sub.w	r7, r8, fp
  28:	2a01      	cmp	r2, #1
  2a:	4613      	mov	r3, r2
  2c:	bf38      	it	cc
  2e:	2301      	movcc	r3, #1
  30:	189b      	adds	r3, r3, r2
  32:	d26f      	bcs.n	114 <_ZNSt6vectorISt10shared_ptrIN9qindesign7network8internal16ConnectionHolderEESaIS5_EE17_M_realloc_insertIJRKS5_EEEvN9__gnu_cxx17__normal_iteratorIPS5_S7_EEDpOT_+0x114>
  34:	2b00      	cmp	r3, #0
  36:	d160      	bne.n	fa <_ZNSt6vectorISt10shared_ptrIN9qindesign7network8internal16ConnectionHolderEESaIS5_EE17_M_realloc_insertIJRKS5_EEEvN9__gnu_cxx17__normal_iteratorIPS5_S7_EEDpOT_+0xfa>
  38:	2408      	movs	r4, #8
  3a:	9301      	str	r3, [sp, #4]
  3c:	9300      	str	r3, [sp, #0]
  3e:	9a00      	ldr	r2, [sp, #0]
  40:	682b      	ldr	r3, [r5, #0]
  42:	19d1      	adds	r1, r2, r7
  44:	51d3      	str	r3, [r2, r7]
  46:	686a      	ldr	r2, [r5, #4]
  48:	604a      	str	r2, [r1, #4]
  4a:	b112      	cbz	r2, 52 <_ZNSt6vectorISt10shared_ptrIN9qindesign7network8internal16ConnectionHolderEESaIS5_EE17_M_realloc_insertIJRKS5_EEEvN9__gnu_cxx17__normal_iteratorIPS5_S7_EEDpOT_+0x52>
  4c:	6853      	ldr	r3, [r2, #4]
  4e:	3301      	adds	r3, #1
  50:	6053      	str	r3, [r2, #4]
  52:	45d8      	cmp	r8, fp
  54:	d02c      	beq.n	b0 <_ZNSt6vectorISt10shared_ptrIN9qindesign7network8internal16ConnectionHolderEESaIS5_EE17_M_realloc_insertIJRKS5_EEEvN9__gnu_cxx17__normal_iteratorIPS5_S7_EEDpOT_+0xb0>
  56:	f10b 0708 	add.w	r7, fp, #8
  5a:	465d      	mov	r5, fp
  5c:	9c00      	ldr	r4, [sp, #0]
  5e:	f04f 0900 	mov.w	r9, #0
  62:	9603      	str	r6, [sp, #12]
  64:	e000      	b.n	68 <_ZNSt6vectorISt10shared_ptrIN9qindesign7network8internal16ConnectionHolderEESaIS5_EE17_M_realloc_insertIJRKS5_EEEvN9__gnu_cxx17__normal_iteratorIPS5_S7_EEDpOT_+0x68>
  66:	461c      	mov	r4, r3
  68:	f857 3c08 	ldr.w	r3, [r7, #-8]
  6c:	e9c4 3900 	strd	r3, r9, [r4]
  70:	686b      	ldr	r3, [r5, #4]
  72:	f8c5 9004 	str.w	r9, [r5, #4]
  76:	6063      	str	r3, [r4, #4]
  78:	686e      	ldr	r6, [r5, #4]
  7a:	f847 9c08 	str.w	r9, [r7, #-8]
  7e:	b17e      	cbz	r6, a0 <_ZNSt6vectorISt10shared_ptrIN9qindesign7network8internal16ConnectionHolderEESaIS5_EE17_M_realloc_insertIJRKS5_EEEvN9__gnu_cxx17__normal_iteratorIPS5_S7_EEDpOT_+0xa0>
  80:	6873      	ldr	r3, [r6, #4]
  82:	3b01      	subs	r3, #1
  84:	6073      	str	r3, [r6, #4]
  86:	b95b      	cbnz	r3, a0 <_ZNSt6vectorISt10shared_ptrIN9qindesign7network8internal16ConnectionHolderEESaIS5_EE17_M_realloc_insertIJRKS5_EEEvN9__gnu_cxx17__normal_iteratorIPS5_S7_EEDpOT_+0xa0>
  88:	6833      	ldr	r3, [r6, #0]
  8a:	4630      	mov	r0, r6
  8c:	689b      	ldr	r3, [r3, #8]
  8e:	4798      	blx	r3
  90:	68b3      	ldr	r3, [r6, #8]
  92:	3b01      	subs	r3, #1
  94:	60b3      	str	r3, [r6, #8]
  96:	b91b      	cbnz	r3, a0 <_ZNSt6vectorISt10shared_ptrIN9qindesign7network8internal16ConnectionHolderEESaIS5_EE17_M_realloc_insertIJRKS5_EEEvN9__gnu_cxx17__normal_iteratorIPS5_S7_EEDpOT_+0xa0>
  98:	6833      	ldr	r3, [r6, #0]
  9a:	4630      	mov	r0, r6
  9c:	68db      	ldr	r3, [r3, #12]
  9e:	4798      	blx	r3
  a0:	3508      	adds	r5, #8
  a2:	f104 0308 	add.w	r3, r4, #8
  a6:	3708      	adds	r7, #8
  a8:	4545      	cmp	r5, r8
  aa:	d1dc      	bne.n	66 <_ZNSt6vectorISt10shared_ptrIN9qindesign7network8internal16ConnectionHolderEESaIS5_EE17_M_realloc_insertIJRKS5_EEEvN9__gnu_cxx17__normal_iteratorIPS5_S7_EEDpOT_+0x66>
  ac:	9e03      	ldr	r6, [sp, #12]
  ae:	3410      	adds	r4, #16
  b0:	9b02      	ldr	r3, [sp, #8]
  b2:	4598      	cmp	r8, r3
  b4:	d01f      	beq.n	f6 <_ZNSt6vectorISt10shared_ptrIN9qindesign7network8internal16ConnectionHolderEESaIS5_EE17_M_realloc_insertIJRKS5_EEEvN9__gnu_cxx17__normal_iteratorIPS5_S7_EEDpOT_+0xf6>
  b6:	eba3 0808 	sub.w	r8, r3, r8
  ba:	eb04 0508 	add.w	r5, r4, r8
  be:	3408      	adds	r4, #8
  c0:	e9d6 2300 	ldrd	r2, r3, [r6]
  c4:	42ac      	cmp	r4, r5
  c6:	f106 0608 	add.w	r6, r6, #8
  ca:	e944 2302 	strd	r2, r3, [r4, #-8]
  ce:	d1f6      	bne.n	be <_ZNSt6vectorISt10shared_ptrIN9qindesign7network8internal16ConnectionHolderEESaIS5_EE17_M_realloc_insertIJRKS5_EEEvN9__gnu_cxx17__normal_iteratorIPS5_S7_EEDpOT_+0xbe>
  d0:	f1bb 0f00 	cmp.w	fp, #0
  d4:	d006      	beq.n	e4 <_ZNSt6vectorISt10shared_ptrIN9qindesign7network8internal16ConnectionHolderEESaIS5_EE17_M_realloc_insertIJRKS5_EEEvN9__gnu_cxx17__normal_iteratorIPS5_S7_EEDpOT_+0xe4>
  d6:	f8da 1008 	ldr.w	r1, [sl, #8]
  da:	4658      	mov	r0, fp
  dc:	eba1 010b 	sub.w	r1, r1, fp
  e0:	f7ff fffe 	bl	0 <_ZdlPvj>
  e4:	9b00      	ldr	r3, [sp, #0]
  e6:	e9ca 3500 	strd	r3, r5, [sl]
  ea:	9b01      	ldr	r3, [sp, #4]
  ec:	f8ca 3008 	str.w	r3, [sl, #8]
  f0:	b005      	add	sp, #20
  f2:	e8bd 8ff0 	ldmia.w	sp!, {r4, r5, r6, r7, r8, r9, sl, fp, pc}
  f6:	4625      	mov	r5, r4
  f8:	e7ea      	b.n	d0 <_ZNSt6vectorISt10shared_ptrIN9qindesign7network8internal16ConnectionHolderEESaIS5_EE17_M_realloc_insertIJRKS5_EEEvN9__gnu_cxx17__normal_iteratorIPS5_S7_EEDpOT_+0xd0>
  fa:	428b      	cmp	r3, r1
  fc:	bf28      	it	cs
  fe:	460b      	movcs	r3, r1
 100:	00dc      	lsls	r4, r3, #3
 102:	4620      	mov	r0, r4
 104:	f7ff fffe 	bl	0 <_Znwj>
 108:	1902      	adds	r2, r0, r4
 10a:	9000      	str	r0, [sp, #0]
 10c:	f100 0408 	add.w	r4, r0, #8
 110:	9201      	str	r2, [sp, #4]
 112:	e794      	b.n	3e <_ZNSt6vectorISt10shared_ptrIN9qindesign7network8internal16ConnectionHolderEESaIS5_EE17_M_realloc_insertIJRKS5_EEEvN9__gnu_cxx17__normal_iteratorIPS5_S7_EEDpOT_+0x3e>
 114:	4c02      	ldr	r4, [pc, #8]	; (120 <_ZNSt6vectorISt10shared_ptrIN9qindesign7network8internal16ConnectionHolderEESaIS5_EE17_M_realloc_insertIJRKS5_EEEvN9__gnu_cxx17__normal_iteratorIPS5_S7_EEDpOT_+0x120>)
 116:	e7f4      	b.n	102 <_ZNSt6vectorISt10shared_ptrIN9qindesign7network8internal16ConnectionHolderEESaIS5_EE17_M_realloc_insertIJRKS5_EEEvN9__gnu_cxx17__normal_iteratorIPS5_S7_EEDpOT_+0x102>
 118:	4802      	ldr	r0, [pc, #8]	; (124 <_ZNSt6vectorISt10shared_ptrIN9qindesign7network8internal16ConnectionHolderEESaIS5_EE17_M_realloc_insertIJRKS5_EEEvN9__gnu_cxx17__normal_iteratorIPS5_S7_EEDpOT_+0x124>)
 11a:	f7ff fffe 	bl	0 <_ZSt20__throw_length_errorPKc>
 11e:	bf00      	nop
 120:	7ffffff8 	.word	0x7ffffff8
 124:	00000000 	.word	0x00000000

Disassembly of section .text._ZN9qindesign7network8internal17ConnectionManager13addConnectionERKSt10shared_ptrINS1_16ConnectionHolderEE:

00000000 <_ZN9qindesign7network8internal17ConnectionManager13addConnectionERKSt10shared_ptrINS1_16ConnectionHolderEE>:
   0:	e92d 41f0 	stmdb	sp!, {r4, r5, r6, r7, r8, lr}
   4:	460d      	mov	r5, r1
   6:	b086      	sub	sp, #24
   8:	4606      	mov	r6, r0
   a:	e9d0 1301 	ldrd	r1, r3, [r0, #4]
   e:	4299      	cmp	r1, r3
  10:	d065      	beq.n	de <_ZN9qindesign7network8internal17ConnectionManager13addConnectionERKSt10shared_ptrINS1_16ConnectionHolderEE+0xde>
  12:	e9d5 2300 	ldrd	r2, r3, [r5]
  16:	e9c1 2300 	strd	r2, r3, [r1]
  1a:	b113      	cbz	r3, 22 <_ZN9qindesign7network8internal17ConnectionManager13addConnectionERKSt10shared_ptrINS1_16ConnectionHolderEE+0x22>
  1c:	685a      	ldr	r2, [r3, #4]
  1e:	3201      	adds	r2, #1
  20:	605a      	str	r2, [r3, #4]
  22:	3108      	adds	r1, #8
  24:	6071      	str	r1, [r6, #4]
  26:	e9d5 8400 	ldrd	r8, r4, [r5]
  2a:	2c00      	cmp	r4, #0
  2c:	d049      	beq.n	c2 <_ZN9qindesign7network8internal17ConnectionManager13addConnectionERKSt10shared_ptrINS1_16ConnectionHolderEE+0xc2>
  2e:	6863      	ldr	r3, [r4, #4]
  30:	ad02      	add	r5, sp, #8
  32:	f8d8 7004 	ldr.w	r7, [r8, #4]
  36:	200c      	movs	r0, #12
  38:	3301      	adds	r3, #1
  3a:	6063      	str	r3, [r4, #4]
  3c:	2300      	movs	r3, #0
  3e:	9302      	str	r3, [sp, #8]
  40:	9305      	str	r3, [sp, #20]
  42:	e9c5 3301 	strd	r3, r3, [r5, #4]
  46:	f7ff fffe 	bl	0 <_Znwj>
  4a:	6863      	ldr	r3, [r4, #4]
  4c:	6084      	str	r4, [r0, #8]
  4e:	3301      	adds	r3, #1
  50:	e9c0 6800 	strd	r6, r8, [r0]
  54:	6063      	str	r3, [r4, #4]
  56:	466a      	mov	r2, sp
  58:	f107 0314 	add.w	r3, r7, #20
  5c:	9002      	str	r0, [sp, #8]
  5e:	f8df c08c 	ldr.w	ip, [pc, #140]	; ec <_ZN9qindesign7network8internal17ConnectionManager13addConnectionERKSt10shared_ptrINS1_16ConnectionHolderEE+0xec>
  62:	4e21      	ldr	r6, [pc, #132]	; (e8 <_ZN9qindesign7network8internal17ConnectionManager13addConnectionERKSt10shared_ptrINS1_16ConnectionHolderEE+0xe8>)
  64:	e895 0003 	ldmia.w	r5, {r0, r1}
  68:	e882 0003 	stmia.w	r2, {r0, r1}
  6c:	e893 0003 	ldmia.w	r3, {r0, r1}
  70:	e885 0003 	stmia.w	r5, {r0, r1}
  74:	e892 0003 	ldmia.w	r2, {r0, r1}
  78:	e883 0003 	stmia.w	r3, {r0, r1}
  7c:	69fb      	ldr	r3, [r7, #28]
  7e:	6a3a      	ldr	r2, [r7, #32]
  80:	f8c7 c01c 	str.w	ip, [r7, #28]
  84:	9304      	str	r3, [sp, #16]
  86:	623e      	str	r6, [r7, #32]
  88:	9205      	str	r2, [sp, #20]
  8a:	b11b      	cbz	r3, 94 <_ZN9qindesign7network8internal17ConnectionManager13addConnectionERKSt10shared_ptrINS1_16ConnectionHolderEE+0x94>
  8c:	2203      	movs	r2, #3
  8e:	4629      	mov	r1, r5
  90:	4628      	mov	r0, r5
  92:	4798      	blx	r3
  94:	b194      	cbz	r4, bc <_ZN9qindesign7network8internal17ConnectionManager13addConnectionERKSt10shared_ptrINS1_16ConnectionHolderEE+0xbc>
  96:	6863      	ldr	r3, [r4, #4]
  98:	3b01      	subs	r3, #1
  9a:	6063      	str	r3, [r4, #4]
  9c:	b973      	cbnz	r3, bc <_ZN9qindesign7network8internal17ConnectionManager13addConnectionERKSt10shared_ptrINS1_16ConnectionHolderEE+0xbc>
  9e:	6823      	ldr	r3, [r4, #0]
  a0:	4620      	mov	r0, r4
  a2:	689b      	ldr	r3, [r3, #8]
  a4:	4798      	blx	r3
  a6:	68a3      	ldr	r3, [r4, #8]
  a8:	3b01      	subs	r3, #1
  aa:	60a3      	str	r3, [r4, #8]
  ac:	b933      	cbnz	r3, bc <_ZN9qindesign7network8internal17ConnectionManager13addConnectionERKSt10shared_ptrINS1_16ConnectionHolderEE+0xbc>
  ae:	6823      	ldr	r3, [r4, #0]
  b0:	4620      	mov	r0, r4
  b2:	68db      	ldr	r3, [r3, #12]
  b4:	b006      	add	sp, #24
  b6:	e8bd 41f0 	ldmia.w	sp!, {r4, r5, r6, r7, r8, lr}
  ba:	4718      	bx	r3
  bc:	b006      	add	sp, #24
  be:	e8bd 81f0 	ldmia.w	sp!, {r4, r5, r6, r7, r8, pc}
  c2:	ad02      	add	r5, sp, #8
  c4:	f8d8 7004 	ldr.w	r7, [r8, #4]
  c8:	200c      	movs	r0, #12
  ca:	9402      	str	r4, [sp, #8]
  cc:	9405      	str	r4, [sp, #20]
  ce:	e9c5 4401 	strd	r4, r4, [r5, #4]
  d2:	f7ff fffe 	bl	0 <_Znwj>
  d6:	6084      	str	r4, [r0, #8]
  d8:	e9c0 6800 	strd	r6, r8, [r0]
  dc:	e7bb      	b.n	56 <_ZN9qindesign7network8internal17ConnectionManager13addConnectionERKSt10shared_ptrINS1_16ConnectionHolderEE+0x56>
  de:	462a      	mov	r2, r5
  e0:	f7ff fffe 	bl	0 <_ZN9qindesign7network8internal17ConnectionManager13addConnectionERKSt10shared_ptrINS1_16ConnectionHolderEE>
  e4:	e79f      	b.n	26 <_ZN9qindesign7network8internal17ConnectionManager13addConnectionERKSt10shared_ptrINS1_16ConnectionHolderEE+0x26>
  e6:	bf00      	nop
  e8:	00000000 	.word	0x00000000
  ec:	00000000 	.word	0x00000000

Disassembly of section .text._ZN9qindesign7network8internal17ConnectionManager10acceptFuncEPvP7tcp_pcba:

00000000 <_ZN9qindesign7network8internal17ConnectionManager10acceptFuncEPvP7tcp_pcba>:
   0:	2800      	cmp	r0, #0
   2:	f000 8097 	beq.w	134 <_ZN9qindesign7network8internal17ConnectionManager10acceptFuncEPvP7tcp_pcba+0x134>
   6:	e92d 43f0 	stmdb	sp!, {r4, r5, r6, r7, r8, r9, lr}
   a:	460f      	mov	r7, r1
   c:	b085      	sub	sp, #20
   e:	2900      	cmp	r1, #0
  10:	f000 808d 	beq.w	12e <_ZN9qindesign7network8internal17ConnectionManager10acceptFuncEPvP7tcp_pcba+0x12e>
  14:	4614      	mov	r4, r2
  16:	b192      	cbz	r2, 3e <_ZN9qindesign7network8internal17ConnectionManager10acceptFuncEPvP7tcp_pcba+0x3e>
  18:	f022 0402 	bic.w	r4, r2, #2
  1c:	340f      	adds	r4, #15
  1e:	d103      	bne.n	28 <_ZN9qindesign7network8internal17ConnectionManager10acceptFuncEPvP7tcp_pcba+0x28>
  20:	2000      	movs	r0, #0
  22:	b005      	add	sp, #20
  24:	e8bd 83f0 	ldmia.w	sp!, {r4, r5, r6, r7, r8, r9, pc}
  28:	4608      	mov	r0, r1
  2a:	f7ff fffe 	bl	0 <tcp_close>
  2e:	2800      	cmp	r0, #0
  30:	d0f6      	beq.n	20 <_ZN9qindesign7network8internal17ConnectionManager10acceptFuncEPvP7tcp_pcba+0x20>
  32:	4638      	mov	r0, r7
  34:	f7ff fffe 	bl	0 <tcp_abort>
  38:	f06f 000c 	mvn.w	r0, #12
  3c:	e7f1      	b.n	22 <_ZN9qindesign7network8internal17ConnectionManager10acceptFuncEPvP7tcp_pcba+0x22>
  3e:	4680      	mov	r8, r0
  40:	2024      	movs	r0, #36	; 0x24
  42:	f7ff fffe 	bl	0 <_Znwj>
  46:	2301      	movs	r3, #1
  48:	4606      	mov	r6, r0
  4a:	4a3c      	ldr	r2, [pc, #240]	; (13c <_ZN9qindesign7network8internal17ConnectionManager10acceptFuncEPvP7tcp_pcba+0x13c>)
  4c:	4605      	mov	r5, r0
  4e:	9003      	str	r0, [sp, #12]
  50:	e9c0 3301 	strd	r3, r3, [r0, #4]
  54:	f846 2b0c 	str.w	r2, [r6], #12
  58:	60c4      	str	r4, [r0, #12]
  5a:	60b4      	str	r4, [r6, #8]
  5c:	7343      	strb	r3, [r0, #13]
  5e:	6104      	str	r4, [r0, #16]
  60:	6204      	str	r4, [r0, #32]
  62:	9602      	str	r6, [sp, #8]
  64:	e9c0 4406 	strd	r4, r4, [r0, #24]
  68:	2024      	movs	r0, #36	; 0x24
  6a:	f7ff fffe 	bl	0 <_Znwj>
  6e:	4631      	mov	r1, r6
  70:	4606      	mov	r6, r0
  72:	6204      	str	r4, [r0, #32]
  74:	e9c0 7400 	strd	r7, r4, [r0]
  78:	e9c0 4402 	strd	r4, r4, [r0, #8]
  7c:	e9c0 4404 	strd	r4, r4, [r0, #16]
  80:	e9c0 4406 	strd	r4, r4, [r0, #24]
  84:	4638      	mov	r0, r7
  86:	f7ff fffe 	bl	0 <tcp_arg>
  8a:	f241 61d0 	movw	r1, #5840	; 0x16d0
  8e:	1d30      	adds	r0, r6, #4
  90:	f7ff fffe 	bl	0 <_ZN9qindesign7network8internal17ConnectionManager10acceptFuncEPvP7tcp_pcba>
  94:	f8d5 9010 	ldr.w	r9, [r5, #16]
  98:	612e      	str	r6, [r5, #16]
  9a:	f1b9 0f00 	cmp.w	r9, #0
  9e:	d023      	beq.n	e8 <_ZN9qindesign7network8internal17ConnectionManager10acceptFuncEPvP7tcp_pcba+0xe8>
  a0:	4621      	mov	r1, r4
  a2:	f8d9 0000 	ldr.w	r0, [r9]
  a6:	f7ff fffe 	bl	0 <tcp_arg>
  aa:	f8d9 301c 	ldr.w	r3, [r9, #28]
  ae:	b17b      	cbz	r3, d0 <_ZN9qindesign7network8internal17ConnectionManager10acceptFuncEPvP7tcp_pcba+0xd0>
  b0:	f109 0414 	add.w	r4, r9, #20
  b4:	f8d9 3020 	ldr.w	r3, [r9, #32]
  b8:	a901      	add	r1, sp, #4
  ba:	f8cd 9004 	str.w	r9, [sp, #4]
  be:	4620      	mov	r0, r4
  c0:	4798      	blx	r3
  c2:	f8d9 301c 	ldr.w	r3, [r9, #28]
  c6:	b11b      	cbz	r3, d0 <_ZN9qindesign7network8internal17ConnectionManager10acceptFuncEPvP7tcp_pcba+0xd0>
  c8:	2203      	movs	r2, #3
  ca:	4621      	mov	r1, r4
  cc:	4620      	mov	r0, r4
  ce:	4798      	blx	r3
  d0:	f8d9 0004 	ldr.w	r0, [r9, #4]
  d4:	b120      	cbz	r0, e0 <_ZN9qindesign7network8internal17ConnectionManager10acceptFuncEPvP7tcp_pcba+0xe0>
  d6:	f8d9 100c 	ldr.w	r1, [r9, #12]
  da:	1a09      	subs	r1, r1, r0
  dc:	f7ff fffe 	bl	0 <_ZdlPvj>
  e0:	2124      	movs	r1, #36	; 0x24
  e2:	4648      	mov	r0, r9
  e4:	f7ff fffe 	bl	0 <_ZdlPvj>
  e8:	4915      	ldr	r1, [pc, #84]	; (140 <_ZN9qindesign7network8internal17ConnectionManager10acceptFuncEPvP7tcp_pcba+0x140>)
  ea:	4638      	mov	r0, r7
  ec:	f7ff fffe 	bl	0 <tcp_err>
  f0:	4914      	ldr	r1, [pc, #80]	; (144 <_ZN9qindesign7network8internal17ConnectionManager10acceptFuncEPvP7tcp_pcba+0x144>)
  f2:	4638      	mov	r0, r7
  f4:	f7ff fffe 	bl	0 <tcp_recv>
  f8:	a902      	add	r1, sp, #8
  fa:	4640      	mov	r0, r8
  fc:	f7ff fffe 	bl	0 <_ZN9qindesign7network8internal17ConnectionManager10acceptFuncEPvP7tcp_pcba>
 100:	9c03      	ldr	r4, [sp, #12]
 102:	2c00      	cmp	r4, #0
 104:	d08c      	beq.n	20 <_ZN9qindesign7network8internal17ConnectionManager10acceptFuncEPvP7tcp_pcba+0x20>
 106:	6863      	ldr	r3, [r4, #4]
 108:	3b01      	subs	r3, #1
 10a:	6063      	str	r3, [r4, #4]
 10c:	2b00      	cmp	r3, #0
 10e:	d187      	bne.n	20 <_ZN9qindesign7network8internal17ConnectionManager10acceptFuncEPvP7tcp_pcba+0x20>
 110:	6823      	ldr	r3, [r4, #0]
 112:	4620      	mov	r0, r4
 114:	689b      	ldr	r3, [r3, #8]
 116:	4798      	blx	r3
 118:	68a3      	ldr	r3, [r4, #8]
 11a:	3b01      	subs	r3, #1
 11c:	60a3      	str	r3, [r4, #8]
 11e:	2b00      	cmp	r3, #0
 120:	f47f af7e 	bne.w	20 <_ZN9qindesign7network8internal17ConnectionManager10acceptFuncEPvP7tcp_pcba+0x20>
 124:	6823      	ldr	r3, [r4, #0]
 126:	4620      	mov	r0, r4
 128:	68db      	ldr	r3, [r3, #12]
 12a:	4798      	blx	r3
 12c:	e778      	b.n	20 <_ZN9qindesign7network8internal17ConnectionManager10acceptFuncEPvP7tcp_pcba+0x20>
 12e:	f06f 000f 	mvn.w	r0, #15
 132:	e776      	b.n	22 <_ZN9qindesign7network8internal17ConnectionManager10acceptFuncEPvP7tcp_pcba+0x22>
 134:	f06f 000f 	mvn.w	r0, #15
 138:	4770      	bx	lr
 13a:	bf00      	nop
 13c:	00000008 	.word	0x00000008
 140:	00000000 	.word	0x00000000
 144:	00000000 	.word	0x00000000

Disassembly of section .text._ZN9qindesign7network8internal17ConnectionManager7connectEPK8ip4_addrt:

00000000 <_ZN9qindesign7network8internal17ConnectionManager7connectEPK8ip4_addrt>:
   0:	e92d 4ff0 	stmdb	sp!, {r4, r5, r6, r7, r8, r9, sl, fp, lr}
   4:	4604      	mov	r4, r0
   6:	b087      	sub	sp, #28
   8:	4615      	mov	r5, r2
   a:	2a00      	cmp	r2, #0
   c:	f000 8091 	beq.w	132 <_ZN9qindesign7network8internal17ConnectionManager7connectEPK8ip4_addrt+0x132>
  10:	2000      	movs	r0, #0
  12:	4689      	mov	r9, r1
  14:	4698      	mov	r8, r3
  16:	f7ff fffe 	bl	0 <tcp_new_ip_type>
  1a:	4607      	mov	r7, r0
  1c:	2800      	cmp	r0, #0
  1e:	f000 8098 	beq.w	152 <_ZN9qindesign7network8internal17ConnectionManager7connectEPK8ip4_addrt+0x152>
  22:	2200      	movs	r2, #0
  24:	4954      	ldr	r1, [pc, #336]	; (178 <_ZN9qindesign7network8internal17ConnectionManager7connectEPK8ip4_addrt+0x178>)
  26:	f7ff fffe 	bl	0 <tcp_bind>
  2a:	4606      	mov	r6, r0
  2c:	2800      	cmp	r0, #0
  2e:	f040 8086 	bne.w	13e <_ZN9qindesign7network8internal17ConnectionManager7connectEPK8ip4_addrt+0x13e>
  32:	2024      	movs	r0, #36	; 0x24
  34:	f7ff fffe 	bl	0 <_Znwj>
  38:	2301      	movs	r3, #1
  3a:	4683      	mov	fp, r0
  3c:	4682      	mov	sl, r0
  3e:	9005      	str	r0, [sp, #20]
  40:	e9c0 3301 	strd	r3, r3, [r0, #4]
  44:	4b4d      	ldr	r3, [pc, #308]	; (17c <_ZN9qindesign7network8internal17ConnectionManager7connectEPK8ip4_addrt+0x17c>)
  46:	f84b 3b0c 	str.w	r3, [fp], #12
  4a:	60c6      	str	r6, [r0, #12]
  4c:	f8cb 6008 	str.w	r6, [fp, #8]
  50:	6106      	str	r6, [r0, #16]
  52:	6206      	str	r6, [r0, #32]
  54:	f8cd b010 	str.w	fp, [sp, #16]
  58:	e9c0 6606 	strd	r6, r6, [r0, #24]
  5c:	2024      	movs	r0, #36	; 0x24
  5e:	f7ff fffe 	bl	0 <_Znwj>
  62:	4659      	mov	r1, fp
  64:	4683      	mov	fp, r0
  66:	6206      	str	r6, [r0, #32]
  68:	e9c0 7600 	strd	r7, r6, [r0]
  6c:	e9c0 6602 	strd	r6, r6, [r0, #8]
  70:	e9c0 6604 	strd	r6, r6, [r0, #16]
  74:	e9c0 6606 	strd	r6, r6, [r0, #24]
  78:	4638      	mov	r0, r7
  7a:	f7ff fffe 	bl	0 <tcp_arg>
  7e:	f241 61d0 	movw	r1, #5840	; 0x16d0
  82:	f10b 0004 	add.w	r0, fp, #4
  86:	f7ff fffe 	bl	0 <_ZN9qindesign7network8internal17ConnectionManager7connectEPK8ip4_addrt>
  8a:	f8da 3010 	ldr.w	r3, [sl, #16]
  8e:	f8ca b010 	str.w	fp, [sl, #16]
  92:	b313      	cbz	r3, da <_ZN9qindesign7network8internal17ConnectionManager7connectEPK8ip4_addrt+0xda>
  94:	6818      	ldr	r0, [r3, #0]
  96:	4631      	mov	r1, r6
  98:	9301      	str	r3, [sp, #4]
  9a:	f7ff fffe 	bl	0 <tcp_arg>
  9e:	9b01      	ldr	r3, [sp, #4]
  a0:	69da      	ldr	r2, [r3, #28]
  a2:	b172      	cbz	r2, c2 <_ZN9qindesign7network8internal17ConnectionManager7connectEPK8ip4_addrt+0xc2>
  a4:	f103 0b14 	add.w	fp, r3, #20
  a8:	6a1a      	ldr	r2, [r3, #32]
  aa:	9303      	str	r3, [sp, #12]
  ac:	a903      	add	r1, sp, #12
  ae:	4658      	mov	r0, fp
  b0:	4790      	blx	r2
  b2:	9b01      	ldr	r3, [sp, #4]
  b4:	69de      	ldr	r6, [r3, #28]
  b6:	b126      	cbz	r6, c2 <_ZN9qindesign7network8internal17ConnectionManager7connectEPK8ip4_addrt+0xc2>
  b8:	2203      	movs	r2, #3
  ba:	4659      	mov	r1, fp
  bc:	4658      	mov	r0, fp
  be:	47b0      	blx	r6
  c0:	9b01      	ldr	r3, [sp, #4]
  c2:	6858      	ldr	r0, [r3, #4]
  c4:	b128      	cbz	r0, d2 <_ZN9qindesign7network8internal17ConnectionManager7connectEPK8ip4_addrt+0xd2>
  c6:	68d9      	ldr	r1, [r3, #12]
  c8:	9301      	str	r3, [sp, #4]
  ca:	1a09      	subs	r1, r1, r0
  cc:	f7ff fffe 	bl	0 <_ZdlPvj>
  d0:	9b01      	ldr	r3, [sp, #4]
  d2:	4618      	mov	r0, r3
  d4:	2124      	movs	r1, #36	; 0x24
  d6:	f7ff fffe 	bl	0 <_ZdlPvj>
  da:	4929      	ldr	r1, [pc, #164]	; (180 <_ZN9qindesign7network8internal17ConnectionManager7connectEPK8ip4_addrt+0x180>)
  dc:	4638      	mov	r0, r7
  de:	f7ff fffe 	bl	0 <tcp_err>
  e2:	4928      	ldr	r1, [pc, #160]	; (184 <_ZN9qindesign7network8internal17ConnectionManager7connectEPK8ip4_addrt+0x184>)
  e4:	4638      	mov	r0, r7
  e6:	f7ff fffe 	bl	0 <tcp_recv>
  ea:	4642      	mov	r2, r8
  ec:	4629      	mov	r1, r5
  ee:	4b26      	ldr	r3, [pc, #152]	; (188 <_ZN9qindesign7network8internal17ConnectionManager7connectEPK8ip4_addrt+0x188>)
  f0:	4638      	mov	r0, r7
  f2:	f7ff fffe 	bl	0 <tcp_connect>
  f6:	b3b0      	cbz	r0, 166 <_ZN9qindesign7network8internal17ConnectionManager7connectEPK8ip4_addrt+0x166>
  f8:	4638      	mov	r0, r7
  fa:	f7ff fffe 	bl	0 <tcp_abort>
  fe:	f8da 3004 	ldr.w	r3, [sl, #4]
 102:	2200      	movs	r2, #0
 104:	3b01      	subs	r3, #1
 106:	e9c4 2200 	strd	r2, r2, [r4]
 10a:	f8ca 3004 	str.w	r3, [sl, #4]
 10e:	b993      	cbnz	r3, 136 <_ZN9qindesign7network8internal17ConnectionManager7connectEPK8ip4_addrt+0x136>
 110:	f8da 3000 	ldr.w	r3, [sl]
 114:	4650      	mov	r0, sl
 116:	689b      	ldr	r3, [r3, #8]
 118:	4798      	blx	r3
 11a:	f8da 3008 	ldr.w	r3, [sl, #8]
 11e:	3b01      	subs	r3, #1
 120:	f8ca 3008 	str.w	r3, [sl, #8]
 124:	b93b      	cbnz	r3, 136 <_ZN9qindesign7network8internal17ConnectionManager7connectEPK8ip4_addrt+0x136>
 126:	f8da 3000 	ldr.w	r3, [sl]
 12a:	4650      	mov	r0, sl
 12c:	68db      	ldr	r3, [r3, #12]
 12e:	4798      	blx	r3
 130:	e001      	b.n	136 <_ZN9qindesign7network8internal17ConnectionManager7connectEPK8ip4_addrt+0x136>
 132:	e9c0 2200 	strd	r2, r2, [r0]
 136:	4620      	mov	r0, r4
 138:	b007      	add	sp, #28
 13a:	e8bd 8ff0 	ldmia.w	sp!, {r4, r5, r6, r7, r8, r9, sl, fp, pc}
 13e:	4638      	mov	r0, r7
 140:	f7ff fffe 	bl	0 <tcp_abort>
 144:	2300      	movs	r3, #0
 146:	4620      	mov	r0, r4
 148:	e9c4 3300 	strd	r3, r3, [r4]
 14c:	b007      	add	sp, #28
 14e:	e8bd 8ff0 	ldmia.w	sp!, {r4, r5, r6, r7, r8, r9, sl, fp, pc}
 152:	4b0e      	ldr	r3, [pc, #56]	; (18c <_ZN9qindesign7network8internal17ConnectionManager7connectEPK8ip4_addrt+0x18c>)
 154:	6818      	ldr	r0, [r3, #0]
 156:	f7ff fffe 	bl	0 <_ZN9qindesign7network13EthernetClass4loopEv>
 15a:	4620      	mov	r0, r4
 15c:	e9c4 7700 	strd	r7, r7, [r4]
 160:	b007      	add	sp, #28
 162:	e8bd 8ff0 	ldmia.w	sp!, {r4, r5, r6, r7, r8, r9, sl, fp, pc}
 166:	a904      	add	r1, sp, #16
 168:	4648      	mov	r0, r9
 16a:	f7ff fffe 	bl	0 <_ZN9qindesign7network8internal17ConnectionManager7connectEPK8ip4_addrt>
 16e:	e9dd 2304 	ldrd	r2, r3, [sp, #16]
 172:	e9c4 2300 	strd	r2, r3, [r4]
 176:	e7de      	b.n	136 <_ZN9qindesign7network8internal17ConnectionManager7connectEPK8ip4_addrt+0x136>
 178:	00000000 	.word	0x00000000
 17c:	00000008 	.word	0x00000008
 180:	00000000 	.word	0x00000000
 184:	00000000 	.word	0x00000000
 188:	00000000 	.word	0x00000000
 18c:	00000000 	.word	0x00000000

Disassembly of section .text._ZNSt6vectorISt10shared_ptrIN9qindesign7network8internal16ConnectionHolderEESaIS5_EE8_M_eraseEN9__gnu_cxx17__normal_iteratorIPS5_S7_EE:

00000000 <_ZNSt6vectorISt10shared_ptrIN9qindesign7network8internal16ConnectionHolderEESaIS5_EE8_M_eraseEN9__gnu_cxx17__normal_iteratorIPS5_S7_EE>:
   0:	e92d 43f8 	stmdb	sp!, {r3, r4, r5, r6, r7, r8, r9, lr}
   4:	6842      	ldr	r2, [r0, #4]
   6:	f101 0308 	add.w	r3, r1, #8
   a:	4681      	mov	r9, r0
   c:	4688      	mov	r8, r1
   e:	429a      	cmp	r2, r3
  10:	d025      	beq.n	5e <_ZNSt6vectorISt10shared_ptrIN9qindesign7network8internal16ConnectionHolderEESaIS5_EE8_M_eraseEN9__gnu_cxx17__normal_iteratorIPS5_S7_EE+0x5e>
  12:	1ad3      	subs	r3, r2, r3
  14:	2b00      	cmp	r3, #0
  16:	ea4f 06e3 	mov.w	r6, r3, asr #3
  1a:	dd3a      	ble.n	92 <_ZNSt6vectorISt10shared_ptrIN9qindesign7network8internal16ConnectionHolderEESaIS5_EE8_M_eraseEN9__gnu_cxx17__normal_iteratorIPS5_S7_EE+0x92>
  1c:	f101 0410 	add.w	r4, r1, #16
  20:	2700      	movs	r7, #0
  22:	f854 3c04 	ldr.w	r3, [r4, #-4]
  26:	e954 5203 	ldrd	r5, r2, [r4, #-12]
  2a:	e944 7702 	strd	r7, r7, [r4, #-8]
  2e:	e944 2304 	strd	r2, r3, [r4, #-16]
  32:	3408      	adds	r4, #8
  34:	b17d      	cbz	r5, 56 <_ZNSt6vectorISt10shared_ptrIN9qindesign7network8internal16ConnectionHolderEESaIS5_EE8_M_eraseEN9__gnu_cxx17__normal_iteratorIPS5_S7_EE+0x56>
  36:	686b      	ldr	r3, [r5, #4]
  38:	4628      	mov	r0, r5
  3a:	3b01      	subs	r3, #1
  3c:	606b      	str	r3, [r5, #4]
  3e:	b953      	cbnz	r3, 56 <_ZNSt6vectorISt10shared_ptrIN9qindesign7network8internal16ConnectionHolderEESaIS5_EE8_M_eraseEN9__gnu_cxx17__normal_iteratorIPS5_S7_EE+0x56>
  40:	682b      	ldr	r3, [r5, #0]
  42:	689b      	ldr	r3, [r3, #8]
  44:	4798      	blx	r3
  46:	68ab      	ldr	r3, [r5, #8]
  48:	4628      	mov	r0, r5
  4a:	3b01      	subs	r3, #1
  4c:	60ab      	str	r3, [r5, #8]
  4e:	b913      	cbnz	r3, 56 <_ZNSt6vectorISt10shared_ptrIN9qindesign7network8internal16ConnectionHolderEESaIS5_EE8_M_eraseEN9__gnu_cxx17__normal_iteratorIPS5_S7_EE+0x56>
  50:	682b      	ldr	r3, [r5, #0]
  52:	68db      	ldr	r3, [r3, #12]
  54:	4798      	blx	r3
  56:	3e01      	subs	r6, #1
  58:	d1e3      	bne.n	22 <_ZNSt6vectorISt10shared_ptrIN9qindesign7network8internal16ConnectionHolderEESaIS5_EE8_M_eraseEN9__gnu_cxx17__normal_iteratorIPS5_S7_EE+0x22>
  5a:	f8d9 3004 	ldr.w	r3, [r9, #4]
  5e:	f1a3 0208 	sub.w	r2, r3, #8
  62:	f853 4c04 	ldr.w	r4, [r3, #-4]
  66:	f8c9 2004 	str.w	r2, [r9, #4]
  6a:	b17c      	cbz	r4, 8c <_ZNSt6vectorISt10shared_ptrIN9qindesign7network8internal16ConnectionHolderEESaIS5_EE8_M_eraseEN9__gnu_cxx17__normal_iteratorIPS5_S7_EE+0x8c>
  6c:	6863      	ldr	r3, [r4, #4]
  6e:	3b01      	subs	r3, #1
  70:	6063      	str	r3, [r4, #4]
  72:	b95b      	cbnz	r3, 8c <_ZNSt6vectorISt10shared_ptrIN9qindesign7network8internal16ConnectionHolderEESaIS5_EE8_M_eraseEN9__gnu_cxx17__normal_iteratorIPS5_S7_EE+0x8c>
  74:	6823      	ldr	r3, [r4, #0]
  76:	4620      	mov	r0, r4
  78:	689b      	ldr	r3, [r3, #8]
  7a:	4798      	blx	r3
  7c:	68a3      	ldr	r3, [r4, #8]
  7e:	3b01      	subs	r3, #1
  80:	60a3      	str	r3, [r4, #8]
  82:	b91b      	cbnz	r3, 8c <_ZNSt6vectorISt10shared_ptrIN9qindesign7network8internal16ConnectionHolderEESaIS5_EE8_M_eraseEN9__gnu_cxx17__normal_iteratorIPS5_S7_EE+0x8c>
  84:	6823      	ldr	r3, [r4, #0]
  86:	4620      	mov	r0, r4
  88:	68db      	ldr	r3, [r3, #12]
  8a:	4798      	blx	r3
  8c:	4640      	mov	r0, r8
  8e:	e8bd 83f8 	ldmia.w	sp!, {r3, r4, r5, r6, r7, r8, r9, pc}
  92:	4613      	mov	r3, r2
  94:	e7e3      	b.n	5e <_ZNSt6vectorISt10shared_ptrIN9qindesign7network8internal16ConnectionHolderEESaIS5_EE8_M_eraseEN9__gnu_cxx17__normal_iteratorIPS5_S7_EE+0x5e>
  96:	bf00      	nop

Disassembly of section .text._ZN9qindesign7network8internal17ConnectionManager6removeERKSt10shared_ptrINS1_16ConnectionHolderEE:

00000000 <_ZN9qindesign7network8internal17ConnectionManager6removeERKSt10shared_ptrINS1_16ConnectionHolderEE>:
   0:	e92d 41f0 	stmdb	sp!, {r4, r5, r6, r7, r8, lr}
   4:	e9d1 5600 	ldrd	r5, r6, [r1]
   8:	4607      	mov	r7, r0
   a:	e9d0 4800 	ldrd	r4, r8, [r0]
   e:	b136      	cbz	r6, 1e <_ZN9qindesign7network8internal17ConnectionManager6removeERKSt10shared_ptrINS1_16ConnectionHolderEE+0x1e>
  10:	6873      	ldr	r3, [r6, #4]
  12:	1cda      	adds	r2, r3, #3
  14:	6072      	str	r2, [r6, #4]
  16:	2a00      	cmp	r2, #0
  18:	d074      	beq.n	104 <_ZN9qindesign7network8internal17ConnectionManager6removeERKSt10shared_ptrINS1_16ConnectionHolderEE+0x104>
  1a:	3304      	adds	r3, #4
  1c:	6073      	str	r3, [r6, #4]
  1e:	eba8 0304 	sub.w	r3, r8, r4
  22:	115a      	asrs	r2, r3, #5
  24:	10db      	asrs	r3, r3, #3
  26:	2a00      	cmp	r2, #0
  28:	f340 8081 	ble.w	12e <_ZN9qindesign7network8internal17ConnectionManager6removeERKSt10shared_ptrINS1_16ConnectionHolderEE+0x12e>
  2c:	eb04 1242 	add.w	r2, r4, r2, lsl #5
  30:	e00e      	b.n	50 <_ZN9qindesign7network8internal17ConnectionManager6removeERKSt10shared_ptrINS1_16ConnectionHolderEE+0x50>
  32:	68a3      	ldr	r3, [r4, #8]
  34:	429d      	cmp	r5, r3
  36:	f000 809e 	beq.w	176 <_ZN9qindesign7network8internal17ConnectionManager6removeERKSt10shared_ptrINS1_16ConnectionHolderEE+0x176>
  3a:	6923      	ldr	r3, [r4, #16]
  3c:	429d      	cmp	r5, r3
  3e:	f000 809d 	beq.w	17c <_ZN9qindesign7network8internal17ConnectionManager6removeERKSt10shared_ptrINS1_16ConnectionHolderEE+0x17c>
  42:	69a3      	ldr	r3, [r4, #24]
  44:	429d      	cmp	r5, r3
  46:	f000 809c 	beq.w	182 <_ZN9qindesign7network8internal17ConnectionManager6removeERKSt10shared_ptrINS1_16ConnectionHolderEE+0x182>
  4a:	3420      	adds	r4, #32
  4c:	42a2      	cmp	r2, r4
  4e:	d06b      	beq.n	128 <_ZN9qindesign7network8internal17ConnectionManager6removeERKSt10shared_ptrINS1_16ConnectionHolderEE+0x128>
  50:	6823      	ldr	r3, [r4, #0]
  52:	429d      	cmp	r5, r3
  54:	d1ed      	bne.n	32 <_ZN9qindesign7network8internal17ConnectionManager6removeERKSt10shared_ptrINS1_16ConnectionHolderEE+0x32>
  56:	46a0      	mov	r8, r4
  58:	2e00      	cmp	r6, #0
  5a:	d03b      	beq.n	d4 <_ZN9qindesign7network8internal17ConnectionManager6removeERKSt10shared_ptrINS1_16ConnectionHolderEE+0xd4>
  5c:	6873      	ldr	r3, [r6, #4]
  5e:	3b01      	subs	r3, #1
  60:	6073      	str	r3, [r6, #4]
  62:	b94b      	cbnz	r3, 78 <_ZN9qindesign7network8internal17ConnectionManager6removeERKSt10shared_ptrINS1_16ConnectionHolderEE+0x78>
  64:	6833      	ldr	r3, [r6, #0]
  66:	4630      	mov	r0, r6
  68:	689b      	ldr	r3, [r3, #8]
  6a:	4798      	blx	r3
  6c:	68b3      	ldr	r3, [r6, #8]
  6e:	3b01      	subs	r3, #1
  70:	60b3      	str	r3, [r6, #8]
  72:	2b00      	cmp	r3, #0
  74:	d06f      	beq.n	156 <_ZN9qindesign7network8internal17ConnectionManager6removeERKSt10shared_ptrINS1_16ConnectionHolderEE+0x156>
  76:	6873      	ldr	r3, [r6, #4]
  78:	3b01      	subs	r3, #1
  7a:	6073      	str	r3, [r6, #4]
  7c:	b96b      	cbnz	r3, 9a <_ZN9qindesign7network8internal17ConnectionManager6removeERKSt10shared_ptrINS1_16ConnectionHolderEE+0x9a>
  7e:	6833      	ldr	r3, [r6, #0]
  80:	4630      	mov	r0, r6
  82:	689b      	ldr	r3, [r3, #8]
  84:	4798      	blx	r3
  86:	68b3      	ldr	r3, [r6, #8]
  88:	3b01      	subs	r3, #1
  8a:	60b3      	str	r3, [r6, #8]
  8c:	2b00      	cmp	r3, #0
  8e:	d160      	bne.n	152 <_ZN9qindesign7network8internal17ConnectionManager6removeERKSt10shared_ptrINS1_16ConnectionHolderEE+0x152>
  90:	6833      	ldr	r3, [r6, #0]
  92:	4630      	mov	r0, r6
  94:	68db      	ldr	r3, [r3, #12]
  96:	4798      	blx	r3
  98:	6873      	ldr	r3, [r6, #4]
  9a:	3b01      	subs	r3, #1
  9c:	6073      	str	r3, [r6, #4]
  9e:	b96b      	cbnz	r3, bc <_ZN9qindesign7network8internal17ConnectionManager6removeERKSt10shared_ptrINS1_16ConnectionHolderEE+0xbc>
  a0:	6833      	ldr	r3, [r6, #0]
  a2:	4630      	mov	r0, r6
  a4:	689b      	ldr	r3, [r3, #8]
  a6:	4798      	blx	r3
  a8:	68b3      	ldr	r3, [r6, #8]
  aa:	3b01      	subs	r3, #1
  ac:	60b3      	str	r3, [r6, #8]
  ae:	2b00      	cmp	r3, #0
  b0:	d14d      	bne.n	14e <_ZN9qindesign7network8internal17ConnectionManager6removeERKSt10shared_ptrINS1_16ConnectionHolderEE+0x14e>
  b2:	6833      	ldr	r3, [r6, #0]
  b4:	4630      	mov	r0, r6
  b6:	68db      	ldr	r3, [r3, #12]
  b8:	4798      	blx	r3
  ba:	6873      	ldr	r3, [r6, #4]
  bc:	3b01      	subs	r3, #1
  be:	6073      	str	r3, [r6, #4]
  c0:	b943      	cbnz	r3, d4 <_ZN9qindesign7network8internal17ConnectionManager6removeERKSt10shared_ptrINS1_16ConnectionHolderEE+0xd4>
  c2:	6833      	ldr	r3, [r6, #0]
  c4:	4630      	mov	r0, r6
  c6:	689b      	ldr	r3, [r3, #8]
  c8:	4798      	blx	r3
  ca:	68b3      	ldr	r3, [r6, #8]
  cc:	3b01      	subs	r3, #1
  ce:	60b3      	str	r3, [r6, #8]
  d0:	2b00      	cmp	r3, #0
  d2:	d037      	beq.n	144 <_ZN9qindesign7network8internal17ConnectionManager6removeERKSt10shared_ptrINS1_16ConnectionHolderEE+0x144>
  d4:	687b      	ldr	r3, [r7, #4]
  d6:	4543      	cmp	r3, r8
  d8:	d023      	beq.n	122 <_ZN9qindesign7network8internal17ConnectionManager6removeERKSt10shared_ptrINS1_16ConnectionHolderEE+0x122>
  da:	f8d8 3000 	ldr.w	r3, [r8]
  de:	685c      	ldr	r4, [r3, #4]
  e0:	b14c      	cbz	r4, f6 <_ZN9qindesign7network8internal17ConnectionManager6removeERKSt10shared_ptrINS1_16ConnectionHolderEE+0xf6>
  e2:	69e3      	ldr	r3, [r4, #28]
  e4:	b13b      	cbz	r3, f6 <_ZN9qindesign7network8internal17ConnectionManager6removeERKSt10shared_ptrINS1_16ConnectionHolderEE+0xf6>
  e6:	f104 0114 	add.w	r1, r4, #20
  ea:	2203      	movs	r2, #3
  ec:	4608      	mov	r0, r1
  ee:	4798      	blx	r3
  f0:	2300      	movs	r3, #0
  f2:	e9c4 3307 	strd	r3, r3, [r4, #28]
  f6:	4641      	mov	r1, r8
  f8:	4638      	mov	r0, r7
  fa:	f7ff fffe 	bl	0 <_ZN9qindesign7network8internal17ConnectionManager6removeERKSt10shared_ptrINS1_16ConnectionHolderEE>
  fe:	2001      	movs	r0, #1
 100:	e8bd 81f0 	ldmia.w	sp!, {r4, r5, r6, r7, r8, pc}
 104:	6833      	ldr	r3, [r6, #0]
 106:	4630      	mov	r0, r6
 108:	689b      	ldr	r3, [r3, #8]
 10a:	4798      	blx	r3
 10c:	68b3      	ldr	r3, [r6, #8]
 10e:	3b01      	subs	r3, #1
 110:	60b3      	str	r3, [r6, #8]
 112:	b91b      	cbnz	r3, 11c <_ZN9qindesign7network8internal17ConnectionManager6removeERKSt10shared_ptrINS1_16ConnectionHolderEE+0x11c>
 114:	6833      	ldr	r3, [r6, #0]
 116:	4630      	mov	r0, r6
 118:	68db      	ldr	r3, [r3, #12]
 11a:	4798      	blx	r3
 11c:	6873      	ldr	r3, [r6, #4]
 11e:	3301      	adds	r3, #1
 120:	e77c      	b.n	1c <_ZN9qindesign7network8internal17ConnectionManager6removeERKSt10shared_ptrINS1_16ConnectionHolderEE+0x1c>
 122:	2000      	movs	r0, #0
 124:	e8bd 81f0 	ldmia.w	sp!, {r4, r5, r6, r7, r8, pc}
 128:	eba8 0304 	sub.w	r3, r8, r4
 12c:	10db      	asrs	r3, r3, #3
 12e:	2b02      	cmp	r3, #2
 130:	d01b      	beq.n	16a <_ZN9qindesign7network8internal17ConnectionManager6removeERKSt10shared_ptrINS1_16ConnectionHolderEE+0x16a>
 132:	2b03      	cmp	r3, #3
 134:	d014      	beq.n	160 <_ZN9qindesign7network8internal17ConnectionManager6removeERKSt10shared_ptrINS1_16ConnectionHolderEE+0x160>
 136:	2b01      	cmp	r3, #1
 138:	d18e      	bne.n	58 <_ZN9qindesign7network8internal17ConnectionManager6removeERKSt10shared_ptrINS1_16ConnectionHolderEE+0x58>
 13a:	6823      	ldr	r3, [r4, #0]
 13c:	429d      	cmp	r5, r3
 13e:	bf08      	it	eq
 140:	46a0      	moveq	r8, r4
 142:	e789      	b.n	58 <_ZN9qindesign7network8internal17ConnectionManager6removeERKSt10shared_ptrINS1_16ConnectionHolderEE+0x58>
 144:	6833      	ldr	r3, [r6, #0]
 146:	4630      	mov	r0, r6
 148:	68db      	ldr	r3, [r3, #12]
 14a:	4798      	blx	r3
 14c:	e7c2      	b.n	d4 <_ZN9qindesign7network8internal17ConnectionManager6removeERKSt10shared_ptrINS1_16ConnectionHolderEE+0xd4>
 14e:	6873      	ldr	r3, [r6, #4]
 150:	e7b4      	b.n	bc <_ZN9qindesign7network8internal17ConnectionManager6removeERKSt10shared_ptrINS1_16ConnectionHolderEE+0xbc>
 152:	6873      	ldr	r3, [r6, #4]
 154:	e7a1      	b.n	9a <_ZN9qindesign7network8internal17ConnectionManager6removeERKSt10shared_ptrINS1_16ConnectionHolderEE+0x9a>
 156:	6833      	ldr	r3, [r6, #0]
 158:	4630      	mov	r0, r6
 15a:	68db      	ldr	r3, [r3, #12]
 15c:	4798      	blx	r3
 15e:	e78a      	b.n	76 <_ZN9qindesign7network8internal17ConnectionManager6removeERKSt10shared_ptrINS1_16ConnectionHolderEE+0x76>
 160:	6823      	ldr	r3, [r4, #0]
 162:	429d      	cmp	r5, r3
 164:	f43f af77 	beq.w	56 <_ZN9qindesign7network8internal17ConnectionManager6removeERKSt10shared_ptrINS1_16ConnectionHolderEE+0x56>
 168:	3408      	adds	r4, #8
 16a:	6823      	ldr	r3, [r4, #0]
 16c:	429d      	cmp	r5, r3
 16e:	f43f af72 	beq.w	56 <_ZN9qindesign7network8internal17ConnectionManager6removeERKSt10shared_ptrINS1_16ConnectionHolderEE+0x56>
 172:	3408      	adds	r4, #8
 174:	e7e1      	b.n	13a <_ZN9qindesign7network8internal17ConnectionManager6removeERKSt10shared_ptrINS1_16ConnectionHolderEE+0x13a>
 176:	f104 0808 	add.w	r8, r4, #8
 17a:	e76d      	b.n	58 <_ZN9qindesign7network8internal17ConnectionManager6removeERKSt10shared_ptrINS1_16ConnectionHolderEE+0x58>
 17c:	f104 0810 	add.w	r8, r4, #16
 180:	e76a      	b.n	58 <_ZN9qindesign7network8internal17ConnectionManager6removeERKSt10shared_ptrINS1_16ConnectionHolderEE+0x58>
 182:	f104 0818 	add.w	r8, r4, #24
 186:	e767      	b.n	58 <_ZN9qindesign7network8internal17ConnectionManager6removeERKSt10shared_ptrINS1_16ConnectionHolderEE+0x58>

Disassembly of section .text._ZNSt17_Function_handlerIFvPN9qindesign7network8internal15ConnectionStateEEZNS2_17ConnectionManager13addConnectionERKSt10shared_ptrINS2_16ConnectionHolderEEEUlS4_E_E9_M_invokeERKSt9_Any_dataOS4_:

00000000 <_ZNSt17_Function_handlerIFvPN9qindesign7network8internal15ConnectionStateEEZNS2_17ConnectionManager13addConnectionERKSt10shared_ptrINS2_16ConnectionHolderEEEUlS4_E_E9_M_invokeERKSt9_Any_dataOS4_>:
   0:	e92d 41f0 	stmdb	sp!, {r4, r5, r6, r7, r8, lr}
   4:	6807      	ldr	r7, [r0, #0]
   6:	e9d7 3500 	ldrd	r3, r5, [r7]
   a:	68be      	ldr	r6, [r7, #8]
   c:	e9d3 4800 	ldrd	r4, r8, [r3]
  10:	b136      	cbz	r6, 20 <_ZNSt17_Function_handlerIFvPN9qindesign7network8internal15ConnectionStateEEZNS2_17ConnectionManager13addConnectionERKSt10shared_ptrINS2_16ConnectionHolderEEEUlS4_E_E9_M_invokeERKSt9_Any_dataOS4_+0x20>
  12:	6873      	ldr	r3, [r6, #4]
  14:	1cda      	adds	r2, r3, #3
  16:	6072      	str	r2, [r6, #4]
  18:	2a00      	cmp	r2, #0
  1a:	d063      	beq.n	e4 <_ZNSt17_Function_handlerIFvPN9qindesign7network8internal15ConnectionStateEEZNS2_17ConnectionManager13addConnectionERKSt10shared_ptrINS2_16ConnectionHolderEEEUlS4_E_E9_M_invokeERKSt9_Any_dataOS4_+0xe4>
  1c:	3304      	adds	r3, #4
  1e:	6073      	str	r3, [r6, #4]
  20:	eba8 0304 	sub.w	r3, r8, r4
  24:	115a      	asrs	r2, r3, #5
  26:	10db      	asrs	r3, r3, #3
  28:	2a00      	cmp	r2, #0
  2a:	dd6d      	ble.n	108 <_ZNSt17_Function_handlerIFvPN9qindesign7network8internal15ConnectionStateEEZNS2_17ConnectionManager13addConnectionERKSt10shared_ptrINS2_16ConnectionHolderEEEUlS4_E_E9_M_invokeERKSt9_Any_dataOS4_+0x108>
  2c:	eb04 1242 	add.w	r2, r4, r2, lsl #5
  30:	e00e      	b.n	50 <_ZNSt17_Function_handlerIFvPN9qindesign7network8internal15ConnectionStateEEZNS2_17ConnectionManager13addConnectionERKSt10shared_ptrINS2_16ConnectionHolderEEEUlS4_E_E9_M_invokeERKSt9_Any_dataOS4_+0x50>
  32:	68a3      	ldr	r3, [r4, #8]
  34:	429d      	cmp	r5, r3
  36:	f000 8089 	beq.w	14c <_ZNSt17_Function_handlerIFvPN9qindesign7network8internal15ConnectionStateEEZNS2_17ConnectionManager13addConnectionERKSt10shared_ptrINS2_16ConnectionHolderEEEUlS4_E_E9_M_invokeERKSt9_Any_dataOS4_+0x14c>
  3a:	6923      	ldr	r3, [r4, #16]
  3c:	429d      	cmp	r5, r3
  3e:	f000 8088 	beq.w	152 <_ZNSt17_Function_handlerIFvPN9qindesign7network8internal15ConnectionStateEEZNS2_17ConnectionManager13addConnectionERKSt10shared_ptrINS2_16ConnectionHolderEEEUlS4_E_E9_M_invokeERKSt9_Any_dataOS4_+0x152>
  42:	69a3      	ldr	r3, [r4, #24]
  44:	429d      	cmp	r5, r3
  46:	f000 8087 	beq.w	158 <_ZNSt17_Function_handlerIFvPN9qindesign7network8internal15ConnectionStateEEZNS2_17ConnectionManager13addConnectionERKSt10shared_ptrINS2_16ConnectionHolderEEEUlS4_E_E9_M_invokeERKSt9_Any_dataOS4_+0x158>
  4a:	3420      	adds	r4, #32
  4c:	42a2      	cmp	r2, r4
  4e:	d058      	beq.n	102 <_ZNSt17_Function_handlerIFvPN9qindesign7network8internal15ConnectionStateEEZNS2_17ConnectionManager13addConnectionERKSt10shared_ptrINS2_16ConnectionHolderEEEUlS4_E_E9_M_invokeERKSt9_Any_dataOS4_+0x102>
  50:	6823      	ldr	r3, [r4, #0]
  52:	429d      	cmp	r5, r3
  54:	d1ed      	bne.n	32 <_ZNSt17_Function_handlerIFvPN9qindesign7network8internal15ConnectionStateEEZNS2_17ConnectionManager13addConnectionERKSt10shared_ptrINS2_16ConnectionHolderEEEUlS4_E_E9_M_invokeERKSt9_Any_dataOS4_+0x32>
  56:	46a0      	mov	r8, r4
  58:	2e00      	cmp	r6, #0
  5a:	d03a      	beq.n	d2 <_ZNSt17_Function_handlerIFvPN9qindesign7network8internal15ConnectionStateEEZNS2_17ConnectionManager13addConnectionERKSt10shared_ptrINS2_16ConnectionHolderEEEUlS4_E_E9_M_invokeERKSt9_Any_dataOS4_+0xd2>
  5c:	6873      	ldr	r3, [r6, #4]
  5e:	3b01      	subs	r3, #1
  60:	6073      	str	r3, [r6, #4]
  62:	b94b      	cbnz	r3, 78 <_ZNSt17_Function_handlerIFvPN9qindesign7network8internal15ConnectionStateEEZNS2_17ConnectionManager13addConnectionERKSt10shared_ptrINS2_16ConnectionHolderEEEUlS4_E_E9_M_invokeERKSt9_Any_dataOS4_+0x78>
  64:	6833      	ldr	r3, [r6, #0]
  66:	4630      	mov	r0, r6
  68:	689b      	ldr	r3, [r3, #8]
  6a:	4798      	blx	r3
  6c:	68b3      	ldr	r3, [r6, #8]
  6e:	3b01      	subs	r3, #1
  70:	60b3      	str	r3, [r6, #8]
  72:	2b00      	cmp	r3, #0
  74:	d05c      	beq.n	130 <_ZNSt17_Function_handlerIFvPN9qindesign7network8internal15ConnectionStateEEZNS2_17ConnectionManager13addConnectionERKSt10shared_ptrINS2_16ConnectionHolderEEEUlS4_E_E9_M_invokeERKSt9_Any_dataOS4_+0x130>
  76:	6873      	ldr	r3, [r6, #4]
  78:	3b01      	subs	r3, #1
  7a:	6073      	str	r3, [r6, #4]
  7c:	b96b      	cbnz	r3, 9a <_ZNSt17_Function_handlerIFvPN9qindesign7network8internal15ConnectionStateEEZNS2_17ConnectionManager13addConnectionERKSt10shared_ptrINS2_16ConnectionHolderEEEUlS4_E_E9_M_invokeERKSt9_Any_dataOS4_+0x9a>
  7e:	6833      	ldr	r3, [r6, #0]
  80:	4630      	mov	r0, r6
  82:	689b      	ldr	r3, [r3, #8]
  84:	4798      	blx	r3
  86:	68b3      	ldr	r3, [r6, #8]
  88:	3b01      	subs	r3, #1
  8a:	60b3      	str	r3, [r6, #8]
  8c:	2b00      	cmp	r3, #0
  8e:	d14d      	bne.n	12c <_ZNSt17_Function_handlerIFvPN9qindesign7network8internal15ConnectionStateEEZNS2_17ConnectionManager13addConnectionERKSt10shared_ptrINS2_16ConnectionHolderEEEUlS4_E_E9_M_invokeERKSt9_Any_dataOS4_+0x12c>
  90:	6833      	ldr	r3, [r6, #0]
  92:	4630      	mov	r0, r6
  94:	68db      	ldr	r3, [r3, #12]
  96:	4798      	blx	r3
  98:	6873      	ldr	r3, [r6, #4]
  9a:	3b01      	subs	r3, #1
  9c:	6073      	str	r3, [r6, #4]
  9e:	b96b      	cbnz	r3, bc <_ZNSt17_Function_handlerIFvPN9qindesign7network8internal15ConnectionStateEEZNS2_17ConnectionManager13addConnectionERKSt10shared_ptrINS2_16ConnectionHolderEEEUlS4_E_E9_M_invokeERKSt9_Any_dataOS4_+0xbc>
  a0:	6833      	ldr	r3, [r6, #0]
  a2:	4630      	mov	r0, r6
  a4:	689b      	ldr	r3, [r3, #8]
  a6:	4798      	blx	r3
  a8:	68b3      	ldr	r3, [r6, #8]
  aa:	3b01      	subs	r3, #1
  ac:	60b3      	str	r3, [r6, #8]
  ae:	2b00      	cmp	r3, #0
  b0:	d13a      	bne.n	128 <_ZNSt17_Function_handlerIFvPN9qindesign7network8internal15ConnectionStateEEZNS2_17ConnectionManager13addConnectionERKSt10shared_ptrINS2_16ConnectionHolderEEEUlS4_E_E9_M_invokeERKSt9_Any_dataOS4_+0x128>
  b2:	6833      	ldr	r3, [r6, #0]
  b4:	4630      	mov	r0, r6
  b6:	68db      	ldr	r3, [r3, #12]
  b8:	4798      	blx	r3
  ba:	6873      	ldr	r3, [r6, #4]
  bc:	3b01      	subs	r3, #1
  be:	6073      	str	r3, [r6, #4]
  c0:	b93b      	cbnz	r3, d2 <_ZNSt17_Function_handlerIFvPN9qindesign7network8internal15ConnectionStateEEZNS2_17ConnectionManager13addConnectionERKSt10shared_ptrINS2_16ConnectionHolderEEEUlS4_E_E9_M_invokeERKSt9_Any_dataOS4_+0xd2>
  c2:	6833      	ldr	r3, [r6, #0]
  c4:	4630      	mov	r0, r6
  c6:	689b      	ldr	r3, [r3, #8]
  c8:	4798      	blx	r3
  ca:	68b3      	ldr	r3, [r6, #8]
  cc:	3b01      	subs	r3, #1
  ce:	60b3      	str	r3, [r6, #8]
  d0:	b32b      	cbz	r3, 11e <_ZNSt17_Function_handlerIFvPN9qindesign7network8internal15ConnectionStateEEZNS2_17ConnectionManager13addConnectionERKSt10shared_ptrINS2_16ConnectionHolderEEEUlS4_E_E9_M_invokeERKSt9_Any_dataOS4_+0x11e>
  d2:	6838      	ldr	r0, [r7, #0]
  d4:	6843      	ldr	r3, [r0, #4]
  d6:	4543      	cmp	r3, r8
  d8:	d002      	beq.n	e0 <_ZNSt17_Function_handlerIFvPN9qindesign7network8internal15ConnectionStateEEZNS2_17ConnectionManager13addConnectionERKSt10shared_ptrINS2_16ConnectionHolderEEEUlS4_E_E9_M_invokeERKSt9_Any_dataOS4_+0xe0>
  da:	4641      	mov	r1, r8
  dc:	f7ff fffe 	bl	0 <_ZNSt17_Function_handlerIFvPN9qindesign7network8internal15ConnectionStateEEZNS2_17ConnectionManager13addConnectionERKSt10shared_ptrINS2_16ConnectionHolderEEEUlS4_E_E9_M_invokeERKSt9_Any_dataOS4_>
  e0:	e8bd 81f0 	ldmia.w	sp!, {r4, r5, r6, r7, r8, pc}
  e4:	6833      	ldr	r3, [r6, #0]
  e6:	4630      	mov	r0, r6
  e8:	689b      	ldr	r3, [r3, #8]
  ea:	4798      	blx	r3
  ec:	68b3      	ldr	r3, [r6, #8]
  ee:	3b01      	subs	r3, #1
  f0:	60b3      	str	r3, [r6, #8]
  f2:	b91b      	cbnz	r3, fc <_ZNSt17_Function_handlerIFvPN9qindesign7network8internal15ConnectionStateEEZNS2_17ConnectionManager13addConnectionERKSt10shared_ptrINS2_16ConnectionHolderEEEUlS4_E_E9_M_invokeERKSt9_Any_dataOS4_+0xfc>
  f4:	6833      	ldr	r3, [r6, #0]
  f6:	4630      	mov	r0, r6
  f8:	68db      	ldr	r3, [r3, #12]
  fa:	4798      	blx	r3
  fc:	6873      	ldr	r3, [r6, #4]
  fe:	3301      	adds	r3, #1
 100:	e78d      	b.n	1e <_ZNSt17_Function_handlerIFvPN9qindesign7network8internal15ConnectionStateEEZNS2_17ConnectionManager13addConnectionERKSt10shared_ptrINS2_16ConnectionHolderEEEUlS4_E_E9_M_invokeERKSt9_Any_dataOS4_+0x1e>
 102:	eba8 0304 	sub.w	r3, r8, r4
 106:	10db      	asrs	r3, r3, #3
 108:	2b02      	cmp	r3, #2
 10a:	d01a      	beq.n	142 <_ZNSt17_Function_handlerIFvPN9qindesign7network8internal15ConnectionStateEEZNS2_17ConnectionManager13addConnectionERKSt10shared_ptrINS2_16ConnectionHolderEEEUlS4_E_E9_M_invokeERKSt9_Any_dataOS4_+0x142>
 10c:	2b03      	cmp	r3, #3
 10e:	d014      	beq.n	13a <_ZNSt17_Function_handlerIFvPN9qindesign7network8internal15ConnectionStateEEZNS2_17ConnectionManager13addConnectionERKSt10shared_ptrINS2_16ConnectionHolderEEEUlS4_E_E9_M_invokeERKSt9_Any_dataOS4_+0x13a>
 110:	2b01      	cmp	r3, #1
 112:	d1a1      	bne.n	58 <_ZNSt17_Function_handlerIFvPN9qindesign7network8internal15ConnectionStateEEZNS2_17ConnectionManager13addConnectionERKSt10shared_ptrINS2_16ConnectionHolderEEEUlS4_E_E9_M_invokeERKSt9_Any_dataOS4_+0x58>
 114:	6823      	ldr	r3, [r4, #0]
 116:	429d      	cmp	r5, r3
 118:	bf08      	it	eq
 11a:	46a0      	moveq	r8, r4
 11c:	e79c      	b.n	58 <_ZNSt17_Function_handlerIFvPN9qindesign7network8internal15ConnectionStateEEZNS2_17ConnectionManager13addConnectionERKSt10shared_ptrINS2_16ConnectionHolderEEEUlS4_E_E9_M_invokeERKSt9_Any_dataOS4_+0x58>
 11e:	6833      	ldr	r3, [r6, #0]
 120:	4630      	mov	r0, r6
 122:	68db      	ldr	r3, [r3, #12]
 124:	4798      	blx	r3
 126:	e7d4      	b.n	d2 <_ZNSt17_Function_handlerIFvPN9qindesign7network8internal15ConnectionStateEEZNS2_17ConnectionManager13addConnectionERKSt10shared_ptrINS2_16ConnectionHolderEEEUlS4_E_E9_M_invokeERKSt9_Any_dataOS4_+0xd2>
 128:	6873      	ldr	r3, [r6, #4]
 12a:	e7c7      	b.n	bc <_ZNSt17_Function_handlerIFvPN9qindesign7network8internal15ConnectionStateEEZNS2_17ConnectionManager13addConnectionERKSt10shared_ptrINS2_16ConnectionHolderEEEUlS4_E_E9_M_invokeERKSt9_Any_dataOS4_+0xbc>
 12c:	6873      	ldr	r3, [r6, #4]
 12e:	e7b4      	b.n	9a <_ZNSt17_Function_handlerIFvPN9qindesign7network8internal15ConnectionStateEEZNS2_17ConnectionManager13addConnectionERKSt10shared_ptrINS2_16ConnectionHolderEEEUlS4_E_E9_M_invokeERKSt9_Any_dataOS4_+0x9a>
 130:	6833      	ldr	r3, [r6, #0]
 132:	4630      	mov	r0, r6
 134:	68db      	ldr	r3, [r3, #12]
 136:	4798      	blx	r3
 138:	e79d      	b.n	76 <_ZNSt17_Function_handlerIFvPN9qindesign7network8internal15ConnectionStateEEZNS2_17ConnectionManager13addConnectionERKSt10shared_ptrINS2_16ConnectionHolderEEEUlS4_E_E9_M_invokeERKSt9_Any_dataOS4_+0x76>
 13a:	6823      	ldr	r3, [r4, #0]
 13c:	429d      	cmp	r5, r3
 13e:	d08a      	beq.n	56 <_ZNSt17_Function_handlerIFvPN9qindesign7network8internal15ConnectionStateEEZNS2_17ConnectionManager13addConnectionERKSt10shared_ptrINS2_16ConnectionHolderEEEUlS4_E_E9_M_invokeERKSt9_Any_dataOS4_+0x56>
 140:	3408      	adds	r4, #8
 142:	6823      	ldr	r3, [r4, #0]
 144:	429d      	cmp	r5, r3
 146:	d086      	beq.n	56 <_ZNSt17_Function_handlerIFvPN9qindesign7network8internal15ConnectionStateEEZNS2_17ConnectionManager13addConnectionERKSt10shared_ptrINS2_16ConnectionHolderEEEUlS4_E_E9_M_invokeERKSt9_Any_dataOS4_+0x56>
 148:	3408      	adds	r4, #8
 14a:	e7e3      	b.n	114 <_ZNSt17_Function_handlerIFvPN9qindesign7network8internal15ConnectionStateEEZNS2_17ConnectionManager13addConnectionERKSt10shared_ptrINS2_16ConnectionHolderEEEUlS4_E_E9_M_invokeERKSt9_Any_dataOS4_+0x114>
 14c:	f104 0808 	add.w	r8, r4, #8
 150:	e782      	b.n	58 <_ZNSt17_Function_handlerIFvPN9qindesign7network8internal15ConnectionStateEEZNS2_17ConnectionManager13addConnectionERKSt10shared_ptrINS2_16ConnectionHolderEEEUlS4_E_E9_M_invokeERKSt9_Any_dataOS4_+0x58>
 152:	f104 0810 	add.w	r8, r4, #16
 156:	e77f      	b.n	58 <_ZNSt17_Function_handlerIFvPN9qindesign7network8internal15ConnectionStateEEZNS2_17ConnectionManager13addConnectionERKSt10shared_ptrINS2_16ConnectionHolderEEEUlS4_E_E9_M_invokeERKSt9_Any_dataOS4_+0x58>
 158:	f104 0818 	add.w	r8, r4, #24
 15c:	e77c      	b.n	58 <_ZNSt17_Function_handlerIFvPN9qindesign7network8internal15ConnectionStateEEZNS2_17ConnectionManager13addConnectionERKSt10shared_ptrINS2_16ConnectionHolderEEEUlS4_E_E9_M_invokeERKSt9_Any_dataOS4_+0x58>
 15e:	bf00      	nop

Disassembly of section .text._ZNSt6vectorIP7tcp_pcbSaIS1_EE17_M_realloc_insertIJRKS1_EEEvN9__gnu_cxx17__normal_iteratorIPS1_S3_EEDpOT_:

00000000 <_ZNSt6vectorIP7tcp_pcbSaIS1_EE17_M_realloc_insertIJRKS1_EEEvN9__gnu_cxx17__normal_iteratorIPS1_S3_EEDpOT_>:
   0:	e92d 4ff8 	stmdb	sp!, {r3, r4, r5, r6, r7, r8, r9, sl, fp, lr}
   4:	e9d0 8900 	ldrd	r8, r9, [r0]
   8:	460f      	mov	r7, r1
   a:	4692      	mov	sl, r2
   c:	f06f 4160 	mvn.w	r1, #3758096384	; 0xe0000000
  10:	eba9 0208 	sub.w	r2, r9, r8
  14:	ebb1 0fa2 	cmp.w	r1, r2, asr #2
  18:	d054      	beq.n	c4 <_ZNSt6vectorIP7tcp_pcbSaIS1_EE17_M_realloc_insertIJRKS1_EEEvN9__gnu_cxx17__normal_iteratorIPS1_S3_EEDpOT_+0xc4>
  1a:	1093      	asrs	r3, r2, #2
  1c:	4606      	mov	r6, r0
  1e:	eba7 0508 	sub.w	r5, r7, r8
  22:	2b01      	cmp	r3, #1
  24:	461a      	mov	r2, r3
  26:	bf38      	it	cc
  28:	2201      	movcc	r2, #1
  2a:	189c      	adds	r4, r3, r2
  2c:	d248      	bcs.n	c0 <_ZNSt6vectorIP7tcp_pcbSaIS1_EE17_M_realloc_insertIJRKS1_EEEvN9__gnu_cxx17__normal_iteratorIPS1_S3_EEDpOT_+0xc0>
  2e:	2c00      	cmp	r4, #0
  30:	d13c      	bne.n	ac <_ZNSt6vectorIP7tcp_pcbSaIS1_EE17_M_realloc_insertIJRKS1_EEEvN9__gnu_cxx17__normal_iteratorIPS1_S3_EEDpOT_+0xac>
  32:	46a3      	mov	fp, r4
  34:	f8da 3000 	ldr.w	r3, [sl]
  38:	2d00      	cmp	r5, #0
  3a:	f84b 3005 	str.w	r3, [fp, r5]
  3e:	dc24      	bgt.n	8a <_ZNSt6vectorIP7tcp_pcbSaIS1_EE17_M_realloc_insertIJRKS1_EEEvN9__gnu_cxx17__normal_iteratorIPS1_S3_EEDpOT_+0x8a>
  40:	eba9 0907 	sub.w	r9, r9, r7
  44:	3504      	adds	r5, #4
  46:	f1b9 0f00 	cmp.w	r9, #0
  4a:	445d      	add	r5, fp
  4c:	dc13      	bgt.n	76 <_ZNSt6vectorIP7tcp_pcbSaIS1_EE17_M_realloc_insertIJRKS1_EEEvN9__gnu_cxx17__normal_iteratorIPS1_S3_EEDpOT_+0x76>
  4e:	444d      	add	r5, r9
  50:	f1b8 0f00 	cmp.w	r8, #0
  54:	d104      	bne.n	60 <_ZNSt6vectorIP7tcp_pcbSaIS1_EE17_M_realloc_insertIJRKS1_EEEvN9__gnu_cxx17__normal_iteratorIPS1_S3_EEDpOT_+0x60>
  56:	60b4      	str	r4, [r6, #8]
  58:	e9c6 b500 	strd	fp, r5, [r6]
  5c:	e8bd 8ff8 	ldmia.w	sp!, {r3, r4, r5, r6, r7, r8, r9, sl, fp, pc}
  60:	68b1      	ldr	r1, [r6, #8]
  62:	eba1 0108 	sub.w	r1, r1, r8
  66:	4640      	mov	r0, r8
  68:	f7ff fffe 	bl	0 <_ZdlPvj>
  6c:	60b4      	str	r4, [r6, #8]
  6e:	e9c6 b500 	strd	fp, r5, [r6]
  72:	e8bd 8ff8 	ldmia.w	sp!, {r3, r4, r5, r6, r7, r8, r9, sl, fp, pc}
  76:	4628      	mov	r0, r5
  78:	4639      	mov	r1, r7
  7a:	464a      	mov	r2, r9
  7c:	444d      	add	r5, r9
  7e:	f7ff fffe 	bl	0 <memcpy>
  82:	f1b8 0f00 	cmp.w	r8, #0
  86:	d0e6      	beq.n	56 <_ZNSt6vectorIP7tcp_pcbSaIS1_EE17_M_realloc_insertIJRKS1_EEEvN9__gnu_cxx17__normal_iteratorIPS1_S3_EEDpOT_+0x56>
  88:	e7ea      	b.n	60 <_ZNSt6vectorIP7tcp_pcbSaIS1_EE17_M_realloc_insertIJRKS1_EEEvN9__gnu_cxx17__normal_iteratorIPS1_S3_EEDpOT_+0x60>
  8a:	eba9 0907 	sub.w	r9, r9, r7
  8e:	462a      	mov	r2, r5
  90:	4641      	mov	r1, r8
  92:	4658      	mov	r0, fp
  94:	3504      	adds	r5, #4
  96:	f7ff fffe 	bl	0 <memmove>
  9a:	f1b9 0f00 	cmp.w	r9, #0
  9e:	445d      	add	r5, fp
  a0:	dce9      	bgt.n	76 <_ZNSt6vectorIP7tcp_pcbSaIS1_EE17_M_realloc_insertIJRKS1_EEEvN9__gnu_cxx17__normal_iteratorIPS1_S3_EEDpOT_+0x76>
  a2:	68b1      	ldr	r1, [r6, #8]
  a4:	444d      	add	r5, r9
  a6:	eba1 0108 	sub.w	r1, r1, r8
  aa:	e7dc      	b.n	66 <_ZNSt6vectorIP7tcp_pcbSaIS1_EE17_M_realloc_insertIJRKS1_EEEvN9__gnu_cxx17__normal_iteratorIPS1_S3_EEDpOT_+0x66>
  ac:	428c      	cmp	r4, r1
  ae:	bf28      	it	cs
  b0:	460c      	movcs	r4, r1
  b2:	00a4      	lsls	r4, r4, #2
  b4:	4620      	mov	r0, r4
  b6:	f7ff fffe 	bl	0 <_Znwj>
  ba:	4683      	mov	fp, r0
  bc:	4404      	add	r4, r0
  be:	e7b9      	b.n	34 <_ZNSt6vectorIP7tcp_pcbSaIS1_EE17_M_realloc_insertIJRKS1_EEEvN9__gnu_cxx17__normal_iteratorIPS1_S3_EEDpOT_+0x34>
  c0:	4c02      	ldr	r4, [pc, #8]	; (cc <_ZNSt6vectorIP7tcp_pcbSaIS1_EE17_M_realloc_insertIJRKS1_EEEvN9__gnu_cxx17__normal_iteratorIPS1_S3_EEDpOT_+0xcc>)
  c2:	e7f7      	b.n	b4 <_ZNSt6vectorIP7tcp_pcbSaIS1_EE17_M_realloc_insertIJRKS1_EEEvN9__gnu_cxx17__normal_iteratorIPS1_S3_EEDpOT_+0xb4>
  c4:	4802      	ldr	r0, [pc, #8]	; (d0 <_ZNSt6vectorIP7tcp_pcbSaIS1_EE17_M_realloc_insertIJRKS1_EEEvN9__gnu_cxx17__normal_iteratorIPS1_S3_EEDpOT_+0xd0>)
  c6:	f7ff fffe 	bl	0 <_ZSt20__throw_length_errorPKc>
  ca:	bf00      	nop
  cc:	7ffffffc 	.word	0x7ffffffc
  d0:	00000000 	.word	0x00000000

Disassembly of section .text._ZN9qindesign7network8internal17ConnectionManager6listenEtb:

00000000 <_ZN9qindesign7network8internal17ConnectionManager6listenEtb>:
   0:	b570      	push	{r4, r5, r6, lr}
   2:	b084      	sub	sp, #16
   4:	4606      	mov	r6, r0
   6:	202e      	movs	r0, #46	; 0x2e
   8:	4614      	mov	r4, r2
   a:	f8ad 1006 	strh.w	r1, [sp, #6]
   e:	f7ff fffe 	bl	0 <tcp_new_ip_type>
  12:	9003      	str	r0, [sp, #12]
  14:	2800      	cmp	r0, #0
  16:	d043      	beq.n	a0 <_ZN9qindesign7network8internal17ConnectionManager6listenEtb+0xa0>
  18:	4605      	mov	r5, r0
  1a:	bb0c      	cbnz	r4, 60 <_ZN9qindesign7network8internal17ConnectionManager6listenEtb+0x60>
  1c:	f8bd 2006 	ldrh.w	r2, [sp, #6]
  20:	4628      	mov	r0, r5
  22:	4923      	ldr	r1, [pc, #140]	; (b0 <_ZN9qindesign7network8internal17ConnectionManager6listenEtb+0xb0>)
  24:	f7ff fffe 	bl	0 <tcp_bind>
  28:	bb88      	cbnz	r0, 8e <_ZN9qindesign7network8internal17ConnectionManager6listenEtb+0x8e>
  2a:	21ff      	movs	r1, #255	; 0xff
  2c:	4628      	mov	r0, r5
  2e:	f7ff fffe 	bl	0 <tcp_listen_with_backlog>
  32:	4604      	mov	r4, r0
  34:	b388      	cbz	r0, 9a <_ZN9qindesign7network8internal17ConnectionManager6listenEtb+0x9a>
  36:	9003      	str	r0, [sp, #12]
  38:	e9d6 1304 	ldrd	r1, r3, [r6, #16]
  3c:	4299      	cmp	r1, r3
  3e:	d01f      	beq.n	80 <_ZN9qindesign7network8internal17ConnectionManager6listenEtb+0x80>
  40:	f841 0b04 	str.w	r0, [r1], #4
  44:	6131      	str	r1, [r6, #16]
  46:	4631      	mov	r1, r6
  48:	4620      	mov	r0, r4
  4a:	f7ff fffe 	bl	0 <tcp_arg>
  4e:	4620      	mov	r0, r4
  50:	4918      	ldr	r1, [pc, #96]	; (b4 <_ZN9qindesign7network8internal17ConnectionManager6listenEtb+0xb4>)
  52:	f7ff fffe 	bl	0 <tcp_accept>
  56:	f8bd 0006 	ldrh.w	r0, [sp, #6]
  5a:	b130      	cbz	r0, 6a <_ZN9qindesign7network8internal17ConnectionManager6listenEtb+0x6a>
  5c:	b004      	add	sp, #16
  5e:	bd70      	pop	{r4, r5, r6, pc}
  60:	7a43      	ldrb	r3, [r0, #9]
  62:	f043 0304 	orr.w	r3, r3, #4
  66:	7243      	strb	r3, [r0, #9]
  68:	e7d8      	b.n	1c <_ZN9qindesign7network8internal17ConnectionManager6listenEtb+0x1c>
  6a:	4602      	mov	r2, r0
  6c:	f10d 0306 	add.w	r3, sp, #6
  70:	2101      	movs	r1, #1
  72:	4620      	mov	r0, r4
  74:	f7ff fffe 	bl	0 <tcp_tcp_get_tcp_addrinfo>
  78:	f8bd 0006 	ldrh.w	r0, [sp, #6]
  7c:	b004      	add	sp, #16
  7e:	bd70      	pop	{r4, r5, r6, pc}
  80:	aa03      	add	r2, sp, #12
  82:	f106 000c 	add.w	r0, r6, #12
  86:	f7ff fffe 	bl	0 <_ZN9qindesign7network8internal17ConnectionManager6listenEtb>
  8a:	9c03      	ldr	r4, [sp, #12]
  8c:	e7db      	b.n	46 <_ZN9qindesign7network8internal17ConnectionManager6listenEtb+0x46>
  8e:	4628      	mov	r0, r5
  90:	f7ff fffe 	bl	0 <tcp_abort>
  94:	f04f 30ff 	mov.w	r0, #4294967295	; 0xffffffff
  98:	e7e0      	b.n	5c <_ZN9qindesign7network8internal17ConnectionManager6listenEtb+0x5c>
  9a:	4628      	mov	r0, r5
  9c:	f7ff fffe 	bl	0 <tcp_abort>
  a0:	4b05      	ldr	r3, [pc, #20]	; (b8 <_ZN9qindesign7network8internal17ConnectionManager6listenEtb+0xb8>)
  a2:	6818      	ldr	r0, [r3, #0]
  a4:	f7ff fffe 	bl	0 <_ZN9qindesign7network13EthernetClass4loopEv>
  a8:	f04f 30ff 	mov.w	r0, #4294967295	; 0xffffffff
  ac:	e7d6      	b.n	5c <_ZN9qindesign7network8internal17ConnectionManager6listenEtb+0x5c>
  ae:	bf00      	nop
  b0:	00000000 	.word	0x00000000
  b4:	00000000 	.word	0x00000000
  b8:	00000000 	.word	0x00000000

Disassembly of section .text.startup._GLOBAL__sub_I__ZN9qindesign7network8internal17ConnectionManager8instanceEv:

00000000 <_GLOBAL__sub_I__ZN9qindesign7network8internal17ConnectionManager8instanceEv>:
   0:	4a1a      	ldr	r2, [pc, #104]	; (6c <_GLOBAL__sub_I__ZN9qindesign7network8internal17ConnectionManager8instanceEv+0x6c>)
   2:	6813      	ldr	r3, [r2, #0]
   4:	1c59      	adds	r1, r3, #1
   6:	b510      	push	{r4, lr}
   8:	6011      	str	r1, [r2, #0]
   a:	b1d3      	cbz	r3, 42 <_GLOBAL__sub_I__ZN9qindesign7network8internal17ConnectionManager8instanceEv+0x42>
   c:	4a18      	ldr	r2, [pc, #96]	; (70 <_GLOBAL__sub_I__ZN9qindesign7network8internal17ConnectionManager8instanceEv+0x70>)
   e:	4919      	ldr	r1, [pc, #100]	; (74 <_GLOBAL__sub_I__ZN9qindesign7network8internal17ConnectionManager8instanceEv+0x74>)
  10:	4819      	ldr	r0, [pc, #100]	; (78 <_GLOBAL__sub_I__ZN9qindesign7network8internal17ConnectionManager8instanceEv+0x78>)
  12:	f7ff fffe 	bl	0 <__aeabi_atexit>
  16:	4a19      	ldr	r2, [pc, #100]	; (7c <_GLOBAL__sub_I__ZN9qindesign7network8internal17ConnectionManager8instanceEv+0x7c>)
  18:	6813      	ldr	r3, [r2, #0]
  1a:	1c59      	adds	r1, r3, #1
  1c:	6011      	str	r1, [r2, #0]
  1e:	b1f3      	cbz	r3, 5e <_GLOBAL__sub_I__ZN9qindesign7network8internal17ConnectionManager8instanceEv+0x5e>
  20:	4a13      	ldr	r2, [pc, #76]	; (70 <_GLOBAL__sub_I__ZN9qindesign7network8internal17ConnectionManager8instanceEv+0x70>)
  22:	4917      	ldr	r1, [pc, #92]	; (80 <_GLOBAL__sub_I__ZN9qindesign7network8internal17ConnectionManager8instanceEv+0x80>)
  24:	4817      	ldr	r0, [pc, #92]	; (84 <_GLOBAL__sub_I__ZN9qindesign7network8internal17ConnectionManager8instanceEv+0x84>)
  26:	f7ff fffe 	bl	0 <__aeabi_atexit>
  2a:	4a17      	ldr	r2, [pc, #92]	; (88 <_GLOBAL__sub_I__ZN9qindesign7network8internal17ConnectionManager8instanceEv+0x88>)
  2c:	6813      	ldr	r3, [r2, #0]
  2e:	1c59      	adds	r1, r3, #1
  30:	6011      	str	r1, [r2, #0]
  32:	b16b      	cbz	r3, 50 <_GLOBAL__sub_I__ZN9qindesign7network8internal17ConnectionManager8instanceEv+0x50>
  34:	4a0e      	ldr	r2, [pc, #56]	; (70 <_GLOBAL__sub_I__ZN9qindesign7network8internal17ConnectionManager8instanceEv+0x70>)
  36:	4915      	ldr	r1, [pc, #84]	; (8c <_GLOBAL__sub_I__ZN9qindesign7network8internal17ConnectionManager8instanceEv+0x8c>)
  38:	4815      	ldr	r0, [pc, #84]	; (90 <_GLOBAL__sub_I__ZN9qindesign7network8internal17ConnectionManager8instanceEv+0x90>)
  3a:	e8bd 4010 	ldmia.w	sp!, {r4, lr}
  3e:	f7ff bffe 	b.w	0 <__aeabi_atexit>
  42:	4c14      	ldr	r4, [pc, #80]	; (94 <_GLOBAL__sub_I__ZN9qindesign7network8internal17ConnectionManager8instanceEv+0x94>)
  44:	4620      	mov	r0, r4
  46:	f7ff fffe 	bl	0 <_ZN9qindesign7network9MDNSClassC1Ev>
  4a:	4b13      	ldr	r3, [pc, #76]	; (98 <_GLOBAL__sub_I__ZN9qindesign7network8internal17ConnectionManager8instanceEv+0x98>)
  4c:	601c      	str	r4, [r3, #0]
  4e:	e7dd      	b.n	c <_GLOBAL__sub_I__ZN9qindesign7network8internal17ConnectionManager8instanceEv+0xc>
  50:	4c12      	ldr	r4, [pc, #72]	; (9c <_GLOBAL__sub_I__ZN9qindesign7network8internal17ConnectionManager8instanceEv+0x9c>)
  52:	4620      	mov	r0, r4
  54:	f7ff fffe 	bl	0 <_ZN9qindesign7network13EthernetClassC1Ev>
  58:	4b11      	ldr	r3, [pc, #68]	; (a0 <_GLOBAL__sub_I__ZN9qindesign7network8internal17ConnectionManager8instanceEv+0xa0>)
  5a:	601c      	str	r4, [r3, #0]
  5c:	e7ea      	b.n	34 <_GLOBAL__sub_I__ZN9qindesign7network8internal17ConnectionManager8instanceEv+0x34>
  5e:	4c11      	ldr	r4, [pc, #68]	; (a4 <_GLOBAL__sub_I__ZN9qindesign7network8internal17ConnectionManager8instanceEv+0xa4>)
  60:	4620      	mov	r0, r4
  62:	f7ff fffe 	bl	0 <_ZN9qindesign8security12RandomDeviceC1Ev>
  66:	4b10      	ldr	r3, [pc, #64]	; (a8 <_GLOBAL__sub_I__ZN9qindesign7network8internal17ConnectionManager8instanceEv+0xa8>)
  68:	601c      	str	r4, [r3, #0]
  6a:	e7d9      	b.n	20 <_GLOBAL__sub_I__ZN9qindesign7network8internal17ConnectionManager8instanceEv+0x20>
  6c:	00000000 	.word	0x00000000
  70:	00000000 	.word	0x00000000
  74:	00000000 	.word	0x00000000
  78:	00000000 	.word	0x00000000
  7c:	00000000 	.word	0x00000000
  80:	00000000 	.word	0x00000000
  84:	00000000 	.word	0x00000000
  88:	00000000 	.word	0x00000000
  8c:	00000000 	.word	0x00000000
  90:	00000000 	.word	0x00000000
  94:	00000000 	.word	0x00000000
  98:	00000000 	.word	0x00000000
  9c:	00000000 	.word	0x00000000
  a0:	00000000 	.word	0x00000000
  a4:	00000000 	.word	0x00000000
  a8:	00000000 	.word	0x00000000
