
build/./libraries/SdFat/src/FsLib/FsFile.cpp.o:     file format elf32-littlearm

SYMBOL TABLE:
00000000 l    df *ABS*	00000000 FsFile.cpp
00000000 l    d  .text	00000000 .text
00000000 l    d  .data	00000000 .data
00000000 l    d  .bss	00000000 .bss
00000000 l    d  .text._ZN10FsBaseFileC2ERKS_	00000000 .text._ZN10FsBaseFileC2ERKS_
00000000 l    d  .text._ZN10FsBaseFileaSERKS_	00000000 .text._ZN10FsBaseFileaSERKS_
00000000 l    d  .text._ZN10FsBaseFile5closeEv	00000000 .text._ZN10FsBaseFile5closeEv
00000000 l    d  .text._ZN10FsBaseFile5mkdirEPS_PKcb	00000000 .text._ZN10FsBaseFile5mkdirEPS_PKcb
00000000 l    d  .text._ZN10FsBaseFile4openEP8FsVolumePKci	00000000 .text._ZN10FsBaseFile4openEP8FsVolumePKci
00000000 l    d  .text._ZN10FsBaseFile4openEPS_PKci	00000000 .text._ZN10FsBaseFile4openEPS_PKci
00000000 l    d  .text._ZN10FsBaseFile4openEPS_mi	00000000 .text._ZN10FsBaseFile4openEPS_mi
00000000 l    d  .text._ZN10FsBaseFile8openNextEPS_i	00000000 .text._ZN10FsBaseFile8openNextEPS_i
00000000 l    d  .text._ZN10FsBaseFile8openRootEP8FsVolume	00000000 .text._ZN10FsBaseFile8openRootEP8FsVolume
00000000 l    d  .text._ZN10FsBaseFile6removeEv	00000000 .text._ZN10FsBaseFile6removeEv
00000000 l    d  .text._ZN10FsBaseFile5rmdirEv	00000000 .text._ZN10FsBaseFile5rmdirEv
00000000 l    d  .comment	00000000 .comment
00000000 l    d  .ARM.attributes	00000000 .ARM.attributes
00000000 g     F .text._ZN10FsBaseFileC2ERKS_	00000084 _ZN10FsBaseFileC2ERKS_
00000000         *UND*	00000000 _ZnwjPm
00000000 g     F .text._ZN10FsBaseFileC2ERKS_	00000084 _ZN10FsBaseFileC1ERKS_
00000000 g     F .text._ZN10FsBaseFileaSERKS_	000000b2 _ZN10FsBaseFileaSERKS_
00000000         *UND*	00000000 _ZN7FatFile5closeEv
00000000         *UND*	00000000 _ZN9ExFatFile5closeEv
00000000 g     F .text._ZN10FsBaseFile5closeEv	00000028 _ZN10FsBaseFile5closeEv
00000000 g     F .text._ZN10FsBaseFile5mkdirEPS_PKcb	00000088 _ZN10FsBaseFile5mkdirEPS_PKcb
00000000         *UND*	00000000 _ZN7FatFile5mkdirEPS_PKcb
00000000         *UND*	00000000 _ZN9ExFatFile5mkdirEPS_PKcb
00000000 g     F .text._ZN10FsBaseFile4openEP8FsVolumePKci	000000ae _ZN10FsBaseFile4openEP8FsVolumePKci
00000000         *UND*	00000000 _ZN7FatFile4openEP9FatVolumePKci
00000000         *UND*	00000000 _ZN9ExFatFile4openEP11ExFatVolumePKci
00000000 g     F .text._ZN10FsBaseFile4openEPS_PKci	00000088 _ZN10FsBaseFile4openEPS_PKci
00000000         *UND*	00000000 _ZN7FatFile4openEPS_PKci
00000000         *UND*	00000000 _ZN9ExFatFile4openEPS_PKci
00000000 g     F .text._ZN10FsBaseFile4openEPS_mi	00000088 _ZN10FsBaseFile4openEPS_mi
00000000         *UND*	00000000 _ZN7FatFile4openEPS_ti
00000000         *UND*	00000000 _ZN9ExFatFile4openEPS_mi
00000000 g     F .text._ZN10FsBaseFile8openNextEPS_i	00000072 _ZN10FsBaseFile8openNextEPS_i
00000000         *UND*	00000000 _ZN7FatFile8openNextEPS_i
00000000         *UND*	00000000 _ZN9ExFatFile8openNextEPS_i
00000000 g     F .text._ZN10FsBaseFile8openRootEP8FsVolume	0000008e _ZN10FsBaseFile8openRootEP8FsVolume
00000000         *UND*	00000000 _ZN7FatFile8openRootEP9FatVolume
00000000         *UND*	00000000 _ZN9ExFatFile8openRootEP11ExFatVolume
00000000 g     F .text._ZN10FsBaseFile6removeEv	0000002c _ZN10FsBaseFile6removeEv
00000000         *UND*	00000000 _ZN7FatFile6removeEv
00000000         *UND*	00000000 _ZN9ExFatFile6removeEv
00000000 g     F .text._ZN10FsBaseFile5rmdirEv	0000002c _ZN10FsBaseFile5rmdirEv
00000000         *UND*	00000000 _ZN7FatFile5rmdirEv
00000000         *UND*	00000000 _ZN9ExFatFile5rmdirEv


Contents of section .text._ZN10FsBaseFileC2ERKS_:
 0000 f8b50026 8f6b0d46 0446c0e9 0e669fb1  ...&.k.F.F...f..
 0010 01462420 fff7feff 06808670 8446ad6b  .F$ .......p.F.k
 0020 a0630fcd ace80f00 0fcdace8 0f002b68  .c............+h
 0030 ccf80030 2046f8bd cb6b002b fad00146  ...0 F...k.+...F
 0040 3820fff7 feff80f8 31704786 0246eb6b  8 ......1pG..F.k
 0050 e06303f1 30071e68 103353f8 0c5c1032  .c..0..h.3S..\.2
 0060 53f8080c 53f8041c bb4242f8 106c42f8  S...S....BB..lB.
 0070 0c5c42f8 080c42f8 041cecd1 1b682046  .\B...B......h F
 0080 1360f8bd                             .`..            
Contents of section .text._ZN10FsBaseFileaSERKS_:
 0000 884270b5 044621d0 806b0d46 18b1fff7  .Bp..F!..k.F....
 0010 feff0028 41d1e06b 18b1fff7 feff0028  ...(A..k.......(
 0020 41d1ae6b a6b12146 2420fff7 feff0023  A..k..!F$ .....#
 0030 84460380 8370a063 ad6b0fcd ace80f00  .F...p.c.k......
 0040 0fcdace8 0f002b68 ccf80030 204670bd  ......+h...0 Fp.
 0050 eb6b002b fad02146 3820fff7 feff80f8  .k.+..!F8 ......
 0060 31604686 e063eb6b 03f1300c 1e681033  1`F..c.k..0..h.3
 0070 53f80c5c 103053f8 081c53f8 042c6345  S..\.0S...S..,cE
 0080 40f8106c 40f80c5c 40f8081c 40f8042c  @..l@..\@...@..,
 0090 ecd11b68 03602046 70bd0023 a363ae6b  ...h.` Fp..#.c.k
 00a0 002ec0d1 d4e70023 ae6be363 002ebad1  .......#.k.c....
 00b0 cee700bf                             ....            
Contents of section .text._ZN10FsBaseFile5closeEv:
 0000 10b50446 806b10b1 fff7feff 30b9e06b  ...F.k......0..k
 0010 10b1fff7 feff20b9 002010bd 0023a363  ...... .. ...#.c
 0020 10bd0023 e36310bd                    ...#.c..        
Contents of section .text._ZN10FsBaseFile5mkdirEPS_PKcb:
 0000 2de9f041 0446806b 0d461646 1f4610b1  -..A.F.k.F.F.F..
 0010 fff7feff 78bbe06b 10b1fff7 feff80bb  ....x..k........
 0020 d5f83880 b8f1000f 10d02146 2420fff7  ..8.......!F$ ..
 0030 feff3246 00263b46 06808670 a063a96b  ..2F.&;F...p.c.k
 0040 fff7feff a0b9a063 bde8f081 e86b0028  .......c.....k.(
 0050 fad02146 3820fff7 feff3b46 80f83180  ..!F8 ....;F..1.
 0060 3246a0f8 3280e063 e96bfff7 feff28b1  2F..2..c.k....(.
 0070 0120bde8 f0810023 a363d1e7 e063bde8  . .....#.c...c..
 0080 f0810023 e363cbe7                    ...#.c..        
Contents of section .text._ZN10FsBaseFile4openEP8FsVolumePKci:
 0000 002952d0 2de9f041 0446806b 0d461746  .)R.-..A.F.k.F.F
 0010 1e4610b1 fff7feff a0bbe06b 10b1fff7  .F.........k....
 0020 feffb8bb d5f88084 b8f1000f 11d02146  ..............!F
 0030 2420fff7 feff3346 00263a46 06808670  $ ....3F.&:F...p
 0040 a063d5f8 8014fff7 feff58bb a063bde8  .c........X..c..
 0050 f081d5f8 843493b1 21463820 fff7feff  .....4..!F8 ....
 0060 334680f8 31803a46 a0f83280 e063d5f8  3F..1.:F..2..c..
 0070 8414fff7 feffa8b9 e063bde8 f0810020  .........c..... 
 0080 bde8f081 0023d5f8 8084a363 b8f1000f  .....#.....c....
 0090 cdd1dee7 0023d5f8 8084e363 b8f1000f  .....#.....c....
 00a0 c5d1d6e7 0120bde8 f0810020 704700bf  ..... ..... pG..
Contents of section .text._ZN10FsBaseFile4openEPS_PKci:
 0000 2de9f041 0446806b 0d461646 1f4610b1  -..A.F.k.F.F.F..
 0010 fff7feff 78bbe06b 10b1fff7 feff80bb  ....x..k........
 0020 d5f83880 b8f1000f 10d02146 2420fff7  ..8.......!F$ ..
 0030 feff3246 00263b46 06808670 a063a96b  ..2F.&;F...p.c.k
 0040 fff7feff a0b9a063 bde8f081 e86b0028  .......c.....k.(
 0050 fad02146 3820fff7 feff3b46 80f83180  ..!F8 ....;F..1.
 0060 3246a0f8 3280e063 e96bfff7 feff28b1  2F..2..c.k....(.
 0070 0120bde8 f0810023 a363d1e7 e063bde8  . .....#.c...c..
 0080 f0810023 e363cbe7                    ...#.c..        
Contents of section .text._ZN10FsBaseFile4openEPS_mi:
 0000 2de9f041 0446806b 0d461646 1f4610b1  -..A.F.k.F.F.F..
 0010 fff7feff 78bbe06b 10b1fff7 feff80bb  ....x..k........
 0020 d5f83880 b8f1000f 10d02146 2420fff7  ..8.......!F$ ..
 0030 feff3b46 b2b20026 06808670 a063a96b  ..;F...&...p.c.k
 0040 fff7feff a0b9a063 bde8f081 e86b0028  .......c.....k.(
 0050 fad02146 3820fff7 feff3b46 80f83180  ..!F8 ....;F..1.
 0060 3246a0f8 3280e063 e96bfff7 feff28b1  2F..2..c.k....(.
 0070 0120bde8 f0810023 a363d1e7 e063bde8  . .....#.c...c..
 0080 f0810023 e363cbe7                    ...#.c..        
Contents of section .text._ZN10FsBaseFile8openNextEPS_i:
 0000 f8b50446 806b0d46 174610b1 fff7feff  ...F.k.F.F......
 0010 38bbe06b 10b1fff7 feff38bb ae6b76b1  8..k......8..kv.
 0020 21462420 fff7feff 00213a46 01808170  !F$ .....!:F...p
 0030 a063a96b fff7feff 88b9a063 f8bde86b  .c.k.......c...k
 0040 0028fbd0 21463820 fff7feff 3a4680f8  .(..!F8 ....:F..
 0050 31604686 e063e96b fff7feff 20b10120  1`F..c.k.... .. 
 0060 f8bd0023 a363d9e7 e063f8bd 0023e363  ...#.c...c...#.c
 0070 d4e700bf                             ....            
Contents of section .text._ZN10FsBaseFile8openRootEP8FsVolume:
 0000 002942d0 70b50446 806b0d46 10b1fff7  .)B.p..F.k.F....
 0010 feff50bb e06b10b1 fff7feff 60bbd5f8  ..P..k......`...
 0020 806476b1 21462420 fff7feff 00220280  .dv.!F$ ....."..
 0030 8270a063 d5f88014 fff7feff 18bba063  .p.c...........c
 0040 70bdd5f8 843473b1 21463820 fff7feff  p....4s.!F8 ....
 0050 80f83160 4686e063 d5f88414 fff7feff  ..1`F..c........
 0060 88b9e063 70bd0020 70bd0023 d5f88064  ...cp.. p..#...d
 0070 a363002e d6d1e4e7 0023d5f8 8064e363  .c.......#...d.c
 0080 002ecfd1 dde70120 70bd0020 704700bf  ....... p.. pG..
Contents of section .text._ZN10FsBaseFile6removeEv:
 0000 38b5856b 04462db1 2846fff7 feff50b9  8..k.F-.(F....P.
 0010 002038bd c06b0028 fad0fff7 feff0028  . 8..k.(.......(
 0020 f6d0e563 38bd0023 a36338bd           ...c8..#.c8.    
Contents of section .text._ZN10FsBaseFile5rmdirEv:
 0000 38b5856b 04462db1 2846fff7 feff50b9  8..k.F-.(F....P.
 0010 002038bd c06b0028 fad0fff7 feff0028  . 8..k.(.......(
 0020 f6d0e563 38bd0023 a36338bd           ...c8..#.c8.    
Contents of section .comment:
 0000 00474343 3a202841 726d2047 4e552054  .GCC: (Arm GNU T
 0010 6f6f6c63 6861696e 2031312e 332e5265  oolchain 11.3.Re
 0020 6c312920 31312e33 2e312032 30323230  l1) 11.3.1 20220
 0030 37313200                             712.            
Contents of section .ARM.attributes:
 0000 41310000 00616561 62690001 27000000  A1...aeabi..'...
 0010 0537452d 4d00060d 074d0902 0a081204  .7E-M....M......
 0020 14011501 17031801 19011a01 1c011e02  ................
 0030 2201                                 ".              

Disassembly of section .text._ZN10FsBaseFileC2ERKS_:

00000000 <_ZN10FsBaseFileC1ERKS_>:
   0:	b5f8      	push	{r3, r4, r5, r6, r7, lr}
   2:	2600      	movs	r6, #0
   4:	6b8f      	ldr	r7, [r1, #56]	; 0x38
   6:	460d      	mov	r5, r1
   8:	4604      	mov	r4, r0
   a:	e9c0 660e 	strd	r6, r6, [r0, #56]	; 0x38
   e:	b19f      	cbz	r7, 38 <_ZN10FsBaseFileC1ERKS_+0x38>
  10:	4601      	mov	r1, r0
  12:	2024      	movs	r0, #36	; 0x24
  14:	f7ff fffe 	bl	0 <_ZnwjPm>
  18:	8006      	strh	r6, [r0, #0]
  1a:	7086      	strb	r6, [r0, #2]
  1c:	4684      	mov	ip, r0
  1e:	6bad      	ldr	r5, [r5, #56]	; 0x38
  20:	63a0      	str	r0, [r4, #56]	; 0x38
  22:	cd0f      	ldmia	r5!, {r0, r1, r2, r3}
  24:	e8ac 000f 	stmia.w	ip!, {r0, r1, r2, r3}
  28:	cd0f      	ldmia	r5!, {r0, r1, r2, r3}
  2a:	e8ac 000f 	stmia.w	ip!, {r0, r1, r2, r3}
  2e:	682b      	ldr	r3, [r5, #0]
  30:	f8cc 3000 	str.w	r3, [ip]
  34:	4620      	mov	r0, r4
  36:	bdf8      	pop	{r3, r4, r5, r6, r7, pc}
  38:	6bcb      	ldr	r3, [r1, #60]	; 0x3c
  3a:	2b00      	cmp	r3, #0
  3c:	d0fa      	beq.n	34 <_ZN10FsBaseFileC1ERKS_+0x34>
  3e:	4601      	mov	r1, r0
  40:	2038      	movs	r0, #56	; 0x38
  42:	f7ff fffe 	bl	0 <_ZnwjPm>
  46:	f880 7031 	strb.w	r7, [r0, #49]	; 0x31
  4a:	8647      	strh	r7, [r0, #50]	; 0x32
  4c:	4602      	mov	r2, r0
  4e:	6beb      	ldr	r3, [r5, #60]	; 0x3c
  50:	63e0      	str	r0, [r4, #60]	; 0x3c
  52:	f103 0730 	add.w	r7, r3, #48	; 0x30
  56:	681e      	ldr	r6, [r3, #0]
  58:	3310      	adds	r3, #16
  5a:	f853 5c0c 	ldr.w	r5, [r3, #-12]
  5e:	3210      	adds	r2, #16
  60:	f853 0c08 	ldr.w	r0, [r3, #-8]
  64:	f853 1c04 	ldr.w	r1, [r3, #-4]
  68:	42bb      	cmp	r3, r7
  6a:	f842 6c10 	str.w	r6, [r2, #-16]
  6e:	f842 5c0c 	str.w	r5, [r2, #-12]
  72:	f842 0c08 	str.w	r0, [r2, #-8]
  76:	f842 1c04 	str.w	r1, [r2, #-4]
  7a:	d1ec      	bne.n	56 <_ZN10FsBaseFileC1ERKS_+0x56>
  7c:	681b      	ldr	r3, [r3, #0]
  7e:	4620      	mov	r0, r4
  80:	6013      	str	r3, [r2, #0]
  82:	bdf8      	pop	{r3, r4, r5, r6, r7, pc}

Disassembly of section .text._ZN10FsBaseFileaSERKS_:

00000000 <_ZN10FsBaseFileaSERKS_>:
   0:	4288      	cmp	r0, r1
   2:	b570      	push	{r4, r5, r6, lr}
   4:	4604      	mov	r4, r0
   6:	d021      	beq.n	4c <_ZN10FsBaseFileaSERKS_+0x4c>
   8:	6b80      	ldr	r0, [r0, #56]	; 0x38
   a:	460d      	mov	r5, r1
   c:	b118      	cbz	r0, 16 <_ZN10FsBaseFileaSERKS_+0x16>
   e:	f7ff fffe 	bl	0 <_ZN7FatFile5closeEv>
  12:	2800      	cmp	r0, #0
  14:	d141      	bne.n	9a <_ZN10FsBaseFileaSERKS_+0x9a>
  16:	6be0      	ldr	r0, [r4, #60]	; 0x3c
  18:	b118      	cbz	r0, 22 <_ZN10FsBaseFileaSERKS_+0x22>
  1a:	f7ff fffe 	bl	0 <_ZN9ExFatFile5closeEv>
  1e:	2800      	cmp	r0, #0
  20:	d141      	bne.n	a6 <_ZN10FsBaseFileaSERKS_+0xa6>
  22:	6bae      	ldr	r6, [r5, #56]	; 0x38
  24:	b1a6      	cbz	r6, 50 <_ZN10FsBaseFileaSERKS_+0x50>
  26:	4621      	mov	r1, r4
  28:	2024      	movs	r0, #36	; 0x24
  2a:	f7ff fffe 	bl	0 <_ZnwjPm>
  2e:	2300      	movs	r3, #0
  30:	4684      	mov	ip, r0
  32:	8003      	strh	r3, [r0, #0]
  34:	7083      	strb	r3, [r0, #2]
  36:	63a0      	str	r0, [r4, #56]	; 0x38
  38:	6bad      	ldr	r5, [r5, #56]	; 0x38
  3a:	cd0f      	ldmia	r5!, {r0, r1, r2, r3}
  3c:	e8ac 000f 	stmia.w	ip!, {r0, r1, r2, r3}
  40:	cd0f      	ldmia	r5!, {r0, r1, r2, r3}
  42:	e8ac 000f 	stmia.w	ip!, {r0, r1, r2, r3}
  46:	682b      	ldr	r3, [r5, #0]
  48:	f8cc 3000 	str.w	r3, [ip]
  4c:	4620      	mov	r0, r4
  4e:	bd70      	pop	{r4, r5, r6, pc}
  50:	6beb      	ldr	r3, [r5, #60]	; 0x3c
  52:	2b00      	cmp	r3, #0
  54:	d0fa      	beq.n	4c <_ZN10FsBaseFileaSERKS_+0x4c>
  56:	4621      	mov	r1, r4
  58:	2038      	movs	r0, #56	; 0x38
  5a:	f7ff fffe 	bl	0 <_ZnwjPm>
  5e:	f880 6031 	strb.w	r6, [r0, #49]	; 0x31
  62:	8646      	strh	r6, [r0, #50]	; 0x32
  64:	63e0      	str	r0, [r4, #60]	; 0x3c
  66:	6beb      	ldr	r3, [r5, #60]	; 0x3c
  68:	f103 0c30 	add.w	ip, r3, #48	; 0x30
  6c:	681e      	ldr	r6, [r3, #0]
  6e:	3310      	adds	r3, #16
  70:	f853 5c0c 	ldr.w	r5, [r3, #-12]
  74:	3010      	adds	r0, #16
  76:	f853 1c08 	ldr.w	r1, [r3, #-8]
  7a:	f853 2c04 	ldr.w	r2, [r3, #-4]
  7e:	4563      	cmp	r3, ip
  80:	f840 6c10 	str.w	r6, [r0, #-16]
  84:	f840 5c0c 	str.w	r5, [r0, #-12]
  88:	f840 1c08 	str.w	r1, [r0, #-8]
  8c:	f840 2c04 	str.w	r2, [r0, #-4]
  90:	d1ec      	bne.n	6c <_ZN10FsBaseFileaSERKS_+0x6c>
  92:	681b      	ldr	r3, [r3, #0]
  94:	6003      	str	r3, [r0, #0]
  96:	4620      	mov	r0, r4
  98:	bd70      	pop	{r4, r5, r6, pc}
  9a:	2300      	movs	r3, #0
  9c:	63a3      	str	r3, [r4, #56]	; 0x38
  9e:	6bae      	ldr	r6, [r5, #56]	; 0x38
  a0:	2e00      	cmp	r6, #0
  a2:	d1c0      	bne.n	26 <_ZN10FsBaseFileaSERKS_+0x26>
  a4:	e7d4      	b.n	50 <_ZN10FsBaseFileaSERKS_+0x50>
  a6:	2300      	movs	r3, #0
  a8:	6bae      	ldr	r6, [r5, #56]	; 0x38
  aa:	63e3      	str	r3, [r4, #60]	; 0x3c
  ac:	2e00      	cmp	r6, #0
  ae:	d1ba      	bne.n	26 <_ZN10FsBaseFileaSERKS_+0x26>
  b0:	e7ce      	b.n	50 <_ZN10FsBaseFileaSERKS_+0x50>
  b2:	bf00      	nop

Disassembly of section .text._ZN10FsBaseFile5closeEv:

00000000 <_ZN10FsBaseFile5closeEv>:
   0:	b510      	push	{r4, lr}
   2:	4604      	mov	r4, r0
   4:	6b80      	ldr	r0, [r0, #56]	; 0x38
   6:	b110      	cbz	r0, e <_ZN10FsBaseFile5closeEv+0xe>
   8:	f7ff fffe 	bl	0 <_ZN7FatFile5closeEv>
   c:	b930      	cbnz	r0, 1c <_ZN10FsBaseFile5closeEv+0x1c>
   e:	6be0      	ldr	r0, [r4, #60]	; 0x3c
  10:	b110      	cbz	r0, 18 <_ZN10FsBaseFile5closeEv+0x18>
  12:	f7ff fffe 	bl	0 <_ZN9ExFatFile5closeEv>
  16:	b920      	cbnz	r0, 22 <_ZN10FsBaseFile5closeEv+0x22>
  18:	2000      	movs	r0, #0
  1a:	bd10      	pop	{r4, pc}
  1c:	2300      	movs	r3, #0
  1e:	63a3      	str	r3, [r4, #56]	; 0x38
  20:	bd10      	pop	{r4, pc}
  22:	2300      	movs	r3, #0
  24:	63e3      	str	r3, [r4, #60]	; 0x3c
  26:	bd10      	pop	{r4, pc}

Disassembly of section .text._ZN10FsBaseFile5mkdirEPS_PKcb:

00000000 <_ZN10FsBaseFile5mkdirEPS_PKcb>:
   0:	e92d 41f0 	stmdb	sp!, {r4, r5, r6, r7, r8, lr}
   4:	4604      	mov	r4, r0
   6:	6b80      	ldr	r0, [r0, #56]	; 0x38
   8:	460d      	mov	r5, r1
   a:	4616      	mov	r6, r2
   c:	461f      	mov	r7, r3
   e:	b110      	cbz	r0, 16 <_ZN10FsBaseFile5mkdirEPS_PKcb+0x16>
  10:	f7ff fffe 	bl	0 <_ZN7FatFile5closeEv>
  14:	bb78      	cbnz	r0, 76 <_ZN10FsBaseFile5mkdirEPS_PKcb+0x76>
  16:	6be0      	ldr	r0, [r4, #60]	; 0x3c
  18:	b110      	cbz	r0, 20 <_ZN10FsBaseFile5mkdirEPS_PKcb+0x20>
  1a:	f7ff fffe 	bl	0 <_ZN9ExFatFile5closeEv>
  1e:	bb80      	cbnz	r0, 82 <_ZN10FsBaseFile5mkdirEPS_PKcb+0x82>
  20:	f8d5 8038 	ldr.w	r8, [r5, #56]	; 0x38
  24:	f1b8 0f00 	cmp.w	r8, #0
  28:	d010      	beq.n	4c <_ZN10FsBaseFile5mkdirEPS_PKcb+0x4c>
  2a:	4621      	mov	r1, r4
  2c:	2024      	movs	r0, #36	; 0x24
  2e:	f7ff fffe 	bl	0 <_ZnwjPm>
  32:	4632      	mov	r2, r6
  34:	2600      	movs	r6, #0
  36:	463b      	mov	r3, r7
  38:	8006      	strh	r6, [r0, #0]
  3a:	7086      	strb	r6, [r0, #2]
  3c:	63a0      	str	r0, [r4, #56]	; 0x38
  3e:	6ba9      	ldr	r1, [r5, #56]	; 0x38
  40:	f7ff fffe 	bl	0 <_ZN7FatFile5mkdirEPS_PKcb>
  44:	b9a0      	cbnz	r0, 70 <_ZN10FsBaseFile5mkdirEPS_PKcb+0x70>
  46:	63a0      	str	r0, [r4, #56]	; 0x38
  48:	e8bd 81f0 	ldmia.w	sp!, {r4, r5, r6, r7, r8, pc}
  4c:	6be8      	ldr	r0, [r5, #60]	; 0x3c
  4e:	2800      	cmp	r0, #0
  50:	d0fa      	beq.n	48 <_ZN10FsBaseFile5mkdirEPS_PKcb+0x48>
  52:	4621      	mov	r1, r4
  54:	2038      	movs	r0, #56	; 0x38
  56:	f7ff fffe 	bl	0 <_ZnwjPm>
  5a:	463b      	mov	r3, r7
  5c:	f880 8031 	strb.w	r8, [r0, #49]	; 0x31
  60:	4632      	mov	r2, r6
  62:	f8a0 8032 	strh.w	r8, [r0, #50]	; 0x32
  66:	63e0      	str	r0, [r4, #60]	; 0x3c
  68:	6be9      	ldr	r1, [r5, #60]	; 0x3c
  6a:	f7ff fffe 	bl	0 <_ZN9ExFatFile5mkdirEPS_PKcb>
  6e:	b128      	cbz	r0, 7c <_ZN10FsBaseFile5mkdirEPS_PKcb+0x7c>
  70:	2001      	movs	r0, #1
  72:	e8bd 81f0 	ldmia.w	sp!, {r4, r5, r6, r7, r8, pc}
  76:	2300      	movs	r3, #0
  78:	63a3      	str	r3, [r4, #56]	; 0x38
  7a:	e7d1      	b.n	20 <_ZN10FsBaseFile5mkdirEPS_PKcb+0x20>
  7c:	63e0      	str	r0, [r4, #60]	; 0x3c
  7e:	e8bd 81f0 	ldmia.w	sp!, {r4, r5, r6, r7, r8, pc}
  82:	2300      	movs	r3, #0
  84:	63e3      	str	r3, [r4, #60]	; 0x3c
  86:	e7cb      	b.n	20 <_ZN10FsBaseFile5mkdirEPS_PKcb+0x20>

Disassembly of section .text._ZN10FsBaseFile4openEP8FsVolumePKci:

00000000 <_ZN10FsBaseFile4openEP8FsVolumePKci>:
   0:	2900      	cmp	r1, #0
   2:	d052      	beq.n	aa <_ZN10FsBaseFile4openEP8FsVolumePKci+0xaa>
   4:	e92d 41f0 	stmdb	sp!, {r4, r5, r6, r7, r8, lr}
   8:	4604      	mov	r4, r0
   a:	6b80      	ldr	r0, [r0, #56]	; 0x38
   c:	460d      	mov	r5, r1
   e:	4617      	mov	r7, r2
  10:	461e      	mov	r6, r3
  12:	b110      	cbz	r0, 1a <_ZN10FsBaseFile4openEP8FsVolumePKci+0x1a>
  14:	f7ff fffe 	bl	0 <_ZN7FatFile5closeEv>
  18:	bba0      	cbnz	r0, 84 <_ZN10FsBaseFile4openEP8FsVolumePKci+0x84>
  1a:	6be0      	ldr	r0, [r4, #60]	; 0x3c
  1c:	b110      	cbz	r0, 24 <_ZN10FsBaseFile4openEP8FsVolumePKci+0x24>
  1e:	f7ff fffe 	bl	0 <_ZN9ExFatFile5closeEv>
  22:	bbb8      	cbnz	r0, 94 <_ZN10FsBaseFile4openEP8FsVolumePKci+0x94>
  24:	f8d5 8480 	ldr.w	r8, [r5, #1152]	; 0x480
  28:	f1b8 0f00 	cmp.w	r8, #0
  2c:	d011      	beq.n	52 <_ZN10FsBaseFile4openEP8FsVolumePKci+0x52>
  2e:	4621      	mov	r1, r4
  30:	2024      	movs	r0, #36	; 0x24
  32:	f7ff fffe 	bl	0 <_ZnwjPm>
  36:	4633      	mov	r3, r6
  38:	2600      	movs	r6, #0
  3a:	463a      	mov	r2, r7
  3c:	8006      	strh	r6, [r0, #0]
  3e:	7086      	strb	r6, [r0, #2]
  40:	63a0      	str	r0, [r4, #56]	; 0x38
  42:	f8d5 1480 	ldr.w	r1, [r5, #1152]	; 0x480
  46:	f7ff fffe 	bl	0 <_ZN7FatFile4openEP9FatVolumePKci>
  4a:	bb58      	cbnz	r0, a4 <_ZN10FsBaseFile4openEP8FsVolumePKci+0xa4>
  4c:	63a0      	str	r0, [r4, #56]	; 0x38
  4e:	e8bd 81f0 	ldmia.w	sp!, {r4, r5, r6, r7, r8, pc}
  52:	f8d5 3484 	ldr.w	r3, [r5, #1156]	; 0x484
  56:	b193      	cbz	r3, 7e <_ZN10FsBaseFile4openEP8FsVolumePKci+0x7e>
  58:	4621      	mov	r1, r4
  5a:	2038      	movs	r0, #56	; 0x38
  5c:	f7ff fffe 	bl	0 <_ZnwjPm>
  60:	4633      	mov	r3, r6
  62:	f880 8031 	strb.w	r8, [r0, #49]	; 0x31
  66:	463a      	mov	r2, r7
  68:	f8a0 8032 	strh.w	r8, [r0, #50]	; 0x32
  6c:	63e0      	str	r0, [r4, #60]	; 0x3c
  6e:	f8d5 1484 	ldr.w	r1, [r5, #1156]	; 0x484
  72:	f7ff fffe 	bl	0 <_ZN9ExFatFile4openEP11ExFatVolumePKci>
  76:	b9a8      	cbnz	r0, a4 <_ZN10FsBaseFile4openEP8FsVolumePKci+0xa4>
  78:	63e0      	str	r0, [r4, #60]	; 0x3c
  7a:	e8bd 81f0 	ldmia.w	sp!, {r4, r5, r6, r7, r8, pc}
  7e:	2000      	movs	r0, #0
  80:	e8bd 81f0 	ldmia.w	sp!, {r4, r5, r6, r7, r8, pc}
  84:	2300      	movs	r3, #0
  86:	f8d5 8480 	ldr.w	r8, [r5, #1152]	; 0x480
  8a:	63a3      	str	r3, [r4, #56]	; 0x38
  8c:	f1b8 0f00 	cmp.w	r8, #0
  90:	d1cd      	bne.n	2e <_ZN10FsBaseFile4openEP8FsVolumePKci+0x2e>
  92:	e7de      	b.n	52 <_ZN10FsBaseFile4openEP8FsVolumePKci+0x52>
  94:	2300      	movs	r3, #0
  96:	f8d5 8480 	ldr.w	r8, [r5, #1152]	; 0x480
  9a:	63e3      	str	r3, [r4, #60]	; 0x3c
  9c:	f1b8 0f00 	cmp.w	r8, #0
  a0:	d1c5      	bne.n	2e <_ZN10FsBaseFile4openEP8FsVolumePKci+0x2e>
  a2:	e7d6      	b.n	52 <_ZN10FsBaseFile4openEP8FsVolumePKci+0x52>
  a4:	2001      	movs	r0, #1
  a6:	e8bd 81f0 	ldmia.w	sp!, {r4, r5, r6, r7, r8, pc}
  aa:	2000      	movs	r0, #0
  ac:	4770      	bx	lr
  ae:	bf00      	nop

Disassembly of section .text._ZN10FsBaseFile4openEPS_PKci:

00000000 <_ZN10FsBaseFile4openEPS_PKci>:
   0:	e92d 41f0 	stmdb	sp!, {r4, r5, r6, r7, r8, lr}
   4:	4604      	mov	r4, r0
   6:	6b80      	ldr	r0, [r0, #56]	; 0x38
   8:	460d      	mov	r5, r1
   a:	4616      	mov	r6, r2
   c:	461f      	mov	r7, r3
   e:	b110      	cbz	r0, 16 <_ZN10FsBaseFile4openEPS_PKci+0x16>
  10:	f7ff fffe 	bl	0 <_ZN7FatFile5closeEv>
  14:	bb78      	cbnz	r0, 76 <_ZN10FsBaseFile4openEPS_PKci+0x76>
  16:	6be0      	ldr	r0, [r4, #60]	; 0x3c
  18:	b110      	cbz	r0, 20 <_ZN10FsBaseFile4openEPS_PKci+0x20>
  1a:	f7ff fffe 	bl	0 <_ZN9ExFatFile5closeEv>
  1e:	bb80      	cbnz	r0, 82 <_ZN10FsBaseFile4openEPS_PKci+0x82>
  20:	f8d5 8038 	ldr.w	r8, [r5, #56]	; 0x38
  24:	f1b8 0f00 	cmp.w	r8, #0
  28:	d010      	beq.n	4c <_ZN10FsBaseFile4openEPS_PKci+0x4c>
  2a:	4621      	mov	r1, r4
  2c:	2024      	movs	r0, #36	; 0x24
  2e:	f7ff fffe 	bl	0 <_ZnwjPm>
  32:	4632      	mov	r2, r6
  34:	2600      	movs	r6, #0
  36:	463b      	mov	r3, r7
  38:	8006      	strh	r6, [r0, #0]
  3a:	7086      	strb	r6, [r0, #2]
  3c:	63a0      	str	r0, [r4, #56]	; 0x38
  3e:	6ba9      	ldr	r1, [r5, #56]	; 0x38
  40:	f7ff fffe 	bl	0 <_ZN7FatFile4openEPS_PKci>
  44:	b9a0      	cbnz	r0, 70 <_ZN10FsBaseFile4openEPS_PKci+0x70>
  46:	63a0      	str	r0, [r4, #56]	; 0x38
  48:	e8bd 81f0 	ldmia.w	sp!, {r4, r5, r6, r7, r8, pc}
  4c:	6be8      	ldr	r0, [r5, #60]	; 0x3c
  4e:	2800      	cmp	r0, #0
  50:	d0fa      	beq.n	48 <_ZN10FsBaseFile4openEPS_PKci+0x48>
  52:	4621      	mov	r1, r4
  54:	2038      	movs	r0, #56	; 0x38
  56:	f7ff fffe 	bl	0 <_ZnwjPm>
  5a:	463b      	mov	r3, r7
  5c:	f880 8031 	strb.w	r8, [r0, #49]	; 0x31
  60:	4632      	mov	r2, r6
  62:	f8a0 8032 	strh.w	r8, [r0, #50]	; 0x32
  66:	63e0      	str	r0, [r4, #60]	; 0x3c
  68:	6be9      	ldr	r1, [r5, #60]	; 0x3c
  6a:	f7ff fffe 	bl	0 <_ZN9ExFatFile4openEPS_PKci>
  6e:	b128      	cbz	r0, 7c <_ZN10FsBaseFile4openEPS_PKci+0x7c>
  70:	2001      	movs	r0, #1
  72:	e8bd 81f0 	ldmia.w	sp!, {r4, r5, r6, r7, r8, pc}
  76:	2300      	movs	r3, #0
  78:	63a3      	str	r3, [r4, #56]	; 0x38
  7a:	e7d1      	b.n	20 <_ZN10FsBaseFile4openEPS_PKci+0x20>
  7c:	63e0      	str	r0, [r4, #60]	; 0x3c
  7e:	e8bd 81f0 	ldmia.w	sp!, {r4, r5, r6, r7, r8, pc}
  82:	2300      	movs	r3, #0
  84:	63e3      	str	r3, [r4, #60]	; 0x3c
  86:	e7cb      	b.n	20 <_ZN10FsBaseFile4openEPS_PKci+0x20>

Disassembly of section .text._ZN10FsBaseFile4openEPS_mi:

00000000 <_ZN10FsBaseFile4openEPS_mi>:
   0:	e92d 41f0 	stmdb	sp!, {r4, r5, r6, r7, r8, lr}
   4:	4604      	mov	r4, r0
   6:	6b80      	ldr	r0, [r0, #56]	; 0x38
   8:	460d      	mov	r5, r1
   a:	4616      	mov	r6, r2
   c:	461f      	mov	r7, r3
   e:	b110      	cbz	r0, 16 <_ZN10FsBaseFile4openEPS_mi+0x16>
  10:	f7ff fffe 	bl	0 <_ZN7FatFile5closeEv>
  14:	bb78      	cbnz	r0, 76 <_ZN10FsBaseFile4openEPS_mi+0x76>
  16:	6be0      	ldr	r0, [r4, #60]	; 0x3c
  18:	b110      	cbz	r0, 20 <_ZN10FsBaseFile4openEPS_mi+0x20>
  1a:	f7ff fffe 	bl	0 <_ZN9ExFatFile5closeEv>
  1e:	bb80      	cbnz	r0, 82 <_ZN10FsBaseFile4openEPS_mi+0x82>
  20:	f8d5 8038 	ldr.w	r8, [r5, #56]	; 0x38
  24:	f1b8 0f00 	cmp.w	r8, #0
  28:	d010      	beq.n	4c <_ZN10FsBaseFile4openEPS_mi+0x4c>
  2a:	4621      	mov	r1, r4
  2c:	2024      	movs	r0, #36	; 0x24
  2e:	f7ff fffe 	bl	0 <_ZnwjPm>
  32:	463b      	mov	r3, r7
  34:	b2b2      	uxth	r2, r6
  36:	2600      	movs	r6, #0
  38:	8006      	strh	r6, [r0, #0]
  3a:	7086      	strb	r6, [r0, #2]
  3c:	63a0      	str	r0, [r4, #56]	; 0x38
  3e:	6ba9      	ldr	r1, [r5, #56]	; 0x38
  40:	f7ff fffe 	bl	0 <_ZN7FatFile4openEPS_ti>
  44:	b9a0      	cbnz	r0, 70 <_ZN10FsBaseFile4openEPS_mi+0x70>
  46:	63a0      	str	r0, [r4, #56]	; 0x38
  48:	e8bd 81f0 	ldmia.w	sp!, {r4, r5, r6, r7, r8, pc}
  4c:	6be8      	ldr	r0, [r5, #60]	; 0x3c
  4e:	2800      	cmp	r0, #0
  50:	d0fa      	beq.n	48 <_ZN10FsBaseFile4openEPS_mi+0x48>
  52:	4621      	mov	r1, r4
  54:	2038      	movs	r0, #56	; 0x38
  56:	f7ff fffe 	bl	0 <_ZnwjPm>
  5a:	463b      	mov	r3, r7
  5c:	f880 8031 	strb.w	r8, [r0, #49]	; 0x31
  60:	4632      	mov	r2, r6
  62:	f8a0 8032 	strh.w	r8, [r0, #50]	; 0x32
  66:	63e0      	str	r0, [r4, #60]	; 0x3c
  68:	6be9      	ldr	r1, [r5, #60]	; 0x3c
  6a:	f7ff fffe 	bl	0 <_ZN9ExFatFile4openEPS_mi>
  6e:	b128      	cbz	r0, 7c <_ZN10FsBaseFile4openEPS_mi+0x7c>
  70:	2001      	movs	r0, #1
  72:	e8bd 81f0 	ldmia.w	sp!, {r4, r5, r6, r7, r8, pc}
  76:	2300      	movs	r3, #0
  78:	63a3      	str	r3, [r4, #56]	; 0x38
  7a:	e7d1      	b.n	20 <_ZN10FsBaseFile4openEPS_mi+0x20>
  7c:	63e0      	str	r0, [r4, #60]	; 0x3c
  7e:	e8bd 81f0 	ldmia.w	sp!, {r4, r5, r6, r7, r8, pc}
  82:	2300      	movs	r3, #0
  84:	63e3      	str	r3, [r4, #60]	; 0x3c
  86:	e7cb      	b.n	20 <_ZN10FsBaseFile4openEPS_mi+0x20>

Disassembly of section .text._ZN10FsBaseFile8openNextEPS_i:

00000000 <_ZN10FsBaseFile8openNextEPS_i>:
   0:	b5f8      	push	{r3, r4, r5, r6, r7, lr}
   2:	4604      	mov	r4, r0
   4:	6b80      	ldr	r0, [r0, #56]	; 0x38
   6:	460d      	mov	r5, r1
   8:	4617      	mov	r7, r2
   a:	b110      	cbz	r0, 12 <_ZN10FsBaseFile8openNextEPS_i+0x12>
   c:	f7ff fffe 	bl	0 <_ZN7FatFile5closeEv>
  10:	bb38      	cbnz	r0, 62 <_ZN10FsBaseFile8openNextEPS_i+0x62>
  12:	6be0      	ldr	r0, [r4, #60]	; 0x3c
  14:	b110      	cbz	r0, 1c <_ZN10FsBaseFile8openNextEPS_i+0x1c>
  16:	f7ff fffe 	bl	0 <_ZN9ExFatFile5closeEv>
  1a:	bb38      	cbnz	r0, 6c <_ZN10FsBaseFile8openNextEPS_i+0x6c>
  1c:	6bae      	ldr	r6, [r5, #56]	; 0x38
  1e:	b176      	cbz	r6, 3e <_ZN10FsBaseFile8openNextEPS_i+0x3e>
  20:	4621      	mov	r1, r4
  22:	2024      	movs	r0, #36	; 0x24
  24:	f7ff fffe 	bl	0 <_ZnwjPm>
  28:	2100      	movs	r1, #0
  2a:	463a      	mov	r2, r7
  2c:	8001      	strh	r1, [r0, #0]
  2e:	7081      	strb	r1, [r0, #2]
  30:	63a0      	str	r0, [r4, #56]	; 0x38
  32:	6ba9      	ldr	r1, [r5, #56]	; 0x38
  34:	f7ff fffe 	bl	0 <_ZN7FatFile8openNextEPS_i>
  38:	b988      	cbnz	r0, 5e <_ZN10FsBaseFile8openNextEPS_i+0x5e>
  3a:	63a0      	str	r0, [r4, #56]	; 0x38
  3c:	bdf8      	pop	{r3, r4, r5, r6, r7, pc}
  3e:	6be8      	ldr	r0, [r5, #60]	; 0x3c
  40:	2800      	cmp	r0, #0
  42:	d0fb      	beq.n	3c <_ZN10FsBaseFile8openNextEPS_i+0x3c>
  44:	4621      	mov	r1, r4
  46:	2038      	movs	r0, #56	; 0x38
  48:	f7ff fffe 	bl	0 <_ZnwjPm>
  4c:	463a      	mov	r2, r7
  4e:	f880 6031 	strb.w	r6, [r0, #49]	; 0x31
  52:	8646      	strh	r6, [r0, #50]	; 0x32
  54:	63e0      	str	r0, [r4, #60]	; 0x3c
  56:	6be9      	ldr	r1, [r5, #60]	; 0x3c
  58:	f7ff fffe 	bl	0 <_ZN9ExFatFile8openNextEPS_i>
  5c:	b120      	cbz	r0, 68 <_ZN10FsBaseFile8openNextEPS_i+0x68>
  5e:	2001      	movs	r0, #1
  60:	bdf8      	pop	{r3, r4, r5, r6, r7, pc}
  62:	2300      	movs	r3, #0
  64:	63a3      	str	r3, [r4, #56]	; 0x38
  66:	e7d9      	b.n	1c <_ZN10FsBaseFile8openNextEPS_i+0x1c>
  68:	63e0      	str	r0, [r4, #60]	; 0x3c
  6a:	bdf8      	pop	{r3, r4, r5, r6, r7, pc}
  6c:	2300      	movs	r3, #0
  6e:	63e3      	str	r3, [r4, #60]	; 0x3c
  70:	e7d4      	b.n	1c <_ZN10FsBaseFile8openNextEPS_i+0x1c>
  72:	bf00      	nop

Disassembly of section .text._ZN10FsBaseFile8openRootEP8FsVolume:

00000000 <_ZN10FsBaseFile8openRootEP8FsVolume>:
   0:	2900      	cmp	r1, #0
   2:	d042      	beq.n	8a <_ZN10FsBaseFile8openRootEP8FsVolume+0x8a>
   4:	b570      	push	{r4, r5, r6, lr}
   6:	4604      	mov	r4, r0
   8:	6b80      	ldr	r0, [r0, #56]	; 0x38
   a:	460d      	mov	r5, r1
   c:	b110      	cbz	r0, 14 <_ZN10FsBaseFile8openRootEP8FsVolume+0x14>
   e:	f7ff fffe 	bl	0 <_ZN7FatFile5closeEv>
  12:	bb50      	cbnz	r0, 6a <_ZN10FsBaseFile8openRootEP8FsVolume+0x6a>
  14:	6be0      	ldr	r0, [r4, #60]	; 0x3c
  16:	b110      	cbz	r0, 1e <_ZN10FsBaseFile8openRootEP8FsVolume+0x1e>
  18:	f7ff fffe 	bl	0 <_ZN9ExFatFile5closeEv>
  1c:	bb60      	cbnz	r0, 78 <_ZN10FsBaseFile8openRootEP8FsVolume+0x78>
  1e:	f8d5 6480 	ldr.w	r6, [r5, #1152]	; 0x480
  22:	b176      	cbz	r6, 42 <_ZN10FsBaseFile8openRootEP8FsVolume+0x42>
  24:	4621      	mov	r1, r4
  26:	2024      	movs	r0, #36	; 0x24
  28:	f7ff fffe 	bl	0 <_ZnwjPm>
  2c:	2200      	movs	r2, #0
  2e:	8002      	strh	r2, [r0, #0]
  30:	7082      	strb	r2, [r0, #2]
  32:	63a0      	str	r0, [r4, #56]	; 0x38
  34:	f8d5 1480 	ldr.w	r1, [r5, #1152]	; 0x480
  38:	f7ff fffe 	bl	0 <_ZN7FatFile8openRootEP9FatVolume>
  3c:	bb18      	cbnz	r0, 86 <_ZN10FsBaseFile8openRootEP8FsVolume+0x86>
  3e:	63a0      	str	r0, [r4, #56]	; 0x38
  40:	bd70      	pop	{r4, r5, r6, pc}
  42:	f8d5 3484 	ldr.w	r3, [r5, #1156]	; 0x484
  46:	b173      	cbz	r3, 66 <_ZN10FsBaseFile8openRootEP8FsVolume+0x66>
  48:	4621      	mov	r1, r4
  4a:	2038      	movs	r0, #56	; 0x38
  4c:	f7ff fffe 	bl	0 <_ZnwjPm>
  50:	f880 6031 	strb.w	r6, [r0, #49]	; 0x31
  54:	8646      	strh	r6, [r0, #50]	; 0x32
  56:	63e0      	str	r0, [r4, #60]	; 0x3c
  58:	f8d5 1484 	ldr.w	r1, [r5, #1156]	; 0x484
  5c:	f7ff fffe 	bl	0 <_ZN9ExFatFile8openRootEP11ExFatVolume>
  60:	b988      	cbnz	r0, 86 <_ZN10FsBaseFile8openRootEP8FsVolume+0x86>
  62:	63e0      	str	r0, [r4, #60]	; 0x3c
  64:	bd70      	pop	{r4, r5, r6, pc}
  66:	2000      	movs	r0, #0
  68:	bd70      	pop	{r4, r5, r6, pc}
  6a:	2300      	movs	r3, #0
  6c:	f8d5 6480 	ldr.w	r6, [r5, #1152]	; 0x480
  70:	63a3      	str	r3, [r4, #56]	; 0x38
  72:	2e00      	cmp	r6, #0
  74:	d1d6      	bne.n	24 <_ZN10FsBaseFile8openRootEP8FsVolume+0x24>
  76:	e7e4      	b.n	42 <_ZN10FsBaseFile8openRootEP8FsVolume+0x42>
  78:	2300      	movs	r3, #0
  7a:	f8d5 6480 	ldr.w	r6, [r5, #1152]	; 0x480
  7e:	63e3      	str	r3, [r4, #60]	; 0x3c
  80:	2e00      	cmp	r6, #0
  82:	d1cf      	bne.n	24 <_ZN10FsBaseFile8openRootEP8FsVolume+0x24>
  84:	e7dd      	b.n	42 <_ZN10FsBaseFile8openRootEP8FsVolume+0x42>
  86:	2001      	movs	r0, #1
  88:	bd70      	pop	{r4, r5, r6, pc}
  8a:	2000      	movs	r0, #0
  8c:	4770      	bx	lr
  8e:	bf00      	nop

Disassembly of section .text._ZN10FsBaseFile6removeEv:

00000000 <_ZN10FsBaseFile6removeEv>:
   0:	b538      	push	{r3, r4, r5, lr}
   2:	6b85      	ldr	r5, [r0, #56]	; 0x38
   4:	4604      	mov	r4, r0
   6:	b12d      	cbz	r5, 14 <_ZN10FsBaseFile6removeEv+0x14>
   8:	4628      	mov	r0, r5
   a:	f7ff fffe 	bl	0 <_ZN7FatFile6removeEv>
   e:	b950      	cbnz	r0, 26 <_ZN10FsBaseFile6removeEv+0x26>
  10:	2000      	movs	r0, #0
  12:	bd38      	pop	{r3, r4, r5, pc}
  14:	6bc0      	ldr	r0, [r0, #60]	; 0x3c
  16:	2800      	cmp	r0, #0
  18:	d0fa      	beq.n	10 <_ZN10FsBaseFile6removeEv+0x10>
  1a:	f7ff fffe 	bl	0 <_ZN9ExFatFile6removeEv>
  1e:	2800      	cmp	r0, #0
  20:	d0f6      	beq.n	10 <_ZN10FsBaseFile6removeEv+0x10>
  22:	63e5      	str	r5, [r4, #60]	; 0x3c
  24:	bd38      	pop	{r3, r4, r5, pc}
  26:	2300      	movs	r3, #0
  28:	63a3      	str	r3, [r4, #56]	; 0x38
  2a:	bd38      	pop	{r3, r4, r5, pc}

Disassembly of section .text._ZN10FsBaseFile5rmdirEv:

00000000 <_ZN10FsBaseFile5rmdirEv>:
   0:	b538      	push	{r3, r4, r5, lr}
   2:	6b85      	ldr	r5, [r0, #56]	; 0x38
   4:	4604      	mov	r4, r0
   6:	b12d      	cbz	r5, 14 <_ZN10FsBaseFile5rmdirEv+0x14>
   8:	4628      	mov	r0, r5
   a:	f7ff fffe 	bl	0 <_ZN7FatFile5rmdirEv>
   e:	b950      	cbnz	r0, 26 <_ZN10FsBaseFile5rmdirEv+0x26>
  10:	2000      	movs	r0, #0
  12:	bd38      	pop	{r3, r4, r5, pc}
  14:	6bc0      	ldr	r0, [r0, #60]	; 0x3c
  16:	2800      	cmp	r0, #0
  18:	d0fa      	beq.n	10 <_ZN10FsBaseFile5rmdirEv+0x10>
  1a:	f7ff fffe 	bl	0 <_ZN9ExFatFile5rmdirEv>
  1e:	2800      	cmp	r0, #0
  20:	d0f6      	beq.n	10 <_ZN10FsBaseFile5rmdirEv+0x10>
  22:	63e5      	str	r5, [r4, #60]	; 0x3c
  24:	bd38      	pop	{r3, r4, r5, pc}
  26:	2300      	movs	r3, #0
  28:	63a3      	str	r3, [r4, #56]	; 0x38
  2a:	bd38      	pop	{r3, r4, r5, pc}
