
./build/firmware.elf:     file format elf32-littlearm

SYMBOL TABLE:
60000000 l    d  .text.headers	00000000 .text.headers
60001400 l    d  .text.code	00000000 .text.code
60002160 l    d  .text.progmem	00000000 .text.progmem
00000000 l    d  .text.itcm	00000000 .text.itcm
000163b0 l    d  .fini	00000000 .fini
000163b4 l    d  .ARM.exidx	00000000 .ARM.exidx
20000000 l    d  .data	00000000 .data
20002ac0 l    d  .bss	00000000 .bss
20200000 l    d  .bss.dma	00000000 .bss.dma
70000000 l    d  .bss.extram	00000000 .bss.extram
6001b26c l    d  .text.csf	00000000 .text.csf
00000000 l    d  .ARM.attributes	00000000 .ARM.attributes
00000000 l    d  .comment	00000000 .comment
00000000 l    df *ABS*	00000000 bootdata.c
00000000 l    df *ABS*	00000000 startup.c
60001400 l     F .text.code	00000012 memory_copy
60001414 l     F .text.code	0000001c memory_clear.constprop.0
60001430 l     F .text.code	0000021c ResetHandler2
00000000 l    df *ABS*	00000000 QNMDNS.cpp
00003b10 l     F .text.itcm	0000004c _GLOBAL__sub_I__ZN10StaticInitIN9qindesign7network9MDNSClassEE13nifty_counterE
2000437d l     O .bss	00000001 _ZN9qindesign7networkL10netifAddedE
20003b44 l     O .bss	00000001 _ZN9qindesign7networkL8MDNSInitE
00000000 l    df *ABS*	00000000 entropy.c
200040bc l     O .bss	00000004 s_entropySizeBytes
20200000 l     O .bss.dma	00000040 s_entropy
00000000 l    df *ABS*	00000000 RandomDevice.cpp
00003d38 l     F .text.itcm	00000048 _GLOBAL__sub_I__ZN10StaticInitIN9qindesign8security12RandomDeviceEE13nifty_counterE
20003b64 l     O .bss	00000001 _ZN9qindesign8securityL16randomDeviceInitE
00000000 l    df *ABS*	00000000 QNEthernet.cpp
00007670 l     F .text.itcm	000000dc _GLOBAL__sub_I__ZN10StaticInitIN9qindesign7network13EthernetClassEE13nifty_counterE
20003918 l     O .bss	00000008 _ZL11INADDR_NONE
20003b3c l     O .bss	00000001 _ZN9qindesign7networkL12EthernetInitE
2000437e l     O .bss	00000001 _ZN9qindesign7networkL12loopAttachedE
20003b58 l     O .bss	00000001 _ZN9qindesign7networkL8MDNSInitE
20003b78 l     O .bss	00000001 _ZN9qindesign8securityL16randomDeviceInitE
20002374 l     O .data	00000020 _ZN9qindesign7networkL7ethLoopE
00000000 l    df *ABS*	00000000 usb.c
0000fbf0 l     F .text.itcm	00000088 schedule_transfer
0000fc78 l     F .text.itcm	00000036 run_callbacks
0000fcb0 l     F .text.itcm	00000098 endpoint0_transmit.constprop.0
20003f0c l     O .bss	00000008 endpoint0_buffer
20003f14 l     O .bss	00000004 endpoint0_notify_mask
20002f60 l     O .bss	00000008 endpoint0_setupdata
20003f18 l     O .bss	00000004 endpointN_notify_mask
2000404c l     O .bss	00000008 reply_buffer
2000438e l     O .bss	00000001 sof_usage
2000439b l     O .bss	00000001 usb_reboot_timer
00000000 l    df *ABS*	00000000 analog.c
20004383 l     O .bss	00000001 calibrating
00000000 l    df *ABS*	00000000 tempmon.c
200040c0 l     O .bss	00000004 s_hotCount
200040c4 l     O .bss	00000004 s_hotTemp
200040c8 l     O .bss	00000004 s_hot_ROOM
200040d4 l     O .bss	00000004 s_roomC_hotC
00000000 l    df *ABS*	00000000 crti.o
00000000 l    df *ABS*	00000000 crtn.o
00000000 l    df *ABS*	00000000 crtstuff.c
00000020 l     F .text.itcm	00000000 register_tm_clones
00000044 l     F .text.itcm	00000000 frame_dummy
2000402c l     O .bss	00000000 object.0
600020f8 l     O .text.code	00000000 __frame_dummy_init_array_entry
00000000 l    df *ABS*	00000000 SPI.cpp
00000080 l     F .text.itcm	00000060 _ZN8SPIClass8transferEPKvPvj.part.0
00000548 l     F .text.itcm	00000048 _GLOBAL__sub_I__ZN8SPIClass5beginEv
00000000 l    df *ABS*	00000000 SD.cpp
00001480 l     F .text.itcm	00000080 _GLOBAL__sub_I_SD
00000000 l    df *ABS*	00000000 TeensyDebug.cpp
00002264 l     F .text.itcm	00000014 _GLOBAL__sub_I_sw_breakpoint_addr
00000000 l    df *ABS*	00000000 gdbstub.cpp
000022a0 l     F .text.itcm	0000004c _ZL8hexToIntPPKcPi.isra.0
000022ec l     F .text.itcm	00000204 _ZL10hex32ToIntPPKc
00003a1c l     F .text.itcm	00000018 _GLOBAL__sub_I_dev
00000000 l    df *ABS*	00000000 QNDNSClient.cpp
00003b88 l     F .text.itcm	00000014 _GLOBAL__sub_I__ZN9qindesign7network9DNSClient12dnsFoundFuncEPKcPK8ip4_addrPv
20003900 l     O .bss	00000008 _ZL11INADDR_NONE
00000000 l    df *ABS*	00000000 QNEthernetUDP.cpp
00003da8 l     F .text.itcm	000000c0 _GLOBAL__sub_I__ZN9qindesign7network11EthernetUDP8recvFuncEPvP7udp_pcbP4pbufPK8ip4_addrt
20003908 l     O .bss	00000008 _ZL11INADDR_NONE
20003b2c l     O .bss	00000001 _ZN9qindesign7networkL12EthernetInitE
20003b48 l     O .bss	00000001 _ZN9qindesign7networkL8MDNSInitE
20003b68 l     O .bss	00000001 _ZN9qindesign8securityL16randomDeviceInitE
00000000 l    df *ABS*	00000000 QNEthernetServer.cpp
00003e68 l     F .text.itcm	000000ac _GLOBAL__sub_I__ZN9qindesign7network14EthernetServerC2Ev
20003b30 l     O .bss	00000001 _ZN9qindesign7networkL12EthernetInitE
20003b4c l     O .bss	00000001 _ZN9qindesign7networkL8MDNSInitE
20003b6c l     O .bss	00000001 _ZN9qindesign8securityL16randomDeviceInitE
00000000 l    df *ABS*	00000000 ConnectionManager.cpp
00007454 l     F .text.itcm	000000ac _GLOBAL__sub_I__ZN9qindesign7network8internal17ConnectionManager8instanceEv
20003b34 l     O .bss	00000001 _ZN9qindesign7networkL12EthernetInitE
20003b50 l     O .bss	00000001 _ZN9qindesign7networkL8MDNSInitE
20003b70 l     O .bss	00000001 _ZN9qindesign8securityL16randomDeviceInitE
00000000 l    df *ABS*	00000000 QNEthernetClient.cpp
00007504 l     F .text.itcm	000000c0 _GLOBAL__sub_I__ZN9qindesign7network14EthernetClientC2Ev
20003910 l     O .bss	00000008 _ZL11INADDR_NONE
20003b38 l     O .bss	00000001 _ZN9qindesign7networkL12EthernetInitE
20003b54 l     O .bss	00000001 _ZN9qindesign7networkL8MDNSInitE
20003b74 l     O .bss	00000001 _ZN9qindesign8securityL16randomDeviceInitE
00000000 l    df *ABS*	00000000 FastLED.cpp
00008444 l     F .text.itcm	00000018 _GLOBAL__sub_I_pSmartMatrix
00000000 l    df *ABS*	00000000 WireIMXRT.cpp
0000fba8 l     F .text.itcm	00000048 _GLOBAL__sub_I__ZN7TwoWire5beginEv
00000000 l    df *ABS*	00000000 IntervalTimer.cpp
00010990 l     F .text.itcm	00000084 _ZL7pit_isrv
00010a14 l     F .text.itcm	00000020 __tcf_0
00010ba8 l     F .text.itcm	0000002c _GLOBAL__sub_I__ZN13IntervalTimer14nvic_prioritesE
20002ac0 l     O .bss	00000060 _ZL11funct_table
00000000 l    df *ABS*	00000000 Tone.cpp
00010bf8 l     F .text.itcm	00000018 _GLOBAL__sub_I__Z4tonehtm
20002368 l     O .data	00000008 _ZL10tone_timer
00000000 l    df *ABS*	00000000 ethernet_comms.cpp
00013c10 l     F .text.itcm	000000ac _GLOBAL__sub_I__ZN5Comms13EthernetComms5beginEm
20003b40 l     O .bss	00000001 _ZN9qindesign7networkL12EthernetInitE
20003b5c l     O .bss	00000001 _ZN9qindesign7networkL8MDNSInitE
20003b7c l     O .bss	00000001 _ZN9qindesign8securityL16randomDeviceInitE
00000000 l    df *ABS*	00000000 config_layer.cpp
00013cbc l     F .text.itcm	00000064 _ZNSt7__cxx1112basic_stringIcSt11char_traitsIcESaIcEEC2IS3_EEPKcRKS3_.constprop.0.isra.0
00013d20 l     F .text.itcm	000001c6 _ZNSt8_Rb_treeINSt7__cxx1112basic_stringIcSt11char_traitsIcESaIcEEESt4pairIKS5_hESt10_Select1stIS8_ESt4lessIS5_ESaIS8_EE8_M_eraseEPSt13_Rb_tree_nodeIS8_E.isra.0
000140f4 l     F .text.itcm	000000e8 _Z41__static_initialization_and_destruction_0ii.constprop.0
000141dc l     F .text.itcm	00000004 _GLOBAL__sub_I_reset_teensy
20003924 l     O .bss	00000018 _ZL24yaml_section_id_mappings
00000000 l    df *ABS*	00000000 controller_manager.cpp
00014244 l     F .text.itcm	000000fc _Z41__static_initialization_and_destruction_0ii.constprop.0
00014340 l     F .text.itcm	00000004 _GLOBAL__sub_I__ZN17ControllerManager4initEP10CANManagerPK6Config
2000393c l     O .bss	00000018 _ZL24yaml_section_id_mappings
00000000 l    df *ABS*	00000000 estimator_manager.cpp
00014344 l     F .text.itcm	000000fc _Z41__static_initialization_and_destruction_0ii.constprop.0
00014440 l     F .text.itcm	00000004 _GLOBAL__sub_I__ZN16EstimatorManagerD2Ev
20003954 l     O .bss	00000018 _ZL24yaml_section_id_mappings
00000000 l    df *ABS*	00000000 estimator.cpp
00014444 l     F .text.itcm	000000fc _Z41__static_initialization_and_destruction_0ii.constprop.0
00014540 l     F .text.itcm	00000004 _GLOBAL__sub_I__ZN15GimbalEstimatorC2E6ConfigP13SensorManagerP10CANManager
2000396c l     O .bss	00000018 _ZL24yaml_section_id_mappings
00000000 l    df *ABS*	00000000 buff_encoder.cpp
0001461c l     F .text.itcm	00000018 _GLOBAL__sub_I__ZN11BuffEncoder10m_settingsE
00000000 l    df *ABS*	00000000 SensorManager.cpp
00014634 l     F .text.itcm	000000fc _Z41__static_initialization_and_destruction_0ii.constprop.0
00014730 l     F .text.itcm	00000004 _GLOBAL__sub_I__ZN13SensorManagerC2Ev
20003984 l     O .bss	00000018 _ZL24yaml_section_id_mappings
00000000 l    df *ABS*	00000000 VL53L.cpp
00014790 l     F .text.itcm	0000000c _GLOBAL__sub_I_tofD
00000000 l    df *ABS*	00000000 main.cpp
0001479c l     F .text.itcm	00000024 _ZN5Print7printlnEPKc.isra.0
00014948 l     F .text.itcm	00000040 _GLOBAL__sub_I_motorL
00000000 l    df *ABS*	00000000 usb_desc.c
200023fc l     O .data	00000012 device_descriptor
20002428 l     O .data	0000001e rawhid_report_desc
600023e4 l     O .text.progmem	0000000a qualifier_descriptor
00000000 l    df *ABS*	00000000 platform.cpp
00000000 l    df *ABS*	00000000 driver_teensy41.c
00000000 l    df *ABS*	00000000 sys_arch.cpp
00000000 l    df *ABS*	00000000 qnethernet_hal.cpp
00000000 l    df *ABS*	00000000 dns.c
20003f04 l     O .bss	00000008 dns_servers
00000000 l    df *ABS*	00000000 inet_chksum.c
00000000 l    df *ABS*	00000000 udp.c
2000247a l     O .data	00000002 udp_port
20000f48 l     O .data	0000000b __FUNCTION__.2
20000fb0 l     O .data	00000009 __FUNCTION__.7
20000fcc l     O .data	00000012 __FUNCTION__.8
00000000 l    df *ABS*	00000000 err.c
20001560 l     O .data	00000044 err_to_errno_table
00000000 l    df *ABS*	00000000 mdns_out.c
00004344 l     F .text.itcm	0000009a mdns_add_question.constprop.0
000043e0 l     F .text.itcm	000000e2 mdns_add_answer.constprop.0
000044c4 l     F .text.itcm	0000001c mdns_add_any_host_question.constprop.0
000044e0 l     F .text.itcm	0000001e mdns_add_any_service_question.constprop.0
00004500 l     F .text.itcm	0000005c mdns_add_servicetype_ptr_answer
0000455c l     F .text.itcm	00000058 mdns_add_a_answer
000045b4 l     F .text.itcm	00000076 mdns_add_srv_answer
0000462c l     F .text.itcm	00000060 mdns_add_servicename_ptr_answer
0000468c l     F .text.itcm	00000064 mdns_add_hostv4_ptr_answer
000046f0 l     F .text.itcm	00000032 mdns_add_query_question_to_outpacket.isra.0
00004724 l     F .text.itcm	00000070 mdns_add_txt_answer
00000000 l    df *ABS*	00000000 mdns_domain.c
00004b5c l     F .text.itcm	00000100 mdns_readname_loop
00004c5c l     F .text.itcm	000000be mdns_compress_domain.part.0
200014ec l     O .data	00000008 dnssd_protos
00000000 l    df *ABS*	00000000 mdns.c
000051e0 l     F .text.itcm	0000006c mdns_define_probe_rrs_to_send
000053ac l     F .text.itcm	000000e8 mdns_probe_and_announce
20003fdc l     O .bss	00000004 mdns_name_result_cb
20004386 l     O .bss	00000001 mdns_netif_client_id
20003fe0 l     O .bss	00000004 mdns_pcb
20000f18 l     O .data	00000013 __FUNCTION__.1
20000f98 l     O .data	00000017 __FUNCTION__.6
200021f0 l     O .data	00000004 v4group
00000000 l    df *ABS*	00000000 pbuf.c
00005494 l     F .text.itcm	0000002c pbuf_ref.part.0
00000000 l    df *ABS*	00000000 netif.c
00005ae8 l     F .text.itcm	00000088 netif_do_set_ipaddr
20003f20 l     O .bss	00000004 ext_callback
20000f2c l     O .data	0000000f __FUNCTION__.11
20000f64 l     O .data	00000013 __FUNCTION__.3
20000f84 l     O .data	00000014 __FUNCTION__.5
20000fbc l     O .data	0000000f __FUNCTION__.7
00000000 l    df *ABS*	00000000 tcp.c
00005d88 l     F .text.itcm	0000002c tcp_free.part.0
00005db4 l     F .text.itcm	0000002c tcp_eff_send_mss_netif.part.0
20000f3c l     O .data	0000000c __FUNCTION__.15
00000000 l    df *ABS*	00000000 mem.c
00000000 l    df *ABS*	00000000 timeouts.c
00006228 l     F .text.itcm	00000064 sys_timeout_abs
20004028 l     O .bss	00000004 next_timeout
20000f54 l     O .data	0000000e __FUNCTION__.2
20000f78 l     O .data	0000000c __FUNCTION__.3
00000000 l    df *ABS*	00000000 tcp_out.c
0000633c l     F .text.itcm	000000a0 tcp_output_alloc_header.constprop.0
000063dc l     F .text.itcm	00000034 tcp_output_fill_options.constprop.0
00006410 l     F .text.itcm	0000009c tcp_output_control_segment
000064ac l     F .text.itcm	000000ac tcp_rst_common.isra.0
20000eb8 l     O .data	0000000b __FUNCTION__.0
00000000 l    df *ABS*	00000000 acd.c
00000000 l    df *ABS*	00000000 igmp.c
000069e8 l     F .text.itcm	000000c0 igmp_send
20003cc4 l     O .bss	00000004 allrouters
20003cc8 l     O .bss	00000004 allsystems
20000ec4 l     O .data	00000016 __FUNCTION__.0
00000000 l    df *ABS*	00000000 dhcp.c
00006b98 l     F .text.itcm	00000150 dhcp_create_msg
00006ce8 l     F .text.itcm	0000002c dhcp_option.part.0
00006d14 l     F .text.itcm	00000060 dhcp_option_long
00006d74 l     F .text.itcm	00000050 dhcp_dec_pcb_refcount
20003f00 l     O .bss	00000004 dhcp_pcb
20004384 l     O .bss	00000001 dhcp_pcb_refcount
20004364 l     O .bss	00000004 xid.6
20000edc l     O .data	00000016 __FUNCTION__.0
00000000 l    df *ABS*	00000000 ip4.c
20004368 l     O .bss	00000002 ip_id
20000ef4 l     O .data	00000016 __FUNCTION__.0
00000000 l    df *ABS*	00000000 autoip.c
20000f0c l     O .data	0000000c __FUNCTION__.0
00000000 l    df *ABS*	00000000 ip4_frag.c
00007154 l     F .text.itcm	00000044 ipfrag_free_pbuf_custom
00000000 l    df *ABS*	00000000 etharp.c
20003ccc l     O .bss	000000f0 arp_table
00000000 l    df *ABS*	00000000 memp.c
0000739c l     F .text.itcm	0000002c do_memp_malloc_pool.part.0
000073c8 l     F .text.itcm	0000002c do_memp_free_pool.part.0
20003fe4 l     O .bss	00000004 memp_tab_FRAG_PBUF
20003fe8 l     O .bss	00000004 memp_tab_IGMP_GROUP
20003fec l     O .bss	00000004 memp_tab_PBUF
20003ff0 l     O .bss	00000004 memp_tab_PBUF_POOL
20003ff4 l     O .bss	00000004 memp_tab_REASSDATA
20003ff8 l     O .bss	00000004 memp_tab_SYS_TIMEOUT
20003ffc l     O .bss	00000004 memp_tab_TCP_PCB
20004000 l     O .bss	00000004 memp_tab_TCP_PCB_LISTEN
20004004 l     O .bss	00000004 memp_tab_TCP_SEG
20004008 l     O .bss	00000004 memp_tab_UDP_PCB
00000000 l    df *ABS*	00000000 lwip_driver.c
200040cc l     O .bss	00000006 s_mac
00000000 l    df *ABS*	00000000 ip_tools.cpp
00000000 l    df *ABS*	00000000 VL53L1X.cpp
000078e8 l     F .text.itcm	0000016c _ZN7VL53L1X26setMeasurementTimingBudgetEm.part.0
00000000 l    df *ABS*	00000000 Adafruit_SPIDevice.cpp
00000000 l    df *ABS*	00000000 FsUtf.cpp
00000000 l    df *ABS*	00000000 FsName.cpp
00000000 l    df *ABS*	00000000 upcase.cpp
200006d4 l     O .data	0000012c _ZL11lookupTable
20000800 l     O .data	000000d4 _ZL8mapTable
00000000 l    df *ABS*	00000000 FsCache.cpp
00000000 l    df *ABS*	00000000 FsStructs.cpp
00000000 l    df *ABS*	00000000 FsNew.cpp
00000000 l    df *ABS*	00000000 FsFile.cpp
00000000 l    df *ABS*	00000000 FsVolume.cpp
00000000 l    df *ABS*	00000000 FatName.cpp
00000000 l    df *ABS*	00000000 FatFormatter.cpp
00008de4 l     F .text.itcm	00000030 _ZL18initFatDirCallbackmPv
00000000 l    df *ABS*	00000000 FatPartition.cpp
00009428 l     F .text.itcm	000000fa _ZN12FatPartition6fatGetEmPm.part.0
00009524 l     F .text.itcm	0000010c _ZN12FatPartition6fatPutEmm.part.0
00000000 l    df *ABS*	00000000 FatFileLFN.cpp
00000000 l    df *ABS*	00000000 FatFile.cpp
0000a2d0 l     F .text.itcm	000000b4 _ZN7FatFile4syncEv.part.0
00000000 l    df *ABS*	00000000 SdSpiTeensy3.cpp
00000000 l    df *ABS*	00000000 SdSpiChipSelect.cpp
00000000 l    df *ABS*	00000000 SdioTeensy.cpp
0000b454 l     F .text.itcm	00000030 _ZL5sdIrsv
0000b484 l     F .text.itcm	00000014 _ZL9isBusyDatv
0000b498 l     F .text.itcm	0000000c _ZL9isBusyDMAv
0000b4a4 l     F .text.itcm	000000cc _ZL8setSdclkm
0000b678 l     F .text.itcm	00000088 _ZL20waitTransferCompletev.part.0
0000b7b4 l     F .text.itcm	00000098 _ZL11cardCommandmm
0000b84c l     F .text.itcm	00000060 _ZL9readReg16mPv
0000b948 l     F .text.itcm	0000002c _ZL11isBusyCMD13v
0000bb00 l     F .text.itcm	0000011c _ZL8cardCMD6mPh
0000bd18 l     F .text.itcm	0000015c _ZL11rdWrSectorsmmPhj
20004376 l     O .bss	00000001 _ZL10m_initDone
200038fc l     O .bss	00000004 _ZL10m_sdClkKhz
20004377 l     O .bss	00000001 _ZL10m_version2
20003920 l     O .bss	00000004 _ZL11m_errorLine
20004378 l     O .bss	00000001 _ZL14m_highCapacity
20004379 l     O .bss	00000001 _ZL16m_transferActive
2000399c l     O .bss	00000010 _ZL5m_cid
200039ac l     O .bss	00000010 _ZL5m_csd
200039bc l     O .bss	00000004 _ZL5m_ocr
200039c0 l     O .bss	00000004 _ZL5m_rca
200039c4 l     O .bss	00000004 _ZL9m_busyFcn
2000437a l     O .bss	00000001 _ZL9m_dmaBusy
200039c8 l     O .bss	00000004 _ZL9m_irqstat
2000247c l     O .data	00000001 _ZL11m_errorCode
00000000 l    df *ABS*	00000000 SdSpiCard.cpp
00000000 l    df *ABS*	00000000 ExFatFile.cpp
00000000 l    df *ABS*	00000000 ExFatName.cpp
00000000 l    df *ABS*	00000000 ExFatFileWrite.cpp
00000000 l    df *ABS*	00000000 ExFatFormatter.cpp
0000ea90 l     F .text.itcm	00000020 _ZN5Print5writeEPKc.isra.0
00000000 l    df *ABS*	00000000 ExFatPartition.cpp
00000000 l    df *ABS*	00000000 clockspeed.c
00000000 l    df *ABS*	00000000 digital.c
00000000 l    df *ABS*	00000000 rtc.c
00000000 l    df *ABS*	00000000 usb_rawhid.c
00010c10 l     F .text.itcm	00000034 rx_event
00010c44 l     F .text.itcm	0000005c rx_queue_transfer
20004388 l     O .bss	00000001 rx_head
2000409c l     O .bss	00000005 rx_list
2000438b l     O .bss	00000001 rx_tail
20002b60 l     O .bss	00000080 rx_transfer
20004392 l     O .bss	00000001 tx_head
20002de0 l     O .bss	00000080 tx_transfer
20206ca0 l     O .bss.dma	00000ffc rx_buffer
20207c9c l     O .bss.dma	00000ffc txbuffer
00000000 l    df *ABS*	00000000 EventResponder.cpp
00000000 l    df *ABS*	00000000 nonstd.c
00000000 l    df *ABS*	00000000 sm_pool.c
00000000 l    df *ABS*	00000000 pwm.c
00000000 l    df *ABS*	00000000 usb_serial2.c
000116c0 l     F .text.itcm	00000060 rx_queue_transfer
20208ca0 l     O .bss.dma	00001000 rx_buffer
00011720 l     F .text.itcm	000000b4 rx_event
000117d4 l     F .text.itcm	00000090 usb_serial2_flush_callback
20209ca0 l     O .bss.dma	00002000 txbuffer
00011864 l     F .text.itcm	00000190 usb_serial2_write.part.0
20004054 l     O .bss	00000004 rx_available
2000405c l     O .bss	00000010 rx_count
20004389 l     O .bss	00000001 rx_head
2000407c l     O .bss	00000010 rx_index
200040a4 l     O .bss	00000009 rx_list
2000436a l     O .bss	00000002 rx_packet_size
2000438c l     O .bss	00000001 rx_tail
20002be0 l     O .bss	00000100 rx_transfer
20004390 l     O .bss	00000001 transmit_previous_timeout
2000436e l     O .bss	00000002 tx_available
20004393 l     O .bss	00000001 tx_head
20004395 l     O .bss	00000001 tx_noautoflush
20004372 l     O .bss	00000002 tx_packet_size
20002e60 l     O .bss	00000080 tx_transfer
00000000 l    df *ABS*	00000000 yield.cpp
2000437f l     O .bss	00000001 _ZZ5yieldE7running
00000000 l    df *ABS*	00000000 usb_serial.c
00011f74 l     F .text.itcm	00000060 rx_queue_transfer
2020bd60 l     O .bss.dma	00001000 rx_buffer
00011fd4 l     F .text.itcm	000000b4 rx_event
00012088 l     F .text.itcm	00000090 usb_serial_flush_callback
2020cd60 l     O .bss.dma	00002000 txbuffer
00012118 l     F .text.itcm	000001b8 usb_serial_write.part.0
20004058 l     O .bss	00000004 rx_available
2000406c l     O .bss	00000010 rx_count
2000438a l     O .bss	00000001 rx_head
2000408c l     O .bss	00000010 rx_index
200040b0 l     O .bss	00000009 rx_list
2000436c l     O .bss	00000002 rx_packet_size
2000438d l     O .bss	00000001 rx_tail
20002ce0 l     O .bss	00000100 rx_transfer
20004391 l     O .bss	00000001 transmit_previous_timeout
20004370 l     O .bss	00000002 tx_available
20004394 l     O .bss	00000001 tx_head
20004396 l     O .bss	00000001 tx_noautoflush
20004374 l     O .bss	00000002 tx_packet_size
20002ee0 l     O .bss	00000080 tx_transfer
00000000 l    df *ABS*	00000000 WString.cpp
00000000 l    df *ABS*	00000000 new.cpp
00000000 l    df *ABS*	00000000 Print.cpp
000127dc l     F .text.itcm	0000007e _ZN5Print11printNumberEmhh.part.0
00000000 l    df *ABS*	00000000 IPAddress.cpp
00000000 l    df *ABS*	00000000 printf.c
00012920 l     F .text.itcm	00000008 _out_buffer
00012928 l     F .text.itcm	00000002 _out_null
0001292c l     F .text.itcm	00000088 _out_rev
000129b4 l     F .text.itcm	000001de _ntoa_format
00012b94 l     F .text.itcm	00000098 _ntoa_long
00012c2c l     F .text.itcm	000000c6 _ntoa_long_long
00012cf8 l     F .text.itcm	00000338 _etoa
00013030 l     F .text.itcm	0000037c _ftoa
20000380 l     O .data	00000050 pow10.0
00000000 l    df *ABS*	00000000 usb_inst.cpp
00000000 l    df *ABS*	00000000 delay.c
00000000 l    df *ABS*	00000000 SparkMaxPWM.cpp
00000000 l    df *ABS*	00000000 FlightController.cpp
00000000 l    df *ABS*	00000000 atexit_arm.o
00000000 l    df *ABS*	00000000 tree.o
00014992 l     F .text.itcm	0000002a _ZStL25local_Rb_tree_rotate_leftPSt18_Rb_tree_node_baseRS0_
000149bc l     F .text.itcm	0000002a _ZStL26local_Rb_tree_rotate_rightPSt18_Rb_tree_node_baseRS0_
000149e6 l     F .text.itcm	0000002e _ZStL23local_Rb_tree_decrementPSt18_Rb_tree_node_base
00000000 l    df *ABS*	00000000 functexcept.o
00000000 l    df *ABS*	00000000 string-inst.o
00000000 l    df *ABS*	00000000 _aeabi_uldivmod.o
00000000 l    df *ABS*	00000000 _udivmoddi4.o
00000000 l    df *ABS*	00000000 _dvmd_tls.o
00000000 l    df *ABS*	00000000 libc_a-init.o
00000000 l    df *ABS*	00000000 libc_a-strcmp.o
00000000 l    df *ABS*	00000000 libc_a-strcpy.o
00000000 l    df *ABS*	00000000 libc_a-printf.o
00000000 l    df *ABS*	00000000 libc_a-nano-vfprintf.o
00014ecc l     F .text.itcm	0000002e __sfputc_r
00000000 l    df *ABS*	00000000 libc_a-wbuf.o
00000000 l    df *ABS*	00000000 libc_a-wsetup.o
00000000 l    df *ABS*	00000000 libc_a-nano-vfprintf_i.o
00000000 l    df *ABS*	00000000 libc_a-fflush.o
00000000 l    df *ABS*	00000000 libc_a-memchr.o
00000000 l    df *ABS*	00000000 libc_a-memcpy-stub.o
00000000 l    df *ABS*	00000000 libc_a-strlen.o
00000000 l    df *ABS*	00000000 libc_a-malloc.o
00000000 l    df *ABS*	00000000 libc_a-mallocr.o
0001581c l     F .text.itcm	00000040 sbrk_aligned
00000000 l    df *ABS*	00000000 libc_a-strncmp.o
00000000 l    df *ABS*	00000000 libc_a-cxa_atexit.o
00000000 l    df *ABS*	00000000 libc_a-findfp.o
00015988 l     F .text.itcm	00000048 std
000159d0 l     F .text.itcm	00000018 stdio_exit_handler
000159e8 l     F .text.itcm	00000040 cleanup_stdio
00015a28 l     F .text.itcm	0000003c global_stdio_init.part.0
00000000 l    df *ABS*	00000000 libc_a-snprintf.o
00000000 l    df *ABS*	00000000 libc_a-sprintf.o
00000000 l    df *ABS*	00000000 libc_a-stdio.o
00000000 l    df *ABS*	00000000 libc_a-mlock.o
00000000 l    df *ABS*	00000000 libc_a-atoi.o
00000000 l    df *ABS*	00000000 libc_a-realloc.o
00000000 l    df *ABS*	00000000 libc_a-sbrkr.o
00000000 l    df *ABS*	00000000 libc_a-writer.o
00000000 l    df *ABS*	00000000 libc_a-errno.o
00000000 l    df *ABS*	00000000 libc_a-fwalk.o
00000000 l    df *ABS*	00000000 libc_a-memcmp.o
00000000 l    df *ABS*	00000000 libc_a-memmove.o
00000000 l    df *ABS*	00000000 libc_a-memset.o
00000000 l    df *ABS*	00000000 libc_a-strcasecmp.o
00000000 l    df *ABS*	00000000 libc_a-reallocr.o
00000000 l    df *ABS*	00000000 libc_a-freer.o
00000000 l    df *ABS*	00000000 libc_a-strtol.o
00015e28 l     F .text.itcm	00000104 _strtol_l.constprop.0
00000000 l    df *ABS*	00000000 libc_a-lock.o
00000000 l    df *ABS*	00000000 libc_a-makebuf.o
00000000 l    df *ABS*	00000000 libc_a-nano-svfprintf.o
00000000 l    df *ABS*	00000000 libc_a-closer.o
00000000 l    df *ABS*	00000000 libc_a-fstatr.o
00000000 l    df *ABS*	00000000 libc_a-isattyr.o
00000000 l    df *ABS*	00000000 libc_a-lseekr.o
00000000 l    df *ABS*	00000000 libc_a-readr.o
00000000 l    df *ABS*	00000000 libc_a-msizer.o
00000000 l    df *ABS*	00000000 ip4_addr.c
00000000 l    df *ABS*	00000000 libc_a-impure.o
60002078 l     F .text.code	00000008 __err_to_errno_veneer
60002080 l     F .text.code	00000008 ___ZN6StringaSEPKc_veneer
60002088 l     F .text.code	00000008 ___ZN6StringD1Ev_veneer
60002090 l     F .text.code	00000008 __memset_veneer
60002098 l     F .text.code	00000008 ____errno_veneer
600020a0 l     F .text.code	00000008 __qnethernet_hal_init_rand_veneer
600020a8 l     F .text.code	00000008 __set_arm_clock_veneer
600020b0 l     F .text.code	00000008 __main_veneer
600020b8 l     F .text.code	00000008 ___ZN6StringC1EPKc_veneer
600020c0 l     F .text.code	00000008 __delay_veneer
600020c8 l     F .text.code	00000008 __pwm_init_veneer
600020d0 l     F .text.code	00000008 __sm_set_pool_veneer
600020d8 l     F .text.code	00000008 ____libc_init_array_veneer
600020e0 l     F .text.code	00000008 ___ZN9qindesign7network13EthernetClass3endEv_veneer
600020e8 l     F .text.code	00000008 __usb_init_serialnumber_veneer
600020f0 l     F .text.code	00000008 __mdns_resp_remove_netif_veneer
00016378 l     F .text.itcm	00000008 ___ZN9qindesign7network13EthernetClassD1Ev_veneer
00016380 l     F .text.itcm	00000008 ___ZN9qindesign7network13EthernetClassC1Ev_veneer
00016388 l     F .text.itcm	00000008 ___reboot_Teensyduino__veneer
00016390 l     F .text.itcm	00000008 ___ZN9qindesign7network9MDNSClassC1Ev_veneer
00016398 l     F .text.itcm	00000008 __trng_init_veneer
000163a0 l     F .text.itcm	00000008 ___ZN9qindesign8security12RandomDeviceC1Ev_veneer
000163a8 l     F .text.itcm	00000008 ___init_veneer
600017ec g     F .text.code	00000028 trng_deinit
00014ae4 g     F .text.itcm	00000006 _ZSt20__throw_length_errorPKc
0000774c g     F .text.itcm	00000024 _ZN7VL53L1XC1Ev
20003dbc g     O .bss	00000004 call0
000009e0  w    F .text.itcm	0000003a _ZN7SDClass5mkdirEPKc
00009da0 g     F .text.itcm	000000b4 _ZN7FatFile13makeUniqueSfnEP8FatLfn_t
00014890 g     F .text.itcm	000000b8 main
00014ade g     F .text.itcm	00000006 _ZSt19__throw_logic_errorPKc
00003bc4  w    F .text.itcm	00000040 qnethernet_hal_check_core_locking
0000c818  w    F .text.itcm	00000004 _ZN16DedicatedSpiCard14isDedicatedSpiEv
000122d0 g     F .text.itcm	00000002 usb_serial_reset
0000e328 g     F .text.itcm	000000ae _ZN9ExFatFile13addDirClusterEv
20003dc4 g     O .bss	00000004 call2
00015c0c g     F .text.itcm	00000020 _sbrk_r
00009630 g     F .text.itcm	0000009a _ZN12FatPartition15allocateClusterEmPm
00014554 g     F .text.itcm	00000004 _ZN16FlightController16set_control_modeE11ControlMode
00015c2c g     F .text.itcm	00000024 _write_r
20003dc0 g     O .bss	00000004 call1
00015c98 g     F .text.itcm	00000020 memcmp
00001508  w    F .text.itcm	00000008 _ZN5Debug5writeEPKhj
20003aec g     O .bss	00000004 _ZN14EventResponder10firstYieldE
00005de0 g     F .text.itcm	0000001c tcp_seg_free
00016340 g     F .text.itcm	00000024 _read_r
20004018 g     O .bss	0000000c motorR
20002f78 g     O .bss	000004d4 SD
00015c50 g     F .text.itcm	0000000c __errno
0000de64 g     F .text.itcm	0000004c _ZN9ExFatFile7cmpNameEPK9DirName_tP8ExName_t
000001bc g     F .text.itcm	000000dc _Z15_spi_dma_rxISR0v
2000437c g     O .bss	00000001 _ZN19HardwareSerialIMXRT34s_count_serials_with_serial_eventsE
20004048 g     O .bss	00000004 original_svc_isr
0000f56c g     F .text.itcm	000000e0 _ZN14ExFatPartition4initEP22FsBlockDeviceInterfaceh
0000ba48 g     F .text.itcm	000000b8 _ZN8SdioCard9writeStopEv
00003d20  w    F .text.itcm	00000018 _ZN10StaticInitIN9qindesign8security12RandomDeviceEED2Ev
000088f8 g     F .text.itcm	00000084 _ZN10FsBaseFileC2ERKS_
000070e4 g     F .text.itcm	0000002c ip4_output_if
000116bc  w    F .text.itcm	00000004 abort
20003f1c g     O .bss	00000004 errno
00005ce4 g     F .text.itcm	00000054 netif_set_down
000017b8 g     F .text.itcm	00000030 _Z9countBitsi
20000ea8  w    O .data	00000010 _ZZN8SPIClass16beginTransactionE11SPISettingsE7clk_sel
20002410 g     O .data	00000008 gdb_timer
00003b60 g     F .text.itcm	00000026 _ZN9qindesign7network9DNSClient9setServerEiRK9IPAddress
20000d24  w    O .data	00000024 _ZTV6FsFile
000160bc g     F .text.itcm	000001fc _svfprintf_r
0000d888 g     F .text.itcm	0000002c _ZN9ExFatFile4peekEv
00015bfc g     F .text.itcm	00000010 realloc
0000a450 g     F .text.itcm	0000001e _ZN7FatFile5closeEv
60002160 g       .text.code	00000000 __init_array_end
00010a34 g     F .text.itcm	00000104 _ZN13IntervalTimer11beginCyclesEN6teensy16inplace_functionIFvvELj16ELj8EEEm
000162d8 g     F .text.itcm	00000024 _fstat_r
00005064 g     F .text.itcm	000000ac mdns_build_request_domain
0000f300 g     F .text.itcm	00000036 _ZN14ExFatPartition8dirCacheEP8DirPos_th
00005a5c g     F .text.itcm	0000006e pbuf_take_at
00008c94 g     F .text.itcm	00000110 _ZN7FatFile8getName8EPcj
0000caa4 g     F .text.itcm	0000006e _ZN13SharedSpiCard8readStopEv
0000d5dc g     F .text.itcm	00000022 _ZN9ExFatFile17getCreateDateTimeEPtS0_
0000b318 g     F .text.itcm	00000028 _ZN18SdSpiArduinoDriver5beginE11SdSpiConfig
00004dbc g     F .text.itcm	000000d0 mdns_build_reverse_v4_domain
0000f440 g     F .text.itcm	000000be _ZN14ExFatPartition9freeChainEm
20000b54 g     O .data	00000070 _ZN8SPIClass24spiclass_lpspi4_hardwareE
200039cc g     O .bss	00000004 _ZN10FsDateTime8callbackE
0000225c g     F .text.itcm	00000008 _ZN5Debug11setRegisterEPKcm
00004220 g     F .text.itcm	00000058 udp_sendto_if
20002370 g     O .data	00000004 _ZN13IntervalTimer14nvic_prioritesE
00010860 g     F .text.itcm	00000070 pinMode
00002290  w    F .text.itcm	00000002 _ZZN6teensy23inplace_function_detail6vtableIvJEEC4IPFvvEEENS0_7wrapperIT_EEENUlPvE2_4_FUNES9_
20000dc8 g     O .data	00000030 _ZTV7SDClass
20004220 g     O .bss	00000004 stack
00000298  w    F .text.itcm	0000002c _ZN8SPIClassC2Ejj
200043c0 g       .bss	00000000 _ebss
0000856c g     F .text.itcm	000000a4 _ZN5FsUtf6cpToMbEmPcS0_
00015f42 g     F .text.itcm	00000002 __retarget_lock_release_recursive
60001a3c g     F .text.code	00000002 startup_default_early_hook
00005e88 g     F .text.itcm	000000d4 tcp_pcb_remove
0000df7c g     F .text.itcm	0000006a _ZN9ExFatFile8hashNameEP8ExName_t
00014b30  w    F .text.itcm	00000010 _ZNSt7__cxx1112basic_stringIcSt11char_traitsIcESaIcEE10_M_disposeEv
2000400c g     O .bss	0000000c motorL
00013a4c  w    F .text.itcm	00000004 _ZN17usb_serial2_class5flushEv
00002294  w    F .text.itcm	0000000c _ZN13IntervalTimerD2Ev
0000159c g     F .text.itcm	000001d4 _Z15print_registersv
0000e810 g     F .text.itcm	00000280 _ZN9ExFatFile5writeEPKvj
00013a44  w    F .text.itcm	00000004 _ZN17usb_serial2_class4readEv
20000e98  w    O .data	00000010 _ZZN6teensy16inplace_functionIFvvELj16ELj8EEC4IRS1_PS1_vEEOT_E2vt
000112f4 g     F .text.itcm	00000070 analogWriteFrequency
0000a1c0 g     F .text.itcm	00000110 _ZN7FatFile6removeEv
000049c4 g     F .text.itcm	00000090 mdns_send_outpacket
00002194 g     F .text.itcm	0000005c _ZN5Debug13setBreakpointEPv
0000381c g     F .text.itcm	00000134 _Z15processGDBinputv
00000298  w    F .text.itcm	0000002c _ZN8SPIClassC1Ejj
000060d4 g     F .text.itcm	00000022 tcp_eff_send_mss_netif
00002b14 g     F .text.itcm	00000158 _Z9process_GPKcPc
000141e0  w    F .text.itcm	00000064 _ZNSt7__cxx1112basic_stringIcSt11char_traitsIcESaIcEEC1IS3_EEPKcRKS3_
000035dc g     F .text.itcm	00000078 _Z9process_FPKcPc
00014610 g     F .text.itcm	0000000a _ZN16FlightController6updateEv
20004044 g     O .bss	00000004 original_software_isr
00010d98 g     F .text.itcm	00000044 _ZN14EventResponder16runFromInterruptEv
00007870 g     F .text.itcm	00000078 _ZN7VL53L1X7readRegENS_7regAddrE
0001c000 g       *ABS*	00000000 _flashimagelen
0000b398 g     F .text.itcm	00000016 _ZN18SdSpiArduinoDriver7receiveEv
000160bc g     F .text.itcm	000001fc _svfiprintf_r
000070c0 g     F .text.itcm	00000022 ip4_output_if_src
202065d8 g     O .bss.dma	00000100 memp_memory_TCP_SEG_base
20002f68 g     O .bss	00000010 FastLED
0000fb9c g     F .text.itcm	0000000c _Z10lpi2c4_isrv
00015aac g     F .text.itcm	00000068 snprintf
000163b0 g     F .fini	00000000 _fini
0000f6e8  w    F .text.itcm	0000006c _ZN7TwoWireC1EP13IMXRT_LPI2C_tRKNS_14I2C_Hardware_tE
00014ad8 g     F .text.itcm	00000006 _ZSt17__throw_bad_allocv
0000f6ac g     F .text.itcm	0000003c _ZN7TwoWire5writeEPKhj
00014738 g     F .text.itcm	00000040 _ZN5VL53L4initEv
00005b70 g     F .text.itcm	00000038 netif_get_by_index
000104d8 g     F .text.itcm	0000001c usb_receive
0000aff8 g     F .text.itcm	0000000c _ZN7FatFile4syncEv
000005d8  w    F .text.itcm	00000002 _ZN7SDClassD1Ev
0000d2f0  w    F .text.itcm	00000076 _ZN13SharedSpiCard7readCSDEP5csd_t
0000cb6c g     F .text.itcm	000000e8 _ZN13SharedSpiCard11cardCommandEhm
00001c1c g     F .text.itcm	00000064 _Z12call_nmi_isrv
0000e190 g     F .text.itcm	00000138 _ZN9ExFatFile7syncDirEv
0000bf84 g     F .text.itcm	000003e0 _ZN8SdioCard5beginE10SdioConfig
20003a30 g     O .bss	00000004 _ZN10StaticInitIN9qindesign7network9MDNSClassEE2pTE
60001a3c  w    F .text.code	00000002 startup_early_hook
00014734 g     F .text.itcm	00000002 _ZN5VL53LC2Ev
20000e1c g     O .data	00000070 _ZTV8SdioCard
000024f0 g     F .text.itcm	0000003c _Z12getDebugCharv
00014e84 g     F .text.itcm	00000014 strcmp
60002200  w    O .text.progmem	00000050 _ZN7TwoWire13i2c1_hardwareE
000096cc g     F .text.itcm	00000024 _ZN12FatPartition6fatGetEmPm
00013a54  w    F .text.itcm	00000008 _ZN17usb_serial2_class5writeEPKhj
20000bf0  w    O .data	00000024 _ZTV10StreamFileI10FsBaseFileyE
000036ac g     F .text.itcm	00000170 _Z14processCommandPcS_
00011de4 g     F .text.itcm	00000060 tempmonGetTemp
20004397 g     O .bss	00000001 usb_cdc2_line_rtsdtr
0000cb14 g     F .text.itcm	00000018 _ZN13SharedSpiCard10syncDeviceEv
00015154 g     F .text.itcm	0000007a __swbuf_r
200023f4 g     O .data	00000004 _impure_ptr
00001188  w    F .text.itcm	000000b0 _ZN4FileD0Ev
00007198 g     F .text.itcm	000001d4 ip4_frag
0000f89c g     F .text.itcm	000000fc _ZN7TwoWire15endTransmissionEh
20003ad4 g     O .bss	00000004 _ZN10StaticInitIN9qindesign8security12RandomDeviceEE13nifty_counterE
00015b14 g     F .text.itcm	00000040 siprintf
000163b4 g       .ARM.exidx	00000000 __exidx_start
20003b84 g     O .bss	00000004 __malloc_sbrk_start
00013a3c  w    F .text.itcm	00000004 _ZN17usb_serial2_class5clearEv
0000c70c g     F .text.itcm	000000f4 _ZN8SdioCard11writeSectorEmPKh
00005bfc g     F .text.itcm	000000e8 netif_set_addr
00008c00 g     F .text.itcm	00000094 _ZN7FatFile6getSFNEPcj
00000000 g       .text.itcm	00000000 _stext
00010ca0 g     F .text.itcm	00000074 usb_rawhid_configure
00013a24  w    F .text.itcm	00000004 _ZN16usb_serial_class5flushEv
00015cec g     F .text.itcm	00000010 memset
000030ac g     F .text.itcm	00000046 _Z11getNextWordPPc
00004794 g     F .text.itcm	00000230 mdns_create_outpacket
00005518 g     F .text.itcm	00000036 pbuf_alloced_custom
60001000 g     O .text.headers	00000020 ImageVectorTable
20280000 g       .text.csf	00000000 _heap_end
20206240 g     O .bss.dma	00000100 memp_memory_SYS_TIMEOUT_base
0001535c g     F .text.itcm	00000244 _printf_i
00000f74  w    F .text.itcm	00000014 _ZN6SDFile5writeEPKvj
0000eb6c g     F .text.itcm	000000b0 _ZN14ExFatFormatter11writeUpcaseEm
70000000 g       .bss.extram	00000000 _extram_end
20003efc g     O .bss	00000004 dev
0001041c g     F .text.itcm	00000064 usb_config_tx
000002c4 g     F .text.itcm	00000234 _ZN8SPIClass5beginEv
20003eec g     O .bss	00000004 debugenabled
000104f8 g     F .text.itcm	000002f0 set_arm_clock
2000430c g     O .bss	00000004 temp_breakpoint2
20004224 g     O .bss	00000080 sw_breakpoint_addr
000054c0 g     F .text.itcm	00000058 pbuf_alloc_reference
20002394 g     O .data	00000004 __brkval
00002604 g     F .text.itcm	00000080 _Z10sendResultPKc
2000439a g     O .bss	00000001 usb_high_speed
00010b38 g     F .text.itcm	00000070 _ZN13IntervalTimer3endEv
20003ae0 g     O .bss	00000008 _ZN11BuffEncoder10m_settingsE
60001a48 g     F .text.code	00000004 startup_debug_reset
0000cfd0 g     F .text.itcm	00000068 _ZN13SharedSpiCard9readStartEm
000116ac  w    F .text.itcm	00000004 _isatty
00000e20  w    F .text.itcm	00000018 _ZN6SDFile4readEPvj
00005dfc g     F .text.itcm	0000008a tcp_pcb_purge
000104f4 g     F .text.itcm	00000004 usb_transfer_status
0000a470 g     F .text.itcm	00000052 _ZN7FatFile8dirEntryEP8DirFat_t
00013a14  w    F .text.itcm	00000004 _ZN16usb_serial_class5clearEv
20003dc8 g     O .bss	00000004 call3
000157fc g     F .text.itcm	00000010 malloc
00004d74 g     F .text.itcm	00000046 mdns_domain_add_domain
0000a670 g     F .text.itcm	000000ea _ZN7FatFile5mkdirEPS_PKcb
200023a8 g     O .data	0000004c _impure_data
000108d0 g     F .text.itcm	000000b0 analogRead
20002464  w    O .data	00000016 usb_string_serial_number
60001a4c g     F .text.code	00000110 configure_cache
0000c800  w    F .text.itcm	00000006 _ZN15SdCardInterface6statusEv
000004f8 g     F .text.itcm	00000008 _ZN8SPIClass8transferEPKvPvj
20000df8 g     O .data	00000024 _ZTV7TwoWire
00007b50 g     F .text.itcm	00000108 _ZN7VL53L1X15setDistanceModeENS_12DistanceModeE
00015cb8 g     F .text.itcm	00000034 memmove
20003b60 g     O .bss	00000004 _ZN9qindesign8security12randomDeviceE
0000f3bc g     F .text.itcm	00000042 _ZN14ExFatPartition6fatGetEmPm
00006598 g     F .text.itcm	00000070 tcp_send_empty_ack
00010988  w    F .text.itcm	00000002 _ZZN6teensy23inplace_function_detail6vtableIvJEEC4EvENUlPvS3_E1_4_FUNES3_S3_
000127a0 g     F .text.itcm	00000004 _Znwj
00003fb0 g     F .text.itcm	0000000c inet_chksum
20004304 g     O .bss	00000004 tcp_tw_pcbs
00010d14 g     F .text.itcm	00000084 _ZN14EventResponder24triggerEventNotImmediateEv
000018e8 g     F .text.itcm	00000094 _Z17setBreakPointNextmm
00000e38  w    F .text.itcm	00000038 _ZN10StreamFileI10FsBaseFileyE4readEv
000156fc g     F .text.itcm	00000028 fflush
70000000 g       .bss.extram	00000000 _extram_start
6001c000 g       .text.csf	00000000 __text_csf_end
00001830 g     F .text.itcm	00000080 _Z17instructionBranchPvPi
20003b20 g     O .bss	00000004 _ZN9FatVolume5m_cwvE
00015948 g     F .text.itcm	00000024 strncmp
20004381 g     O .bss	00000001 __lock___malloc_recursive_mutex
000086f4 g     F .text.itcm	000000b8 _Z8toUpcaset
00002e10 g     F .text.itcm	00000070 _Z14isValidAddressmi
20004300 g     O .bss	00000004 tcp_ticks
00002c6c g     F .text.itcm	000001a4 _Z9process_PPKcPc
0000e3d8 g     F .text.itcm	000000a2 _ZN9ExFatFile6renameEPS_PKc
000005bc  w    F .text.itcm	00000004 _ZN5Print17availableForWriteEv
000125a0 g     F .text.itcm	0000002c usb_serial_putchar
20003f58 g     O .bss	00000080 hc_breakpoint_enabled
000061dc g     F .text.itcm	0000004c mem_free
600020f8 g       .text.code	00000000 __preinit_array_end
000087ac g     F .text.itcm	00000056 _ZN7FsCache4syncEv
00014544 g     F .text.itcm	0000000e _ZN16FlightControllerC2ER11SparkMaxPWMS1_R5VL53L
00000f60  w    F .text.itcm	00000014 _ZN10StreamFileI10FsBaseFileyE5flushEv
20004380  w    O .bss	00000001 _ZZN6SDFile4nameEvE8zeroterm
00014e98 g     F .text.itcm	00000010 strcpy
000107e8 g     F .text.itcm	00000054 digitalWrite
0000b8ac g     F .text.itcm	0000007c _ZN8SdioCard6isBusyEv
00001e84 g     F .text.itcm	00000048 _Z10svcall_isrv
0000a4e4 g     F .text.itcm	00000020 _ZN7FatFile17getModifyDateTimeEPtS0_
00003cf4 g     F .text.itcm	0000002a entropy_random
20000c90  w    O .data	00000028 _ZTV16usb_serial_class
000075c4  w    F .text.itcm	00000020 _ZN14EventResponderD2Ev
00013a34  w    F .text.itcm	00000006 _ZN16usb_serial_class5writeEh
0000525c g     F .text.itcm	0000000c get_mdns_pcb
000008d4  w    F .text.itcm	00000052 _ZN7SDClass5rmdirEPKc
00001c88 g     F .text.itcm	00000064 _Z19call_hard_fault_isrv
0000d448 g     F .text.itcm	00000068 _ZN13SharedSpiCard9writeDataEPKh
20003a2c g     O .bss	00000004 _ZN10StaticInitIN9qindesign7network9MDNSClassEE13nifty_counterE
0000c80c  w    F .text.itcm	00000004 _ZNK13SharedSpiCard9errorDataEv
200042ec g     O .bss	00000004 systick_safe_read
0000937c  w    F .text.itcm	00000044 _ZN22FsBlockDeviceInterface19readSectorsCallbackEmPhjPFvmS0_PvES1_
00011af4 g     F .text.itcm	000000e0 usb_serial2_read
0000c890  w    F .text.itcm	00000006 _ZN13SharedSpiCard3endEv
0000cf34 g     F .text.itcm	0000009c _ZN13SharedSpiCard11sectorCountEv
0001596c g     F .text.itcm	0000001c __cxa_atexit
0001277c g     F .text.itcm	00000022 _ZN6StringaSEPKc
0000d600 g     F .text.itcm	00000022 _ZN9ExFatFile17getModifyDateTimeEPtS0_
00011694  w    F .text.itcm	00000004 _read
0000b5d0 g     F .text.itcm	00000010 _ZN8SdioCard7readOCREPm
60002160  w    O .text.progmem	00000050 _ZN7TwoWire13i2c4_hardwareE
20004340 g     O .bss	00000004 udp_pcbs
00011e44 g     F .text.itcm	00000058 usb_init_serialnumber
00000025 g       *ABS*	00000000 _teensy_model_identifier
00015f90 g     F .text.itcm	00000078 __smakebuf_r
0000b450  w    F .text.itcm	00000002 _ZN8SdioCard3endEv
0000d094 g     F .text.itcm	00000074 _ZN16DedicatedSpiCard19readSectorsCallbackEmPhjPFvmS0_PvES1_
00014778 g     F .text.itcm	00000018 _ZN5VL53L11getDistanceEv
000089a4 g     F .text.itcm	000000ae _ZN10FsBaseFile4openEP8FsVolumePKci
0001585c g     F .text.itcm	000000ec _malloc_r
0000fd48 g     F .text.itcm	0000002c usb_stop_sof_interrupts
0000f208 g     F .text.itcm	000000aa _ZN14ExFatPartition12bitmapModifyEmmb
00013b0c g     F .text.itcm	00000054 micros
00014aec  w    F .text.itcm	00000044 _ZNSt7__cxx1112basic_stringIcSt11char_traitsIcESaIcEE9_M_createERjj
000116a0  w    F .text.itcm	0000000a _fstat
20000ce0  w    O .data	0000002c _ZTV4File
0000741c g     F .text.itcm	00000028 memp_free
00004324 g     F .text.itcm	0000000e mdns_multicast_timeout_reset_ipv4
00015d30 g     F .text.itcm	0000005e _realloc_r
20004385 g     O .bss	00000001 external_psram_size
0000e130 g     F .text.itcm	0000005e _ZN9ExFatFile5rmdirEv
0000b974 g     F .text.itcm	000000d4 _ZN8SdioCard10writeStartEm
200042fc g     O .bss	00000004 tcp_listen_pcbs
6000206c g     F .text.code	00000000 _init
000000e0 g     F .text.itcm	000000dc _Z15_spi_dma_rxISR1v
0000b5e0  w    F .text.itcm	00000002 _ZN8SdioCardD2Ev
0000bc1c g     F .text.itcm	000000fc _ZN8SdioCard5eraseEmm
00011228 g     F .text.itcm	000000cc analogWrite
20003adc g     O .bss	00000001 _ZN10StaticInitIN9qindesign8security12RandomDeviceEE3bufE
00013a1c  w    F .text.itcm	00000004 _ZN16usb_serial_class4readEv
20002464 g     O .data	00000016 usb_string_serial_number_default
00003c3c g     F .text.itcm	000000b8 trng_data
0000d6e8 g     F .text.itcm	0000019e _ZN9ExFatFile4readEPvj
00011cc0 g     F .text.itcm	0000002c usb_serial2_putchar
20002418 g     O .data	00000010 int2hex
200039d4 g     O .bss	00000004 _ZN10StaticInitIN9qindesign7network13EthernetClassEE2pTE
0000aad8 g     F .text.itcm	00000044 _ZN7FatFile12readDirCacheEb
0000071c  w    F .text.itcm	0000003c _ZN6SDFile8truncateEy
0000cec0 g     F .text.itcm	00000074 _ZN13SharedSpiCard12readRegisterEhPv
00001100  w    F .text.itcm	00000040 _ZN6SDFileD2Ev
0000f64c g     F .text.itcm	00000018 _ZN14ExFatPartition10rootLengthEv
00001770 g     F .text.itcm	00000048 _Z14getRegisterNumi
00000de4  w    F .text.itcm	0000003c _ZN7SDClass9totalSizeEv
20004024 g     O .bss	00000004 netif_default
2020bca0 g     O .bss.dma	000000ad usb_descriptor_buffer
0000e2c8 g     F .text.itcm	0000005e _ZN9ExFatFile4syncEv
200042f0 g     O .bss	00000004 tcp_active_pcbs
0000252c g     F .text.itcm	0000007c _Z7devInitP6Stream
000151d0 g     F .text.itcm	000000b0 __swsetup_r
2000437b g     O .bss	00000001 _ZN14EventResponder16runningFromYieldE
60001828 g     F .text.code	00000044 _ZN9qindesign7network13EthernetClassC1Ev
20001924 g     O .data	0000000c memp_TCP_SEG
0000a504 g     F .text.itcm	0000016a _ZN7FatFile5mkdirEPS_P8FatLfn_t
00004fa8 g     F .text.itcm	000000bc mdns_build_service_domain
0000b5f4 g     F .text.itcm	0000001c _ZNK8SdioCard4typeEv
0000c5cc g     F .text.itcm	00000030 _ZN8SdioCard10syncDeviceEv
000116b0  w    F .text.itcm	00000006 _lseek
00001d60 g     F .text.itcm	00000064 _Z18call_bus_fault_isrv
00011d04 g     F .text.itcm	0000004c usb_serial2_write_buffer_free
00003ad0 g     F .text.itcm	00000040 _ZN9qindesign7network9MDNSClass3endEv
0000f338 g     F .text.itcm	00000082 _ZN14ExFatPartition7dirSeekEP8DirPos_tm
00006eec g     F .text.itcm	00000034 ip4_route
0000b150 g     F .text.itcm	000001b4 _ZN7FatFile5writeEPKvj
0000b004 g     F .text.itcm	000000d8 _ZN7FatFile9timestampEhthhhhh
00007e54 g     F .text.itcm	00000060 _ZN7VL53L1X22setupManualCalibrationEv
60001020 g     O .text.headers	0000000c BootData
200042e4 g     O .bss	00000004 systick_cycle_count
00010480 g     F .text.itcm	00000030 usb_prepare_transfer
0000ae48 g     F .text.itcm	000000e2 _ZN7FatFile15openCachedEntryEPS_tih
000163b8 g       .text.itcm	00000000 _etext
000162b8 g     F .text.itcm	00000020 _close_r
000039b0 g     F .text.itcm	0000006c _Z8gdb_initP6Stream
20001bb0 g     O .data	000000dc pwm_pin_info
20000a64  w    O .data	00000010 _ZN6teensy23inplace_function_detail12empty_vtableIvJEEE
00002288  w    F .text.itcm	00000006 _ZZN6teensy23inplace_function_detail6vtableIvJEEC4IPFvvEEENS0_7wrapperIT_EEENUlPvS9_E1_4_FUNES9_S9_
2000193c g     O .data	00000028 memp_pools
00013ee8  w    F .text.itcm	00000034 _ZNSt3mapINSt7__cxx1112basic_stringIcSt11char_traitsIcESaIcEEEhSt4lessIS5_ESaISt4pairIKS5_hEEED2Ev
00001370 g     F .text.itcm	00000110 _ZN7SDClass12mediaPresentEv
00012894 g     F .text.itcm	00000040 _ZN5Print6printfEPKcz
200018d0 g     O .data	0000000c memp_IGMP_GROUP
00013b60 g     F .text.itcm	00000016 _ZN11SparkMaxPWMC1Ei
0001119c g     F .text.itcm	0000008c quadtimerFrequency
00008ac8 g     F .text.itcm	000000e4 _ZN8FsVolume5beginEP22FsBlockDeviceInterfacebh
20000c14  w    O .data	0000000c _ZTV14EventResponder
00010ed8 g     F .text.itcm	00000062 ultoa
000092c8 g     F .text.itcm	000000b4 _ZN12FatFormatter6formatEP22FsBlockDeviceInterfacePhP5Print
00003a34  w    F .text.itcm	0000009c _ZN10StaticInitIN9qindesign7network9MDNSClassEED2Ev
000042d0 g     F .text.itcm	00000038 udp_netif_ip_addr_changed
0000708c g     F .text.itcm	00000032 ip4_output_if_opt
20000a74 g     O .data	00000070 _ZN8SPIClass24spiclass_lpspi1_hardwareE
0000cb2c g     F .text.itcm	00000040 _ZN16DedicatedSpiCard15setDedicatedSpiEb
20003afc g     O .bss	00000020 _ZN19HardwareSerialIMXRT28s_serials_with_serial_eventsE
00000590  w    F .text.itcm	0000000c _ZN7TwoWire9availableEv
00010eb8 g     F .text.itcm	00000020 systick_isr
60001814 g     F .text.code	00000012 _ZN9qindesign8security12RandomDeviceC1Ev
200039d8 g     O .bss	00000054 _ZN10StaticInitIN9qindesign7network13EthernetClassEE3bufE
00011cec g     F .text.itcm	00000018 usb_serial2_write
600018ac g     F .text.code	000000e8 usb_init
00003c04  w    F .text.itcm	00000012 qnethernet_hal_init_rand
20003fd8 g     O .bss	00000004 lastpc
60002284 g     O .text.progmem	000000ad usb_config_descriptor_12
0000eab0 g     F .text.itcm	0000002e _ZN14ExFatFormatter10syncUpcaseEv
0000628c g     F .text.itcm	0000005c sys_timeout
20000000 g       .data	00000000 _sdata
0000c460 g     F .text.itcm	000000d4 _ZN8SdioCard9readStartEm
0000d038 g     F .text.itcm	0000005c _ZN16DedicatedSpiCard11readSectorsEmPhj
200042e8 g     O .bss	00000004 systick_millis_count
0000b444  w    F .text.itcm	00000004 _ZN15SdCardInterface15hasDedicatedSpiEv
aaaaaabf g       *ABS*	00000000 _flexram_bank_config
00013a64 g     F .text.itcm	000000a8 delay
00015d90 g     F .text.itcm	00000098 _free_r
20002800 g     O .data	000002c0 _VectorsRam
00000500 g     F .text.itcm	00000048 _ZN8SPIClass3endEv
00003950 g     F .text.itcm	00000060 _Z10processGDBv
60001728 g     F .text.code	000000c4 trng_init
0000f680 g     F .text.itcm	0000002a _ZN7TwoWire5writeEh
00003ba0  w    F .text.itcm	0000000c qnethernet_hal_millis
0000b44c  w    F .text.itcm	00000004 _ZN15SdCardInterface15setDedicatedSpiEb
00004a54 g     F .text.itcm	000000bc mdns_start_multicast_timeouts_ipv4
0000d108 g     F .text.itcm	00000068 _ZN16DedicatedSpiCard10readSectorEmPh
0000588c g     F .text.itcm	00000016 pbuf_ref
200042f4 g     O .bss	00000004 tcp_bound_pcbs
2000247d g     O .data	00000001 analog_write_res
2000216c g     O .data	00000084 usb_descriptor_list
0000d4b0 g     F .text.itcm	00000098 _ZN13SharedSpiCard11writeSectorEmPKh
00015aac g     F .text.itcm	00000068 sniprintf
00011c18 g     F .text.itcm	00000018 usb_serial2_available
20000000 g     O .data	00000380 endpoint_queue_head
0000f754 g     F .text.itcm	00000108 _ZN7TwoWire11force_clockEv
200018dc g     O .data	0000000c memp_PBUF
00013b98 g     F .text.itcm	00000078 _ZN11SparkMaxPWM8setSpeedEf
000125e4 g     F .text.itcm	00000050 usb_serial_write_buffer_free
000123d4 g     F .text.itcm	000000e0 usb_serial_read
0000b570 g     F .text.itcm	0000000c _ZNK8SdioCard9errorCodeEv
00015280 g     F .text.itcm	000000da _printf_common
00003f3c g     F .text.itcm	00000074 lwip_standard_chksum
0000a8cc g     F .text.itcm	0000003a _ZN7FatFile8openRootEP9FatVolume
00014e38  w    F .text.itcm	00000002 .hidden __aeabi_ldiv0
00001500  w    F .text.itcm	00000004 _ZN5Debug17availableForWriteEv
20200040 g     O .bss.dma	00000140 memp_memory_UDP_PCB_base
00015f44 g     F .text.itcm	0000004c __swhatbuf_r
00007110 g     F .text.itcm	00000044 autoip_network_changed_link_down
2000239c g     O .data	0000000c __sglue
00012704 g     F .text.itcm	0000000e _ZN6StringD2Ev
20004120 g     O .bss	00000100 send_message
20003ee0 g     O .bss	00000004 debug_id
00003d80  w    F .text.itcm	00000028 _ZN10StaticInitIN9qindesign7network13EthernetClassEED2Ev
00010de0 g     F .text.itcm	00000074 _ZN14EventResponder10clearEventEv
2000220c g     O .data	00000101 _ctype_
000155a0 g     F .text.itcm	0000010c __sflush_r
0000a0ec g     F .text.itcm	000000d4 _ZN7FatFile13parsePathNameEPKcP8FatLfn_tPS1_
00014ea8 g     F .text.itcm	00000024 printf
0000b928 g     F .text.itcm	00000020 _ZN8SdioCard6statusEv
0000ad98 g     F .text.itcm	000000ae _ZN7FatFile7seekSetEm
00013f1c  w    F .text.itcm	000000b0 _ZNSt8_Rb_treeINSt7__cxx1112basic_stringIcSt11char_traitsIcESaIcEEESt4pairIKS5_hESt10_Select1stIS8_ESt4lessIS5_ESaIS8_EE24_M_get_insert_unique_posERS7_
00014b40 g     F .text.itcm	00000000 .hidden __aeabi_uldivmod
0000b5e4  w    F .text.itcm	0000000e _ZN8SdioCardD0Ev
60000000 g     O .text.headers	00000200 FlexSPI_NOR_Config
20003ef0 g     O .bss	00000004 debugreset
60001a40  w    F .text.code	00000002 startup_middle_hook
20003ee4 g     O .bss	00000004 debug_trace
00008fe8 g     F .text.itcm	0000011c _ZN12FatFormatter9makeFat16Ev
00002e80 g     F .text.itcm	0000009c _Z9process_mPKcPc
20003af0 g     O .bss	00000004 _ZN14EventResponder13lastInterruptE
20002b40 g     O .bss	00000020 endpoint0_transfer_data
00015a70 g     F .text.itcm	0000000c __sfp_lock_release
2000439c g     O .bss	00000001 yield_active_check_flags
00004d1c g     F .text.itcm	00000058 mdns_domain_add_label
60001ee0 g     F .text.code	0000005c usb_pll_start
00007c58 g     F .text.itcm	000001d0 _ZN7VL53L1X4initEb
00000a54  w    F .text.itcm	00000060 _ZN4File9availableEv
202063d0 g     O .bss.dma	00000168 memp_memory_FRAG_PBUF_base
00000604  w    F .text.itcm	000000c8 _ZN7SDClass4openEPKch
0000ab1c g     F .text.itcm	000001ea _ZN7FatFile6renameEPS_PKc
00015a7c g     F .text.itcm	00000030 __sinit
0000d8b4 g     F .text.itcm	000000ea _ZN9ExFatFile7seekSetEy
00005f5c g     F .text.itcm	00000178 tcp_abandon
0000de40 g     F .text.itcm	00000024 _ZN9ExFatFile8openNextEPS_i
00011c30 g     F .text.itcm	00000070 usb_serial2_flush_input
00001bf4 g     F .text.itcm	00000028 _Z20debug_call_isr_setupv
00014f20 g     F .text.itcm	00000234 _vfprintf_r
0000f85c g     F .text.itcm	00000040 _ZN7TwoWire9wait_idleEv
200042a4 g     O .bss	00000040 sw_breakpoint_code
0000845c  w    F .text.itcm	00000110 _ZN8SPIClass16beginTransactionE11SPISettings
00007444 g     F .text.itcm	00000010 enet_deinit
00011364 g     F .text.itcm	0000007a flexpwm_init
60002280 g     O .text.progmem	00000004 string0
0000ba48 g     F .text.itcm	000000b8 _ZN8SdioCard8readStopEv
6000186c g     F .text.code	0000003e _ZN9qindesign7network13EthernetClassD1Ev
00014e38  w    F .text.itcm	00000002 .hidden __aeabi_idiv0
00000bd0  w    F .text.itcm	0000001a _ZN6SDFile4sizeEv
200018e8 g     O .data	0000000c memp_PBUF_POOL
60001b5c g     F .text.code	00000384 configure_external_ram
600016b8 g     F .text.code	00000070 _ZN9qindesign7network9MDNSClassD2Ev
20003cc0 g     O .bss	00000004 __stdio_exit_handler
20002b20 g     O .bss	00000020 endpoint0_transfer_ack
0000af2c g     F .text.itcm	000000ca _ZN7FatFile8openNextEPS_i
00001dcc g     F .text.itcm	00000064 _Z20call_usage_fault_isrv
00014a14 g     F .text.itcm	00000004 _ZSt18_Rb_tree_decrementPSt18_Rb_tree_node_base
00005d38 g     F .text.itcm	00000050 netif_set_link_down
0000a430 g     F .text.itcm	0000001e _ZN7FatFile13cacheDirEntryEh
00013a2c  w    F .text.itcm	00000008 _ZN16usb_serial_class5writeEPKhj
00008da8  w    F .text.itcm	0000003a _ZN22FsBlockDeviceInterface20writeSectorsCallbackEmjPFPKhmPvES2_
20004398 g     O .bss	00000001 usb_cdc_line_rtsdtr
000126c8 g     F .text.itcm	0000003a _ZN6StringC1EPKc
00014efa g     F .text.itcm	00000024 __sfputs_r
00001504  w    F .text.itcm	00000002 _ZN5Debug5flushEv
00000ab4  w    F .text.itcm	0000002c _ZN4File4peekEv
00013b78 g     F .text.itcm	00000020 _ZN11SparkMaxPWM5beginEv
00006608 g     F .text.itcm	00000360 tcp_output
60001f3c g     F .text.code	00000130 tempmon_init
00000068  w    F .text.itcm	00000016 _ZN14EventResponder12triggerEventEiPv
2000190c g     O .data	0000000c memp_TCP_PCB
000114d4 g     F .text.itcm	0000018c unused_interrupt_vector
00000c9c  w    F .text.itcm	000000f0 _ZN7SDClass8usedSizeEv
200040d8 g     O .bss	00000044 save_registers
00010bd4 g     F .text.itcm	00000024 rtc_get
20000ae4 g     O .data	00000070 _ZN8SPIClass24spiclass_lpspi3_hardwareE
000005c4  w    F .text.itcm	00000012 _ZN6SDFile6isOpenEv
0000cc54 g     F .text.itcm	000001f4 _ZN13SharedSpiCard5beginE11SdSpiConfig
20003b88 g     O .bss	00000138 __sf
000128d4 g     F .text.itcm	00000014 _ZN5Print11printNumberEmhh
00006f20 g     F .text.itcm	0000016c ip4_output_if_opt_src
00009c38 g     F .text.itcm	00000168 _ZN7FatFile7makeSFNEP8FatLfn_t
0000a870 g     F .text.itcm	0000005a _ZN7FatFile11openClusterEPS_
00006978 g     F .text.itcm	0000006e acd_netif_ip_addr_changed
20003b24 g     O .bss	00000004 _ZN9qindesign7network4MDNSE
00002278 g     F .text.itcm	00000004 _Z15fake_breakpointv
00001024  w    F .text.itcm	0000004c _ZN10StreamFileI10FsBaseFileyE9availableEv
000124f8 g     F .text.itcm	00000018 usb_serial_available
00005694 g     F .text.itcm	0000011c pbuf_alloc
000163bc g       .ARM.exidx	00000000 __exidx_end
2000435c g     O .bss	00000004 usb_timer0_callback
0001098c  w    F .text.itcm	00000002 _ZZN6teensy23inplace_function_detail6vtableIvJEEC4EvENUlPvE2_4_FUNES3_
000073f4 g     F .text.itcm	00000028 memp_malloc
000055c0 g     F .text.itcm	000000d4 pbuf_free
00014988 g     F .text.itcm	0000000a __aeabi_atexit
000007ac  w    F .text.itcm	00000046 _ZN6SDFile15rewindDirectoryEv
0000b448  w    F .text.itcm	00000004 _ZN15SdCardInterface14isDedicatedSpiEv
20003f54 g     O .bss	00000004 halt_state
0000aab0 g     F .text.itcm	00000028 _ZN7FatFile4peekEv
0000e47c g     F .text.itcm	0000005e _ZN9ExFatFile5mkdirEPS_P8ExName_t
00016364 g     F .text.itcm	00000010 _malloc_usable_size_r
00001100  w    F .text.itcm	00000040 _ZN6SDFileD1Ev
2020ed60 g       .bss.dma	00000000 _heap_start
0000273c g     F .text.itcm	000003d8 _Z9process_gPKcPc
00001cf4 g     F .text.itcm	00000064 _Z24call_memmanage_fault_isrv
00015c5c g     F .text.itcm	0000003c _fwalk_sglue
00008f8c g     F .text.itcm	0000005c _ZN12FatFormatter8writeMbrEv
0000a860 g     F .text.itcm	0000000e _ZN7FatFile4openEP9FatVolumePKci
60002250  w    O .text.progmem	00000016 usb_string_product_name
0000c88c  w    F .text.itcm	00000002 _ZN16DedicatedSpiCardD2Ev
00013a20  w    F .text.itcm	00000004 _ZN16usb_serial_class9availableEv
00000bb4  w    F .text.itcm	0000001a _ZN6SDFile8positionEv
0000b438 g     F .text.itcm	00000006 _Z8sdCsInith
00009a58 g     F .text.itcm	000000bc _ZN7FatFile7cmpNameEtP8FatLfn_th
20004358 g     O .bss	00000004 usb_cdc_line_rtsdtr_millis
0000227c  w    F .text.itcm	00000004 _ZZN6teensy23inplace_function_detail6vtableIvJEEC4IPFvvEEENS0_7wrapperIT_EEENUlPvE_4_FUNES9_
0000eae0 g     F .text.itcm	00000040 _ZN14ExFatFormatter15writeUpcaseByteEh
0000b57c g     F .text.itcm	0000000c _ZNK8SdioCard9errorDataEv
000012c8  w    F .text.itcm	000000a8 _ZN4FileD2Ev
20002344 g     O .data	00000004 F_CPU_ACTUAL
000060f8 g     F .text.itcm	000000a4 tcp_netif_ip_addr_changed
00000f88  w    F .text.itcm	00000014 _ZN10StreamFileI10FsBaseFileyE5writeEPKhj
00003b9c g     F .text.itcm	00000004 sys_now
60002268 g     O .text.progmem	00000018 usb_string_manufacturer_name_default
20002398 g     O .data	00000000 .hidden __dso_handle
00011698  w    F .text.itcm	00000006 _close
00015a64 g     F .text.itcm	0000000c __sfp_lock_acquire
000017e8 g     F .text.itcm	00000048 _Z17instructionReturnPv
00013a40  w    F .text.itcm	00000004 _ZN17usb_serial2_class4peekEv
00003f14 g     F .text.itcm	00000028 dns_setserver
00008da4 g     F .text.itcm	00000004 _ZN7FatFile7getNameEPcj
202067b8 g     O .bss.dma	000004e0 memp_memory_TCP_PCB_base
00000ae0  w    F .text.itcm	00000028 _ZN4File5flushEv
000113e0 g     F .text.itcm	000000f4 pwm_init
000018b0 g     F .text.itcm	00000038 _Z12debug_actionv
00015b76 g     F .text.itcm	00000038 __swrite
00005ba8 g     F .text.itcm	00000054 netif_invoke_ext_callback
00001544 g     F .text.itcm	00000058 _Z19debug_setBreakpointPv
60001994 g     F .text.code	00000054 _reboot_Teensyduino_
20004308 g     O .bss	00000004 temp_breakpoint
00001510  w    F .text.itcm	00000034 _ZN5Debug5writeEh
00013a48  w    F .text.itcm	00000004 _ZN17usb_serial2_class9availableEv
000110c0 g     F .text.itcm	000000dc flexpwmFrequency
20004360 g     O .bss	00000004 usb_timer1_callback
0000d58c g     F .text.itcm	0000003c _ZN9ExFatFile8dirCacheEhh
000088f8 g     F .text.itcm	00000084 _ZN10FsBaseFileC1ERKS_
20000cb8  w    O .data	00000028 _ZTV17usb_serial2_class
20003ae8 g     O .bss	00000004 _ZN11ExFatVolume5m_cwvE
0000c5fc g     F .text.itcm	00000110 _ZN8SdioCard10readSectorEmPh
0000c8a8 g     F .text.itcm	00000064 _ZN16DedicatedSpiCard12writeSectorsEmPKhj
600020f8 g       .text.code	00000000 __preinit_array_start
00004278 g     F .text.itcm	00000058 udp_remove
0000b588 g     F .text.itcm	00000024 _ZN8SdioCard7readCIDEP3CID
0000b5ac g     F .text.itcm	00000024 _ZN8SdioCard7readCSDEP5csd_t
00009104 g     F .text.itcm	000001c4 _ZN12FatFormatter9makeFat32Ev
20003b1c g     O .bss	00000004 _ZN8FsVolume5m_cwvE
20003f40 g     O .bss	00000004 file_io_result
000116b8  w    F .text.itcm	00000004 __cxa_pure_virtual
0000fb84 g     F .text.itcm	0000000c _Z10lpi2c1_isrv
000086a8 g     F .text.itcm	0000004c _ZN6FsName5get16Ev
00003c18  w    F .text.itcm	00000004 qnethernet_hal_rand
0000deb0 g     F .text.itcm	000000cc _ZN9ExFatFile8getName8EPcj
6001b400 g     O .text.csf	00000c00 hab_csf
0000f998 g     F .text.itcm	00000140 _ZN7TwoWire11requestFromEhhh
0000530c g     F .text.itcm	000000a0 mdns_resp_announce
20002348 g     O .data	00000010 Serial
20003a34 g     O .bss	000000a0 _ZN10StaticInitIN9qindesign7network9MDNSClassEE3bufE
0000f664  w    F .text.itcm	00000018 _ZN7TwoWire4peekEv
00015bae g     F .text.itcm	00000024 __sseek
600021b0  w    O .text.progmem	00000050 _ZN7TwoWire13i2c3_hardwareE
20206140 g     O .bss.dma	00000100 memp_memory_PBUF_base
20002ac0 g       .bss	00000000 _sbss
0000736c g     F .text.itcm	00000030 etharp_cleanup_netif
00012878  w    F .text.itcm	0000001c _write
00009934 g     F .text.itcm	00000124 _ZN12FatPartition4initEP22FsBlockDeviceInterfaceh
00008e14 g     F .text.itcm	00000120 _ZN12FatFormatter10initFatDirEhm
00010ddc g     F .text.itcm	00000004 pendablesrvreq_isr
2000438f g     O .bss	00000001 tcp_active_pcbs_changed
00004334 g     F .text.itcm	0000000e mdns_multicast_timeout_25ttl_reset_ipv4
000020c0 g     F .text.itcm	000000bc _Z10debug_initv
20003f44 g     O .bss	0000000c flightController
000093f4 g     F .text.itcm	00000032 _ZN12FatPartition25freeClusterCount_cb_fat32EmPhPv
00000928  w    F .text.itcm	00000064 _ZN7SDClass6renameEPKcS1_
00008804 g     F .text.itcm	0000004e _ZN7FsCache7prepareEmh
0000b340 g     F .text.itcm	0000004e _ZN18SdSpiArduinoDriver10deactivateEv
200042f8 g     O .bss	00000004 tcp_input_pcb
60002268  w    O .text.progmem	00000018 usb_string_manufacturer_name
0000ad08 g     F .text.itcm	00000090 _ZN7FatFile5rmdirEv
200018f4 g     O .data	0000000c memp_REASSDATA
00011de0 g     F .text.itcm	00000004 Panic_Temp_isr
00006aa8 g     F .text.itcm	00000054 igmp_report_groups
00013ee8  w    F .text.itcm	00000034 _ZNSt3mapINSt7__cxx1112basic_stringIcSt11char_traitsIcESaIcEEEhSt4lessIS5_ESaISt4pairIKS5_hEEED1Ev
00007500 g     F .text.itcm	00000004 _ZN9qindesign7network10get_uint32ERK9IPAddress
0000d64c g     F .text.itcm	0000009c _ZN9ExFatFile13parsePathNameEPKcP8ExName_tPS1_
000077b8 g     F .text.itcm	00000050 _ZN7VL53L1X13writeReg16BitEtt
000075c4  w    F .text.itcm	00000020 _ZN14EventResponderD1Ev
0001285c g     F .text.itcm	0000001c _ZN5Print7printlnEv
0000b610 g     F .text.itcm	00000068 _ZN8SdioCard11sectorCountEv
20004310 g     O .bss	00000001 tof
00008a54 g     F .text.itcm	00000072 _ZN10FsBaseFile8openNextEPS_i
000126c8 g     F .text.itcm	0000003a _ZN6StringC2EPKc
00008bd4 g     F .text.itcm	0000002a _ZN7FatFile10getLfnCharEP8DirLfn_th
0000e07c g     F .text.itcm	000000b4 _ZN9ExFatFile6removeEv
00013fcc  w    F .text.itcm	00000128 _ZNSt8_Rb_treeINSt7__cxx1112basic_stringIcSt11char_traitsIcESaIcEEESt4pairIKS5_hESt10_Select1stIS8_ESt4lessIS5_ESaIS8_EE22_M_insert_range_uniqueIPKS8_EENSt9enable_ifIXsrSt7is_sameIS8_NSt15iterator_traitsIT_E10value_typeEE5valueEvE4typeESL_SL_
0000a384 g     F .text.itcm	00000034 _ZN7FatFile10addClusterEv
000005d8  w    F .text.itcm	00000002 _ZN7SDClassD2Ev
00010f3c g     F .text.itcm	0000004c sm_align_pool
0000197c g     F .text.itcm	0000018c _Z13debug_monitorv
0000c814  w    F .text.itcm	00000004 _ZN16DedicatedSpiCard15hasDedicatedSpiEv
00014f20 g     F .text.itcm	00000234 _vfiprintf_r
00012634 g     F .text.itcm	00000094 usb_serial_flush_output
0000d368  w    F .text.itcm	00000076 _ZN13SharedSpiCard7readCIDEP3CID
00003b5c g     F .text.itcm	00000002 driver_deinit
00002248 g     F .text.itcm	0000000c _ZN5Debug11setCallbackEPFvvE
0000e5b4 g     F .text.itcm	00000176 _ZN9ExFatFile9timestampEhthhhhh
0000a3b8 g     F .text.itcm	00000078 _ZN7FatFile13addDirClusterEv
000104b0 g     F .text.itcm	00000028 usb_transmit
60001a44  w    F .text.code	00000002 startup_late_hook
000088f4 g     F .text.itcm	00000004 _ZnwjPm
0000fad8 g     F .text.itcm	000000ac _ZN7TwoWire3isrEv
20000c20 g     O .data	00000070 _ZTV16DedicatedSpiCard
0000b700 g     F .text.itcm	000000b4 _ZN8SdioCard9writeDataEPKh
000093c0 g     F .text.itcm	00000034 _ZN12FatPartition25freeClusterCount_cb_fat16EmPhPv
0000ca18 g     F .text.itcm	0000008c _ZN13SharedSpiCard8readDataEPhj
000005dc  w    F .text.itcm	00000028 _ZN6SDFile5closeEv
00011ca0 g     F .text.itcm	00000020 usb_serial2_getchar
000147c0 g     F .text.itcm	000000d0 _Z10print_logov
0000d9a0 g     F .text.itcm	00000398 _ZN9ExFatFile11openPrivateEPS_P8ExName_ti
000133ac g     F .text.itcm	00000668 vsnprintf_
20004399 g     O .bss	00000001 usb_configuration
20004387 g     O .bss	00000001 pbuf_free_ooseq_pending
2000344c g     O .bss	00000050 SPI
20003dd0 g     O .bss	00000004 cause_break
000103b8 g     F .text.itcm	00000064 usb_config_rx
0000774c g     F .text.itcm	00000024 _ZN7VL53L1XC2Ev
0000d624 g     F .text.itcm	00000028 _ZN9ExFatFile8openRootEP11ExFatVolume
20004350 g     O .bss	00000008 usb_cdc_line_coding
00006dc4 g     F .text.itcm	00000128 dhcp_release_and_stop
00002684 g     F .text.itcm	00000040 _Z13gdb_out_writePKhj
00004e8c g     F .text.itcm	00000074 mdns_build_host_domain
000127a4 g     F .text.itcm	00000004 _ZdlPv
00000fd0  w    F .text.itcm	00000054 _ZN6SDFile13setModifyTimeERK14DateTimeFields
00001070  w    F .text.itcm	0000004c _ZN6SDFile9availableEv
20004382 g     O .bss	00000001 __lock___sfp_recursive_mutex
0000c810  w    F .text.itcm	00000004 _ZNK13SharedSpiCard4typeEv
20000da4  w    O .data	00000024 _ZTV6Stream
0000b3e8 g     F .text.itcm	0000004e _ZN18SdSpiArduinoDriver4sendEPKhj
20004314 g     O .bss	0000002c tofD
2000349c g     O .bss	00000050 SPI1
00013a50  w    F .text.itcm	00000004 _ZN17usb_serial2_class17availableForWriteEv
0000976c g     F .text.itcm	000001c8 _ZN12FatPartition16freeClusterCountEv
000127ac g     F .text.itcm	0000002e _ZN5Print5writeEPKhj
200034ec g     O .bss	00000050 SPI2
20001918 g     O .data	0000000c memp_TCP_PCB_LISTEN
00003fbc g     F .text.itcm	0000010c udp_bind
000026c4 g     F .text.itcm	00000040 _Z17gdb_wait_for_flagPVii
20001b84 g     O .data	0000002a pin_to_channel
000083d4 g     F .text.itcm	00000070 _ZN7VL53L1X4readEb
0000f400 g     F .text.itcm	00000040 _ZN14ExFatPartition6fatPutEmm
00010980  w    F .text.itcm	00000002 _ZZN6teensy23inplace_function_detail6vtableIvJEEC4EvENUlPvE_4_FUNES3_
00015bd2 g     F .text.itcm	00000008 __sclose
000007f4  w    F .text.itcm	0000006e _ZN6SDFile13getModifyTimeER14DateTimeFields
00005110 g     F .text.itcm	000000d0 mdns_write_domain
0000059c  w    F .text.itcm	0000001e _ZN7TwoWire4readEv
0000b0dc g     F .text.itcm	00000074 _ZN7FatFile8truncateEv
00000f9c  w    F .text.itcm	00000034 _ZN10StreamFileI10FsBaseFileyE5writeEh
00002fe8 g     F .text.itcm	00000068 _Z9process_zPKcPc
000124b4 g     F .text.itcm	00000044 usb_serial_peekchar
00002294  w    F .text.itcm	0000000c _ZN13IntervalTimerD1Ev
00008348 g     F .text.itcm	0000008c _ZN7VL53L1X14getRangingDataEv
20002448 g     O .data	0000001c signal_text
00007eb4 g     F .text.itcm	0000043c _ZN7VL53L1X11readResultsEv
0000ec1c g     F .text.itcm	0000052c _ZN14ExFatFormatter6formatEP22FsBlockDeviceInterfacePhP5Print
20000d0c  w    O .data	00000018 _ZTV5Debug
00002704 g     F .text.itcm	00000038 _Z15process_onbreakv
0000f500 g     F .text.itcm	0000006a _ZN14ExFatPartition16freeClusterCountEv
60001828 g     F .text.code	00000044 _ZN9qindesign7network13EthernetClassC2Ev
20003ef4 g     O .bss	00000004 debugrestore
20206340 g     O .bss.dma	00000090 memp_memory_IGMP_GROUP_base
00013a5c  w    F .text.itcm	00000006 _ZN17usb_serial2_class5writeEh
00001ed0 g     F .text.itcm	000000e0 _Z17debug_getRegisterPKc
00011bd4 g     F .text.itcm	00000044 usb_serial2_peekchar
20003edc g     O .bss	00000004 debug_crash
00007a54 g     F .text.itcm	000000a8 _ZN7VL53L1X12readReg16BitEt
00006afc g     F .text.itcm	0000009c igmp_leavegroup_netif
000059b4 g     F .text.itcm	000000a8 pbuf_take
00015f40 g     F .text.itcm	00000002 __retarget_lock_acquire_recursive
00013a28  w    F .text.itcm	00000004 _ZN16usb_serial_class17availableForWriteEv
0000c364 g     F .text.itcm	000000fc _ZN8SdioCard8readDataEPh
00001140  w    F .text.itcm	00000048 _ZN6SDFileD0Ev
2000353c g     O .bss	00000140 Wire
00003050 g     F .text.itcm	0000005c _Z9process_ZPKcPc
600020f8 g       .text.code	00000000 __init_array_start
00001238  w    F .text.itcm	0000008e _ZN6SDFile4seekEyi
0000d170 g     F .text.itcm	00000068 _ZN13SharedSpiCard10writeStartEm
20003b28 g     O .bss	00000004 _ZN9qindesign7network8EthernetE
00009710 g     F .text.itcm	0000005a _ZN12FatPartition9freeChainEm
000034cc g     F .text.itcm	00000110 _Z9process_qPKcPc
0000f6e8  w    F .text.itcm	0000006c _ZN7TwoWireC2EP13IMXRT_LPI2C_tRKNS_14I2C_Hardware_tE
20002ac0 g     O .data	00000000 .hidden __TMC_END__
0000a908 g     F .text.itcm	000001a8 _ZN7FatFile4readEPvj
00003c1c g     F .text.itcm	00000020 trng_is_started
00004b10 g     F .text.itcm	0000004c mdns_multicast_probe_timeout_reset_ipv4
000096f0 g     F .text.itcm	00000020 _ZN12FatPartition6fatPutEmm
000058a4 g     F .text.itcm	00000088 pbuf_cat
200018c4 g     O .data	0000000c memp_FRAG_PBUF
20003ad8 g     O .bss	00000004 _ZN10StaticInitIN9qindesign8security12RandomDeviceEE2pTE
00013b60 g     F .text.itcm	00000016 _ZN11SparkMaxPWMC2Ei
0000619c g     F .text.itcm	00000002 mem_trim
20000d48  w    O .data	0000005c _ZTV6SDFile
00000a1c  w    F .text.itcm	00000036 _ZN7SDClass6existsEPKc
000122d4 g     F .text.itcm	00000100 usb_serial_configure
0000b3b0 g     F .text.itcm	00000024 _ZN18SdSpiArduinoDriver7receiveEPhj
20003af4 g     O .bss	00000004 _ZN14EventResponder14firstInterruptE
000125cc g     F .text.itcm	00000018 usb_serial_write
0000c998 g     F .text.itcm	0000007e _ZN13SharedSpiCard6isBusyEv
20004344 g     O .bss	00000008 usb_cdc2_line_coding
00000003 g       *ABS*	00000000 _itcm_block_count
000062e8 g     F .text.itcm	00000054 sys_untimeout
20003dcc g     O .bss	00000004 callback
00003a34  w    F .text.itcm	0000009c _ZN10StaticInitIN9qindesign7network9MDNSClassEED1Ev
00002280  w    F .text.itcm	00000006 _ZZN6teensy23inplace_function_detail6vtableIvJEEC4IPFvvEEENS0_7wrapperIT_EEENUlPvS9_E0_4_FUNES9_S9_
00015bdc g     F .text.itcm	0000000c __malloc_lock
0000eb20 g     F .text.itcm	0000004c _ZN14ExFatFormatter18writeUpcaseUnicodeEt
0000e4dc g     F .text.itcm	000000d6 _ZN9ExFatFile5mkdirEPS_PKcb
2000117c g     O .data	00000370 digital_pin_to_info_PGM
0000c808  w    F .text.itcm	00000004 _ZNK13SharedSpiCard9errorCodeEv
20000e8c g     O .data	0000000c _ZTV9IPAddress
0001083c g     F .text.itcm	00000024 digitalRead
000006cc  w    F .text.itcm	00000050 _ZN6SDFile4nameEv
20001900 g     O .data	0000000c memp_SYS_TIMEOUT
00014b70 g     F .text.itcm	000002c8 .hidden __udivmoddi4
600023f0 g       *ABS*	00000000 _stextload
00014558 g     F .text.itcm	00000024 _ZN16FlightController4initEv
0000d548 g     F .text.itcm	0000001c _ZN16DedicatedSpiCard11writeSectorEmPKh
00008f34 g     F .text.itcm	00000056 _ZN12FatFormatter7initPbsEv
00001fb0 g     F .text.itcm	00000110 _Z17debug_setRegisterPKcm
000128e8 g     F .text.itcm	00000036 _ZNK9IPAddress7printToER5Print
00003bac g     F .text.itcm	00000018 qnethernet_hal_stdio_flush
0001580c g     F .text.itcm	00000010 free
0000b390 g     F .text.itcm	00000006 _ZN18SdSpiArduinoDriver3endEv
000082f0 g     F .text.itcm	00000058 _ZN7VL53L1X9updateDSSEv
00004308 g     F .text.itcm	0000001c err_to_errno
000005c0  w    F .text.itcm	00000002 _ZN5Print5flushEv
0000d5c8 g     F .text.itcm	00000014 _ZN9ExFatFile5closeEv
20003f3c g     O .bss	00000004 file_io_pending
00000d8c  w    F .text.itcm	00000018 _ZN6SDFile4peekEv
20002358 g     O .data	00000010 SerialUSB1
20003f50 g     O .bss	00000004 gdb_active_flag
000141e0  w    F .text.itcm	00000064 _ZNSt7__cxx1112basic_stringIcSt11char_traitsIcESaIcEEC2IS3_EEPKcRKS3_
00016008 g     F .text.itcm	000000b4 __ssputs_r
00000dbc  w    F .text.itcm	00000026 _ZN6SDFile11isDirectoryEv
20200180 g     O .bss.dma	00005fc0 memp_memory_PBUF_POOL_base
00015bf4 g     F .text.itcm	00000008 atoi
00008bac g     F .text.itcm	00000028 _ZN8FsVolume4openEPKci
0000d564 g     F .text.itcm	00000026 _ZN16DedicatedSpiCard5beginE11SdSpiConfig
60002334 g     O .text.progmem	000000ad usb_config_descriptor_480
0000de30 g     F .text.itcm	0000000e _ZN9ExFatFile4openEP11ExFatVolumePKci
2000367c g     O .bss	00000140 Wire1
000156ac g     F .text.itcm	00000050 _fflush_r
0000c88c  w    F .text.itcm	00000002 _ZN16DedicatedSpiCardD1Ev
00011d50 g     F .text.itcm	00000090 usb_serial2_flush_output
00011e9c  w    F .text.itcm	000000d8 yield
00012704 g     F .text.itcm	0000000e _ZN6StringD1Ev
200037bc g     O .bss	00000140 Wire2
00015730 g     F .text.itcm	00000000 memchr
20002340 g     O .data	00000004 F_BUS_ACTUAL
000057b0 g     F .text.itcm	000000dc pbuf_realloc
60002250 g     O .text.progmem	00000016 usb_string_product_name_default
0000d3e0 g     F .text.itcm	00000066 _ZN13SharedSpiCard9writeDataEhPKh
0001457c g     F .text.itcm	00000094 _ZN16FlightController10lineFollowEv
000127a8 g     F .text.itcm	00000004 _ZdlPvj
00015b54 g     F .text.itcm	00000022 __sread
60001a40 g     F .text.code	00000002 startup_default_middle_hook
20002ac0 g       .data	00000000 _edata
00006558 g     F .text.itcm	0000003e tcp_rst
00003d20  w    F .text.itcm	00000018 _ZN10StaticInitIN9qindesign8security12RandomDeviceEED1Ev
00006968 g     F .text.itcm	00000010 acd_network_changed_link_down
2000411c g     O .bss	00000004 scale_cpu_cycles_to_microseconds
00002254 g     F .text.itcm	00000006 _ZN5Debug11getRegisterEPKc
20003ef8 g     O .bss	00000004 debugstep
00014e3c g     F .text.itcm	00000048 __libc_init_array
0000f2b4 g     F .text.itcm	0000004c _ZN14ExFatPartition9chainSizeEm
00011660  w    F .text.itcm	00000034 _sbrk
00000758  w    F .text.itcm	00000054 _ZN6SDFile13setCreateTimeERK14DateTimeFields
0000e72c g     F .text.itcm	000000e4 _ZN9ExFatFile8truncateEv
0000b440 g     F .text.itcm	00000004 _Z9sdCsWritehb
0001631c g     F .text.itcm	00000024 _lseek_r
00005550 g     F .text.itcm	00000070 pbuf_add_header
0000a75c g     F .text.itcm	00000104 _ZN7FatFile4openEPS_PKci
00005acc g     F .text.itcm	0000001c pbuf_get_at
0000098c  w    F .text.itcm	00000054 _ZN7SDClass6removeEPKc
0000ce48 g     F .text.itcm	00000076 _ZN13SharedSpiCard7readOCREPm
2000434c g     O .bss	00000004 usb_cdc2_line_rtsdtr_millis
20003ee8 g     O .bss	00000004 debugcount
0000fd74 g     F .text.itcm	00000644 usb_isr
0000c898  w    F .text.itcm	0000000e _ZN16DedicatedSpiCardD0Ev
0000f67c  w    F .text.itcm	00000002 _ZN7TwoWire5flushEv
00007e28 g     F .text.itcm	0000002a _ZN7VL53L1X15startContinuousEm
200039d0 g     O .bss	00000004 _ZN10StaticInitIN9qindesign7network13EthernetClassEE13nifty_counterE
00010f88 g     F .text.itcm	00000084 sm_set_pool
6000164c g     F .text.code	00000028 ResetHandler
0000592c g     F .text.itcm	0000001a pbuf_chain
00000e70 g     F .text.itcm	000000dc _ZN7SDClass6formatEicR5Print
00002f1c g     F .text.itcm	000000cc _Z9process_MPKcPc
600187ac g       *ABS*	00000000 _sdataload
0000217c g     F .text.itcm	00000018 _ZN5Debug5beginEP6Stream
00012580 g     F .text.itcm	00000020 usb_serial_getchar
6000186c g     F .text.code	0000003e _ZN9qindesign7network13EthernetClassD2Ev
20003f34 g     O .bss	00000004 fakesp
00007afc g     F .text.itcm	00000054 _ZN7VL53L1X26getMeasurementTimingBudgetEv
20003af8 g     O .bss	00000004 _ZN14EventResponder9lastYieldE
60001674 g     F .text.code	00000042 _ZN9qindesign7network9MDNSClassC1Ev
00015b14 g     F .text.itcm	00000040 sprintf
0000a4c4 g     F .text.itcm	00000020 _ZN7FatFile17getCreateDateTimeEPtS0_
0000897c g     F .text.itcm	00000028 _ZN10FsBaseFile5closeEv
00000864  w    F .text.itcm	0000006e _ZN6SDFile13getCreateTimeER14DateTimeFields
00000f4c  w    F .text.itcm	00000014 _ZN6SDFile5flushEv
000021f0 g     F .text.itcm	00000058 _ZN5Debug15clearBreakpointEPv
0000d1d8 g     F .text.itcm	00000118 _ZN13SharedSpiCard5eraseEmm
20003b80 g     O .bss	00000004 __malloc_free_list
00009e54 g     F .text.itcm	00000298 _ZN7FatFile4openEPS_P8FatLfn_ti
00005948 g     F .text.itcm	0000006c pbuf_copy_partial
00009b14 g     F .text.itcm	00000122 _ZN7FatFile9createLFNEtP8FatLfn_th
000157d0 g     F .text.itcm	0000001c memcpy
00014544 g     F .text.itcm	0000000e _ZN16FlightControllerC1ER11SparkMaxPWMS1_R5VL53L
0000dfe8 g     F .text.itcm	00000092 _ZN9ExFatFile10addClusterEv
00013a18  w    F .text.itcm	00000004 _ZN16usb_serial_class4peekEv
000030f4 g     F .text.itcm	000003d8 _Z15process_monitorPcS_
000119f4 g     F .text.itcm	00000100 usb_serial2_configure
00010984  w    F .text.itcm	00000002 _ZZN6teensy23inplace_function_detail6vtableIvJEEC4EvENUlPvS3_E0_4_FUNES3_S3_
60001814 g     F .text.code	00000012 _ZN9qindesign8security12RandomDeviceC2Ev
00012714 g     F .text.itcm	00000066 _ZN6String4copyEPKcj
0000b3d4 g     F .text.itcm	00000012 _ZN18SdSpiArduinoDriver4sendEh
000010bc  w    F .text.itcm	00000044 _ZN4File5writeEPKhj
0000f148 g     F .text.itcm	000000c0 _ZN14ExFatPartition10bitmapFindEmm
00015be8 g     F .text.itcm	0000000c __malloc_unlock
202066d8 g     O .bss.dma	000000e0 memp_memory_TCP_PCB_LISTEN_base
00000da4  w    F .text.itcm	00000018 _ZN10StreamFileI10FsBaseFileyE4peekEv
0000c534 g     F .text.itcm	00000098 _ZN8SdioCard16stopTransmissionEb
0000be74 g     F .text.itcm	00000088 _ZN8SdioCard11readSectorsEmPhj
000157ec g     F .text.itcm	00000010 strlen
600019e8 g     F .text.code	00000054 analog_init
00008854 g     F .text.itcm	000000a0 _Z11lbaToMbrChsPhmm
000025a8 g     F .text.itcm	0000005c _Z7mem2hexPcPKvi
00005268 g     F .text.itcm	000000a4 mdns_resp_remove_netif
00001b08 g     F .text.itcm	000000e4 _Z14debug_call_isrv
2000171c g     O .data	00000004 ip_addr_any
00015f2c g     F .text.itcm	00000014 strtol
60001a44 g     F .text.code	00000002 startup_default_late_hook
20206538 g     O .bss.dma	000000a0 memp_memory_REASSDATA_base
20003f38 g     O .bss	00000004 file_io_errno
000012c8  w    F .text.itcm	000000a8 _ZN4FileD1Ev
00001e38 g     F .text.itcm	0000004c _Z10testOurSVCv
00010e54 g     F .text.itcm	00000064 _ZN14EventResponder18detachNoInterruptsEv
600016b8 g     F .text.code	00000070 _ZN9qindesign7network9MDNSClassD1Ev
00007770 g     F .text.itcm	00000046 _ZN7VL53L1X8writeRegEth
00000b5c  w    F .text.itcm	00000058 _ZN4File4readEv
000075e4 g     F .text.itcm	0000008c _ZN9qindesign7network13EthernetClass3endEv
20001930 g     O .data	0000000c memp_UDP_PCB
0000befc g     F .text.itcm	00000088 _ZN8SdioCard12writeSectorsEmPKhj
0001100c g     F .text.itcm	000000b4 flexpwmWrite
00007808 g     F .text.itcm	00000068 _ZN7VL53L1X13writeReg32BitEtm
00000b08  w    F .text.itcm	00000054 _ZN4File5writeEh
200023f8 g     O .data	00000004 debug_active
0000b5e0  w    F .text.itcm	00000002 _ZN8SdioCardD1Ev
00015cfc g     F .text.itcm	00000034 strcasecmp
60001674 g     F .text.code	00000042 _ZN9qindesign7network9MDNSClassC2Ev
00014734 g     F .text.itcm	00000002 _ZN5VL53LC1Ev
0000524c g     F .text.itcm	00000010 netif_mdns_data
00003654 g     F .text.itcm	00000058 _Z9process_vPcS_
00014a18 g     F .text.itcm	000000c0 _ZSt29_Rb_tree_insert_and_rebalancebPSt18_Rb_tree_node_baseS0_RS_
0000c81c g     F .text.itcm	0000006e _ZN16DedicatedSpiCard20writeSectorsCallbackEmjPFPKhmPvES2_
00004f00 g     F .text.itcm	000000a8 mdns_build_dnssd_domain
00014ea8 g     F .text.itcm	00000024 iprintf
20003f24 g     O .bss	00000010 extmem_smalloc_pool
0000b304 g     F .text.itcm	00000012 _ZN18SdSpiArduinoDriver8activateEv
20068000 g       .text.csf	00000000 _estack
00012510 g     F .text.itcm	00000070 usb_serial_flush_input
000162fc g     F .text.itcm	00000020 _isatty_r
00008610 g     F .text.itcm	00000098 _ZN5FsUtf6mbToCpEPKcS1_Pm
0000c90c g     F .text.itcm	0000008c _ZN13SharedSpiCard9writeStopEv
00003d80  w    F .text.itcm	00000028 _ZN10StaticInitIN9qindesign7network13EthernetClassEED1Ev
0000fb90 g     F .text.itcm	0000000c _Z10lpi2c3_isrv
000061a0 g     F .text.itcm	0000003c mem_malloc
00000bec  w    F .text.itcm	000000b0 _ZN6SDFile12openNextFileEh
20003dd4 g     O .bss	00000108 debug
0000dd38 g     F .text.itcm	000000f8 _ZN9ExFatFile4openEPS_PKci
000040c8 g     F .text.itcm	00000158 udp_sendto_if_src


Contents of section .text.headers:
 60000000 46434642 00000156 00000000 01030300  FCFB...V........
 60000010 00000000 00000000 00000000 00000000  ................
 60000020 00000000 00000000 00000000 00000000  ................
 60000030 00000000 00000000 00000000 00000000  ................
 60000040 00000000 01040800 00000000 00000000  ................
 60000050 00008000 00000000 00000000 00000000  ................
 60000060 00000000 00000000 00000000 00000000  ................
 60000070 00000000 00000000 00000000 00000000  ................
 60000080 eb04180a 06320426 00000000 00000000  .....2.&........
 60000090 05040424 00000000 00000000 00000000  ...$............
 600000a0 00000000 00000000 00000000 00000000  ................
 600000b0 06040000 00000000 00000000 00000000  ................
 600000c0 00000000 00000000 00000000 00000000  ................
 600000d0 20041808 00000000 00000000 00000000   ...............
 600000e0 00000000 00000000 00000000 00000000  ................
 600000f0 00000000 00000000 00000000 00000000  ................
 60000100 d8041808 00000000 00000000 00000000  ................
 60000110 02041808 04200000 00000000 00000000  ..... ..........
 60000120 00000000 00000000 00000000 00000000  ................
 60000130 60040000 00000000 00000000 00000000  `...............
 60000140 00000000 00000000 00000000 00000000  ................
 60000150 00000000 00000000 00000000 00000000  ................
 60000160 00000000 00000000 00000000 00000000  ................
 60000170 00000000 00000000 00000000 00000000  ................
 60000180 00000000 00000000 00000000 00000000  ................
 60000190 00000000 00000000 00000000 00000000  ................
 600001a0 00000000 00000000 00000000 00000000  ................
 600001b0 00000000 00000000 00000000 00000000  ................
 600001c0 00010000 00100000 01000000 00000000  ................
 600001d0 00000100 00000000 00000000 00000000  ................
 600001e0 00000000 00000000 00000000 00000000  ................
 600001f0 00000000 00000000 00000000 00000000  ................
 60000200 ffffffff ffffffff ffffffff ffffffff  ................
 60000210 ffffffff ffffffff ffffffff ffffffff  ................
 60000220 ffffffff ffffffff ffffffff ffffffff  ................
 60000230 ffffffff ffffffff ffffffff ffffffff  ................
 60000240 ffffffff ffffffff ffffffff ffffffff  ................
 60000250 ffffffff ffffffff ffffffff ffffffff  ................
 60000260 ffffffff ffffffff ffffffff ffffffff  ................
 60000270 ffffffff ffffffff ffffffff ffffffff  ................
 60000280 ffffffff ffffffff ffffffff ffffffff  ................
 60000290 ffffffff ffffffff ffffffff ffffffff  ................
 600002a0 ffffffff ffffffff ffffffff ffffffff  ................
 600002b0 ffffffff ffffffff ffffffff ffffffff  ................
 600002c0 ffffffff ffffffff ffffffff ffffffff  ................
 600002d0 ffffffff ffffffff ffffffff ffffffff  ................
 600002e0 ffffffff ffffffff ffffffff ffffffff  ................
 600002f0 ffffffff ffffffff ffffffff ffffffff  ................
 60000300 ffffffff ffffffff ffffffff ffffffff  ................
 60000310 ffffffff ffffffff ffffffff ffffffff  ................
 60000320 ffffffff ffffffff ffffffff ffffffff  ................
 60000330 ffffffff ffffffff ffffffff ffffffff  ................
 60000340 ffffffff ffffffff ffffffff ffffffff  ................
 60000350 ffffffff ffffffff ffffffff ffffffff  ................
 60000360 ffffffff ffffffff ffffffff ffffffff  ................
 60000370 ffffffff ffffffff ffffffff ffffffff  ................
 60000380 ffffffff ffffffff ffffffff ffffffff  ................
 60000390 ffffffff ffffffff ffffffff ffffffff  ................
 600003a0 ffffffff ffffffff ffffffff ffffffff  ................
 600003b0 ffffffff ffffffff ffffffff ffffffff  ................
 600003c0 ffffffff ffffffff ffffffff ffffffff  ................
 600003d0 ffffffff ffffffff ffffffff ffffffff  ................
 600003e0 ffffffff ffffffff ffffffff ffffffff  ................
 600003f0 ffffffff ffffffff ffffffff ffffffff  ................
 60000400 ffffffff ffffffff ffffffff ffffffff  ................
 60000410 ffffffff ffffffff ffffffff ffffffff  ................
 60000420 ffffffff ffffffff ffffffff ffffffff  ................
 60000430 ffffffff ffffffff ffffffff ffffffff  ................
 60000440 ffffffff ffffffff ffffffff ffffffff  ................
 60000450 ffffffff ffffffff ffffffff ffffffff  ................
 60000460 ffffffff ffffffff ffffffff ffffffff  ................
 60000470 ffffffff ffffffff ffffffff ffffffff  ................
 60000480 ffffffff ffffffff ffffffff ffffffff  ................
 60000490 ffffffff ffffffff ffffffff ffffffff  ................
 600004a0 ffffffff ffffffff ffffffff ffffffff  ................
 600004b0 ffffffff ffffffff ffffffff ffffffff  ................
 600004c0 ffffffff ffffffff ffffffff ffffffff  ................
 600004d0 ffffffff ffffffff ffffffff ffffffff  ................
 600004e0 ffffffff ffffffff ffffffff ffffffff  ................
 600004f0 ffffffff ffffffff ffffffff ffffffff  ................
 60000500 ffffffff ffffffff ffffffff ffffffff  ................
 60000510 ffffffff ffffffff ffffffff ffffffff  ................
 60000520 ffffffff ffffffff ffffffff ffffffff  ................
 60000530 ffffffff ffffffff ffffffff ffffffff  ................
 60000540 ffffffff ffffffff ffffffff ffffffff  ................
 60000550 ffffffff ffffffff ffffffff ffffffff  ................
 60000560 ffffffff ffffffff ffffffff ffffffff  ................
 60000570 ffffffff ffffffff ffffffff ffffffff  ................
 60000580 ffffffff ffffffff ffffffff ffffffff  ................
 60000590 ffffffff ffffffff ffffffff ffffffff  ................
 600005a0 ffffffff ffffffff ffffffff ffffffff  ................
 600005b0 ffffffff ffffffff ffffffff ffffffff  ................
 600005c0 ffffffff ffffffff ffffffff ffffffff  ................
 600005d0 ffffffff ffffffff ffffffff ffffffff  ................
 600005e0 ffffffff ffffffff ffffffff ffffffff  ................
 600005f0 ffffffff ffffffff ffffffff ffffffff  ................
 60000600 ffffffff ffffffff ffffffff ffffffff  ................
 60000610 ffffffff ffffffff ffffffff ffffffff  ................
 60000620 ffffffff ffffffff ffffffff ffffffff  ................
 60000630 ffffffff ffffffff ffffffff ffffffff  ................
 60000640 ffffffff ffffffff ffffffff ffffffff  ................
 60000650 ffffffff ffffffff ffffffff ffffffff  ................
 60000660 ffffffff ffffffff ffffffff ffffffff  ................
 60000670 ffffffff ffffffff ffffffff ffffffff  ................
 60000680 ffffffff ffffffff ffffffff ffffffff  ................
 60000690 ffffffff ffffffff ffffffff ffffffff  ................
 600006a0 ffffffff ffffffff ffffffff ffffffff  ................
 600006b0 ffffffff ffffffff ffffffff ffffffff  ................
 600006c0 ffffffff ffffffff ffffffff ffffffff  ................
 600006d0 ffffffff ffffffff ffffffff ffffffff  ................
 600006e0 ffffffff ffffffff ffffffff ffffffff  ................
 600006f0 ffffffff ffffffff ffffffff ffffffff  ................
 60000700 ffffffff ffffffff ffffffff ffffffff  ................
 60000710 ffffffff ffffffff ffffffff ffffffff  ................
 60000720 ffffffff ffffffff ffffffff ffffffff  ................
 60000730 ffffffff ffffffff ffffffff ffffffff  ................
 60000740 ffffffff ffffffff ffffffff ffffffff  ................
 60000750 ffffffff ffffffff ffffffff ffffffff  ................
 60000760 ffffffff ffffffff ffffffff ffffffff  ................
 60000770 ffffffff ffffffff ffffffff ffffffff  ................
 60000780 ffffffff ffffffff ffffffff ffffffff  ................
 60000790 ffffffff ffffffff ffffffff ffffffff  ................
 600007a0 ffffffff ffffffff ffffffff ffffffff  ................
 600007b0 ffffffff ffffffff ffffffff ffffffff  ................
 600007c0 ffffffff ffffffff ffffffff ffffffff  ................
 600007d0 ffffffff ffffffff ffffffff ffffffff  ................
 600007e0 ffffffff ffffffff ffffffff ffffffff  ................
 600007f0 ffffffff ffffffff ffffffff ffffffff  ................
 60000800 ffffffff ffffffff ffffffff ffffffff  ................
 60000810 ffffffff ffffffff ffffffff ffffffff  ................
 60000820 ffffffff ffffffff ffffffff ffffffff  ................
 60000830 ffffffff ffffffff ffffffff ffffffff  ................
 60000840 ffffffff ffffffff ffffffff ffffffff  ................
 60000850 ffffffff ffffffff ffffffff ffffffff  ................
 60000860 ffffffff ffffffff ffffffff ffffffff  ................
 60000870 ffffffff ffffffff ffffffff ffffffff  ................
 60000880 ffffffff ffffffff ffffffff ffffffff  ................
 60000890 ffffffff ffffffff ffffffff ffffffff  ................
 600008a0 ffffffff ffffffff ffffffff ffffffff  ................
 600008b0 ffffffff ffffffff ffffffff ffffffff  ................
 600008c0 ffffffff ffffffff ffffffff ffffffff  ................
 600008d0 ffffffff ffffffff ffffffff ffffffff  ................
 600008e0 ffffffff ffffffff ffffffff ffffffff  ................
 600008f0 ffffffff ffffffff ffffffff ffffffff  ................
 60000900 ffffffff ffffffff ffffffff ffffffff  ................
 60000910 ffffffff ffffffff ffffffff ffffffff  ................
 60000920 ffffffff ffffffff ffffffff ffffffff  ................
 60000930 ffffffff ffffffff ffffffff ffffffff  ................
 60000940 ffffffff ffffffff ffffffff ffffffff  ................
 60000950 ffffffff ffffffff ffffffff ffffffff  ................
 60000960 ffffffff ffffffff ffffffff ffffffff  ................
 60000970 ffffffff ffffffff ffffffff ffffffff  ................
 60000980 ffffffff ffffffff ffffffff ffffffff  ................
 60000990 ffffffff ffffffff ffffffff ffffffff  ................
 600009a0 ffffffff ffffffff ffffffff ffffffff  ................
 600009b0 ffffffff ffffffff ffffffff ffffffff  ................
 600009c0 ffffffff ffffffff ffffffff ffffffff  ................
 600009d0 ffffffff ffffffff ffffffff ffffffff  ................
 600009e0 ffffffff ffffffff ffffffff ffffffff  ................
 600009f0 ffffffff ffffffff ffffffff ffffffff  ................
 60000a00 ffffffff ffffffff ffffffff ffffffff  ................
 60000a10 ffffffff ffffffff ffffffff ffffffff  ................
 60000a20 ffffffff ffffffff ffffffff ffffffff  ................
 60000a30 ffffffff ffffffff ffffffff ffffffff  ................
 60000a40 ffffffff ffffffff ffffffff ffffffff  ................
 60000a50 ffffffff ffffffff ffffffff ffffffff  ................
 60000a60 ffffffff ffffffff ffffffff ffffffff  ................
 60000a70 ffffffff ffffffff ffffffff ffffffff  ................
 60000a80 ffffffff ffffffff ffffffff ffffffff  ................
 60000a90 ffffffff ffffffff ffffffff ffffffff  ................
 60000aa0 ffffffff ffffffff ffffffff ffffffff  ................
 60000ab0 ffffffff ffffffff ffffffff ffffffff  ................
 60000ac0 ffffffff ffffffff ffffffff ffffffff  ................
 60000ad0 ffffffff ffffffff ffffffff ffffffff  ................
 60000ae0 ffffffff ffffffff ffffffff ffffffff  ................
 60000af0 ffffffff ffffffff ffffffff ffffffff  ................
 60000b00 ffffffff ffffffff ffffffff ffffffff  ................
 60000b10 ffffffff ffffffff ffffffff ffffffff  ................
 60000b20 ffffffff ffffffff ffffffff ffffffff  ................
 60000b30 ffffffff ffffffff ffffffff ffffffff  ................
 60000b40 ffffffff ffffffff ffffffff ffffffff  ................
 60000b50 ffffffff ffffffff ffffffff ffffffff  ................
 60000b60 ffffffff ffffffff ffffffff ffffffff  ................
 60000b70 ffffffff ffffffff ffffffff ffffffff  ................
 60000b80 ffffffff ffffffff ffffffff ffffffff  ................
 60000b90 ffffffff ffffffff ffffffff ffffffff  ................
 60000ba0 ffffffff ffffffff ffffffff ffffffff  ................
 60000bb0 ffffffff ffffffff ffffffff ffffffff  ................
 60000bc0 ffffffff ffffffff ffffffff ffffffff  ................
 60000bd0 ffffffff ffffffff ffffffff ffffffff  ................
 60000be0 ffffffff ffffffff ffffffff ffffffff  ................
 60000bf0 ffffffff ffffffff ffffffff ffffffff  ................
 60000c00 ffffffff ffffffff ffffffff ffffffff  ................
 60000c10 ffffffff ffffffff ffffffff ffffffff  ................
 60000c20 ffffffff ffffffff ffffffff ffffffff  ................
 60000c30 ffffffff ffffffff ffffffff ffffffff  ................
 60000c40 ffffffff ffffffff ffffffff ffffffff  ................
 60000c50 ffffffff ffffffff ffffffff ffffffff  ................
 60000c60 ffffffff ffffffff ffffffff ffffffff  ................
 60000c70 ffffffff ffffffff ffffffff ffffffff  ................
 60000c80 ffffffff ffffffff ffffffff ffffffff  ................
 60000c90 ffffffff ffffffff ffffffff ffffffff  ................
 60000ca0 ffffffff ffffffff ffffffff ffffffff  ................
 60000cb0 ffffffff ffffffff ffffffff ffffffff  ................
 60000cc0 ffffffff ffffffff ffffffff ffffffff  ................
 60000cd0 ffffffff ffffffff ffffffff ffffffff  ................
 60000ce0 ffffffff ffffffff ffffffff ffffffff  ................
 60000cf0 ffffffff ffffffff ffffffff ffffffff  ................
 60000d00 ffffffff ffffffff ffffffff ffffffff  ................
 60000d10 ffffffff ffffffff ffffffff ffffffff  ................
 60000d20 ffffffff ffffffff ffffffff ffffffff  ................
 60000d30 ffffffff ffffffff ffffffff ffffffff  ................
 60000d40 ffffffff ffffffff ffffffff ffffffff  ................
 60000d50 ffffffff ffffffff ffffffff ffffffff  ................
 60000d60 ffffffff ffffffff ffffffff ffffffff  ................
 60000d70 ffffffff ffffffff ffffffff ffffffff  ................
 60000d80 ffffffff ffffffff ffffffff ffffffff  ................
 60000d90 ffffffff ffffffff ffffffff ffffffff  ................
 60000da0 ffffffff ffffffff ffffffff ffffffff  ................
 60000db0 ffffffff ffffffff ffffffff ffffffff  ................
 60000dc0 ffffffff ffffffff ffffffff ffffffff  ................
 60000dd0 ffffffff ffffffff ffffffff ffffffff  ................
 60000de0 ffffffff ffffffff ffffffff ffffffff  ................
 60000df0 ffffffff ffffffff ffffffff ffffffff  ................
 60000e00 ffffffff ffffffff ffffffff ffffffff  ................
 60000e10 ffffffff ffffffff ffffffff ffffffff  ................
 60000e20 ffffffff ffffffff ffffffff ffffffff  ................
 60000e30 ffffffff ffffffff ffffffff ffffffff  ................
 60000e40 ffffffff ffffffff ffffffff ffffffff  ................
 60000e50 ffffffff ffffffff ffffffff ffffffff  ................
 60000e60 ffffffff ffffffff ffffffff ffffffff  ................
 60000e70 ffffffff ffffffff ffffffff ffffffff  ................
 60000e80 ffffffff ffffffff ffffffff ffffffff  ................
 60000e90 ffffffff ffffffff ffffffff ffffffff  ................
 60000ea0 ffffffff ffffffff ffffffff ffffffff  ................
 60000eb0 ffffffff ffffffff ffffffff ffffffff  ................
 60000ec0 ffffffff ffffffff ffffffff ffffffff  ................
 60000ed0 ffffffff ffffffff ffffffff ffffffff  ................
 60000ee0 ffffffff ffffffff ffffffff ffffffff  ................
 60000ef0 ffffffff ffffffff ffffffff ffffffff  ................
 60000f00 ffffffff ffffffff ffffffff ffffffff  ................
 60000f10 ffffffff ffffffff ffffffff ffffffff  ................
 60000f20 ffffffff ffffffff ffffffff ffffffff  ................
 60000f30 ffffffff ffffffff ffffffff ffffffff  ................
 60000f40 ffffffff ffffffff ffffffff ffffffff  ................
 60000f50 ffffffff ffffffff ffffffff ffffffff  ................
 60000f60 ffffffff ffffffff ffffffff ffffffff  ................
 60000f70 ffffffff ffffffff ffffffff ffffffff  ................
 60000f80 ffffffff ffffffff ffffffff ffffffff  ................
 60000f90 ffffffff ffffffff ffffffff ffffffff  ................
 60000fa0 ffffffff ffffffff ffffffff ffffffff  ................
 60000fb0 ffffffff ffffffff ffffffff ffffffff  ................
 60000fc0 ffffffff ffffffff ffffffff ffffffff  ................
 60000fd0 ffffffff ffffffff ffffffff ffffffff  ................
 60000fe0 ffffffff ffffffff ffffffff ffffffff  ................
 60000ff0 ffffffff ffffffff ffffffff ffffffff  ................
 60001000 d1002043 4d160060 00000000 00000000  .. CM..`........
 60001010 20100060 00100060 00b40160 00000000   ..`...`...`....
 60001020 00000060 00c00100 00000000 ffffffff  ...`............
 60001030 ffffffff ffffffff ffffffff ffffffff  ................
 60001040 ffffffff ffffffff ffffffff ffffffff  ................
 60001050 ffffffff ffffffff ffffffff ffffffff  ................
 60001060 ffffffff ffffffff ffffffff ffffffff  ................
 60001070 ffffffff ffffffff ffffffff ffffffff  ................
 60001080 ffffffff ffffffff ffffffff ffffffff  ................
 60001090 ffffffff ffffffff ffffffff ffffffff  ................
 600010a0 ffffffff ffffffff ffffffff ffffffff  ................
 600010b0 ffffffff ffffffff ffffffff ffffffff  ................
 600010c0 ffffffff ffffffff ffffffff ffffffff  ................
 600010d0 ffffffff ffffffff ffffffff ffffffff  ................
 600010e0 ffffffff ffffffff ffffffff ffffffff  ................
 600010f0 ffffffff ffffffff ffffffff ffffffff  ................
 60001100 ffffffff ffffffff ffffffff ffffffff  ................
 60001110 ffffffff ffffffff ffffffff ffffffff  ................
 60001120 ffffffff ffffffff ffffffff ffffffff  ................
 60001130 ffffffff ffffffff ffffffff ffffffff  ................
 60001140 ffffffff ffffffff ffffffff ffffffff  ................
 60001150 ffffffff ffffffff ffffffff ffffffff  ................
 60001160 ffffffff ffffffff ffffffff ffffffff  ................
 60001170 ffffffff ffffffff ffffffff ffffffff  ................
 60001180 ffffffff ffffffff ffffffff ffffffff  ................
 60001190 ffffffff ffffffff ffffffff ffffffff  ................
 600011a0 ffffffff ffffffff ffffffff ffffffff  ................
 600011b0 ffffffff ffffffff ffffffff ffffffff  ................
 600011c0 ffffffff ffffffff ffffffff ffffffff  ................
 600011d0 ffffffff ffffffff ffffffff ffffffff  ................
 600011e0 ffffffff ffffffff ffffffff ffffffff  ................
 600011f0 ffffffff ffffffff ffffffff ffffffff  ................
 60001200 ffffffff ffffffff ffffffff ffffffff  ................
 60001210 ffffffff ffffffff ffffffff ffffffff  ................
 60001220 ffffffff ffffffff ffffffff ffffffff  ................
 60001230 ffffffff ffffffff ffffffff ffffffff  ................
 60001240 ffffffff ffffffff ffffffff ffffffff  ................
 60001250 ffffffff ffffffff ffffffff ffffffff  ................
 60001260 ffffffff ffffffff ffffffff ffffffff  ................
 60001270 ffffffff ffffffff ffffffff ffffffff  ................
 60001280 ffffffff ffffffff ffffffff ffffffff  ................
 60001290 ffffffff ffffffff ffffffff ffffffff  ................
 600012a0 ffffffff ffffffff ffffffff ffffffff  ................
 600012b0 ffffffff ffffffff ffffffff ffffffff  ................
 600012c0 ffffffff ffffffff ffffffff ffffffff  ................
 600012d0 ffffffff ffffffff ffffffff ffffffff  ................
 600012e0 ffffffff ffffffff ffffffff ffffffff  ................
 600012f0 ffffffff ffffffff ffffffff ffffffff  ................
 60001300 ffffffff ffffffff ffffffff ffffffff  ................
 60001310 ffffffff ffffffff ffffffff ffffffff  ................
 60001320 ffffffff ffffffff ffffffff ffffffff  ................
 60001330 ffffffff ffffffff ffffffff ffffffff  ................
 60001340 ffffffff ffffffff ffffffff ffffffff  ................
 60001350 ffffffff ffffffff ffffffff ffffffff  ................
 60001360 ffffffff ffffffff ffffffff ffffffff  ................
 60001370 ffffffff ffffffff ffffffff ffffffff  ................
 60001380 ffffffff ffffffff ffffffff ffffffff  ................
 60001390 ffffffff ffffffff ffffffff ffffffff  ................
 600013a0 ffffffff ffffffff ffffffff ffffffff  ................
 600013b0 ffffffff ffffffff ffffffff ffffffff  ................
 600013c0 ffffffff ffffffff ffffffff ffffffff  ................
 600013d0 ffffffff ffffffff ffffffff ffffffff  ................
 600013e0 ffffffff ffffffff ffffffff ffffffff  ................
 600013f0 ffffffff ffffffff ffffffff ffffffff  ................
Contents of section .text.code:
 60001400 814205d0 51f8043b 40f8043b 8242f9d8  .B..Q..;@..;.B..
 60001410 704700bf 044a0549 4ff00003 42f8043b  pG...J.IO...B..;
 60001420 9142fbd8 704700bf c02a0020 c0430020  .B..pG...*. .C. 
 60001430 2de98848 bff34f8f 00bf00bf 00bf00bf  -..H..O.........
 60001440 00f0fcfa 684b0822 c3f85421 00bf00bf  ....hK."..T!....
 60001450 00bf00bf 00bf00bf 00bf00bf 00bf00bf  ................
 60001460 00bf00bf 00bf00bf 00bf00bf 5f4a6049  ............_J`I
 60001470 6048fff7 c5ff604a 60496148 fff7c0ff  `H....`J`IaH....
 60001480 604cfff7 c7ff4ff4 70004ff0 e0210023  `L....O.p.O..!.#
 60001490 5d4ac1f8 880d44f8 23200133 b02bfad1  ]J....D.# .3.+..
 600014a0 5a4b8021 5a4a03f8 011b9342 fbd14ff0  ZK.!ZJ.....B..O.
 600014b0 e0254d4e 4ff08039 dff884b1 dff884a1  .%MNO..9........
 600014c0 4ff0ff31 c5f8084d 0027c6f8 0491c6f8  O..1...M.'......
 600014d0 00b1c6f8 f490c6f8 f0a0d5f8 243ddff8  ............$=..
 600014e0 688143f4 e0234b4a c5f8243d d8f81c30  h.C..#KJ..$=...0
 600014f0 23f07f03 43f04003 c8f81c30 d8f82430  #...C.@....0..$0
 60001500 23f07f03 43f04003 c8f82430 9166d166  #...C.@...$0.f.f
 60001510 11675167 00f09afa 3f4b4049 a363404b  .gQg....?K@I.c@K
 60001520 e3636323 6b610323 af612b61 3d4bc5f8  .cc#ka.#.a+a=K..
 60001530 203dd5f8 fc3d43f0 8073c5f8 fc3d3a4b   =...=C..s...=:K
 60001540 1a6842f0 01021a60 5b680b60 00f0c8fc  .hB....`[h.`....
 60001550 c6f80491 3548c6f8 00b1c6f8 f490c6f8  ....5H..........
 60001560 f0a000f0 a1fdd8f8 6c10314b 314a41f4  ........l.1K1JA.
 60001570 4051c8f8 6c101f60 c3f80871 c3f81871  @Q..l..`...q...q
 60001580 c3f82871 c3f83871 936bdb07 08d442f6  ..(q..8q.k....B.
 60001590 15632949 51651365 936b43f0 01039363  .c)IQe.e.kC....c
 600015a0 244a264c 936843f0 01139360 00f0d6fa  $J&L.hC....`....
 600015b0 00f01afa 00f088fd 00f0c0fc 00f040fa  ..............@.
 600015c0 2368132b fcd900f0 71f92368 b3f5967f  #h.+....q.#h....
 600015d0 fbd300f0 39fa00f0 35fa00f0 7dfd00f0  ....9...5...}...
 600015e0 67fd30bf fde700bf 00800d40 b8630100  g.0........@.c..
 600015f0 f0230060 00000000 c02a0020 ac870160  .#.`.....*. ...`
 60001600 00000020 00280020 d5140100 00e400e0  ... .(. ........
 60001610 a0e400e0 00c00a40 dd0d0100 e4420020  .......@.....B. 
 60001620 b90e0100 00002020 001000e0 0046c323  ......  .....F.#
 60001630 00400840 00400d40 0000c056 e8420020  .@.@.@.@...V.B. 
 60001640 1b101820 0c0d1113 00c00f40 054b4ff4  ... .......@.KO.
 60001650 2a01054a 05485a64 1864054a 99639546  *..J.HZd.d.J.c.F
 60001660 fff7e6fe 00c00a40 bfaaaaaa 07002000  .......@...... .
 60001670 00800620 f8b50546 002605f1 140405f1  ... ...F.&......
 60001680 a4073146 40f8046b 00f016fd 04f8046c  ..1F@..k.......l
 60001690 00212046 00f010fd 002104f1 0c0000f0  .! F.....!......
 600016a0 0bfd04f1 18003034 002100f0 05fdbc42  ......04.!.....B
 600016b0 ecd12846 f8bd00bf f8b5194c 05462378  ..(F.......L.F#x
 600016c0 bbb9071d 05f17004 a5f12006 04f11c00  ......p... .....
 600016d0 00f0dafc 04f11000 00f0d6fc 201d303c  ............ .0<
 600016e0 00f0d2fc b442f1d1 384600f0 cdfc2846  .....B..8F....(F
 600016f0 f8bd0068 2f4600f0 fbfc0023 06460949  ...h/F.....#.F.I
 60001700 47f8043b 38462370 00f0bafc 002ed9d0  G..;8F#p........
 60001710 304600f0 b1fc0446 00f0befc 0460d1e7  0F.....F.....`..
 60001720 7d430020 981c0020 2448254b d0f88020  }C. ... $H%K... 
 60001730 244942f4 405210b4 c0f88020 224c234a  $IB.@R..... "L#J
 60001740 1c602348 5a60234a 1862234c 5a622348  .`#HZ`#J.b#LZb#H
 60001750 234a9c62 46f62014 d86240f6 a3101a63  #J.bF. ..b@....c
 60001760 4ff4c862 59635963 4ff4c841 dc603f24  O..bYcYcO..A.`?$
 60001770 9860d961 9a611a68 1a4822f0 80021a49  .`.a.a.h.H"....I
 60001780 1a601a68 22f00c02 1a601a68 22f00302  .`.h"....`.h"...
 60001790 42f00202 1a605c61 18610020 d3f8a020  B....`\a.a. ... 
 600017a0 5df8044b 22f00202 c3f8a020 1a6822f4  ]..K"...... .h".
 600017b0 80321a60 da6f1b6c 08607047 00c00f40  .2.`.o.l.`pG...@
 600017c0 00c00c40 2f002e00 40100100 22000100  ...@/...@..."...
 600017d0 68050c01 9501b200 dc007a00 7d005800  h.........z.}.X.
 600017e0 4b004000 c409800c bc400020 074a1368  K.@......@. .J.h
 600017f0 43f48033 13601368 9b04fcd5 044ad2f8  C..3.`.h.....J..
 60001800 803023f4 4053c2f8 80307047 00c00c40  .0#.@S...0pG...@
 60001810 00c00f40 00b583b0 019000f0 41fc0198  ...@........A...
 60001820 03b05df8 04fb00bf 38b50446 00254ff0  ..].....8..F.%O.
 60001830 ff330d49 25721030 c4e90035 00f03cfc  .3.I%r.0...5..<.
 60001840 0120e561 20842046 84f82250 e5622565  . .a . F.."P.b%e
 60001850 c4e90955 c4e90c55 c4e90e55 c4e91055  ...U...U...U...U
 60001860 c4e91255 38bd00bf 201d0020 10b50446  ...U8... .. ...F
 60001870 00f036fc e36c23b1 04f14401 03220846  ..6..l#...D..".F
 60001880 9847e36b 23b104f1 34010322 08469847  .G.k#...4..".F.G
 60001890 e36a23b1 04f12401 03220846 984704f1  .j#...$..".F.G..
 600018a0 100000f0 f1fb2046 10bd00bf 314b40f6  ...... F....1K@.
 600018b0 617210b5 c3f82021 40f20444 00f014fc  ar.... !@..D....
 600018c0 2d4a2e49 d2f88030 2d4843f0 0303c2f8  -J.I...0-HC.....
 600018d0 80302c4b c1f86041 02681a42 03d1d1f8  .0,K..`A.h.B....
 600018e0 a8319a07 1bd0254a 4ff00041 244b5963  .1....%JO..A$KYc
 600018f0 d2f84031 43f00203 c2f84031 d2f84031  ..@1C.....@1..@1
 60001900 9b07fbd4 4ff40030 4ff0e021 1c4b4ff0  ....O..0O..!.KO.
 60001910 0042c1f8 8c021920 9a6300f0 d1fb184a  .B..... .c.....J
 60001920 4ff08040 154c0021 90630a20 164b1160  O..@.L.!.c. .K.`
 60001930 4ff46072 c4f8a801 184600f0 a9fb4ff4  O.`r.....F....O.
 60001940 80020346 4ff48100 40f24311 1860c4f8  ...FO...@.C..`..
 60001950 58311a64 0d4b0e4a c4f84811 c3f80422  X1.d.K.J..H...."
 60001960 4ff0e022 4ff40031 0123c2f8 0c11c4f8  O.."O..1.#......
 60001970 403110bd 00800d40 00c00f40 00002e40  @1.....@...@...@
 60001980 00900d40 001c1e00 00000020 00280020  ...@....... .(. 
 60001990 75fd0000 08b50e4b 1b6e9b07 00d4fbbe  u......K.n......
 600019a0 72b60c4b 00200c4a c3f84001 03f16043  r..K. .J..@...`C
 600019b0 0a49a3f5 5f231164 9d46bff3 4f8f4ff4  .I.._#.d.F..O.O.
 600019c0 00130748 074adb69 02609b68 984700bf  ...H.J.i.`.h.G..
 600019d0 00441f40 00002e40 00c00a40 03002000  .D.@...@...@.. .
 600019e0 00802020 000012eb 104ba020 104ad96e  ..  .....K. .J.n
 600019f0 41f44031 10b4d966 40f23764 d96e41f4  A.@1...f@.7d.nA.
 60001a00 4071d966 54649064 936c1b06 fcd4094a  @q.fTd.d.l.....J
 60001a10 40f23761 a0235164 9364936c 13f08003  @.7a.#Qd.d.l....
 60001a20 fbd1054a 13705df8 044b7047 00c00f40  ...J.p]..KpG...@
 60001a30 00400c40 00800c40 83430020 704700bf  .@.@...@.C. pG..
 60001a40 704700bf 704700bf 00bf7047 10b44ff0  pG..pG....pG..O.
 60001a50 e0230021 10243148 c3f8941d c3f89c4d  .#.!.$1H.......M
 60001a60 1124c3f8 a00d2e48 c3f89c4d 1224c3f8  .$.....H...M.$..
 60001a70 a00d2c48 c3f89c4d 2b4ac3f8 a00d2b4c  ..,H...M+J....+L
 60001a80 42f01502 2a48c3f8 9c4dc3f8 a00d294c  B...*H...M....)L
 60001a90 2948c3f8 9c4dc3f8 a00d284c c3f89c2d  )H...M....(L...-
 60001aa0 2748284a c3f8a04d c3f89c0d c3f8a02d  'H(J...M.......-
 60001ab0 02f5a022 244c0c32 2448c3f8 9c4dc3f8  ..."$L.2$H...M..
 60001ac0 a02d234a c3f89c0d 224cc3f8 a02d02f1  .-#J...."L...-..
 60001ad0 4062c3f8 9c4d2048 c3f8a02d 0c32c3f8  @b...M H...-.2..
 60001ae0 9c0dc3f8 a02d00bf 00bf00bf 00bf00bf  .....-..........
 60001af0 0122c3f8 942dbff3 4f8fbff3 6f8fc3f8  ."...-..O...o...
 60001b00 501fbff3 4f8fbff3 6f8fd3f8 142d5df8  P...O...o....-].
 60001b10 044b42f4 4032c3f8 142d7047 3f000010  .KB.@2...-pG?...
 60001b20 25000807 09001000 c0430020 13002000  %........C. .. .
 60001b30 21000207 14000020 25000813 09000010  !...... %.......
 60001b40 16002020 27000b13 17000040 18000060  ..  '......@...`
 60001b50 2f000b07 19000070 1a000080 f0b5b84b  /......p.......K
 60001b60 1822b84e 0120b84f 83b0c3f8 5c62b749  .".N. .O....\b.I
 60001b70 c3f86072 b64dc3f8 6462a6f5 3046b54c  ..`r.M..db..0F.L
 60001b80 c3f86862 c3f86c52 c3f87052 c3f87452  ..hb..lR..pR..tR
 60001b90 c3f87852 48f20c75 da661a67 5a679a67  ..xRH..u.f.gZg.g
 60001ba0 da67c3f8 8020c3f8 8420c3f8 8820c1f8  .g... ... ... ..
 60001bb0 2c03a94a c1f83003 c1f83403 c1f83803  ,..J..0...4...8.
 60001bc0 c1f83c03 c1f85003 a169a44b 0a40a448  ..<...P..i.K.@.H
 60001bd0 a4491343 a44aa361 d4f88430 43f00c03  .I.C.J.a...0C...
 60001be0 c4f88430 4ff0ff34 036843f0 02030360  ...0O..4.hC....`
 60001bf0 03682b40 4ff40055 1a439c4b 02604460  .h+@O..U.C.K.`D`
 60001c00 8a689b4c 13409b4a 43f00053 8360c368  .h.L.@.JC..S.`.h
 60001c10 23f07803 c360036a 13402343 0362036a  #.x..`.j.@#C.b.j
 60001c20 1340954a 2343954c 43628262 c2620022  .@.J#C.LCb.b.b."
 60001c30 d1f8b830 23f03f03 43f00103 c0f8b830  ...0#.?.C......0
 60001c40 d1f8bc30 8e4923f0 3f0343f0 0103c0f8  ...0.I#.?.C.....
 60001c50 bc3040f2 05630261 05660467 c0f88030  .0@..c.a.f.g...0
 60001c60 45664467 0224c0f8 84300368 23f00203  EfDg.$...0.h#...
 60001c70 03608161 834b8449 c46143f8 042b8b42  .`.a.K.I.aC..+.B
 60001c80 fbd1774a 136843f0 01031360 136813f0  ..wJ.hC....`.h..
 60001c90 0103fbd1 7a480221 40f2f564 906140f2  ....zH.!@..d.a@.
 60001ca0 9940d161 40f26641 c2f80042 42f20144  .@.a@.fA...BB..D
 60001cb0 c2f81012 7549c2f8 2002c2f8 301240f2  ....uI.. ...0.@.
 60001cc0 35417348 c2f83442 c2f84012 714cc2f8  5AsH..4B..@.qL..
 60001cd0 500242f2 01207049 c2f85412 0121c2f8  P.B.. pI..T..!..
 60001ce0 6042c2f8 64025e48 c2f8a030 c2f8a430  `B..d.^H...0...0
 60001cf0 c2f8b010 4369da07 fcd50123 00244ff4  ....Ci.....#.$O.
 60001d00 80325749 4361c0f8 a040c0f8 a420c0f8  .2WICa...@... ..
 60001d10 b0304b69 db07fcd5 01230024 4ff40030  .0Ki.....#.$O..0
 60001d20 4f4a4b61 c1f8a040 c1f8a400 c1f8b030  OJKa...@.......0
 60001d30 5369df07 fcd50123 00245848 48495361  Si.....#.$XHHISa
 60001d40 c2f8a040 c2f8a400 c2f8b030 4b69de07  ...@.......0Ki..
 60001d50 fcd5d1f8 003145f6 0d522120 9bb24861  .....1E..R! ..Ha
 60001d60 934265d1 00244ff4 80220123 3c48c1f8  .Be..$O..".#<H..
 60001d70 a040c1f8 a420c1f8 b0304369 dd07fcd5  .@... ...0Ci....
 60001d80 01234ff4 00040021 354a4361 c0f8a040  .#O....!5JCa...@
 60001d90 c0f8a410 c0f8b030 5369dc07 fcd50123  .......0Si.....#
 60001da0 4ff40004 4ff48030 2d495361 c2f8a040  O...O..0-ISa...@
 60001db0 c2f8a400 c2f8b030 4b69d807 fcd50123  .......0Ki.....#
 60001dc0 4ff40004 4ff40030 254a4b61 c1f8a040  O...O..0%JKa...@
 60001dd0 c1f8a400 c1f8b030 5369d907 fcd50123  .......0Si.....#
 60001de0 4ff40004 2d481e49 5361c2f8 a040c2f8  O...-H.ISa...@..
 60001df0 a400c2f8 b0304b69 da07fcd5 d1f80031  .....0Ki.......1
 60001e00 45f60d52 21209bb2 48619342 50d00825  E..R! ..Ha.BP..%
 60001e10 4ff40004 22490020 224b234a 00901570  O..."I. "K#J...p
 60001e20 5a1a0123 21482244 00f052f9 03b0f0bd  Z..#!H"D..R.....
 60001e30 1e4b0022 c3e90022 c3e90222 03b0f0bd  .K."..."..."....
 60001e40 00801f40 f9b00100 f9100100 00841f40  ...@...........@
 60001e50 f9700100 00c00f40 fffcff1f 000300a0  .p.....@........
 60001e60 00402a40 00802a40 1200ffff ff37f700  .@*@..*@.....7..
 60001e70 40000080 00fff07c ff000f83 63000200  @......|....c...
 60001e80 f05af05a 00422a40 00432a40 9f041830  .Z.Z.B*@.C*@...0
 60001e90 eb06180a 3806180a 06320126 04000300  ....8....2.&....
 60001ea0 00000070 00000070 85430020 243f0020  ...p...p.C. $?. 
 60001eb0 4ff40004 4ff48022 01230848 c1f8a040  O...O..".#.H...@
 60001ec0 c1f8a420 c1f8b030 4369db07 fcd50123  ... ...0Ci.....#
 60001ed0 10254ff0 80744361 9ce700bf 00402a40  .%O..tCa.....@*@
 60001ee0 f0b4154a 40274ff4 80314ff4 80564ff4  ...J@'O..1O..VO.
 60001ef0 00554ff4 404443f2 42001369 13f0020f  .UO.@DC.B..i....
 60001f00 0ed113f4 005f0fd0 13f4805f 0ed0002b  ....._....._...+
 60001f10 f3da13f4 803f0bd1 5b060bd5 f0bc7047  .....?..[.....pG
 60001f20 94615161 9061e8e7 5561e6e7 5661e4e7  .aQa.a..Ua..Va..
 60001f30 9161e2e7 5761e0e7 00800d40 3f4a0320  .a..Wa.....@?J. 
 60001f40 3f49f3ee 095ad2f8 80304ff0 000c9fed  ?I...Z...0O.....
 60001f50 3d6a23f0 01039fed 3c5a30b4 c2f88030  =j#.....<Z0....0
 60001f60 c2f89000 d1f8e010 384dcbb2 384c3948  ........8M..8L9H
 60001f70 2b6007ee 903a0b0d c1f30b21 f8eee77a  +`...:.....!...z
 60001f80 06ee903a 07ee101a 334bb8ee c77a2160  ...:....3K...z!`
 60001f90 f8eee66a 314937ee c66a37ee c55a76ee  ...j1I7..j7..Zv.
 60001fa0 c76a77ee e57a26ee 266ac3ed 006a25ee  .jw..z&.&j...j%.
 60001fb0 265ad2f8 803067ee a64ac0ed 007ac6ee  &Z...0g..J...z..
 60001fc0 275a2748 85ee276a c4eea76a 75ee875a  'Z'H..'j...ju..Z
 60001fd0 fceee55a 36ee076a 15ee904a bceec66a  ...Z6..j...J...j
 60001fe0 43ea0453 76ee877a c2f88030 16ee103a  C..Sv..z...0...:
 60001ff0 d2f89041 fceee77a 01ea0341 214317ee  ...A...z...A!C..
 60002000 903ac2f8 9011c3f3 0b03d2f8 90110b43  .:.............C
 60002010 1449c2f8 9031d2f8 803043f0 0203c2f8  .I...1...0C.....
 60002020 8030114b 80f840c0 c1f84031 4ff0e023  .0.K..@...@1O..#
 60002030 012230bc c3f80821 704700bf 00810d40  ."0....!pG.....@
 60002040 00441f40 0000aa42 0000b442 c4400020  .D.@...B...B.@. 
 60002050 c0400020 c8400020 d4400020 0000ff0f  .@. .@. .@. ....
 60002060 00e400e0 00280020 e11d0100 f8b500bf  .....(. ........
 60002070 f8bc08bc 9e467047 5ff800f0 09430000  .....FpG_....C..
 60002080 5ff800f0 7d270100 5ff800f0 05270100  _...}'.._....'..
 60002090 5ff800f0 ed5c0100 5ff800f0 515c0100  _....\.._...Q\..
 600020a0 5ff800f0 053c0000 5ff800f0 f9040100  _....<.._.......
 600020b0 5ff800f0 91480100 5ff800f0 c9260100  _....H.._....&..
 600020c0 5ff800f0 653a0100 5ff800f0 e1130100  _...e:.._.......
 600020d0 5ff800f0 890f0100 5ff800f0 3d4e0100  _......._...=N..
 600020e0 5ff800f0 e5750000 5ff800f0 451e0100  _....u.._...E...
 600020f0 5ff800f0 69520000 45000000 49050000  _...iR..E...I...
 60002100 81140000 65220000 1d3a0000 113b0000  ....e"...:...;..
 60002110 893b0000 393d0000 a93d0000 693e0000  .;..9=...=..i>..
 60002120 55740000 05750000 71760000 45840000  Ut...u..qv..E...
 60002130 a9fb0000 a90b0100 f90b0100 113c0100  .............<..
 60002140 dd410100 41430100 41440100 41450100  .A..AC..AD..AE..
 60002150 1d460100 31470100 91470100 49490100  .F..1G...G..II..
Contents of section .text.progmem:
 60002160 80c00f40 00000003 19000000 10000000  ...@............
 60002170 e8841f40 01000000 ff000000 ff000000  ...@............
 60002180 00000000 00000000 18000000 10000000  ................
 60002190 e4841f40 01000000 ff000000 ff000000  ...@............
 600021a0 00000000 00000000 1f000000 9dfb0000  ................
 600021b0 70c00f40 000c0000 11000000 11000000  p..@............
 600021c0 e0841f40 02000000 2c000000 12000000  ...@....,.......
 600021d0 e0841f40 01000000 10000000 11000000  ...@............
 600021e0 dc841f40 02000000 2d000000 12000000  ...@....-.......
 600021f0 dc841f40 01000000 1e000000 91fb0000  ...@............
 60002200 70c00f40 c0000000 12000000 13000000  p..@............
 60002210 d0841f40 01000000 ff000000 ff000000  ...@............
 60002220 00000000 00000000 13000000 13000000  ................
 60002230 cc841f40 01000000 ff000000 ff000000  ...@............
 60002240 00000000 00000000 1c000000 85fb0000  ................
 60002250 16035500 53004200 20004300 75007300  ..U.S.B. .C.u.s.
 60002260 74006f00 6d000000 18035400 65006500  t.o.m.....T.e.e.
 60002270 6e007300 79006400 75006900 6e006f00  n.s.y.d.u.i.n.o.
 60002280 04030904 0902ad00 050100c0 32080b00  ............2...
 60002290 02020201 00090400 00010202 01000524  ...............$
 600022a0 00100105 24010101 04240206 05240600  ....$....$...$..
 600022b0 01070581 03100010 09040100 020a0000  ................
 600022c0 00070502 02400000 07058202 40000008  .....@......@...
 600022d0 0b020202 02010009 04020001 02020100  ................
 600022e0 05240010 01052401 01010424 02060524  .$....$....$...$
 600022f0 06020307 05830310 00400904 0300020a  .........@......
 60002300 00000007 05040240 00000705 84024000  .......@......@.
 60002310 00090404 00020300 00000921 11010001  ...........!....
 60002320 221e0007 058503ff 03010705 0603ff03  "...............
 60002330 01000000 0902ad00 050100c0 32080b00  ............2...
 60002340 02020201 00090400 00010202 01000524  ...............$
 60002350 00100105 24010101 04240206 05240600  ....$....$...$..
 60002360 01070581 03100005 09040100 020a0000  ................
 60002370 00070502 02000200 07058202 00020008  ................
 60002380 0b020202 02010009 04020001 02020100  ................
 60002390 05240010 01052401 01010424 02060524  .$....$....$...$
 600023a0 06020307 05830310 00050904 0300020a  ................
 600023b0 00000007 05040200 02000705 84020002  ................
 600023c0 00090404 00020300 00000921 11010001  ...........!....
 600023d0 221e0007 058503ff 03010705 0603ff03  "...............
 600023e0 01000000 0a060002 ef020140 01000000  ...........@....
Contents of section .text.itcm:
 00000 00000000 00000000 00000000 00000000  ................
 00010 00000000 00000000 00000000 00000000  ................
 00020 0548064b 1b1ad90f 01eba301 491002d0  .H.K........I...
 00030 034b03b1 18477047 c02a0020 c02a0020  .K...GpG.*. .*. 
 00040 00000000 08b5054b 1bb10549 0548aff3  .......K...I.H..
 00050 0080bde8 0840fff7 e3bf00bf 00000000  .....@..........
 00060 2c400020 00c00160 90f81cc0 4160bcf1  ,@. ...`....A`..
 00070 020fc260 01d18368 184710f0 4bbe00bf  ...`...h.G..K...
 00080 f0b40468 40f20125 1e462561 a3b121b3  ...h@..%.F%a..!.
 00090 11f8015b 013b6566 256faf07 07d41546  ...[.;ef%o.....F
 000a0 013e676f 1ab105f8 017b2a46 04686569  .>go.....{*F.hei
 000b0 ed07f1d5 002bead1 6eb10368 196f8907  .....+..n..h.o..
 000c0 fad41146 013e5b6f 002af5d0 01f8013b  ...F.>[o.*.....;
 000d0 0a46002e f1d1f0bc 704790f8 3c50d9e7  .F......pG..<P..
 000e0 324b3349 30b5d3e9 11542079 c8771a6c  2K3I0....T y.w.l
 000f0 95f804c0 81f81cc0 087752b1 b2f5004f  .........wR....O
 00100 23d32c49 11442a4a 1964d076 82f81bc0  #.,I.D*J.d.v....
 00110 30bd1968 0f24d86c 8c6540f2 0134ca61  0..h.$.l.e@..4.a
 00120 0c614ff4 7c544c61 03210468 246883f8  .aO.|TLa.!.h$h..
 00130 3d10214b 9c4226d1 037f4260 022bc260  =.!K.B&...B`.+.`
 00140 26d18368 bde83040 18472d68 e98b0904  &..h..0@.G-h....
 00150 22d492b2 ea832168 ec8ba4b2 ec82cc8b  ".....!h........
 00160 240405d5 cc8bc2f3 080204f4 7e442243  $...........~D"C
 00170 ca83ca8b 92b2ca82 00210d4a 1964d076  .........!.J.d.v
 00180 82f81bc0 30bd2346 1146bde8 30401847  ....0.#F.F..0@.G
 00190 bde83040 10f0bebd e98bc2f3 080e92b2  ..0@............
 001a0 01f47e41 41ea0e01 e983d4e7 9c340020  ..~AA........4. 
 001b0 00800e40 0180ffff 69000000 324b3349  ...@....i...2K3I
 001c0 30b5d3e9 11542079 c8771a6c 95f804c0  0....T y.w.l....
 001d0 81f81cc0 087752b1 b2f5004f 23d32c49  .....wR....O#.,I
 001e0 11442a4a 1964d076 82f81bc0 30bd1968  .D*J.d.v....0..h
 001f0 0f24d86c 8c6540f2 0134ca61 0c614ff4  .$.l.e@..4.a.aO.
 00200 7c544c61 03210468 246883f8 3d10214b  |TLa.!.h$h..=.!K
 00210 9c4226d1 037f4260 022bc260 26d18368  .B&...B`.+.`&..h
 00220 bde83040 18472d68 e98b0904 22d492b2  ..0@.G-h...."...
 00230 ea832168 ec8ba4b2 ec82cc8b 240405d5  ..!h........$...
 00240 cc8bc2f3 080204f4 7e442243 ca83ca8b  ........~D"C....
 00250 92b2ca82 00210d4a 1964d076 82f81bc0  .....!.J.d.v....
 00260 30bd2346 1146bde8 30401847 bde83040  0.#F.F..0@.G..0@
 00270 10f050bd e98bc2f3 080e92b2 01f47e41  ..P...........~A
 00280 41ea0e01 e983d4e7 4c340020 00800e40  A.......L4. ...@
 00290 0180ffff 69000000 0023c0e9 0012c0e9  ....i....#......
 002a0 0233c0e9 0433c0e9 0633c0e9 0833c0e9  .3...3...3...3..
 002b0 0a33c0e9 0c338363 8387c0e9 1033c0e9  .3...3.c.....3..
 002c0 12337047 43682de9 f04fd3e9 0041814d  .3pGCh-..O...A.M
 002d0 4ff0b80a 22684ff0 020822ea 01027e49  O..."hO..."...~I
 002e0 2260aa69 11407d4a 0a43aa61 90f810e0  "`.i.@}J.C.a....
 002f0 7b4a03eb 0e0603eb 8e0e317c 02eb0111  {J........1|....
 00300 8968c1f8 00a090f8 11c003eb 0c050cf1  .h..............
 00310 0a0c95f8 241002eb 01118968 c1f800a0  ....$......h....
 00320 817c03eb 010903eb 810199f8 38b002eb  .|..........8...
 00330 0b1bdbf8 08b0cbf8 00a0d4f8 00a05f68  .............._h
 00340 4aea070a c4f800a0 347cdef8 14e002eb  J.......4|......
 00350 04146468 c4f800e0 95f82440 53f82cc0  ..dh......$@S.,.
 00360 02eb0414 6468c4f8 00c0c96b 99f83840  ....dh.....k..8@
 00370 02eb0412 52681160 9a6c99f8 44101160  ....Rh.`.l..D..`
 00380 1a6a317f 5b6b1160 95f83020 1a600f22  .j1.[k.`..0 .`."
 00390 0368c3f8 10809a65 c27c002a 31d072b6  .h.....e.|.*1.r.
 003a0 c37cdc07 08d54ff0 e0214469 d1f88021  .|....O..!Di...!
 003b0 22408262 c1f88021 990708d5 4ff0e021  "@.b...!....O..!
 003c0 8469d1f8 84212240 c262c1f8 84215a07  .i...!"@.b...!Z.
 003d0 08d54ff0 e021c469 d1f88821 22400263  ..O..!.i...!"@.c
 003e0 c1f88821 1f0708d5 4ff0e021 046ad1f8  ...!....O..!.j..
 003f0 8c212240 4263c1f8 8c21de06 55d462b6  .!"@Bc...!..U.b.
 00400 0368384c 8268a242 59d0324a 84609269  .h8L.h.BY.2J.`.i
 00410 3549c2f3 0116c2f3 8262344d 51f82610  5I.......b4MQ.&.
 00420 0132b1fb f2f2aa42 31d80022 c2600024  .2.....B1..".`.$
 00430 03211c61 07245962 01211a64 1c661961  .!.a.$Yb.!.d.f.a
 00440 c37c13b3 dd0704d5 816a4ff0 e022c2f8  .|.......jO.."..
 00450 00119c07 04d5c16a 4ff0e022 c2f80411  .......jO.."....
 00460 590704d5 016b4ff0 e022c2f8 08111a07  Y....kO.."......
 00470 04d5416b 4ff0e022 c2f80c11 db0604d5  ..AkO.."........
 00480 826b4ff0 e023c3f8 1021bde8 f08f1849  .kO..#...!.....I
 00490 a1fb0251 090db2fb f1f2a242 88bf0131  ...Q.......B...1
 004a0 b1f5817f 0dd3134a c0e74ff0 e022416a  .......J..O.."Aj
 004b0 d2f89031 0b408363 c2f89031 9fe7c268  ...1.@.c...1...h
 004c0 b5e70229 b1d90239 4c082202 42ea0442  ...)...9L.".B..B
 004d0 0a43abe7 00c00f40 cfffffe3 10000008  .C.....@........
 004e0 7c110020 00093d00 a80e0020 ff083d00  |.. ..=.... ..=.
 004f0 83de1b43 ff7f7f00 0bb1fff7 c1bd7047  ...C..........pG
 00500 4368d3e9 00120968 114200d1 704710b5  Ch.....h.B..pG..
 00510 02680446 00200521 1061227c 1344187c  .h.F. .!.a"|.D.|
 00520 10f09ef9 627c6368 05211344 93f82400  ....b|ch.!.D..$.
 00530 10f096f9 6368a27c 05211344 bde81040  ....ch.|.!.D...@
 00540 93f83800 10f08cb9 08b5084a 08490948  ..8........J.I.H
 00550 fff7a2fe 084a0949 0948fff7 9dfe094a  .....J.I.H.....J
 00560 09490a48 fff798fe 08bd00bf 540b0020  .I.H........T.. 
 00570 00003a40 4c340020 e40a0020 00c03940  ..:@L4. ... ..9@
 00580 9c340020 740a0020 00403940 ec340020  .4. t.. .@9@.4. 
 00590 90f8a320 90f8a200 101a7047 90f8a230  ... ......pG...0
 005a0 90f8a320 9a4205d9 5a1c0344 80f8a220  ... .B..Z..D... 
 005b0 987e7047 4ff0ff30 704700bf 00207047  .~pGO..0pG... pG
 005c0 704700bf 036d0bb1 01207047 406d0038  pG...m... pG@m.8
 005d0 18bf0120 704700bf 704700bf 10b50446  ... pG..pG.....F
 005e0 806d18b1 15f012f9 0023a365 236d2bb1  .m.......#.e#m+.
 005f0 04f11800 bde81040 08f0c0b9 636d002b  .......@....cm.+
 00600 f6d110bd 012bf0b5 054695b0 3dd0022b  .....+...F..=..+
 00610 40f20a20 01f10401 0cbf0346 00236846  @.. .......F.#hF
 00620 08f0c4fa 129b002b 38d05c20 002612f0  .......+8.\ .&..
 00630 b7f8214b 04af0446 c0e90036 019b3946  ..!K...F...6..9F
 00640 183040f8 0c3c1d4b 40f8103c 029b40f8  .0@..<.K@..<..@.
 00650 083c9df8 0c3000f8 043c08f0 4df9184b  .<...0...<..M..K
 00660 4ff47a72 a665a360 164b6e60 2b606368  O.zr.e.`.Kn`+`ch
 00670 2e730133 aa602c61 6360134b 38460093  .s.3.`,ac`.K8F..
 00680 08f07cf9 284615b0 f0bd40f2 02630431  ..|.(F....@..c.1
 00690 684608f0 8bfa129b 002bc6d1 139b002b  hF.......+.....+
 006a0 c3d14ff4 7a71074a 04af2b73 2a602b61  ..O.zq.J..+s*`+a
 006b0 c5e90131 e1e700bf 500d0020 ac0d0020  ...1....P.. ... 
 006c0 2c0d0020 e80c0020 f80b0020 10b50446  ,.. ... ... ...F
 006d0 806d00b1 10bd4ff4 807015f0 8ff8a065  .m....O..p.....e
 006e0 b0b10022 236d0270 3bb10146 4ff48072  ..."#m.p;..FO..r
 006f0 184608f0 57fba06d 10bd636d 002be9d0  .F..W..m..cm.+..
 00700 01464ff4 80721846 0df0d2fb a06d10bd  .FO..r.F.....m..
 00710 014b1846 a36510bd 80430020 38b5056d  .K.F.e...C. 8..m
 00720 6db10bb1 002038bd 11462846 0af034fb  m.... 8..F(F..4.
 00730 0028f7d0 2846bde8 38400af0 cfbc446d  .(..(F..8@....Dm
 00740 002cefd0 20460df0 b5f80028 ead02046  .,.. F.....(.. F
 00750 bde83840 0df0eabf 8a79a2f1 50031b06  ..8@.....y..P...
 00760 22d402f2 6c72f0b5 4b7985b0 046d0133  "...lr..Ky...m.3
 00770 0d798e78 4f78dbb2 09784cb1 20460196  .y.xOx...xL. F..
 00780 0095cde9 02710221 0af03cfc 05b0f0bd  .....q.!..<.....
 00790 406d0028 fad00196 0095cde9 02710221  @m.(.........q.!
 007a0 0df008ff 05b0f0bd 00207047 10b50446  ......... pG...F
 007b0 006d80b1 037813f0 700f00d1 10bd0021  .m...x..p......!
 007c0 0af0eafa 606d0028 f8d00022 0023bde8  ....`m.(...".#..
 007d0 10400df0 6fb8606d 0028efd0 90f83130  .@..o.`m.(....10
 007e0 13f0500f ead00022 0023bde8 10400df0  ..P....".#...@..
 007f0 61b800bf 036d10b5 0c4682b0 2bb30df1  a....m...F..+...
 00800 060201a9 184609f0 6dfe38b3 bdf80430  .....F..m.8....0
 00810 bdf80620 53ea0201 20d0c2f3 451c02f0  ... S... ...E...
 00820 1f00d20a c3f34311 400084f8 01c0a270  ......C.@......p
 00830 5a0a0139 03f01f03 02f5ea62 20700120  Z..9.......b p. 
 00840 61712371 a27102b0 10bd406d 30b10df1  aq#q.q....@m0...
 00850 060201a9 0cf0d4fe 0028d7d1 002002b0  .........(... ..
 00860 10bd00bf 036d10b5 0c4682b0 2bb30df1  .....m...F..+...
 00870 060201a9 184609f0 25fe38b3 bdf80430  .....F..%.8....0
 00880 bdf80620 53ea0201 20d0c2f3 451c02f0  ... S... ...E...
 00890 1f00d20a c3f34311 400084f8 01c0a270  ......C.@......p
 008a0 5a0a0139 03f01f03 02f5ea62 20700120  Z..9.......b p. 
 008b0 61712371 a27102b0 10bd406d 30b10df1  aq#q.q....@m0...
 008c0 060201a9 0cf08afe 0028d7d1 002002b0  .........(... ..
 008d0 10bd00bf 10b5d0f8 84448eb0 0a4644b1  .........D...FD.
 008e0 00232146 68460093 09f0baff 80b90eb0  .#!FhF..........
 008f0 10bdd0f8 881441b1 23466846 0c940df0  ......A.#FhF....
 00900 97fa50b9 00200eb0 10bd0846 0eb010bd  ..P.. .....F....
 00910 68460af0 f9f90eb0 10bd6846 0df008fc  hF........hF....
 00920 0028efd0 e3e700bf 70b5d0f8 84548eb0  .(......p....T..
 00930 16465db1 05f58965 00230a46 68462946  .F]....e.#.FhF)F
 00940 009309f0 0bff90b9 0eb070bd d0f88804  ..........p.....
 00950 0028f9d0 00f58964 0a462b46 68462146  .(.....d.F+FhF!F
 00960 0c950df0 e9f948b9 00200eb0 70bd3246  ......H.. ..p.2F
 00970 29466846 0af0d2f8 0eb070bd 32462146  )FhF......p.2F!F
 00980 68460df0 29fd0028 eed0dde7 10b5d0f8  hF..)..(........
 00990 84448eb0 0a464cb1 00200123 21460090  .D...FL.. .#!F..
 009a0 684609f0 5dff80b9 0eb010bd d0f88814  hF..]...........
 009b0 41b10123 68460c94 0df03afa 50b90020  A..#hF....:.P.. 
 009c0 0eb010bd 08460eb0 10bd6846 09f0f8fb  .....F....hF....
 009d0 0eb010bd 68460df0 51fb0028 efd0e3e7  ....hF..Q..(....
 009e0 30b5d0f8 84448fb0 0a464cb1 00250123  0....D...FL..%.#
 009f0 04f58961 68460095 09f03afe 0fb030bd  ...ahF....:...0.
 00a00 d0f88804 0028f9d0 00f58961 01236846  .....(.....a.#hF
 00a10 0c940df0 63fd0fb0 30bd00bf 10b5d0f8  ....c...0.......
 00a20 84448eb0 0a463cb1 00232146 68460093  .D...F<..#!FhF..
 00a30 09f016ff 0eb010bd d0f88814 31b12346  ............1.#F
 00a40 68460c94 0df0f4f9 0eb010bd 08460eb0  hF...........F..
 00a50 10bd00bf 006990b1 0368154a 1b699342  .....i...h.J.i.B
 00a60 25d1036d 63b11878 10f00800 07d0d869  %..mc..x.......i
 00a70 5b69c01a 48bf6ff0 00407047 18467047  [i..H.o..@pG.FpG
 00a80 436d002b fad093f8 310010f0 0800f6d0  Cm.+....1.......
 00a90 18691968 5a69401a 5b6862eb 0303b0f1  .i.hZi@.[hb.....
 00aa0 004f73f1 0003ead3 6ff00040 70471847  .Os.....o..@pG.G
 00ab0 71100000 036973b1 1a680849 52698a42  q....is..h.IRi.B
 00ac0 07d1186d 08b109f0 f3bf586d 18b10cf0  ...m......Xm....
 00ad0 dbbe1846 10474ff0 ff307047 8d0d0000  ...F.GO..0pG....
 00ae0 036963b1 1a680749 92698a42 08d1186d  .ic..h.I.i.B...m
 00af0 08b10af0 81ba586d 08b10df0 e5bb7047  ......Xm......pG
 00b00 18461047 4d0f0000 00b50069 83b08df8  .F.GM......i....
 00b10 071060b1 0368104a db689342 15d1036d  ..`..h.J.h.B...m
 00b20 43b10122 0df10701 18460af0 11fb03b0  C..".....F......
 00b30 5df804fb 406d0028 f9d00122 0df10701  ]...@m.(..."....
 00b40 0df066fe 03b05df8 04fb0122 0df10701  ..f...]...."....
 00b50 984703b0 5df804fb 750f0000 036923b3  .G..]...u....i#.
 00b60 1968134a 10b58c68 82b09442 14d1186d  .h.J...h...B...m
 00b70 48b10122 0df10701 09f0c6fe 90b19df8  H.."............
 00b80 070002b0 10bd586d 0028f8d0 01220df1  ......Xm.(..."..
 00b90 07010cf0 a9fdf1e7 01220df1 07011846  .........".....F
 00ba0 a047ebe7 4ff0ff30 ebe74ff0 ff307047  .G..O..0..O..0pG
 00bb0 210e0000 036d13b1 58690021 7047436d  !....m..Xi.!pGCm
 00bc0 13b1d3e9 00017047 18461946 704700bf  ......pG.F.FpG..
 00bd0 036d13b1 d8690021 7047436d 13b1d3e9  .m...i.!pGCm....
 00be0 04017047 18461946 704700bf f0b595b0  ..pG.F.FpG......
 00bf0 00224ff4 7a74244f 18310546 04a88df8  ."O.zt$O.1.F....
 00c00 0c200097 cde90124 cde91222 07f022ff  . .....$..."..".
 00c10 129b002b 2dd05c20 002611f0 c1fd019b  ...+-.\ .&......
 00c20 04464660 c36004a9 029b1830 40f8083c  .FF`.`.....0@..<
 00c30 9df80c30 00f8043c 144b40f8 183c144b  ...0...<.K@..<.K
 00c40 40f8103c 07f058fe 124b4ff4 7a72a760  @..<..X..KO.zr.`
 00c50 2b606368 a6650133 6e602e73 aa602c61  +`ch.e.3n`.s.`,a
 00c60 63600d4b 04a80093 07f088fe 284615b0  c`.K........(F..
 00c70 f0bd139b 002bced1 064a2b73 2a602b61  .....+...J+s*`+a
 00c80 c5e90134 ede700bf 2c0d0020 500d0020  ...4....,.. P.. 
 00c90 ac0d0020 e80c0020 f80b0020 f8b50546  ... ... ... ...F
 00ca0 90f8d004 08b90146 f8bdd5f8 8434002b  .......F.....4.+
 00cb0 4cd0dc69 d5f89004 013c0028 54d00368  L..i.....<.(T..h
 00cc0 db6b9847 e0b1d5f8 900478b3 03681b6c  .k.G......x..h.l
 00cd0 9847a8b9 d5f89004 40b30368 01215b6c  .G......@..h.![l
 00ce0 98470746 10b3d5f8 840458bb d5f88864  .G.F......X....d
 00cf0 33466eb9 d5f89004 90b90020 0146d3e7  3Fn........ .F..
 00d00 d5f88404 e8b9d5f8 8834002b f5d00746  .........4.+...F
 00d10 18460ef0 f5fb0646 3fb1d5f8 900428b1  .F.....F?.....(.
 00d20 03680021 5b6c9847 00b1a41b d5f88434  .h.![l.G.......4
 00d30 fbb19b79 4ff40071 994089b2 a1fb0401  ...yO..q.@......
 00d40 f8bd0027 08f012fd 0646e5e7 d5f88834  ...'.....F.....4
 00d50 d5f89004 b3b1d3f8 30440028 afd11846  ........0D.(...F
 00d60 0ef0cefb 0646e0e7 184608f0 fffc0646  .....F...F.....F
 00d70 dbe7d5f8 8864002e bfd0d6f8 3c14a1fb  .....d......<...
 00d80 0401f8bd 0028b8d0 1c4698e7 036d13b1  .....(...F...m..
 00d90 184609f0 8dbe406d 08b10cf0 75bd4ff0  .F....@m....u.O.
 00da0 ff307047 836c13b1 184609f0 81bec06c  .0pG.l...F.....l
 00db0 08b10cf0 69bd4ff0 ff307047 036d33b1  ....i.O..0pG.m3.
 00dc0 1b7813f0 700f14bf 01200020 7047406d  .x..p.... . pG@m
 00dd0 30b190f8 313013f0 500f14bf 01200020  0...10..P.... . 
 00de0 704700bf 90f8d034 63b1d0f8 843463b1  pG.....4c....4c.
 00df0 9a794ff4 0070d969 90400139 80b2a0fb  .yO..p.i.@.9....
 00e00 01017047 18460146 7047d0f8 88040028  ..pG.F.FpG.....(
 00e10 f9d0d0f8 3c14d0f8 3004a1fb 00017047  ....<...0.....pG
 00e20 036d13b1 184609f0 6fbd406d 08b10cf0  .m...F..o.@m....
 00e30 5bbc4ff0 ff307047 836c00b5 83b063b1  [.O..0pG.l....c.
 00e40 01220df1 07011846 09f05efd 01280cd1  .".....F..^..(..
 00e50 9df80700 03b05df8 04fbc06c 28b10122  ......]....l(.."
 00e60 0df10701 0cf040fc f0e74ff0 ff30f1e7  ......@...O..0..
 00e70 2de9f043 d0f89054 8db04db1 98462b68  -..C...T..M..F+h
 00e80 04462846 db699847 b0f5405f 064604d8  .F(F.i.G..@_.F..
 00e90 00263046 0db0bde8 f0834ff4 007014f0  .&0F......O..p..
 00ea0 adfc0746 0028f3d0 0df10409 b6f1806f  ...F.(.........o
 00eb0 02464346 29464846 2ed90df0 affe0646  .FCF)FHF.......F
 00ec0 384614f0 a3fc002e e2d02b68 2846271d  8F........+h(F'.
 00ed0 1b6a9847 94f8c034 ff2b21d0 d4f8c434  .j.G...4.+!....4
 00ee0 04f59465 02932846 d4f8c834 0393b4f8  ...e..(F...4....
 00ef0 c034adf8 043099e8 0e000cf0 33fb94f8  .4...0......3...
 00f00 b134c4f8 9054002b c3d10123 29463846  .4...T.+...#)F8F
 00f10 1a4607f0 d9fdbce7 08f0d6f9 0646cfe7  .F...........F..
 00f20 04f29445 94f8cc14 28460bf0 2bf82846  ...E....(F..+.(F
 00f30 c4f89054 0af01cfb 0028aad1 0123d4f8  ...T.....(...#..
 00f40 90143846 1a4607f0 bffda2e7 036d13b1  ..8F.F.......m..
 00f50 18460af0 51b8406d 08b10df0 b5b97047  .F..Q.@m......pG
 00f60 836c13b1 18460af0 47b8c06c 08b10df0  .l...F..G..l....
 00f70 abb97047 036d13b1 18460af0 e9b8406d  ..pG.m...F....@m
 00f80 08b10df0 45bc7047 836c13b1 18460af0  ....E.pG.l...F..
 00f90 dfb8c06c 08b10df0 3bbc7047 00b5836c  ...l....;.pG...l
 00fa0 83b08df8 071043b1 01220df1 07011846  ......C..".....F
 00fb0 0af0cef8 03b05df8 04fbc06c 0028f9d0  ......]....l.(..
 00fc0 01220df1 07010df0 23fc03b0 5df804fb  ."......#...]...
 00fd0 8a79a2f1 50031b06 22d402f2 6c72f0b5  .y..P..."...lr..
 00fe0 4b7985b0 046d0133 0d798e78 4f78dbb2  Ky...m.3.y.xOx..
 00ff0 09784cb1 20460196 0095cde9 02710421  .xL. F.......q.!
 01000 0af000f8 05b0f0bd 406d0028 fad00196  ........@m.(....
 01010 0095cde9 02710421 0df0ccfa 05b0f0bd  .....q.!........
 01020 00207047 836c53b1 187810f0 08000dd0  . pG.lS..x......
 01030 d8695b69 c01a48bf 6ff00040 7047c36c  .i[i..H.o..@pG.l
 01040 a3b193f8 310010f0 080000d1 70471869  ....1.......pG.i
 01050 19685a69 401a5b68 62eb0303 b0f1004f  .hZi@.[hb......O
 01060 73f10003 f2d36ff0 00407047 1846ede7  s.....o..@pG.F..
 01070 036d53b1 187810f0 08000dd0 d8695b69  .mS..x.......i[i
 01080 c01a48bf 6ff00040 7047436d a3b193f8  ..H.o..@pGCm....
 01090 310010f0 080000d1 70471869 19685a69  1.......pG.i.hZi
 010a0 401a5b68 62eb0303 b0f1004f 73f10003  @.[hb......Os...
 010b0 f2d36ff0 00407047 1846ede7 0369d3b1  ..o..@pG.F...i..
 010c0 0e4810b4 1c68e468 84420fd1 186d18b1  .H...h.h.B...m..
 010d0 5df8044b 0af03cb8 586d18b1 5df8044b  ]..K..<.Xm..]..K
 010e0 0df096bb 00205df8 044b7047 18462346  ..... ]..KpG.F#F
 010f0 5df8044b 18470020 704700bf 750f0000  ]..K.G. pG..u...
 01100 38b50446 0c4b806d 236018b1 14f07efb  8..F.K.m#`....~.
 01110 0023a365 236d04f1 18054bb1 284607f0  .#.e#m....K.(F..
 01120 2dfc064b 2846a360 07f028fc 204638bd  -..K(F.`..(. F8.
 01130 636d002b f2d1f4e7 500d0020 f80b0020  cm.+....P.. ... 
 01140 38b50446 0e4b806d 236018b1 14f05efb  8..F.K.m#`....^.
 01150 0023a365 236d04f1 18056bb1 284607f0  .#.e#m....k.(F..
 01160 0dfc084b 2846a360 07f008fc 20465c21  ...K(F.`.... F\!
 01170 11f01afb 204638bd 636d002b eed1f0e7  .... F8.cm.+....
 01180 500d0020 f80b0020 70b5264b 04460569  P.. ... p.&K.F.i
 01190 0360002d 32d06e68 013e6e60 76bb2b68  .`.-2.nh.>n`v.+h
 011a0 214adb6a 934233d1 a86d10b1 14f02efb  !J.j.B3..m......
 011b0 ae652b6d 43b305f1 180007f0 dffb2569  .e+mC.........%i
 011c0 e5b12b68 194a5b68 934228d1 184ba86d  ..+h.J[h.B(..K.m
 011d0 2b6018b1 14f01afb 0023ab65 2b6d05f1  +`.......#.e+m..
 011e0 1806c3b1 304607f0 c9fb124b 3046ab60  ....0F.....K0F.`
 011f0 07f0c4fb 5c212846 11f0d6fa 20461421  ....\!(F.... F.!
 01200 11f0d2fa 204670bd 6b6d002b d3d1d6e7  .... Fp.km.+....
 01210 28469847 d3e76b6d 002be3d1 e5e72846  (F.G..km.+....(F
 01220 9847ebe7 e80c0020 dd050000 41110000  .G..... ....A...
 01230 500d0020 f80b0020 30b4029c 11469c46  P.. ... 0....F.F
 01240 34b1012c 1cd0022c 0ed00020 30bc7047  4..,...,... 0.pG
 01250 056df5b1 4ff0ff33 934274eb 0c04f4d3  .m..O..3.Bt.....
 01260 284630bc 09f098bd 026d0ab3 d3695918  (F0......m...iY.
 01270 4cf10003 002be8d1 104630bc 09f08cbd  L....+...F0.....
 01280 026d62b1 53695918 4cf10003 002bdcd1  .mb.SiY.L....+..
 01290 f2e7406d 0028d8d0 30bc0cf0 0bbb406d  ..@m.(..0.....@m
 012a0 0028d2d0 d0e90023 8a184ceb 0303f3e7  .(.....#..L.....
 012b0 406d0028 c9d0d0e9 042330bc 8a184ceb  @m.(.....#0...L.
 012c0 03030cf0 f7ba00bf 70b5244b 04460569  ........p.$K.F.i
 012d0 0360002d 32d06e68 013e6e60 76bb2b68  .`.-2.nh.>n`v.+h
 012e0 1f4adb6a 93422fd1 a86d10b1 14f08efa  .J.j.B/..m......
 012f0 ae652b6d 23b305f1 180007f0 3ffb2569  .e+m#.......?.%i
 01300 e5b12b68 174a5b68 934224d1 164ba86d  ..+h.J[h.B$..K.m
 01310 2b6018b1 14f07afa 0023ab65 2b6d05f1  +`....z..#.e+m..
 01320 1806a3b1 304607f0 29fb104b 3046ab60  ....0F..)..K0F.`
 01330 07f024fb 5c212846 11f036fa 204670bd  ..$.\!(F..6. Fp.
 01340 6b6d002b d7d1dae7 28469847 d7e76b6d  km.+....(F.G..km
 01350 002be7d1 e9e72846 9847efe7 e80c0020  .+....(F.G..... 
 01360 dd050000 41110000 500d0020 f80b0020  ....A...P.. ... 
 01370 f0b5d0f8 906485b0 0446002e 42d090f8  .....d...F..B...
 01380 d05490f8 d13485b1 fe2b63d0 94f8d204  .T...4...+c.....
 01390 36283dd9 33686946 30469b6c 98470546  6(=.3hiF0F.l.G.F
 013a0 284684f8 d05405b0 f0bdfe2b 26d090f8  (F...T.....+&...
 013b0 d2043628 49d994f8 c034271d ff2b2dd0  ..6(I....4'..+-.
 013c0 d4f8c434 04f59466 d4f8c824 01933046  ...4...f...$..0F
 013d0 b4f8c034 0292adf8 00306b46 0ecb0cf0  ...4.....0kF....
 013e0 c1f894f8 b134c4f8 906463b9 01233146  .....4...dc..#1F
 013f0 38461a46 07f068fb 054604e0 1f4b9b68  8F.F..h..F...K.h
 01400 9b03d8d4 00252846 84f8d054 05b0f0bd  .....%(F...T....
 01410 0ff014fa 051e18bf 0125f4e7 04f29446  .........%.....F
 01420 94f8cc14 30460af0 adfd3046 c4f89064  ....0F....0F...d
 01430 0af09ef8 0028e6d1 0123d4f8 90143846  .....(...#....8F
 01440 1a4607f0 41fb0546 dde70ff0 f7f90028  .F..A..F.......(
 01450 b1d1d7e7 33683046 5b6d9847 421c0346  ....3h0F[m.GB..F
 01460 94d00028 cfd194f8 d124fe2a cad10321  ...(.....$.*...!
 01470 2e201d46 0ff0f4f9 c5e700bf 00800042  . .F...........B
 01480 18484ff0 290c184a 00231849 10b4c0f8  .HO.)..J.#.I....
 01490 94240722 80f8b1c4 4ff0ff0c c0f8a814  .$."....O.......
 014a0 4ff47f41 124cc0f8 ac24124a a0f8d014  O..A.L...$.J....
 014b0 a0f89c34 80f8b534 80f8cc34 80f8d2c4  ...4...4...4....
 014c0 0460c0f8 a0240c49 0c4a5df8 044bc0f8  .`...$.I.J]..K..
 014d0 8434c0f8 8834c0f8 903480f8 bc3413f0  .4...4...4...4..
 014e0 53ba00bf 782f0020 240e0020 00093d00  S...x/. $.. ..=.
 014f0 d00d0020 280c0020 d9050000 98230020  ... (.. .....#. 
 01500 80207047 704700bf 08461146 01f0bab8  . pGpG...F.F....
 01510 03680b4a 5b6800b5 934283b0 8df80710  .h.J[h...B......
 01520 07d10121 0df10700 01f0acf8 03b05df8  ...!..........].
 01530 04fb0122 0df10701 984703b0 5df804fb  ...".....G..]...
 01540 09150000 124ba0f1 20029a42 1dd80023  .....K.. ..B...#
 01550 30b4104c 214602e0 0133202b 11d051f8  0..L!F...3 +..Q.
 01560 042b002a f8d120f0 01010b4d 10460a88  .+.*.. ....M.F..
 01570 44f82310 25f81320 4df61072 30bc0a80  D.#.%.. M..r0...
 01580 70474ff0 ff3030bc 70474ff0 ff307047  pGO..00.pGO..0pG
 01590 e0ff2720 24420020 a4420020 70b5714e  ..' $B. .B. p.qN
 015a0 0321714c 714d3046 11f010f8 00230a22  .!qLqM0F.....#."
 015b0 29682046 11f08ef9 204611f0 4ff90321  )h F.... F..O..!
 015c0 301d11f0 03f80023 0a226968 204611f0  0......#."ih F..
 015d0 81f92046 11f042f9 032106f1 080010f0  .. F..B..!......
 015e0 f5ff0023 0a22a968 204611f0 73f92046  ...#.".h F..s. F
 015f0 11f034f9 032106f1 0c0010f0 e7ff0023  ..4..!.........#
 01600 0a22e968 204611f0 65f92046 11f026f9  .".h F..e. F..&.
 01610 042106f1 100010f0 d9ff0023 0a222969  .!.........#.")i
 01620 204611f0 57f92046 11f018f9 052106f1   F..W. F.....!..
 01630 180010f0 cbff0023 10226969 204611f0  .......#."ii F..
 01640 49f92046 11f00af9 052106f1 200010f0  I. F.....!.. ...
 01650 bdff0023 1022a969 204611f0 3bf92046  ...#.".i F..;. F
 01660 11f0fcf8 032106f1 280010f0 afff0023  .....!..(......#
 01670 0a22296a 204611f0 2df92046 11f0eef8  .")j F..-. F....
 01680 032106f1 2c0010f0 a1ff0023 0a22696a  .!..,......#."ij
 01690 204611f0 1ff92046 11f0e0f8 032106f1   F.... F.....!..
 016a0 300010f0 93ff0023 0a22a96a 204611f0  0......#.".j F..
 016b0 11f92046 11f0d2f8 032106f1 340010f0  .. F.....!..4...
 016c0 85ff0023 0a22e96a 204611f0 03f92046  ...#.".j F.... F
 016d0 11f0c4f8 032106f1 380010f0 77ff0023  .....!..8...w..#
 016e0 0a22296b 204611f0 f5f82046 11f0b6f8  .")k F.... F....
 016f0 032106f1 3c0010f0 69ff0023 0a22696b  .!..<...i..#."ik
 01700 204611f0 e7f82046 11f0a8f8 042106f1   F.... F.....!..
 01710 400010f0 5bff0023 0a22a96b 204611f0  @...[..#.".k F..
 01720 d9f82046 11f09af8 042106f1 480010f0  .. F.....!..H...
 01730 4dff0023 0a22e96b 204611f0 cbf82046  M..#.".k F.... F
 01740 11f08cf8 052106f1 500010f0 3fff296c  .....!..P...?.)l
 01750 20460023 102211f0 bdf82046 bde87040   F.#.".... F..p@
 01760 11f07cb8 d0030020 48230020 d8400020  ..|.... H#. .@. 
 01770 07281dd8 dfe800f0 070a0d10 13161904  .(..............
 01780 0c4bd86a 70470b4b 18687047 094b5868  .K.jpG.K.hpG.KXh
 01790 7047084b 98687047 064bd868 7047054b  pG.K.hpG.K.hpG.K
 017a0 186a7047 034b586a 7047024b 986a7047  .jpG.KXjpG.K.jpG
 017b0 00207047 d8400020 00f00101 c0f34003  . pG.@. ......@.
 017c0 c0f38002 c0f3c00c 0b44c0f3 40111344  .........D..@..D
 017d0 c0f30012 63441344 c0f38012 c0f3c010  ....cD.D........
 017e0 0b441344 18447047 008808b5 030a462b  .D.D.DpG......F+
 017f0 08d0bd2b 0cd044f2 70739842 06d10b4b  ...+..D.ps.B...K
 01800 586908bd 00f00703 072b09d0 002008bd  Xi.......+... ..
 01810 c0b2fff7 d1ff054b 1b6c53f8 200008bd  .......K.lS. ...
 01820 c0f3c200 bde80840 fff7a2bf d8400020  .......@.....@. 
 01830 028802f4 7f4c08b5 bcf58e4f 4ff00003  .....L.....OO...
 01840 0b600ed0 02f47841 b1f5404f 28d0b1f5  .`....xA..@O(...
 01850 704f0dd0 02f47041 b1f5504f 1bd01846  pO....pA..PO...F
 01860 08bdc2f3 c300fff7 83ff0123 0b6008bd  ...........#.`..
 01870 438802f0 3f02c3f3 0a0303eb c2235209  C...?........#R.
 01880 03d06fea c3336fea d333084a 90690430  ..o..3o..3.J.i.0
 01890 00eb4300 08bd054b 986940fa 82f008bd  ..C....K.i@.....
 018a0 024b02f0 7f029869 104408bd d8400020  .K.....i.D...@. 
 018b0 38b50b4d 09210b4c 05f15800 10f086fe  8..M.!.L..X.....
 018c0 204610f0 cbfffff7 69fe05f1 64000421   F......i...d..!
 018d0 10f07cfe 2046bde8 384010f0 bfbf00bf  ..|. F..8@......
 018e0 d0030020 48230020 30b583b0 05460c46  ... H#. 0....F.F
 018f0 fff77aff f8b11c4b 04461860 a4f12002  ..z....K.F.`.. .
 01900 1a4b9a42 15d81a49 00230a46 02e00133  .K.B...I.#.F...3
 01910 202b0ed0 52f8040b 0028f8d1 24f00104   +..R....(..$...
 01920 14484df6 10722588 41f82340 20f81350  .HM..r%.A.#@ ..P
 01930 228003b0 30bd01a9 2846fff7 79ff18b1  "...0...(F..y...
 01940 0d4a1060 fff7fefd 2b8803f4 7842b2f5  .J.`....+...xB..
 01950 704f07d0 03f46843 b3f5684f 02d0024b  pO....hC..hO...K
 01960 1c60cbe7 0234fae7 08430020 e0ff2720  .`...4...C. ..' 
 01970 24420020 a4420020 0c430020 2de9f041  $B. .B. .C. -..A
 01980 564ddff8 7c81af69 37f8023c be1e03f5  VM..|..i7..<....
 01990 03532f33 9bb2012b 02d9d8f8 0030abb1  .S/3...+.....0..
 019a0 2b6c6833 2b644e4b 1b68002b 00f09380  +lh3+dNK.h.+....
 019b0 98474c4c 00252368 c8f80050 002b67d1  .GLL.%#h...P.+g.
 019c0 494c2068 002843d1 bde8f081 474aa7f1  IL h.(C.....GJ..
 019d0 2201ae61 12689661 454a9142 13d8dff8  "..a.h.aEJ.B....
 019e0 24c126f0 01016246 02e00133 202b0ad0  $.&...bF...3 +..
 019f0 52f8044b 8c42f8d1 3e4a0020 32f81320  R..K.B..>J. 2.. 
 01a00 4cf82300 0a803c4c 20680028 46d13b4c  L.#...<L h.(F.;L
 01a10 20680028 c4d0a0f1 2002354b 9a4214d8   h.(.... .5K.B..
 01a20 dff8e0c0 20f00100 00236246 02e00133  .... ....#bF...3
 01a30 202b0ad0 52f8041b 8142f8d1 2d4a0021   +..R....B..-J.!
 01a40 32f81320 4cf82310 02800023 2360a7e7  2.. L.#....##`..
 01a50 a0f12002 264b9a42 16d8dff8 a8c00023  .. .&K.B.......#
 01a60 624602e0 0133202b 0ed052f8 041b0029  bF...3 +..R....)
 01a70 f8d120f0 01001f4a 01884cf8 230022f8  .. ....J..L.#.".
 01a80 13104df6 10720280 00232360 bde8f081  ..M..r...##`....
 01a90 39463046 fff728ff 256091e7 a0f12002  9F0F..(.%`.... .
 01aa0 134b9a42 14d8dff8 5cc020f0 01000023  .K.B....\. ....#
 01ab0 624602e0 0133202b 0ad052f8 041b8842  bF...3 +..R....B
 01ac0 f8d10c4a 002132f8 13204cf8 23100280  ...J.!2.. L.#...
 01ad0 00232360 9be7fff7 ebfe6ae7 d8400020  .##`......j..@. 
 01ae0 cc3d0020 f83e0020 f03e0020 20420020  .=. .>. .>.  B. 
 01af0 e0ff2720 a4420020 08430020 0c430020  ..' .B. .C. .C. 
 01b00 e03e0020 24420020 72b63848 c0f800d0  .>. $B. r.8H....
 01b10 36480168 36480a68 02604a68 42608a68  6H.h6H.h.`JhB`.h
 01b20 8260ca68 c2600a69 02614a69 42618a69  .`.h.`.i.aJiBa.i
 01b30 8261ca69 c2610462 45628662 c762c0f8  .a.i.a.bEb.b.b..
 01b40 3080c0f8 3490c0f8 38a0c0f8 3cb00164  0...4...8...<..d
 01b50 62b600b5 4ff0e023 4022214c c3f88822  b...O..#@"!L..."
 01b60 2368002b 34d0022b 04d110f0 97f910f0  #h.+4..+........
 01b70 95f9fae7 fff702ff 1a4b0022 19682260  .........K.".h"`
 01b80 00292cd0 1a605df8 04cb72b6 17480168  .),..`]...r..H.h
 01b90 17480268 0a604268 4a608268 8a60c268  .H.h.`BhJ`.h.`.h
 01ba0 ca600269 0a614269 4a618269 8a61c269  .`.i.aBiJa.i.a.i
 01bb0 ca61046a 456a866a c76ad0f8 3080d0f8  .a.jEj.j.j..0...
 01bc0 3490d0f8 38a0d0f8 3cb062b6 e6467047  4...8...<.b..FpG
 01bd0 054b1a68 22b15df8 04eb1b68 9f4600bd  .K.h".]....h.F..
 01be0 ec3e0020 f43e0020 44400020 20420020  .>. .>. D@.  B. 
 01bf0 d8400020 074a4ff0 e0210748 136810b4  .@. .JO..!.H.h..
 01c00 01240460 23444020 5df8044b 1360c1f8  .$.`#D@ ]..K.`..
 01c10 08027047 e83e0020 ec3e0020 1848c0f8  ..pG.>. .>. .H..
 01c20 00d01748 01681748 0a680260 4a684260  ...H.h.H.h.`JhB`
 01c30 8a688260 ca68c260 0a690261 4a694261  .h.`.h.`.i.aJiBa
 01c40 8a698261 ca69c261 04624562 8662c762  .i.a.i.a.bEb.b.b
 01c50 c0f83080 c0f83490 c0f838a0 c0f83cb0  ..0...4...8...<.
 01c60 016400b5 044b0122 1a60044b 02221a60  .d...K.".`.K.".`
 01c70 fff7c0ff 00bd00bf dc3e0020 e03e0020  .........>. .>. 
 01c80 20420020 d8400020 1848c0f8 00d01748   B. .@. .H.....H
 01c90 01681748 0a680260 4a684260 8a688260  .h.H.h.`JhB`.h.`
 01ca0 ca68c260 0a690261 4a694261 8a698261  .h.`.i.aJiBa.i.a
 01cb0 ca69c261 04624562 8662c762 c0f83080  .i.a.bEb.b.b..0.
 01cc0 c0f83490 c0f838a0 c0f83cb0 016400b5  ..4...8...<..d..
 01cd0 044b0122 1a60044b 03221a60 fff78aff  .K.".`.K.".`....
 01ce0 00bd00bf dc3e0020 e03e0020 20420020  .....>. .>.  B. 
 01cf0 d8400020 1848c0f8 00d01748 01681748  .@. .H.....H.h.H
 01d00 0a680260 4a684260 8a688260 ca68c260  .h.`JhB`.h.`.h.`
 01d10 0a690261 4a694261 8a698261 ca69c261  .i.aJiBa.i.a.i.a
 01d20 04624562 8662c762 c0f83080 c0f83490  .bEb.b.b..0...4.
 01d30 c0f838a0 c0f83cb0 016400b5 044b0122  ..8...<..d...K."
 01d40 1a60044b 04221a60 fff754ff 00bd00bf  .`.K.".`..T.....
 01d50 dc3e0020 e03e0020 20420020 d8400020  .>. .>.  B. .@. 
 01d60 1848c0f8 00d01748 01681748 0a680260  .H.....H.h.H.h.`
 01d70 4a684260 8a688260 ca68c260 0a690261  JhB`.h.`.h.`.i.a
 01d80 4a694261 8a698261 ca69c261 04624562  JiBa.i.a.i.a.bEb
 01d90 8662c762 c0f83080 c0f83490 c0f838a0  .b.b..0...4...8.
 01da0 c0f83cb0 016400b5 044b0122 1a60044b  ..<..d...K.".`.K
 01db0 05221a60 fff71eff 00bd00bf dc3e0020  .".`.........>. 
 01dc0 e03e0020 20420020 d8400020 1848c0f8  .>.  B. .@. .H..
 01dd0 00d01748 01681748 0a680260 4a684260  ...H.h.H.h.`JhB`
 01de0 8a688260 ca68c260 0a690261 4a694261  .h.`.h.`.i.aJiBa
 01df0 8a698261 ca69c261 04624562 8662c762  .i.a.i.a.bEb.b.b
 01e00 c0f83080 c0f83490 c0f838a0 c0f83cb0  ..0...4...8...<.
 01e10 016400b5 044b0122 1a60044b 06221a60  .d...K.".`.K.".`
 01e20 fff7e8fe 00bd00bf dc3e0020 e03e0020  .........>. .>. 
 01e30 20420020 d8400020 0f4b4df6 10721968   B. .@. .KM..r.h
 01e40 0b8823f0 0f039bb2 934210d0 a1f12002  ..#......B.... .
 01e50 0a4b9a42 0bd80a4b 21f00101 03f18000  .K.B...K!.......
 01e60 01e09842 05d053f8 042b8a42 f9d10120  ...B..S..+.B... 
 01e70 70470020 704700bf d83f0020 e0ff2720  pG. pG...?. ..' 
 01e80 24420020 0698a0f1 02001049 086000b5  $B. .......I.`..
 01e90 fff7d2ff 60b10a4a 01240a48 4ff0e021  ....`..J.$.HO..!
 01ea0 13680460 40202344 1360c1f8 080200bd  .h.`@ #D.`......
 01eb0 054b1a68 1ab15df8 04eb1b68 9f4600bd  .K.h..]....h.F..
 01ec0 e83e0020 ec3e0020 48400020 d83f0020  .>. .>. H@. .?. 
 01ed0 08b50378 722b1fd0 6c2b0ad0 0378702b  ...xr+..l+...xp+
 01ee0 10d14278 632a0dd1 82785ab9 2e4b9869  ..Bxc*...xZ..K.i
 01ef0 08bd4378 722bf1d1 8378002b eed12a4b  ..Cxr+...x.+..*K
 01f00 586908bd 732b20d1 4378702b 1dd18378  Xi..s+ .Cxp+...x
 01f10 dbb9254b 186c08bd 83785bb1 4278312a  ..%K.l...x[.Bx1*
 01f20 05d1312b 3dd0322b 38d0302b 33d04ff0  ..1+=.2+8.0+3.O.
 01f30 ff3008bd 4378303b 092bf8d8 dfe803f0  .0..Cx0;.+......
 01f40 2825221f 1c191613 100d1849 12f09aff  (%"........I....
 01f50 0028ecd1 144bd869 08bd134b 586b08bd  .(...K.i...KXk..
 01f60 114b186b 08bd104b d86a08bd 0e4b986a  .K.k...K.j...K.j
 01f70 08bd0d4b 586a08bd 0b4b186a 08bd0a4b  ...KXj...K.j...K
 01f80 d86808bd 084b9868 08bd074b 586808bd  .h...K.h...KXh..
 01f90 054b1868 08bd044b 986b08bd 024b1869  .K.h...K.k...K.i
 01fa0 08bd014b d86b08bd d8400020 3c040020  ...K.k...@. <.. 
 01fb0 404b0122 10b51a60 0c460378 722b17d0  @K."...`.F.xr+..
 01fc0 6c2b0bd0 0378702b 24d14278 632a21d1  l+...xp+$.Bxc*!.
 01fd0 8278fab9 384b0120 9c6110bd 4378722b  .x..8K. .a..Cxr+
 01fe0 f0d18378 002bedd1 334b1046 596110bd  ...x.+..3K.FYa..
 01ff0 837823b1 41783129 19d01046 10bd4378  .x#.Ax1)...F..Cx
 02000 303b092b 19d8dfe8 03f02d4d 4945413d  0;.+......-MIEA=
 02010 39353129 732b02d1 4378702b 0fd02749  951)s+..Cxp+..'I
 02020 12f030ff 48b9244b 0120dc61 10bd312b  ..0.H.$K. .a..1+
 02030 3cd0322b 0ed0302b 08d00020 10bd8378  <.2+..0+... ...x
 02040 002becd1 1c4b0120 1c6410bd 1a4b1046  .+...K. .d...K.F
 02050 9c6310bd 184b1046 1c6110bd 164b0120  .c...K.F.a...K. 
 02060 596310bd 144b0120 196010bd 124b0120  Yc...K. .`...K. 
 02070 196310bd 104b0120 d96210bd 0e4b0120  .c...K. .b...K. 
 02080 996210bd 0c4b0120 596210bd 0a4b0120  .b...K. Yb...K. 
 02090 196210bd 084b0120 d96010bd 064b0120  .b...K. .`...K. 
 020a0 996010bd 044b0120 596010bd 024b1046  .`...K. Y`...K.F
 020b0 dc6310bd f43e0020 d8400020 3c040020  .c...>. .@. <.. 
 020c0 38b54ff0 e0221124 1c48c2f8 9c4d1c49  8.O..".$.H...M.I
 020d0 c2f8a00d 01201b4b 1b4a0860 1b4d1c49  ..... .K.J.`.M.I
 020e0 1c4c1d48 9d60dc60 1a615861 1b4a9961  .L.H.`.`.aXa.J.a
 020f0 d96a9142 20d0dc6a 19494ff0 e02c1948  .j.B ..j.IO..,.H
 02100 d9620460 d3f85811 174a1848 1160d021  .b.`..X..J.H.`.!
 02110 c3f85801 4023164a 164882f8 46108022  ..X.@#.J.H..F.."
 02120 0021ccf8 083113f0 e1fd8022 00211248  .!...1.....".!.H
 02130 bde83840 13f0dabd 0024dde7 25000803  ..8@.....$..%...
 02140 e43e0020 00280020 f51c0000 1d1c0000  .>. .(. ........
 02150 cd1d0000 891c0000 611d0000 d5140100  ........a.......
 02160 851e0000 48400020 44400020 091b0000  ....H@. D@. ....
 02170 00e400e0 24420020 583f0020 00b583b0  ....$B. X?. ....
 02180 0191fff7 9dff0198 01f012fc 012003b0  ............. ..
 02190 5df804fb 134ba1f1 20029a42 1fd80023  ]....K.. ..B...#
 021a0 10b4114c 224602e0 0133202b 12d052f8  ...L"F...3 +..R.
 021b0 040b0028 f8d121f0 01010c4a b1f800c0  ...(..!....J....
 021c0 44f82310 22f813c0 4df61072 5df8044b  D.#."...M..r]..K
 021d0 0a807047 4ff0ff30 5df8044b 70474ff0  ..pGO..0]..KpGO.
 021e0 ff307047 e0ff2720 24420020 a4420020  .0pG..' $B. .B. 
 021f0 124ba1f1 20029a42 1cd821f0 01010023  .K.. ..B..!....#
 02200 10b40f4c 224602e0 0133202b 0dd052f8  ...L"F...3 +..R.
 02210 040b8842 f8d10b4a 002032f8 132044f8  ...B...J. 2.. D.
 02220 23005df8 044b0a80 70474ff0 ff305df8  #.]..K..pGO..0].
 02230 044b7047 4ff0ff30 704700bf e0ff2720  .KpGO..0pG....' 
 02240 24420020 a4420020 014b1960 704700bf  $B. .B. .K.`pG..
 02250 cc3d0020 0846fff7 3bbe00bf 08461146  .=. .F..;....F.F
 02260 fff7a6be 024b0021 024ac3e9 00217047  .....K.!.J...!pG
 02270 d43d0020 140d0020 10df00bf 03681847  .=. ... .....h.G
 02280 0b680360 704700bf 0b680360 704700bf  .h.`pG...h.`pG..
 02290 704700bf 10b50446 0ef04efc 204610bd  pG.....F..N. F..
 022a0 002370b5 04680b60 237863b9 1de0092d  .#p..h.`#xc....-
 022b0 19d9052e 19d80b68 013442ea 03120a60  .......h.4B....`
 022c0 04602378 8bb1a3f1 610ca3f1 300ea3f1  .`#x....a...0...
 022d0 4106a3f1 3702bcf1 050f5ffa 8ef5e6d8  A...7....._.....
 022e0 a3f15702 e7e77246 e5e770bd 03688446  ..W...rF..p..h.F
 022f0 00b51a78 a2f16101 052940f2 c580a2f1  ...x..a..)@.....
 02300 3001c9b2 092940f2 a780a2f1 41010529  0....)@.....A..)
 02310 00f2db80 373a1201 d2b25978 a1f16100  ....7:....Yx..a.
 02320 052840f2 a180a1f1 3000c0b2 092806d9  .(@.....0....(..
 02330 a1f14100 052800f2 ca803739 c8b29978  ..A..(....79...x
 02340 02440020 a1f1610e 62f30700 bef1050f  .D. ..a.b.......
 02350 40f29e80 a1f13002 d2b2092a 40f2b280  @.....0....*@...
 02360 a1f14102 052a00f2 b4803739 0901c9b2  ..A..*....79....
 02370 da78a2f1 610ebef1 050f40f2 9380a2f1  .x..a.....@.....
 02380 300e5ffa 8efebef1 090f08d9 a2f1410e  0._...........A.
 02390 bef1050f 00f29f80 373a5ffa 82fe1a79  ........7:_....y
 023a0 8e44a2f1 61016ef3 0f200529 40f28280  .D..a.n.. .)@...
 023b0 a2f13001 c9b20929 06d9a2f1 41010529  ..0....)....A..)
 023c0 00f28c80 a2f13701 0901c9b2 5a79a2f1  ......7.....Zy..
 023d0 610ebef1 050f69d9 a2f1300e 5ffa8efe  a.....i...0._...
 023e0 bef1090f 07d9a2f1 410ebef1 050f77d8  ........A.....w.
 023f0 373a5ffa 82fe7144 9a7961f3 1740a2f1  7:_...qD.ya..@..
 02400 61010529 33d9a2f1 3001c9b2 092956d9  a..)3...0....)V.
 02410 a2f14101 052966d8 373a1201 d2b2d979  ..A..)f.7:.....y
 02420 a1f1610e bef1050f 2ad9a1f1 300e5ffa  ..a.....*...0._.
 02430 8efebef1 090f07d9 a1f1410e bef1050f  ..........A.....
 02440 53d83739 5ffa81fe 72440833 62f31f60  S.79_...rD.3b..`
 02450 ccf80030 5df804fb 0901cab2 5978a1f1  ...0].......Yx..
 02460 61000528 3ff65faf 5739c8b2 67e7d979  a..(?._.W9..g..y
 02470 573aa1f1 610e1201 bef1050f d2b2d4d8  W:..a...........
 02480 57395ffa 81fedfe7 573a1201 d2b244e7  W9_.....W:....D.
 02490 da785739 a2f1610e 0901bef1 050fc9b2  .xW9..a.........
 024a0 3ff66daf 573a5ffa 82fe78e7 573a5ffa  ?.m.W:_...x.W:_.
 024b0 82fea0e7 a2f15701 0901c9b2 86e70901  ......W.........
 024c0 cab2ace7 1201d1b2 52e7f022 25e7ff20  ........R.."%.. 
 024d0 35e7f021 4ce74ff0 ff0e60e7 f02175e7  5..!L.O...`..!u.
 024e0 4ff0ff0e 87e7f022 99e74ff0 ff0eabe7  O......"..O.....
 024f0 70b50c4d 0c4e2c68 04f57a74 03e030bf  p..M.N,h..zt..0.
 02500 2b689c42 0bd33068 03681b69 98470028  +h.B..0h.h.i.G.(
 02510 f5dd3068 03685b69 9847c0b2 70bd4ff0  ..0h.h[i.G..p.O.
 02520 ff3070bd e8420020 fc3e0020 2de97847  .0p..B. .>. -.xG
 02530 174b10b1 1860bde8 78871a68 002afad1  .K...`..x..h.*..
 02540 144a40f2 ee29144d 144cdff8 54802e68  .J@..).M.L..T..h
 02550 dff850a0 1a6004e0 b3f5fa6f ebd80ff0  ..P..`.....o....
 02560 9dfc0ff0 9bfc2378 4bb198f8 0030db07  ......#xK....0..
 02570 05d52b68 daf80020 9b1a0e2b dbd82b68  ..+h... ...+..+h
 02580 22789b1b 002ae7d1 4b45e8d9 d3e700bf  "x...*..KE......
 02590 fc3e0020 48230020 e8420020 99430020  .>. H#. .B. .C. 
 025a0 98430020 58430020 002a38b5 05460c46  .C. XC. .*8..F.F
 025b0 1bdb02b3 ab1c611e 5000114c 03eb4202  ......a.P..L..B.
 025c0 11f801cf 02334fea 1c1e0cf0 0f0c9342  .....3O........B
 025d0 14f80ee0 03f804ec 14f80cc0 03f803cc  ................
 025e0 eed12844 00230370 38bd0846 13f0fef8  ..(D.#.p8..F....
 025f0 0246002a ded12846 00230370 38bd00bf  .F.*..(F.#.p8...
 02600 18240020 2de9f041 04780546 002c32d0  .$. -..A.x.F.,2.
 02610 01460023 234411f8 014fdbb2 002cf9d1  .F.##D...O...,..
 02620 1e1103f0 0f04dff8 58802421 d8f80000  ........X.$!....
 02630 03681b68 98472978 41b1d8f8 00000368  .h.h.G)xA......h
 02640 1b689847 15f8011f 0029f6d1 d8f80000  .h.G.....)......
 02650 23210a4d 03681b68 9847d8f8 0000a95d  #!.M.h.h.G.....]
 02660 03681b68 9847d8f8 0000295d 0368bde8  .h.h.G....)].h..
 02670 f0411b68 18472646 d5e700bf 18240020  .A.h.G&F.....$. 
 02680 fc3e0020 30b50e4d 0c4683b0 01462b78  .>. 0..M.F...F+x
 02690 5bb10190 284613f0 a9f82246 01992844  [...(F...."F..(D
 026a0 fff782ff 204603b0 30bd4f23 28462246  .... F..0.O#(F"F
 026b0 00f8013b fff778ff 204603b0 30bd00bf  ...;..x. F..0...
 026c0 20410020 2de97841 dff83480 d8f80060   A. -.xA..4....`
 026d0 036873b1 04460d46 06f57a76 1db1d8f8  .hs..F.F..zv....
 026e0 00309e42 08d330bf 0ff0d8fb 2368002b  .0.B..0.....#h.+
 026f0 f4d10020 bde87881 4ff0ff30 bde87881  ... ..x.O..0..x.
 02700 e8420020 80b500af 094b0122 1a60094b  .B. .....K.".`.K
 02710 1b68094a 52f82330 1846fff7 73ff0021  .h.JR.#0.F..s..!
 02720 0348fff7 cfff034b 00221a60 00bf80bd  .H.....K.".`....
 02730 543f0020 e03e0020 48240020 2de97047  T?. .>. H$. -.pG
 02740 cb4883b0 0d46cb49 fff784fd 0646ca49  .H...F.I.....F.I
 02750 c748fff7 7ffdc94b 46f00102 9a4200f0  .H.....KF....B..
 02760 cd818046 c649ac1c c148fff7 73fddff8  ...F.I...H..s...
 02770 4c930190 01aa05f1 0a0012f8 013b0234  L............;.4
 02780 191103f0 0f038442 19f80110 04f8041c  .......B........
 02790 19f80330 04f8033c efd1ba49 b448fff7  ...0...<...I.H..
 027a0 59fd01aa 019005f1 120012f8 013b0234  Y............;.4
 027b0 191103f0 0f038442 19f80110 04f8041c  .......B........
 027c0 19f80330 04f8033c efd1af49 a848fff7  ...0...<...I.H..
 027d0 41fd01aa 019005f1 1a0012f8 013b0234  A............;.4
 027e0 191103f0 0f038442 19f80110 04f8041c  .......B........
 027f0 19f80330 04f8033c efd1a449 9c48fff7  ...0...<...I.H..
 02800 29fd01aa 019005f1 220012f8 013b0234  )......."....;.4
 02810 191103f0 0f038442 19f80110 04f8041c  .......B........
 02820 19f80330 04f8033c efd19949 9048fff7  ...0...<...I.H..
 02830 11fd01aa 019005f1 2a0012f8 013b0234  ........*....;.4
 02840 191103f0 0f038442 19f80110 04f8041c  .......B........
 02850 19f80330 04f8033c efd18e49 8448fff7  ...0...<...I.H..
 02860 f9fc01aa 019005f1 320012f8 013b0234  ........2....;.4
 02870 191103f0 0f038442 19f80110 04f8041c  .......B........
 02880 19f80330 04f8033c efd18349 05f13a0a  ...0...<...I..:.
 02890 7748fff7 dffc01aa 019012f8 013b0234  wH...........;.4
 028a0 191103f0 0f03a245 19f80110 04f8041c  .......E........
 028b0 19f80330 04f8033c efd17849 05f14204  ...0...<..xI..B.
 028c0 6b48fff7 c7fc5346 01a90190 11f8012b  kH....SF.......+
 028d0 02331011 02f00f02 9c4219f8 000003f8  .3.......B......
 028e0 040c19f8 022003f8 032cefd1 6c496048  ..... ...,..lI`H
 028f0 fff7b0fc 224601a9 05f14a04 019011f8  ...."F....J.....
 02900 013b0232 181103f0 0f039442 19f80000  .;.2.......B....
 02910 02f8040c 19f80330 02f8033c efd16149  .......0...<..aI
 02920 5348fff7 97fc2346 01a905f1 52040190  SH....#F....R...
 02930 11f8012b 02331011 02f00f02 9c4219f8  ...+.3.......B..
 02940 000003f8 040c19f8 022003f8 032cefd1  ......... ...,..
 02950 55494748 fff77efc 224601a9 05f15a04  UIGH..~."F....Z.
 02960 019011f8 013b0232 181103f0 0f039442  .....;.2.......B
 02970 19f80000 02f8040c 19f80330 02f8033c  ...........0...<
 02980 efd14a49 3a48fff7 65fc2346 01a905f1  ..JI:H..e.#F....
 02990 62040190 11f8012b 02331011 02f00f02  b......+.3......
 029a0 9c4219f8 000003f8 040c19f8 022003f8  .B........... ..
 029b0 032cefd1 3e492e48 fff74cfc 22460190  .,..>I.H..L."F..
 029c0 05f16a03 01a810f8 011b0232 0c1101f0  ..j........2....
 029d0 0f019342 19f80440 02f8044c 19f80110  ...B...@...L....
 029e0 02f8031c efd101a9 05f17204 cdf80480  ..........r.....
 029f0 11f8012b 02331011 02f00f02 9c4219f8  ...+.3.......B..
 02a00 000003f8 040c19f8 022003f8 032cefd1  ......... ...,..
 02a10 28491748 fff71efc 22460190 05f17a03  (I.H...."F....z.
 02a20 01a810f8 011b0232 0c1101f0 0f019342  .......2.......B
 02a30 19f80440 02f8044c 19f80110 02f8031c  ...@...L........
 02a40 efd101a9 05f18204 019611f8 012b0233  .............+.3
 02a50 101102f0 0f029c42 19f80000 03f8040c  .......B........
 02a60 19f80220 03f8032c efd11349 28e000bf  ... ...,...I(...
 02a70 d43d0020 98040020 9c040020 79220000  .=. ... ... y"..
 02a80 a0040020 a4040020 a8040020 ac040020  ... ... ... ... 
 02a90 b0040020 b4040020 b8040020 bc040020  ... ... ... ... 
 02aa0 c0040020 c4040020 c8040020 cc040020  ... ... ... ... 
 02ab0 d0040020 d4040020 d8040020 18240020  ... ... ... .$. 
 02ac0 1148fff7 c7fb2246 01ab05f1 8a040190  .H...."F........
 02ad0 13f8011b 02320811 01f00f01 944219f8  .....2.......B..
 02ae0 000002f8 040c19f8 011002f8 031cefd1  ................
 02af0 002085f8 880003b0 bde87087 034b044e  . ........p..K.N
 02b00 d3f80080 2ee600bf d43d0020 343f0020  .........=. 4?. 
 02b10 00100060 70b582b0 431c524c 0e46524d  ...`p...C.RL.FRM
 02b20 01a80193 fff7e2fb 04f10801 02462846  .............F(F
 02b30 fff794fb 01a8fff7 d9fb04f1 0c010246  ...............F
 02b40 2846fff7 8bfb01a8 fff7d0fb 04f11001  (F..............
 02b50 02462846 fff782fb 01a8fff7 c7fb04f1  .F(F............
 02b60 14010246 2846fff7 79fb01a8 fff7befb  ...F(F..y.......
 02b70 04f11801 02462846 fff770fb 01a8fff7  .....F(F..p.....
 02b80 b5fb04f1 1c010246 2846fff7 67fb01a8  .......F(F..g...
 02b90 fff7acfb 04f12001 02462846 fff75efb  ...... ..F(F..^.
 02ba0 01a8fff7 a3fb04f1 24010246 2846fff7  ........$..F(F..
 02bb0 55fb01a8 fff79afb 04f12801 02462846  U.........(..F(F
 02bc0 fff74cfb 01a8fff7 91fb04f1 2c010246  ..L.........,..F
 02bd0 2846fff7 43fb01a8 fff788fb 04f13001  (F..C.........0.
 02be0 02462846 fff73afb 01a8fff7 7ffb04f1  .F(F..:.........
 02bf0 34010246 2846fff7 31fb01a8 fff776fb  4..F(F..1.....v.
 02c00 04f13801 02462846 fff728fb 01a8fff7  ..8..F(F..(.....
 02c10 6dfb211d 02462846 fff720fb 01a8fff7  m.!..F(F.. .....
 02c20 65fb04f1 3c010246 2846fff7 17fb01a8  e...<..F(F......
 02c30 fff75cfb 21460246 2846fff7 0ffb01a8  ..\.!F.F(F......
 02c40 fff754fb 04f14801 02462846 fff706fb  ..T...H..F(F....
 02c50 b4f85020 94f85230 00203280 b37002b0  ..P ..R0. 2..p..
 02c60 70bd00bf 98040020 d43d0020 30b5831c  p...... .=. 0...
 02c70 83b00d46 01934278 a2f16103 052b21d9  ...F..Bx..a..+!.
 02c80 a2f13003 d9b20929 1ad9a2f1 4103052b  ..0....)....A..+
 02c90 00f28a80 a2f13704 c31c01a8 0193fff7  ......7.........
 02ca0 25fb631e 02460e2b 00f28480 dfe803f0  %.c..F.+........
 02cb0 68635e59 544f4a45 403b3631 231b0d00  hc^YTOJE@;61#...
 02cc0 1c46e9e7 a2f15704 e6e73d49 3d48fff7  .F....W...=I=H..
 02cd0 c5fa3b4b 0020b3f8 502093f8 52302a80  ..;K. ..P ..R0*.
 02ce0 ab7003b0 30bd384b 98424ed0 37493548  .p..0.8K.BN.7I5H
 02cf0 fff7b4fa ede70090 34493248 fff7aafa  ........4I2H....
 02d00 334b009a 83424cd0 32492e48 fff7a6fa  3K...BL.2I.H....
 02d10 dfe73149 2b48fff7 a1fadae7 2f492948  ..1I+H....../I)H
 02d20 fff79cfa d5e72e49 2648fff7 97fad0e7  .......I&H......
 02d30 2c492448 fff792fa cbe72b49 2148fff7  ,I$H......+I!H..
 02d40 8dfac6e7 29491f48 fff788fa c1e72849  ....)I.H......(I
 02d50 1c48fff7 83fabce7 26491a48 fff77efa  .H......&I.H..~.
 02d60 b7e72549 1748fff7 79fab2e7 23491548  ..%I.H..y...#I.H
 02d70 fff774fa ade72249 1248fff7 6ffaa8e7  ..t..."I.H..o...
 02d80 20491048 fff76afa a3e7114a 0f490d48   I.H..j....J.I.H
 02d90 fff764fa 0f490b48 fff75cfa 1a4b1860  ..d..I.H..\..K.`
 02da0 97e7194b 1a60afe7 c31c01a8 0193fff7  ...K.`..........
 02db0 9dfa8ee7 15490348 fff750fa 89e700bf  .....I.H..P.....
 02dc0 98040020 d43d0020 01100060 d4040020  ... .=. ...`... 
 02dd0 79220000 9c040020 d0040020 cc040020  y"..... ... ... 
 02de0 c8040020 c4040020 c0040020 bc040020  ... ... ... ... 
 02df0 b8040020 b4040020 b0040020 ac040020  ... ... ... ... 
 02e00 a8040020 a4040020 343f0020 a0040020  ... ... 4?. ... 
 02e10 184ba0f1 20029a42 06d82139 08449842  .K.. ..B..!9.D.B
 02e20 8cbf0020 01207047 00f12043 b3f5f80f  ... . pG.. C....
 02e30 09d86ff0 c0430b44 1844b0f5 f80f8cbf  ..o..C.D.D......
 02e40 00200120 70470c4b 1b7883b1 0b4a9042  . . pG.K.x...J.B
 02e50 0dd302eb 03539842 09d80139 01448a42  .....S.B...9.D.B
 02e60 8cbf0020 01208b42 38bf0020 70470020  ... . .B8.. pG. 
 02e70 704700bf e0ff2720 85430020 00000070  pG....' .C. ...p
 02e80 70b50426 84b0431c 0d460deb 060002a9  p..&..C..F......
 02e90 01930396 fff704fa 019b1a78 2c2a23d0  ...........x,*#.
 02ea0 029c3146 2046fff7 b3ff60b3 601e0023  ..1F F....`.`..#
 02eb0 184c05f1 010c10f8 012f1109 02f00f02  .L......./......
 02ec0 615c05f8 1310a25c 0cf81320 0133b342  a\.....\... .3.B
 02ed0 f1db002e 4fea4603 d8bf0223 1d440023  ....O.F....#.D.#
 02ee0 00202b70 04b070bd 013303a9 0193fff7  . +p..p..3......
 02ef0 d7f9dde9 02462046 3146fff7 89ff10b1  .....F F1F......
 02f00 002eecdd d2e7044b 586d2860 002004b0  .......KXm(`. ..
 02f10 70bd00bf 18240020 98040020 034630b5  p....$. ... .F0.
 02f20 85b00133 0c4601a8 02a90193 fff7b8f9  ...3.F..........
 02f30 019b03a9 01330193 fff7b2f9 01a80dc8  .....3..........
 02f40 411c002b 019138dd c2ebc271 03eb020c  A..+..8....q....
 02f50 00eb4100 00f1010e 02300fe0 a1f13005  ..A......0....0.
 02f60 edb2092d 05d9a1f1 4105052d 38d83739  ...-....A..-8.79
 02f70 cdb22b44 02f8013b 62451ed0 1ef81230  ..+D...;bE.....0
 02f80 a3f16101 052922d9 a3f13001 c9b20929  ..a..)"...0....)
 02f90 21d9a3f1 41010529 20d8373b 1b01dbb2  !...A..) .7;....
 02fa0 10f81210 a1f16105 052dd7d8 5739cdb2  ......a..-..W9..
 02fb0 2b4402f8 013b6245 e0d10a4b 0020b3f8  +D...;bE...K. ..
 02fc0 502093f8 52302280 a37005b0 30bd573b  P ..R0"..p..0.W;
 02fd0 1b01dbb2 e4e70901 cbb2e1e7 f023dfe7  .............#..
 02fe0 ff25c6e7 98040020 034610b5 84b00133  .%..... .F.....3
 02ff0 0c4601a8 02a90193 fff752f9 019b03a9  .F........R.....
 03000 01330193 fff74cf9 03990e4b 994203d0  .3....L....K.B..
 03010 0d48fff7 edf848b9 0c4b0020 b3f85020  .H....H..K. ..P 
 03020 93f85230 2280a370 04b010bd 074b0021  ..R0"..p.....K.!
 03030 0020b3f8 502093f8 5230e170 2280a370  . ..P ..R0.p"..p
 03040 04b010bd 00100060 d43d0020 98040020  .......`.=. ... 
 03050 034610b5 84b00133 0c4601a8 02a90193  .F.....3.F......
 03060 fff71ef9 019b03a9 01330193 fff718f9  .........3......
 03070 03990b4b 994203d0 0a48fff7 8bf848b9  ...K.B...H....H.
 03080 094b0020 b3f85020 93f85230 2280a370  .K. ..P ..R0"..p
 03090 04b010bd 044b586d 20600020 04b010bd  .....KXm `. ....
 030a0 00100060 d43d0020 98040020 10b40468  ...`.=. ... ...h
 030b0 2378cbb1 224641f2 013c02e0 12f8013f  #x.."FA..<.....?
 030c0 93b1203b dbb20c2b 2cfa03f1 f6d8cb07  .. ;...+,.......
 030d0 f4d51346 002103f8 011b5278 202a03d1  ...F.!....Rx *..
 030e0 13f8012f 202afbd0 03602046 5df8044b  .../ *...` F]..K
 030f0 704700bf 2de97043 92b00346 b74d0e46  pG..-.pC...F.M.F
 03100 02a80293 fff7d2ff 05f15c01 044612f0  ..........\..F..
 03110 f5fda0b3 05f17401 204612f0 effd0028  ......t. F.....(
 03120 00f09680 05f18401 204612f0 e7fd0028  ........ F.....(
 03130 00f0a480 05f19001 204612f0 dffd0028  ........ F.....(
 03140 59d005f1 9c012046 12f0d8fd 002800f0  Y..... F.....(..
 03150 028105f1 b0012046 12f0d0fd 80460028  ...... F.....F.(
 03160 00f0b680 05f1ec01 204612f0 c7fd0028  ........ F.....(
 03170 67d00023 33700020 12b0bde8 708302a8  g..#3p. ....p...
 03180 fff794ff 804602a8 fff790ff 98f80030  .....F.........0
 03190 0446302b 04d198f8 0130782b 00f06781  .F0+.....0x+..g.
 031a0 404612f0 27fd8146 2378302b 03d16378  @F..'..F#x0+..cx
 031b0 782b00f0 53812046 12f01cfd 80468849  x+..S. F.....F.I
 031c0 204612f0 9bfd0121 00285ffa 89f908bf   F.....!.(_.....
 031d0 88464846 0df044fb 48465ffa 88f10df0  .FHF..D.HF_.....
 031e0 03fb804b 0020b5f8 50209b78 3280b370  ...K. ..P .x2..p
 031f0 12b0bde8 708302a8 08acfff7 57ff0378  ....p.......W..x
 03200 302b03d1 4378782b 00f0fe80 12f0f2fc  0+..Cxx+........
 03210 c0b20021 01900df0 23fb0198 0df058fb  ...!....#.....X.
 03220 02467149 204612f0 75fc2046 12f0defa  .FqI F..u. F....
 03230 21460246 3046fff7 b7f90020 12b0bde8  !F.F0F..... ....
 03240 70834ff0 e023694a c3f80c2d 307092e7  p.O..#iJ...-0p..
 03250 02a808ac fff72aff 0378302b 03d14378  ......*..x0+..Cx
 03260 782b00f0 0e8112f0 c5fcc0b2 00210190  x+...........!..
 03270 0df0f6fa 01980df0 e1fad1e7 02a8fff7  ................
 03280 15ff0446 02a8fff7 11ff2378 8046302b  ...F......#x.F0+
 03290 03d16378 782b00f0 06812046 12f0aafc  ..cxx+.... F....
 032a0 044698f8 0030302b 04d198f8 0130782b  .F...00+.....0x+
 032b0 00f0ef80 404612f0 9dfc8046 e0b20121  ....@F.....F...!
 032c0 01900df0 cdfa4146 01980df0 adff88e7  ......AF........
 032d0 02a8fff7 ebfe0378 302b02d1 4378782b  .......x0+..Cxx+
 032e0 74d012f0 87fc0028 00f09680 40f00104  t......(....@...
 032f0 04ad029b 02a81b78 002b3cd0 fff7d6fe  .......x.+<.....
 03300 02780346 302a03d1 4278782a 00f09e80  .x.F0*..Bxx*....
 03310 12f070fc 08f10108 45f8040b b8f1040f  ..p.....E.......
 03320 e7d13348 b21c4523 324900f1 1d0501e0  ..3H..E#2I......
 03330 10f8013b 1c0903f0 0f038542 02f10202  ...;.......B....
 03340 0c5d02f8 044ccb5c 02f8033c f0d10023  .]...L.\...<...#
 03350 86f83c30 0fe702a8 fff7a8fe 05f1a401  ..<0............
 03360 02462548 12f0d6fb b5f85020 95f85230  .F%H......P ..R0
 03370 3280b370 ffe608f1 ff38b8f1 020f00f2  2..p.....8......
 03380 9a80dfe8 08f01502 1b001c4b dde90401  ...........K....
 03390 1c60a047 02461449 08a812f0 bbfb08a8  .`.G.F.I........
 033a0 12f024fa 08a90246 3046fff7 fdf8e2e6  ..$....F0F......
 033b0 134b0498 1c60a047 0246ece7 114b0498  .K...`.G.F...K..
 033c0 1c60dde9 0512a047 0246e4e7 831c08a9  .`.....G.F......
 033d0 04a80493 fef764ff 089884e7 98040020  ......d........ 
 033e0 04050020 e8040020 18050020 0400fa05  ... ... ... ....
 033f0 65050020 18240020 20410020 c43d0020  e.. .$.  A. .=. 
 03400 c03d0020 c83d0020 831c2146 04a80493  .=. .=. ..!F....
 03410 fef746ff 0898fbe6 2948b21c 45232949  ..F.....)H..E#)I
 03420 00f11105 01e010f8 013b1c09 03f00f03  .........;......
 03430 854202f1 02020c5d 02f8044c cb5c02f8  .B.....]...L.\..
 03440 033cf0d1 002386f8 243094e6 023303a8  .<...#..$0...3..
 03450 08a90393 fef724ff 08985be7 a31c08a9  ......$...[.....
 03460 04a80493 fef71cff ddf82080 a7e608f1  .......... .....
 03470 020308a9 04a80493 fef712ff ddf82090  .............. .
 03480 92e6831c 214604a8 0493fef7 09ff0898  ....!F..........
 03490 ebe608f1 020308a9 04a80493 fef700ff  ................
 034a0 ddf82080 0ae70234 08a904a8 0494fef7  .. ....4........
 034b0 f7fe089c f5e6044b 1c60a047 02466ae7  .......K.`.G.Fj.
 034c0 51050020 18240020 bc3d0020 70b5424e  Q.. .$. .=. p.BN
 034d0 c0b00c46 0a2206f1 f4010546 12f034fa  ...F.".....F..4.
 034e0 002863d0 052206f5 88712846 12f02cfa  .(c.."...q(F..,.
 034f0 70b10922 06f58c71 284612f0 25fa8446  p.."...q(F..%..F
 03500 00285ed0 00239c46 23706046 40b070bd  .(^..#.F#p`F@.p.
 03510 6846ab79 a91d8446 2bbb3ae0 a3f13002  hF.y...F+.:...0.
 03520 d2b2092a 3fd9a3f1 4102052a 52d8373b  ...*?...A..*R.7;
 03530 1b01dab2 4b78a3f1 6105052d 1fd9a3f1  ....Kx..a..-....
 03540 300e5ffa 8efebef1 090f06d9 a3f14105  0._...........A.
 03550 052d3cd8 373b5ffa 83fe7244 11f8023f  .-<.7;_...rD...?
 03560 0cf8012b abb1a3f1 6102052a d6d8573b  ...+....a..*..W;
 03570 1b01dab2 4b78a3f1 6105052d dfd8573b  ....Kx..a..-..W;
 03580 5ffa83fe 11f8023f 72440cf8 012b002b  _......?rD...+.+
 03590 e9d10023 21468cf8 0030fff7 abfd8446  ...#!F...0.....F
 035a0 604640b0 70bd1201 d2b2c3e7 06f58076  `F@.p..........v
 035b0 84460fce 20606046 6160a260 e36040b0  .F.. ``Fa`.`.`@.
 035c0 70bdb6f8 24316046 238040b0 70bd4ff0  p...$1`F#.@.p.O.
 035d0 ff0ec2e7 f022ade7 98040020 10b54278  ....."..... ..Bx
 035e0 82b00c46 411c2d2a 019116d0 01a81549  ...FA.-*.......I
 035f0 fef756fe 019b1a78 2c2a1cd0 124b0022  ..V....x,*...K."
 03600 1a60124b 00201249 b3f85020 93f85230  .`.K. .I..P ..R0
 03610 08602280 a37002b0 10bd0346 094901a8  .`"..p.....F.I..
 03620 02330193 fef73cfe 0b685b42 0b60019b  .3....<..h[B.`..
 03630 1a782c2a e2d10133 03490193 fef730fe  .x,*...3.I....0.
 03640 dfe700bf 403f0020 383f0020 98040020  ....@?. 8?. ... 
 03650 3c3f0020 70b50378 04460d46 43b10246  <?. p..x.F.FC..F
 03660 02e012f8 013f1bb1 3b2bfad1 00231370  .....?..;+...#.p
 03670 0c4e2046 06f59471 11f004fc 48b106f5  .N F...q....H...
 03680 98712046 11f0fefb 18b10023 00202b70  .q F.......#. +p
 03690 70bd054b 0020b6f8 50209b78 2a80ab70  p..K. ..P .x*..p
 036a0 70bd00bf 98040020 e8040020 38b50122  p...... ... 8.."
 036b0 534b1a60 0378213b 592b2ed8 dfe803f0  SK.`.x!;Y+......
 036c0 4d2d2d2d 2d2d2d2d 2d2d2d2d 2d2d2d2d  M---------------
 036d0 2d2d2d2d 2d2d2d2d 2d2d2d2d 2d2d562d  --------------V-
 036e0 2d2d2d60 2d6d452d 2d2d2d2d 492d2d41  ---`-mE-----I--A
 036f0 2d322d2d 2d2d2d2d 2d712d2d 2d2d2d2d  -2-------q------
 03700 2d2d752d 2d2d7d2d 2d2d322d 812d2d2d  --u---}---2-.---
 03710 8532892d 2d922d2d 2d960022 13460a70  .2.--.---..".F.p
 03720 184638bd 374a4ff0 e02c374c 0023b2f8  .F8.7JO..,7L.#..
 03730 500092f8 5220ccf8 0c4d0880 18468a70  P...R ...M...F.p
 03740 38bdbde8 3840fff7 91babde8 3840fff7  8...8@......8@..
 03750 e1b9bde8 3840fff7 e1bb2a4a 0023b2f8  ....8@....*J.#..
 03760 500092f8 52200880 8a70d9e7 274a0846  P...R ...p..'J.F
 03770 274b1268 53f82210 11f08efb 0023cfe7  'K.hS."......#..
 03780 204a0023 234db2f8 5000234c 92f85220   J.##M..P.#L..R 
 03790 2b602360 08808a70 c2e7bde8 3840fff7  +`#`...p....8@..
 037a0 1dbfbde8 3840fff7 53bc0022 194c1a48  ....8@..S..".L.H
 037b0 01232260 02600a70 b2e7bde8 3840fef7  .#"`.`.p....8@..
 037c0 bdbfbde8 3840fff7 5bbbbde8 3840fff7  ....8@..[...8@..
 037d0 7dbe4278 72b90123 0f4c0e48 23600260  }.Bxr..#.L.H#`.`
 037e0 0a709de7 bde83840 fff734bf bde83840  .p....8@..4...8@
 037f0 fff7fabb 034a0023 506d0860 90e700bf  .....J.#Pm.`....
 03800 503f0020 98040020 0400fa05 e03e0020  P?. ... .....>. 
 03810 48240020 543f0020 f83e0020 70b5484c  H$. T?. .>. p.HL
 03820 adf5006d 20680368 1b699847 10b90df5  ...m h.h.i.G....
 03830 006d70bd fef75cfe 0028f8db 242812d0  .mp...\..(..$(..
 03840 2d2805d0 0328f2d1 3e4b0122 1a60eee7  -(...(..>K.".`..
 03850 3d4b1a68 002aead0 3c494ff0 ff300022  =K.h.*..<IO..0."
 03860 08601a60 e3e70df5 80663546 09e02328  .`.`.....f5F..#(
 03870 12d00df5 006203f8 010b9342 34bf1d46  .....b.....B4..F
 03880 3546fef7 35fe421c 2b46f0d1 20682d21  5F..5.B.+F.. h-!
 03890 03681b68 9847cae7 00232b70 fef728fe  .h.h.G...#+p..(.
 038a0 c0b2a0f1 6103052b 45d9a0f1 3005ebb2  ....a..+E...0...
 038b0 092b07d9 a0f14103 052b94bf a0f13705  .+....A..+....7.
 038c0 4ff0ff35 fef714fe c0b22d01 a0f16103  O..5......-...a.
 038d0 052b2dd9 a0f13003 dab2092a 07d9a0f1  .+-...0....*....
 038e0 4103052b 94bfa0f1 37034ff0 ff333278  A..+....7.O..32x
 038f0 1d441ab3 00233146 134411f8 012fdbb2  .D...#1F.D.../..
 03900 002af9d1 9d422068 04d00368 2d211b68  .*...B h...h-!.h
 03910 98478ce7 03682b21 1b689847 69463046  .G...h+!.h.GiF0F
 03920 fff7c4fe 012882d0 6846fef7 6bfe7ee7  .....(..hF..k.~.
 03930 a0f15703 dbe7a0f1 5705c3e7 1346e1e7  ..W.....W....F..
 03940 fc3e0020 d03d0020 3c3f0020 403f0020  .>. .=. <?. @?. 
 03950 38b5124b 1b68b3b1 114d01e0 fff75eff  8..K.h...M....^.
 03960 28680368 1b699847 04460028 f6d10d4d  (h.h.i.G.F.(...M
 03970 2b784bb9 0c4b1a68 2ab10020 0b4a0121  +xK..K.h*.. .J.!
 03980 18601160 12df38bd 2846fef7 3bfe064b  .`.`..8.(F..;..K
 03990 2c701a68 002af6d0 efe700bf f8230020  ,p.h.*.......#. 
 039a0 fc3e0020 20410020 d03d0020 e03e0020  .>.  A. .=. .>. 
 039b0 134b0022 00b51a70 8db0fef7 b7fd114b  .K."...p.......K
 039c0 114a02a9 08a80093 06930292 fef758fc  .J............X.
 039d0 42f6df62 06a90d48 0df02cf8 069b08a8  B..b...H..,.....
 039e0 db689847 009b02a8 db689847 08490948  .h.G.....h.G.I.H
 039f0 fef72afc 084b0122 1a600db0 5df804fb  ..*..K.".`..]...
 03a00 20410020 980e0020 51390000 10240020   A. ... Q9...$. 
 03a10 05270000 d43d0020 f8230020 024a0349  .'...=. .#. .J.I
 03a20 034810f0 b1bf00bf 98230020 95220000  .H.......#. ."..
 03a30 10240020 2de9f843 214b0546 1c68013c  .$. -..C!K.F.h.<
 03a40 1c6014b1 2846bde8 f883dff8 80801d4f  .`..(F.........O
 03a50 98f80030 3e68d3b9 06f10408 06f17004  ...0>h........p.
 03a60 203e04f1 1c000ef0 4dfe04f1 10000ef0   >......M.......
 03a70 49fe201d 303c0ef0 45feb442 f1d14046  I. .0<..E..B..@F
 03a80 0ef040fe 00232846 3b60bde8 f8833068  ..@..#(F;`....0h
 03a90 01f0eafb 88f80040 b0468146 0a4948f8  .......@.F.F.IH.
 03aa0 044b4046 0ef06afe b9f1000f d6d04846  .K@F..j.......HF
 03ab0 00f02afc 044612f0 cbf80460 cee700bf  ..*..F.....`....
 03ac0 2c3a0020 303a0020 981c0020 7d430020  ,:. 0:. ... }C. 
 03ad0 70b50d4d 2b7803b9 70bd0446 006801f0  p..M+x..p..F.h..
 03ae0 c3fb0023 06460949 44f8043b 20462b70  ...#.F.ID..; F+p
 03af0 0ef044fe 002eefd0 304600f0 05fc0446  ..D.....0F.....F
 03b00 12f0a6f8 046070bd 7d430020 981c0020  .....`p.}C. ... 
 03b10 0b4a38b5 1368591c 11604bb1 094c0a4a  .J8..hY..`K..L.J
 03b20 0a490b48 10f030ff 0a4b2268 1a6038bd  .I.H..0..K"h.`8.
 03b30 094d044c 284612f0 2bfc2560 efe700bf  .M.L(F..+.%`....
 03b40 2c3a0020 303a0020 98230020 353a0000  ,:. 0:. .#. 5:..
 03b50 443b0020 243b0020 343a0020 704700bf  D;. $;. 4:. pG..
 03b60 012801d9 00207047 10b50446 82b00846  .(... pG...F...F
 03b70 03f0c6fc 034601a9 e0b20193 00f0caf9  .....F..........
 03b80 012002b0 10bd00bf 024b0022 0249c3e9  . .......K.".I..
 03b90 00127047 00390020 940e0020 00f000b8  ..pG.9. ... ....
 03ba0 014b1868 704700bf e8420020 38b1044b  .K.hpG...B. 8..K
 03bb0 421e012a 98bf1846 0368db68 18477047  B..*...F.h.h.GpG
 03bc0 48230020 08b5eff3 058303b9 08bd1346  H#. ...........F
 03bd0 0a460146 074811f0 67f9074b 91220749  .F.F.H..g..K.".I
 03be0 074811f0 61f90020 11f088fd 0ef022fd  .H..a.. ......".
 03bf0 0df064fd 8c1c0020 9c1c0020 c81c0020  ..d.... ... ... 
 03c00 f01c0020 08b500f0 09f800b1 08bdbde8  ... ............
 03c10 084012f0 c1bb00bf 00f06cb8 064bd3f8  .@........l..K..
 03c20 800010f4 405006d0 a3f54033 186880f4  ....@P....@3.h..
 03c30 0050c0f3 40307047 00c00f40 284b1a68  .P..@0pG...@(K.h
 03c40 2de9f04f d20483b0 82460191 07d54ff4  -..O.....F....O.
 03c50 8051244a 1960d96f 1b6c0023 1360019e  .Q$J.`.o.l.#.`..
 03c60 66b3dff8 8080dff8 88901f4d d8f80070  f..........M...p
 03c70 a5eb0905 1a4c2fbb 236813f4 a05ffbd0  .....L/.#h..._..
 03c80 2368db04 22d4194b 03f14001 ea5843f8  #h.."..K..@..XC.
 03c90 042f8b42 fad1236c 49464027 b742bb46  ./.B..#lIF@'.B.F
 03ca0 504628bf b3465a46 a7eb0b07 11f090fd  PF(..FZF........
 03cb0 b6eb0b06 da44c8f8 0070dcd1 019803b0  .....D...p......
 03cc0 bde8f08f c7f14001 4944e7e7 019a4ff4  ......@.ID....O.
 03cd0 8053921b 01920198 236003b0 bde8f08f  .S......#`......
 03ce0 00c00c40 bc400020 44c00c40 fcff1f20  ...@.@. D..@... 
 03cf0 00002020 042100b5 83b00deb 0100fff7  ..  .!..........
 03d00 9dff0328 03d90198 03b05df8 04fb11f0  ...(......].....
 03d10 9fff0b23 03600198 03b05df8 04fb00bf  ...#.`....].....
 03d20 034a1368 013b1360 0bb9024a 13607047  .J.h.;.`...J.`pG
 03d30 d43a0020 d83a0020 0a4a1368 591c10b5  .:. .:. .J.hY...
 03d40 11604bb1 084c094a 09490a48 10f01cfe  .`K..L.J.I.H....
 03d50 094b2268 1a6010bd fff754ff 024c074b  .K"h.`....T..L.K
 03d60 2360f0e7 d43a0020 d83a0020 98230020  #`...:. .:. .#. 
 03d70 213d0000 643b0020 603b0020 dc3a0020  !=..d;. `;. .:. 
 03d80 074b70b5 1c680546 013c1c60 0cb12846  .Kp..h.F.<.`..(F
 03d90 70bd044e 306812f0 effa2846 346070bd  p..N0h....(F4`p.
 03da0 d0390020 d4390020 1d4a0020 1d491368  .9. .9. .J. .I.h
 03db0 10b51d4c c1e90040 591c1160 d3b11b4a  ...L...@Y..`...J
 03dc0 1b491c48 10f0e0fd 1b4a1368 591c1160  .I.H.....J.hY..`
 03dd0 f3b1164a 19491a48 10f0d6fd 194a1368  ...J.I.H.....J.h
 03de0 591c1160 6bb1114a 17491848 bde81040  Y..`k..J.I.H...@
 03df0 10f0cabd 164c2046 12f0cafa 154b1c60  .....L F.....K.`
 03e00 dde7154c 204612f0 bbfa144b 1c60eae7  ...L F.....K.`..
 03e10 134c2046 12f0c4fa 124b1c60 d9e700bf  .L F.....K.`....
 03e20 2c3a0020 08390020 940e0020 98230020  ,:. .9. ... .#. 
 03e30 353a0000 483b0020 d43a0020 213d0000  5:..H;. .:. !=..
 03e40 683b0020 d0390020 813d0000 2c3b0020  h;. .9. .=..,;. 
 03e50 343a0020 303a0020 d8390020 d4390020  4:. 0:. .9. .9. 
 03e60 dc3a0020 d83a0020 1a4a1368 591c10b5  .:. .:. .J.hY...
 03e70 1160d3b1 184a1949 194810f0 85fd194a  .`...J.I.H.....J
 03e80 1368591c 1160f3b1 134a1749 174810f0  .hY..`...J.I.H..
 03e90 7bfd174a 1368591c 11606bb1 0e4a1549  {..J.hY..`k..J.I
 03ea0 1548bde8 104010f0 6fbd144c 204612f0  .H...@..o..L F..
 03eb0 6ffa134b 1c60dde7 124c2046 12f060fa  o..K.`...L F..`.
 03ec0 114b1c60 eae7114c 204612f0 69fa104b  .K.`...L F..i..K
 03ed0 1c60d9e7 2c3a0020 98230020 353a0000  .`..,:. .#. 5:..
 03ee0 4c3b0020 d43a0020 213d0000 6c3b0020  L;. .:. !=..l;. 
 03ef0 d0390020 813d0000 303b0020 343a0020  .9. .=..0;. 4:. 
 03f00 303a0020 d8390020 d4390020 dc3a0020  0:. .9. .9. .:. 
 03f10 d83a0020 012800d9 704721b1 054b0a68  .:. .(..pG!..K.h
 03f20 43f82020 7047044a 024b1268 43f82020  C.  pG.J.K.hC.  
 03f30 704700bf 043f0020 1c170020 30b54ff0  pG...?. ... 0.O.
 03f40 000e00f0 01057145 05dd25b1 10f8013b  ......qE..%....;
 03f50 013963f3 1f2e0129 27dd0239 00234c08  .9c....)'..9.#L.
 03f60 04f1010c 00eb4c0c 30f8022b 84451344  ......L.0..+.E.D
 03f70 fad1c4eb c47401eb 44010129 05d19cf8  .....t..D..)....
 03f80 002062f3 070e1ffa 8efe9e44 1ffa8ef3  . b........D....
 03f90 03eb1e43 98b200eb 134025b1 0302c0f3  ...C.....@%.....
 03fa0 07209bb2 184380b2 30bd8446 0023e4e7  . ...C..0..F.#..
 03fb0 08b5fff7 c3ffc043 80b208bd 2de9f041  .......C....-..A
 03fc0 0e461546 04464ff4 6b713a4a 3a48fff7  .F.F.FO.kq:J:H..
 03fd0 f9fd002e 41d0002c 68d0dff8 e4c0dcf8  ....A..,h.......
 03fe0 0070002f 2ed0bc42 39d03846 01e08442  .p./...B9.8F...B
 03ff0 35d0c068 0028fad1 002d33d0 36683b46  5..h.(...-3.6h;F
 04000 01e0db68 c3b19c42 fbd0617a 490702d5  ...h...B..azI...
 04010 5a7a5207 f5d45a8a aa42f2d1 1a68b242  ZzR...Z..B...h.B
 04020 18bf002a 01d0002e ebd16ff0 0700bde8  ...*......o.....
 04030 f0813668 aef80050 26606582 38b10020  ..6h...P&`e.8.. 
 04040 bde8f081 002d2fd0 33686582 23600020  .....-/.3he.#`. 
 04050 e760ccf8 0040bde8 f081184e bbe70120  .`...@.....N... 
 04060 002dcbd1 dff85ce0 4ff48041 4ff6ff78  .-....\.O..AO..x
 04070 bef80050 454514d0 0135adb2 002fd8d0  ...PEE...5.../..
 04080 3b4602e0 db68002b d3d05a8a aa42f9d1  ;F...h.+..Z..B..
 04090 013989b2 0029edd1 6ff00700 aef80050  .9...)..o......P
 040a0 cee74ff4 4045e9e7 3846dbe7 6ff00f00  ..O.@E..8F..o...
 040b0 c6e700bf b00f0020 c8200020 1c170020  ....... . . ... 
 040c0 40430020 7a240020 2de9f04f 85b00d46  @C. z$. -..O...F
 040d0 174640f2 cf21ddf8 38900446 ddf83ca0  .F@..!..8..F..<.
 040e0 98464b4a 4b48fff7 6dfdb9f1 000f18bf  .FKJKH..m.......
 040f0 baf1000f 0cbf0121 0021002f 08bf41f0  .......!.!./..A.
 04100 0101002d 08bf41f0 01010029 6bd1002c  ...-..A....)k..,
 04110 69d0628a 002a43d0 2a894ff6 f7739a42  i.b..*C.*.O..s.B
 04120 64d80821 284601f0 13fa0028 4cd12e46  d..!(F.....(L..F
 04130 7389072b 5dd9628a 98fa98f8 736852ba  s..+].b.....shR.
 04140 a3f80280 1a800022 9a71da71 227c1207  .......".q.q"|..
 04150 1dd43289 52ba9a80 3b6803f0 f003e02b  ..2.R...;h.....+
 04160 30d0e37a 1120cdf8 0890a27a 51460190  0..z. .....zQF..
 04170 30460092 3a4602f0 a3ffae42 834602d0  0F..:F.....B.F..
 04180 304601f0 1dfa5846 05b0bde8 f08f3a68  0F....XF......:h
 04190 02f0f002 e02a0ed0 328952ba 9a80e0e7  .....*..2.R.....
 041a0 21462046 fff70aff 83460028 b4d05846  !F F.....F.(..XF
 041b0 05b0bde8 f08f727b 42f00402 72733289  ......r{B...rs2.
 041c0 52ba9a80 637fcde7 4ff42072 08212420  R...c...O. r.!$ 
 041d0 01f060fa 064648b1 2b89002b a8d02946  ..`..FH.+..+..)F
 041e0 01f0a4fb a4e76ff0 0f0bcce7 4ff0ff3b  ......o.....O..;
 041f0 c9e7084b 40f20d32 07490848 10f054fe  ...K@..2.I.H..T.
 04200 002011f0 7bfa0120 fff7d0fc 0df056fa  . ..{.. ......V.
 04210 cc0f0020 c8200020 3c210020 f01c0020  ... . . <!. ... 
 04220 70b582b0 069c002c 18bf002a 0cbf4ff0  p......,...*..O.
 04230 010c4ff0 000c0029 08bf4cf0 010cbcf1  ..O....)..L.....
 04240 000f13d1 90b10568 35b92546 cde90045  .......h5.%F...E
 04250 fff73aff 02b070bd 05f0f00c bcf1e00f  ..:...p.........
 04260 f3d02668 b54204d1 0546efe7 6ff00f00  ..&h.B...F..o...
 04270 f0e76ff0 0300ede7 10b50446 114a40f2  ..o........F.J@.
 04280 a3411148 fff79efc d4b1104b 1a68a242  .A.H.......K.h.B
 04290 06d03ab1 d3682bb1 a34209d0 1a46f8e7  ..:..h+..B...F..
 042a0 e2681a60 21460020 bde81040 03f0b6b8  .h.`!F. ...@....
 042b0 e3682146 0020d360 bde81040 03f0aeb8  .h!F. .`...@....
 042c0 10bd00bf 480f0020 c8200020 40430020  ....H.. . . @C. 
 042d0 10b10268 01b102b9 70470b68 002bfbd0  ...h....pG.h.+..
 042e0 084b1b68 002bf7d0 10b400e0 02681c68  .K.h.+.......h.h
 042f0 944201d1 0a681a60 db68002b f6d15df8  .B...h.`.h.+..].
 04300 044b7047 40430020 00f11003 dbb2102b  .KpG@C. .......+
 04310 04d8034b 404253f8 20007047 05207047  ...K@BS. .pG. pG
 04320 60150020 08b500f0 91ff0023 80f85130  `.. .......#..Q0
 04330 08bd00bf 08b500f0 89ff0023 80f87030  ...........#..p0
 04340 08bd00bf f0b50446 006883b0 0f461646  .......F.h...F.F
 04350 1d460028 34d0a388 0289b7f8 00010430  .F.(4..........0
 04360 13fa80f0 904237dc 39462046 00f0d0fe  .....B7.9F F....
 04370 08b103b0 f0bd76ba a3880222 0df10601  ......v...."....
 04380 2068adf8 066001f0 69fb0028 f1d1a388   h...`..i..(....
 04390 0222002d 0df10601 13440cbf 4ff48070  .".-.....D..O..p
 043a0 4ff4c070 9bb2adf8 0600a380 206801f0  O..p........ h..
 043b0 55fb0028 ddd1a388 0233a380 03b0f0bd  U..(.....3......
 043c0 4ff42072 40f2aa51 382001f0 63f92060  O. r@..Q8 ..c. `
 043d0 10b10c23 a380bfe7 4ff0ff30 c9e700bf  ...#....O..0....
 043e0 2de9f043 044685b0 00680d46 1646ddf8  -..C.F...h.F.F..
 043f0 34800f9f 002853d0 a288b5f8 00c10cf1  4....(S.........
 04400 0a0c1ffa 8cfcb8f1 000f03d0 0e998c44  ...............D
 04410 1ffa8cfc 27b1b7f8 00118c44 1ffa8cfc  ....'......D....
 04420 94440289 944549dc 32462946 2046fff7  .D...EI.2F)F F..
 04430 89ff0c9b 03a92068 1abaa388 03920422  ...... h......."
 04440 01f00cfb 48bba688 06f10609 1ffa89f9  ....H...........
 04450 a4f80490 b8f1000f 0bd00e9b 41462068  ............AF h
 04460 9db24b46 2a4601f0 f9fab0b9 a3881d44  ..KF*F.........D
 04470 a58027b1 39462046 00f04afe 68b9a188  ..'.9F F..J.h...
 04480 331d0222 2068a1eb 09019bb2 49baadf8  3.." h......I...
 04490 0a100df1 0a0101f0 e1fa05b0 bde8f083  ................
 044a0 4ff42072 40f2aa51 38200193 01f0f2f8  O. r@..Q8 ......
 044b0 019b2060 10b10c22 a2809ee7 4ff0ff30  .. `..."....O..0
 044c0 ebe700bf 10b5c2b0 044601a8 00f0defc  .........F......
 044d0 0123ff22 01a92046 fff734ff 42b010bd  .#.".. F..4.B...
 044e0 10b5c2b0 04460122 01a800f0 5dfd0123  .....F."....]..#
 044f0 ff2201a9 2046fff7 25ff42b0 10bd00bf  .".. F..%.B.....
 04500 30b5adf5 077d0d46 04461146 04a80022  0....}.F.F.F..."
 04510 00f04afd 45a800f0 f3fc2b7b dbb1e388  ..J.E.....+{....
 04520 73b10a22 00232046 04ac45a9 cde90023  s..".# F..E....#
 04530 cde90234 0c22fff7 53ff0df5 077d30bd  ...4."..S....}0.
 04540 0c2245a9 2046fff7 fdfe0028 f5d10123  ."E. F.....(...#
 04550 0a22e380 e6e741f2 9412e3e7 f0b5c7b0  ."....A.........
 04560 0d460446 10461646 00f070fe 014605a8  .F.F.F.F..p..F..
 04570 00f08cfc 2b7bdbb1 e38873b1 0a272046  ....+{....s..' F
 04580 01960424 ab7a0025 012205a9 0097cde9  ...$.z.%."......
 04590 0245fff7 25ff47b0 f0bd0122 05a92046  .E..%.G....".. F
 045a0 fff7d0fe 0028f6d1 01230a27 e380e6e7  .....(...#.'....
 045b0 7827e4e7 f0b5adf5 097d1746 0d460122  x'.......}.F.F."
 045c0 19460446 06a81e46 00f0eefc 394647a8  .F.F...F....9FG.
 045d0 00f05cfc 2b7b33b3 0127e388 8df81e72  ..\.+{3..'.....r
 045e0 bbb10a23 47aa0093 06a90392 2122b6f8  ...#G.......!"..
 045f0 8e01ab7a 45ba2046 04acadf8 14500625  ...zE. F.....P.%
 04600 01940295 00250495 fff7eafe 0df5097d  .....%.........}
 04610 f0bd2122 06a92046 fff794fe 0028f5d1  ..!".. F.....(..
 04620 0a23e780 dee77823 dce700bf 70b51446  .#....x#....p..F
 04630 adf5067d 0e460022 21460546 04a800f0  ...}.F."!F.F....
 04640 b3fc2146 012245a8 00f0aefc 337bdbb1  ..!F."E.....3{..
 04650 eb8873b1 0a220023 45ac04a9 2846cde9  ..s..".#E...(F..
 04660 0023cde9 02340c22 fff7bafe 0df5067d  .#...4.".......}
 04670 70bd0c22 04a92846 fff764fe 0028f5d1  p.."..(F..d..(..
 04680 01230a22 eb80e6e7 7822e4e7 70b5adf5  .#."....x"..p...
 04690 067d1446 05461046 0e4600f0 d7fd0146  .}.F.F.F.F.....F
 046a0 04a800f0 f3fb2146 45a800f0 87fb337b  ......!FE.....3{
 046b0 e3b1eb88 7bb10a22 04acb37a 45a90092  ....{.."...zE...
 046c0 03940024 28460c22 cde90144 fff788fe  ...$(F."...D....
 046d0 0df5067d 70bd0c22 45a92846 fff732fe  ...}p.."E.(F..2.
 046e0 0028f5d1 01230a22 eb80e5e7 7822e3e7  .(...#."....x"..
 046f0 30b50c46 c3b089b1 05460a78 01a800f0  0..F.....F.x....
 04700 b1fc0023 94f84e21 01a92846 fff71afe  ...#..N!..(F....
 04710 10b9eb88 0133eb80 43b030bd 084643b0  .....3..C.0..FC.
 04720 30bd00bf 70b51446 c6b00122 05460e46  0...p..F...".F.F
 04730 05a82146 00f038fc 4ff48272 00212046  ..!F..8.O..r.! F
 04740 11f0d4fa d4f88431 1bb1d4f8 88112046  .......1...... F
 04750 9847337b e3b1eb88 7bb10a23 00931022  .G3{....{..#..."
 04760 b37a05a9 01942846 b4f80041 02940024  .z....(F...A...$
 04770 0394fff7 35fe46b0 70bd1022 05a92846  ....5.F.p.."..(F
 04780 fff7e0fd 0028f6d1 0123eb80 0a23e5e7  .....(...#...#..
 04790 7823e3e7 2de9f04f 154687b0 0c460746  x#..-..O.F...F.F
 047a0 00f054fd 0190a169 2846fff7 a1ff0646  ..T....i(F.....F
 047b0 18b13046 07b0bde8 f08f3846 00f046fd  ..0F......8F..F.
 047c0 a37b8046 db0600f1 c38008f1 3c0a04f1  .{.F........<...
 047d0 0f0908f1 48085af8 041f19b1 99f80030  ....H.Z........0
 047e0 d8065dd4 c24509f1 0109f4d1 a37c13f0  ..]..E.......|..
 047f0 010240f0 c4800392 9a0762d4 019b04f1  ..@.......b.....
 04800 1409ddf8 0c8003f1 3c0acb46 4833cde9  ........<..FH3..
 04810 04672646 54460293 54f8047f 4fb19bf8  .g&FTF..T...O...
 04820 0020d306 59d49006 65d45106 71d41206  . ..Y...e.Q.q...
 04830 7ed4029b 0bf1010b 9c42edd1 3446059f  ~........B..4F..
 04840 049e94f9 0230cdf8 0c80002b 31db6b89  .....0.....+1.k.
 04850 a346039a ddf80880 1a446a81 5af8044f  .F.......Dj.Z..O
 04860 b4b199f8 00209306 04d55006 40f19180  ..... ....P.@...
 04870 110677d5 12f0600f 9bf81230 02d113f0  ..w...`....0....
 04880 050f05d0 db0703d4 3b68002b 40f08f80  ........;h.+@...
 04890 c24509f1 0109e1d1 304607b0 bde8f08f  .E......0F......
 048a0 2846fff7 1dfe0028 4dd1eb88 0133eb80  (F.....(M....3..
 048b0 98e72b89 4246a346 ddf80880 1a442a81  ..+.BF.F.....D*.
 048c0 cce73a46 21462846 fff7e0fe 00283ad1  ..:F!F(F.....(:.
 048d0 039b0133 9bb20393 90e73a46 31462846  ...3......:F1F(F
 048e0 fff70efe 78bb9bf8 002008f1 01089006  ....x.... ......
 048f0 1ffa88f8 99d53a46 31462846 fff796fe  ......:F1F(F....
 04900 08bb9bf8 002008f1 01085106 1ffa88f8  ..... ....Q.....
 04910 8dd53b46 019a3146 2846fff7 4bfe90b9  ..;F..1F(F..K...
 04920 9bf80020 08f10108 12061ffa 88f880d5  ... ............
 04930 3a463146 2846fff7 f5fe20b9 08f10108  :F1F(F.... .....
 04940 1ffa88f8 75e70646 304607b0 bde8f08f  ....u..F0F......
 04950 01462846 fff7b6fd 0028f4d1 eb880133  .F(F.....(.....3
 04960 eb8032e7 22465946 2846fff7 dbfe0028  ..2."FYF(F.....(
 04970 e9d1ab89 0133ab81 99f80020 7ae73a46  .....3..... z.:F
 04980 21462846 fff7eafd 0028dcd1 a37c0122  !F(F.....(...|."
 04990 31e72346 019a5946 2846fff7 0bfe0028  1.#F..YF(F.....(
 049a0 d1d1ab89 0133ab81 99f80020 60e73a46  .....3..... `.:F
 049b0 59462846 fff7d2fd 0028c4d1 ab890133  YF(F.....(.....3
 049c0 ab8165e7 70b58eb0 05460e46 24220021  ..e.p....F.F$".!
 049d0 05a811f0 8bf905aa 29463046 fff7dafe  ........)F0F....
 049e0 044680bb 059890b3 bdf81a30 02a9aa78  .F.........0...x
 049f0 5bba8df8 0b408df8 0a20bdf8 1c20adf8  [....@... ... ..
 04a00 0c30bdf8 1e3052ba 5bbaadf8 0e20bdf8  .0...0R.[.... ..
 04a10 2020adf8 10302b88 52ba5bba adf81220    ...0+.R.[.... 
 04a20 0c22adf8 083000f0 c5ffbdf8 18100598  ."...0..........
 04a30 00f0befe 00f012fc 2b892a1d 05990096  ........+.*.....
 04a40 fff7eefb 04460598 08b100f0 b9fd2046  .....F........ F
 04a50 0eb070bd 38b50546 00f0f8fb 90f85130  ..p.8..F......Q0
 04a60 044663b3 29462748 01f03efc 2a462549  .Fc.)F'H..>.*F%I
 04a70 4ff47a70 01f00afc 012294f8 523084f8  O.zp....."..R0..
 04a80 51204bb3 29462048 01f02efc 2a461e49  Q K.)F H....*F.I
 04a90 fa2001f0 fbfb0122 94f87030 84f85220  . ....."..p0..R 
 04aa0 33b32946 194801f0 1ffc2a46 174947f2  3.)F.H....*F.IG.
 04ab0 305001f0 ebfb0123 84f87030 38bd2a46  0P.....#..p08.*F
 04ac0 10494ff4 7a7001f0 e1fb0122 94f85230  .IO.zp....."..R0
 04ad0 84f85120 002bd5d1 2a460b49 fa2001f0  ..Q .+..*F.I. ..
 04ae0 d5fb0122 94f87030 84f85220 002bd8d1  ..."..p0..R .+..
 04af0 2a460649 47f23050 01f0c8fb 012384f8  *F.IG.0P.....#..
 04b00 703038bd 25430000 114b0000 35430000  p08.%C...K..5C..
 04b10 38b50546 00f09afb 002290f8 503080f8  8..F....."..P0..
 04b20 522003b9 38bd0446 29465430 fff74aff  R ..8..F)FT0..J.
 04b30 03460028 f6d12846 a4f85430 84f85630  .F.(..(F..T0..V0
 04b40 a4f85e30 a4f86830 84f86a30 84f85030  ..^0..h0..j0..P0
 04b50 c4e91833 bde83840 fff77cbf 2de9f84f  ...3..8@..|.-..O
 04b60 99468046 8a461646 b9f1060f 40465146  .F.F.F.F....@FQF
 04b70 39d000f0 abff0446 0af10105 404604f0  9......F....@F..
 04b80 c001a7b2 adb204f1 010bc029 3a462b46  ...........):F+F
 04b90 3ad03f2c 27d8b6f8 00c104eb 0c010cf1  :.?,'...........
 04ba0 010e0beb 0c0a1ffa 8efeff29 06eb0e01  ...........)....
 04bb0 19dcecb1 baf1ff0f 15dc06f8 0c4005eb  .............@..
 04bc0 070aa6f8 00e100f0 bffe8742 1ffa8afa  ...........B....
 04bd0 3cd1b6f8 0031b9f1 060f5146 40463b44  <....1....QF@F;D
 04be0 a6f80031 c5d14ff6 ff752846 bde8f88f  ...1..O..u(F....
 04bf0 bcf1ff0f f7d80cf1 010306f8 0c402846  .............@(F
 04c00 a6f80031 bde8f88f b8f80830 ab42ead9  ...1.......0.B..
 04c10 294600f0 5bff2302 03f47c53 184303b2  )F..[.#...|S.C..
 04c20 81b20b2b dfddb8f8 08308b42 dbd909f1  ...+.....0.B....
 04c30 01033246 4046fff7 91ff4ff6 ff739842  ..2F@F....O..s.B
 04c40 d1d00af1 020a1ffa 8af5cee7 b6f80031  ...............1
 04c50 4ff6ff75 013ba6f8 0031c6e7 2de9f04f  O..u.;...1..-..O
 04c60 c7b00d88 93460446 4ff48272 029105a8  .....F.FO..r....
 04c70 0021cdf8 00b011f0 39f80023 29462046  .!......9..#)F F
 04c80 05aafff7 6bff4ff6 ff739842 3ed0029b  ....k.O..s.B>...
 04c90 009e1b88 b6f80081 c01a0393 c3b20193  ................
 04ca0 b8f1000f 2ed05ffa 88f9bdf8 14b10027  ......_........'
 04cb0 abeb090a 3c465ffa 8afa07e0 32780132  ....<F_.....2x.2
 04cc0 14441644 e7b24745 3c461bd2 a9eb0402  .D.D..GE<F......
 04cd0 d2b2022a f2d90aeb 04055a45 edb2edd8  ...*......ZE....
 04ce0 009ba91c 1819019b 994205ab 03eb0501  .........B......
 04cf0 08da10f0 d1ff0028 e0d1039b b846029a  .......(.....F..
 04d00 2b441380 404647b0 bde8f08f 009bb3f8  +D..@FG.........
 04d10 00814046 47b0bde8 f08f00bf 3f2a23d8  ..@FG.......?*#.
 04d20 38b51446 0546aab1 b0f80001 531c50fa  8..F.F......S.P.
 04d30 83f3ff2b 1bdc2a54 013080b2 a5f80001  ...+..*T.0......
 04d40 284410f0 45fdb5f8 00310020 2344a5f8  (D..E....1. #D..
 04d50 003138bd b0f80031 ff2b08d8 5a1cec54  .18....1.+..Z..T
 04d60 2046a5f8 002138bd 6ff00500 70476ff0   F...!8.o...pGo.
 04d70 050038bd 38b5b1f8 00510446 85b1b0f8  ..8.8....Q.F....
 04d80 00016b1c 0344ff2b 14dc2a46 204410f0  ..k..D.+..*F D..
 04d90 1ffdb4f8 00310020 1d44a4f8 005138bd  .....1. .D...Q8.
 04da0 b0f80031 ff2b05d8 5a1cc554 2846a4f8  ...1.+..Z..T(F..
 04db0 002138bd 6ff00500 38bd00bf 00285bd0  .!8.o...8....([.
 04dc0 f0b50e46 b1fa81f1 83b04909 002e50d0  ...F......I...P.
 04dd0 351d2b4f 4ff48272 044610f0 87ff0421  5.+OO..r.F.....!
 04de0 15f8013d 3a460deb 010010f0 5ffe01a8  ...=:F......_...
 04df0 10f0fcfc 024601a9 2046d2b2 fff78eff  .....F.. F......
 04e00 034680bb b542ead1 b4f80011 f7292dd8  .F...B.......)-.
 04e10 07204a1c 605492b2 1a49a4f8 0021a518  . J.`T...I...!..
 04e20 0868a050 8a88aa80 8a79aa71 b4f80011  .h.P.....y.q....
 04e30 ca1d92b2 fa2aa4f8 002117d8 04200831  .....*...!... .1
 04e40 a05489b2 104aa4f8 00111068 6050b4f8  .T...J.....h`P..
 04e50 00110a1d 92b2ff2a a4f80021 06d80531  .......*...!...1
 04e60 a354a4f8 00111846 03b0f0bd 6ff00503  .T.....F....o...
 04e70 f9e76ff0 0f03f6e7 6ff00f03 18467047  ..o.....o....FpG
 04e80 e8170020 ec170020 f4170020 38b50d46  ... ... ... 8..F
 04e90 4ff48272 00210446 10f028ff 55b32846  O..r.!.F..(.U.(F
 04ea0 10f0a4fc 02462946 2046d2b2 fff736ff  .....F)F F....6.
 04eb0 034608b1 184638bd b4f80011 f92919d8  .F...F8......)..
 04ec0 05204a1c 605492b2 0c49a4f8 0021a518  . J.`T...I...!..
 04ed0 0868a050 0a792a71 b4f80011 4a1d92b2  .h.P.y*q....J...
 04ee0 ff2aa4f8 002105d8 0631a354 1846a4f8  .*...!...1.T.F..
 04ef0 001138bd 6ff00503 dce700bf e0170020  ..8.o.......... 
 04f00 38b50446 4ff48272 0021234d 10f0eefe  8..FO..r.!#M....
 04f10 22460921 214b02f8 011b03cb c4f80100  "F.!!K..........
 04f20 93f800c0 07232868 516082f8 08c00422  .....#(hQ`....."
 04f30 a979c4f8 0b00a372 1223a888 6174a4f8  .y.....r.#..at..
 04f40 0f002046 a4f80031 1549fff7 e7fe0346  .. F...1.I.....F
 04f50 08b11846 38bdb4f8 0011f929 18d80520  ...F8......)... 
 04f60 4a1c6054 92b20f49 a4f80021 a5180868  J.`T...I...!...h
 04f70 a0500a79 2a71b4f8 00114a1d 92b2ff2a  .P.y*q....J....*
 04f80 a4f80021 04d80631 a354a4f8 0011e0e7  ...!...1.T......
 04f90 6ff00503 dde700bf d0170020 c4170020  o.......... ... 
 04fa0 d8170020 e0170020 70b51446 82b00e46  ... ... p..F...F
 04fb0 4ff48272 00210546 10f098fe 64b106f5  O..r.!.F....d...
 04fc0 82710846 019110f0 11fc0199 c2b22846  .q.F..........(F
 04fd0 fff7a4fe 034660b9 06f5a271 08460191  .....F`....q.F..
 04fe0 10f004fc 0199c2b2 2846fff7 97fe0346  ........(F.....F
 04ff0 10b11846 02b070bd b6f88c21 174b53f8  ...F..p....!.KS.
 05000 22100846 019110f0 f1fb0246 01992846  "..F.......F..(F
 05010 d2b2fff7 83fe0346 0028ead1 b5f80011  .......F.(......
 05020 f92918d8 05204a1c 685492b2 0c49a5f8  .)... J.hT...I..
 05030 0021ac18 0868a850 0a792271 b5f80011  .!...h.P.y"q....
 05040 4a1d92b2 ff2aa5f8 002104d8 0631ab54  J....*...!...1.T
 05050 a5f80011 cde76ff0 0503cae7 ec140020  ......o........ 
 05060 e0170020 70b51546 82b00c46 4ff48272  ... p..F...FO..r
 05070 00210646 10f03afe 55b12046 10f0b6fb  .!.F..:.U. F....
 05080 02462146 3046d2b2 fff748fe 034630b9  .F!F0F....H..F0.
 05090 04f14001 3046fff7 6dfe0346 10b11846  ..@.0F..m..F...F
 050a0 02b070bd b4f84c21 174b53f8 22100846  ..p...L!.KS."..F
 050b0 019110f0 9bfb0246 01993046 d2b2fff7  .......F..0F....
 050c0 2dfe0346 0028ead1 b6f80011 f92918d8  -..F.(.......)..
 050d0 05204a1c 705492b2 0c49a6f8 0021b418  . J.pT...I...!..
 050e0 0868b050 0a792271 b6f80011 4a1d92b2  .h.P.y"q....J...
 050f0 ff2aa6f8 002104d8 0631b354 a6f80011  .*...!...1.T....
 05100 cde76ff0 0503cae7 ec140020 e0170020  ..o........ ... 
 05110 2de9f043 91f80231 83b00e46 0546b1f8  -..C...1...F.F..
 05120 00712bb1 002f3ad1 002003b0 bde8f083  .q+../:.. ......
 05130 00f10c04 984600f1 200908e0 fff78efd  .....F.. .......
 05140 b84202d2 bdf80680 07464c45 0ed034f8  .B.......FLE..4.
 05150 023fadf8 0630002b f7d02868 32460df1  .?...0.+..(h2F..
 05160 06010028 ead1b6f8 0001e9e7 cfb9b8f1  ...(............
 05170 000fd9d0 19490222 ab8848ea 01012868  .....I."..H...(h
 05180 49baadf8 06100df1 060100f0 67fc0028  I...........g..(
 05190 cbd1ab88 0233ab80 03b0bde8 f0834ff0  .....3........O.
 051a0 0008ab88 31463a46 286800f0 57fc0028  ....1F:F(h..W..(
 051b0 bbd105f1 0c0333f8 022f4ab1 01300a28  ......3../J..0.(
 051c0 f9d1ab88 1f44af80 b8f1000f d2d1abe7  .....D..........
 051d0 ab8805eb 4000c381 f4e700bf 00c0ffff  ....@...........
 051e0 194a0023 4ff0100c 10b41278 00eb8202  .J.#O......x....
 051f0 d269cb60 8b608b61 81f80ec0 c1e90033  .i.`.`.a.......3
 05200 c1e90433 136c0bb1 81f80fc0 546c1cb1  ...3.l......Tl..
 05210 4ff0100c 81f810c0 946c1cb1 4ff0100c  O........l..O...
 05220 81f811c0 006808b1 01208874 0bb14023  .....h... .t..@#
 05230 0b75536c 0bb14023 4b75936c 0bb14023  .uSl..@#Ku.l..@#
 05240 8b755df8 044b7047 86430020 024b1b78  .u]..KpG.C. .K.x
 05250 00eb8300 c0697047 86430020 014b1868  .....ipG.C. .K.h
 05260 704700bf e03f0020 2de9f041 0446204a  pG...?. -..A.F J
 05270 40f68311 1f48fef7 a5fc54b3 dff88880  @....H....T.....
 05280 98f80030 04eb8303 de69feb1 06f13c05  ...0.....i....<.
 05290 06f14807 21461848 01f026f8 55f8040f  ..H.!F.H..&.U...
 052a0 08b100f0 9bffbd42 f8d11449 204601f0  .......B...I F..
 052b0 25fc3046 00f092ff 98f80030 00220633  %.0F.......0.".3
 052c0 104604eb 83046260 bde8f081 6ff00500  .F....b`....o...
 052d0 fae7084b 40f68412 09490a48 0ff0e4fd  ...K@....I.H....
 052e0 204610f0 0bfa0120 fef760fc 0cf0e6f9   F..... ..`.....
 052f0 980f0020 fc170020 ad530000 f0210020  ... ... .S...!. 
 05300 2c180020 f01c0020 86430020 10b50446  ,.. ... .C. ...F
 05310 88b0224a 40f6a421 2148fef7 53fc5cb1  .."J@..!!H..S.\.
 05320 204b1b78 04eb8303 db692bb1 93f84d20   K.x.....i+...M 
 05330 032a01d9 22680ab9 08b010bd 00220321  .*.."h.......".!
 05340 01200592 8df81610 196c0392 01928df8  . .......l......
 05350 0e000292 0492cde9 062211b1 f0228df8  ........."..."..
 05360 18205a6c 12b1f022 8df81920 9b6c13b1  . Zl..."... .l..
 05370 f0238df8 1a3041f2 e9410b4a 842301a8  .#...0A..A.J.#..
 05380 adf80c10 21460292 8df80630 fff71afb  ....!F.....0....
 05390 204608b0 bde81040 fff75cbb 180f0020   F.....@..\.... 
 053a0 fc170020 86430020 e00000fb 354b30b5  ... .C. ....5K0.
 053b0 1b7889b0 044600eb 8303dd69 95f84d30  .x...F.....i..M0
 053c0 022b20d9 033b012b 1bd895f8 4c204ab9  .+ ..;.+....L J.
 053d0 042385f8 cc2085f8 4d302b4b 1b680bb1  .#... ..M0+K.h..
 053e0 01219847 2046fff7 91ff95f8 4c300133  .!.G F......L0.3
 053f0 dbb2012b 85f84c30 39d94ff4 a063a5f8  ...+..L09.O..c..
 05400 4c3009b0 30bd0368 abb995f8 4c30022b  L0..0..h....L0.+
 05410 0cd81bb1 95f8cc30 012b2dd0 22461b49  .......0.+-."F.I
 05420 fa2009b0 bde83040 00f030bf 4ff44073  . ....0@..0.O.@s
 05430 a5f84c30 f2e701a9 fff7d2fe 41f2e943  ..L0........A..C
 05440 00220846 adf80c30 2146114b adf80420  .".F...0!F.K... 
 05450 0293fff7 b7fa95f8 4c300028 d7d10133  ........L0.(...3
 05460 0222dbb2 85f84d20 85f84c30 cfe72246  ."....M ..L0.."F
 05470 06494ff4 7a70d4e7 22460449 41f28830  .IO.zp.."F.IA..0
 05480 cfe700bf 86430020 dc3f0020 ad530000  .....C. .?. .S..
 05490 e00000fb 08b540f2 4632064b 06490748  ......@.F2.K.I.H
 054a0 0ff002fd 002010f0 29f90120 fef77efb  ..... ..).. ..~.
 054b0 0cf004f9 181b0020 401b0020 f01c0020  ....... @.. ... 
 054c0 f8b522f0 4003012b 10d10646 08201446  ..".@..+...F. .F
 054d0 0d469fb2 01f08eff 38b10023 46600581  .F......8..#F`..
 054e0 45810473 c7810360 4373f8bd 074b4ff4  E..s...`Cs...KO.
 054f0 a6720749 07480ff0 d7fc0020 10f0fef8  .r.I.H..... ....
 05500 0120fef7 53fb0cf0 d9f800bf 181b0020  . ..S.......... 
 05510 001a0020 f01c0020 033020f0 030010b5  ... ... .0 .....
 05520 01eb000e bdf80cc0 029ce645 0dd804b1  ...........E....
 05530 04441846 00234460 02240360 01230181  .D.F.#D`.$.`.#..
 05540 41810273 4473c381 10bd0020 10bd00bf  A..sDs..... ....
 05550 10b50446 f8b1b1f5 803f0ad2 59b18ab2  ...F.....?..Y...
 05560 03891344 9bb29a42 03d890f9 0c000028  ...D...B.......(
 05570 03db0120 10bd0846 10bd6068 411a04f1  ... ...F..`hA...
 05580 10008142 f5d3b4f8 0ac00020 61606244  ...B....... a`bD
 05590 23816281 10bd074b 4ff4f272 06490748  #.b....KO..r.I.H
 055a0 0ff082fc 204610f0 a9f80120 fef7fefa  .... F..... ....
 055b0 0cf084f8 181b0020 d8190020 f01c0020  ....... ... ... 
 055c0 f8b50546 002849d0 002608e0 2c69002c  ...F.(I..&..,i.,
 055d0 3ad02846 a0470136 f6b2d7b1 3d46ac7b  :.(F.G.6....=F.{
 055e0 1cb3013c e4b2ac73 9cb96b7b 2f6813f0  ...<...s..k{/h..
 055f0 02042a7b ead102f0 0f02022a 0bd0012a  ..*{.......*...*
 05600 0ed032bb 01362846 00f0e8fd f6b2002f  ..2..6(F......./
 05610 e4d13046 f8bd2946 092001f0 fffedae7  ..0F..)F. ......
 05620 29460820 01f0fafe d5e7144b 40f2f522  )F. .......K@.."
 05630 13491448 0ff038fc 204610f0 5ff80120  .I.H..8. F.._.. 
 05640 fef7b4fa 0cf03af8 0c4b40f2 03320e49  ......:..K@..2.I
 05650 efe70a4b 40f21332 0c49eae7 074b4ff4  ...K@..2.I...KO.
 05660 38720b49 07480ff0 1ffc2846 10f046f8  8r.I.H....(F..F.
 05670 0120fef7 9bfa0cf0 21f800bf 181b0020  . ......!...... 
 05680 601a0020 f01c0020 781a0020 9c1a0020  `.. ... x.. ... 
 05690 d8190020 b2f5c17f 2de9f843 81460f46  ... ....-..C.F.F
 056a0 41d012d8 22f04003 012b37d0 3a4b40f2  A...".@..+7.:K@.
 056b0 29123a49 3a480ff0 f7fb0020 10f01ef8  ).:I:H..... ....
 056c0 0120fef7 73fa0bf0 f9ffb2f5 207fedd1  . ..s....... ...
 056d0 c31cca1c 23f00303 22f00302 134403f1  ....#..."....D..
 056e0 10008342 28bf0346 9a4212d8 00f058fd  ...B(..F.B....X.
 056f0 804680b1 81440021 2a4a09f1 13030781  .F...D.!*J......
 05700 016023f0 03034781 c2604360 4046bde8  .`#...G..`C`@F..
 05710 f8834ff0 00084046 bde8f883 0020bde8  ..O...@F..... ..
 05720 f843fff7 cdbe0022 1ffa80f9 40f2ec55  .C....."....@..U
 05730 1d4c9046 06e03260 fb1a4ff0 00099fb2  .L.F..2`..O.....
 05740 002fe8d0 09201646 01f054fe 0246c0b1  ./... .F..T..F..
 05750 09f10303 00eb0901 00201781 23f00303  ......... ..#...
 05760 13311060 eb1a21f0 0301d460 9bb25160  .1.`..!....`..Q`
 05770 bb4228bf 3b465381 b8f1000f dbd19046  .B(.;FS........F
 05780 dae70a4b 01211970 b8f1000f c1d04046  ...K.!.p......@F
 05790 9046fff7 15ffbee7 181b0020 e4190020  .F......... ... 
 057a0 f01c0020 80000100 82000100 87430020  ... .........C. 
 057b0 f8b50446 002858d0 03898b42 1dd90d46  ...F.(X....B...F
 057c0 c91a06e0 2289eb1a 0a449db2 22812468  ...."....D..".$h
 057d0 6cb36389 ab42f5d3 227b1207 05d1ab42  l.c..B.."{.....B
 057e0 03d0637b 13f00206 08d02068 65812581  ..c{...... he.%.
 057f0 08b1fff7 e5fe0023 2360f8bd 63682046  .......##`..ch F
 05800 1b1b5919 00f0cafc 0746f8b1 8442ecd0  ..Y......F...B..
 05810 184b40f2 c1121849 18480ff0 45fb3046  .K@....I.H..E.0F
 05820 0ff06cff 0120fef7 c1f90bf0 47ff114b  ..l.. ......G..K
 05830 40f2b112 12491148 0ff036fb 20460ff0  @....I.H..6. F..
 05840 5dff0120 fef7b2f9 0bf038ff 094b40f2  ].. ......8..K@.
 05850 bf120c49 09480ff0 27fb3846 0ff04eff  ...I.H..'.8F..N.
 05860 0120fef7 a3f90bf0 29ff024b 4ff4cd72  . ......)..KO..r
 05870 0549e0e7 181b0020 fc1a0020 f01c0020  .I..... ... ... 
 05880 c81a0020 e01a0020 b01a0020 30b108b5  ... ... ... 0...
 05890 837b0133 dbb28373 0bb108bd 7047fff7  .{.3...s....pG..
 058a0 f9fd00bf d0b110b5 b1fa81f4 6409a1b1  ............d...
 058b0 884214d0 036843b1 0289b1f8 08c06244  .B...hC.......bD
 058c0 02811846 1b68002b f6d10289 43899342  ...F.h.+....C..B
 058d0 14d10a89 01601344 038110bd 70470f4b  .....`.D....pG.K
 058e0 40f25f32 0e490f48 0ff0defa 20460ff0  @._2.I.H.... F..
 058f0 05ff0120 fef75af9 0bf0e0fe 074b40f2  ... ..Z......K@.
 05900 67320949 07480ff0 cffa0020 0ff0f6fe  g2.I.H..... ....
 05910 0120fef7 4bf90bf0 d1fe00bf 181b0020  . ..K.......... 
 05920 141a0020 f01c0020 301a0020 10b50c46  ... ... 0.. ...F
 05930 fff7b8ff 24b1a37b 0133dbb2 a37303b1  ....$..{.3...s..
 05940 10bdfff7 a7fd00bf 2de9f041 60b3b1fa  ........-..A`...
 05950 81f68846 760939b3 05461746 22b927e0  ...Fv.9..F.F".'.
 05960 93b22d68 efb1e5b1 08eb0600 b5f80ac0  ..-h............
 05970 1bb19c45 a3eb0c02 f2d9aceb 030c6968  ...E..........ih
 05980 1ffa8cf4 1944bc42 28bf3c46 22462644  .....D.B(.<F"F&D
 05990 0ff01eff 3a1b0023 b6b297b2 2d68002f  ....:..#....-h./
 059a0 e1d13046 bde8f081 00263046 bde8f081  ..0F.....&0F....
 059b0 1646f6e7 b9b32de9 f843b0fa 80f70546  .F....-..C.....F
 059c0 7f09f0b1 03899146 934217d3 9ab18846  .......F.B.....F
 059d0 164600e0 c5b16c89 08eb0701 6868b442  .F....l.....hh.B
 059e0 28bf3446 22462744 0ff0f2fe 361b2d68  (.4F"F'D....6.-h
 059f0 f0d1b945 1ad10020 bde8f883 4ff0ff30  ...E... ....O..0
 05a00 fae76ff0 0f00f7e7 104b40f2 e5421049  ..o......K@..B.I
 05a10 10480ff0 49fa2846 0ff070fe 0120fef7  .H..I.(F..p.. ..
 05a20 c5f80bf0 4bfe6ff0 0f007047 074b4ff4  ....K.o...pG.KO.
 05a30 9e620949 07480ff0 37fa3046 0ff05efe  .b.I.H..7.0F..^.
 05a40 0120fef7 b3f80bf0 39fe00bf 181b0020  . ......9...... 
 05a50 541b0020 f01c0020 6c1b0020 90b32de9  T.. ... l.. ..-.
 05a60 f0410f46 044602e0 246883b2 34b36589  .A.F.F..$h..4.e.
 05a70 9d42a3eb 0500f7d9 21899e18 b1421ddb  .B......!....B..
 05a80 e91a8a42 07dc6068 39461844 0ff0a0fe  ...B..`h9F.D....
 05a90 0020bde8 f0811ffa 81f86068 39464246  . ........`h9FBF
 05aa0 18440ff0 95fe701b 82b2002a f0d007eb  .D....p....*....
 05ab0 08012068 bde8f041 fff77cbf 4ff0ff30  .. h...A..|.O..0
 05ac0 bde8f081 4ff0ff30 704700bf 18b90ae0  ....O..0pG......
 05ad0 006899b2 30b14389 8b42a1eb 0303f7d9  .h..0.C..B......
 05ae0 4368585c 70477047 70b50c46 82b049b3  ChX\pGpGp..F..I.
 05af0 16460b68 02680546 934202d1 002002b0  .F.h.h.F.B... ..
 05b00 70bd3260 304601a9 019300f0 f5fa01a9  p.2`0F..........
 05b10 3046fef7 ddfb01aa 31462846 00f02cff  0F......1F(F..,.
 05b20 95f83d20 236802f0 05012b60 052900d1  ..= #h....+`.)..
 05b30 13b90120 02b070bd 9306fad5 284600f0  ... ..p.....(F..
 05b40 b3fff6e7 074b4ff4 f1720749 07480ff0  .....KO..r.I.H..
 05b50 abf92046 0ff0d2fd 0120fef7 27f80bf0  .. F..... ..'...
 05b60 adfd00bf 8c190020 64190020 f01c0020  ....... d.. ... 
 05b70 10b50446 094a40f2 cc610948 fef722f8  ...F.J@..a.H..".
 05b80 54b1084b 186830b1 90f84030 0133dbb2  T..K.h0...@0.3..
 05b90 a34218bf 002010bd 204610bd 640f0020  .B... .. F..d.. 
 05ba0 8c190020 24400020 f8b5104b 05461c68  ... $@. ...K.F.h
 05bb0 60b10e46 174644b1 23466468 3a463146  `..F.FD.#Fdh:F1F
 05bc0 1b682846 9847002c f6d1f8bd 084b40f2  .h(F.G.,.....K@.
 05bd0 3c720849 08480ff0 67f92846 0ff08efd  <r.I.H..g.(F....
 05be0 0120fdf7 e3ff0bf0 69fd00bf 203f0020  . ......i... ?. 
 05bf0 8c190020 74190020 f01c0020 2de9f041  ... t.. ... -..A
 05c00 0e4686b0 90460446 334a40f2 be213348  .F...F.F3J@..!3H
 05c10 1f46fdf7 d7ff002e 3bd0b8f1 000f25d0  .F......;.....%.
 05c20 47b33368 53b30023 1d46d8f8 00206168  G.3hS..#.F... ah
 05c30 8a4205d0 45f04005 00916260 cdf810d0  .B..E.@...b`....
 05c40 3a68a168 8a4229d0 a26001aa 45f02005  :h.h.B)..`..E. .
 05c50 01910592 23bb02af 31462046 3a46fff7  ....#...1F F:F..
 05c60 43ff48b3 45f49261 03971be0 dff87080  C.H.E..a......p.
 05c70 002fd6d1 33681a4f 002bd4d1 31462046  ./..3h.O.+..1F F
 05c80 02aafff7 31ffa0b1 02ab1025 03930123  ....1......%...#
 05c90 cbe7134e b8f1000f c2d1e7e7 7bb12db1  ...N........{.-.
 05ca0 45f08001 03aa2046 fff77eff 06b0bde8  E..... F..~.....
 05cb0 f0810546 0123b8e7 45f49061 f2e702af  ...F.#..E..a....
 05cc0 31462046 3a46fff7 0fff0028 cad1002d  1F F:F.....(...-
 05cd0 f2d14ff4 8061e5e7 2c0f0020 8c190020  ..O..a..,.. ... 
 05ce0 1c170020 10b50446 84b0114a 40f2bd31  ... ...F...J@..1
 05cf0 1048fdf7 67ff1cb1 94f83d30 da0701d4  .H..g.....=0....
 05d00 04b010bd 002301aa 08212046 8df80430  .....#...! F...0
 05d10 fff74aff 94f83d30 23f00102 1b0784f8  ..J...=0#.......
 05d20 3d20edd5 204604b0 bde81040 01f01ebb  = .. F.....@....
 05d30 bc0f0020 8c190020 10b50446 84b0104a  ... ... ...F...J
 05d40 4ff48561 0f48fdf7 3dff1cb1 94f83d30  O..a.H..=.....=0
 05d50 5a0701d4 04b010bd 23f00403 204684f8  Z.......#... F..
 05d60 3d3001f0 d5f92046 00f0fefd 002301aa  =0.... F.....#..
 05d70 04212046 8df80430 fff716ff 04b010bd  .! F...0........
 05d80 840f0020 8c190020 08b5d422 064b0749  ... ... ...".K.I
 05d90 07480ff0 89f80020 0ff0b0fc 0120fdf7  .H..... ..... ..
 05da0 05ff0bf0 8bfc00bf 081e0020 601e0020  ........... `.. 
 05db0 f01c0020 08b540f6 cf02064b 06490748  ... ..@....K.I.H
 05dc0 0ff072f8 00200ff0 99fc0120 fdf7eefe  ..r.. ..... ....
 05dd0 0bf074fc 081e0020 381e0020 f01c0020  ..t.... 8.. ... 
 05de0 58b110b5 04464068 08b1fff7 e9fb2146  X....F@h......!F
 05df0 0320bde8 104001f0 11bb7047 002841d0  . ...@....pG.(A.
 05e00 70b5037d 05460a2b 01d0012b 00d870bd  p..}.F.+...+..p.
 05e10 806f18b1 fff7d4fb 0023ab67 6c6f64b1  .o.......#.glod.
 05e20 26462468 706808b1 fff7cafb 31460320  &F$hph......1F. 
 05e30 01f0f4fa 002cf3d1 6c674ff6 ff73ec6e  .....,..lgO..s.n
 05e40 2b865cb1 26462468 706808b1 fff7b8fb  +.\.&F$hph......
 05e50 31460320 01f0e2fa 002cf3d1 2c6f5cb1  1F. .....,..,o\.
 05e60 26462468 706808b1 fff7aafb 31460320  &F$hph......1F. 
 05e70 01f0d4fa 002cf3d1 0023c5e9 1b33a5f8  .....,...#...3..
 05e80 683070bd 704700bf 70b50c46 002934d0  h0p.pG..p..F.)4.
 05e90 002841d0 03688b42 1fd02bb1 da68a242  .(A..h.B..+..h.B
 05ea0 28d01346 002bf9d1 00232046 e360fff7  (..F.+...# F.`..
 05eb0 a5ff237d 0a2b1ad0 012b0ad0 638bda07  ..#}.+...+..c...
 05ec0 0ed4e66e 002e31d1 256f002d 33d1636f  ...n..1.%o.-3.co
 05ed0 3bbb0023 2375e382 70bdcb68 0360e3e7  ;..##u..p..h.`..
 05ee0 43f00203 20466383 00f08efb 237d012b  C... Fc.....#}.+
 05ef0 e7d1eee7 e268da60 d6e7114b 40f68d02  .....h.`...K@...
 05f00 10491148 0ef0d0ff 00200ff0 f7fb0120  .I.H..... ..... 
 05f10 fdf74cfe 0bf0d2fb 094b40f6 8e020b49  ..L......K@....I
 05f20 efe7074b 4ff40a62 0949eae7 044b40f6  ...KO..b.I...K@.
 05f30 9d020849 e5e7024b 40f69e02 0649e0e7  ...I...K@....I..
 05f40 081e0020 e81f0020 f01c0020 04200020  ... ... ... . . 
 05f50 58200020 24200020 3c200020 2de9f04f  X . $ . < . -..O
 05f60 054687b0 0e46534a 40f23b21 5248fdf7  .F...FSJ@.;!RH..
 05f70 29fe002d 64d02c7d 012c00f0 89800a2c  )..-d.,}.,.....,
 05f80 78d02b6d d5f824b0 d5f89080 d5f81090  x.+m..$.........
 05f90 05936cb9 ef8a002f 55d0484a 1368ab42  ..l..../U.HJ.h.B
 05fa0 65d0002b 53d0da68 aa424ed0 1346f8e7  e..+S..h.BN..F..
 05fb0 29464348 ef8afff7 67ff424b 01221a70  )FCH....g.BK.".p
 05fc0 2c6f64b1 a2462468 daf80400 08b1fff7  ,od..F$h........
 05fd0 f7fa5146 032001f0 21fa002c f2d1ec6e  ..QF. ..!..,...n
 05fe0 64b1a246 2468daf8 040008b1 fff7e8fa  d..F$h..........
 05ff0 51460320 01f012fa 002cf2d1 6c6f64b1  QF. .....,..lod.
 06000 a2462468 daf80400 08b1fff7 d9fa5146  .F$h..........QF
 06010 032001f0 03fa002c f2d1e6b9 2b7d012b  . .....,....+}.+
 06020 45d02946 012001f0 f9f9b8f1 000f07d0  E.)F. ..........
 06030 6ff00c01 48464346 07b0bde8 f04f1847  o...HFCF.....O.G
 06040 07b0bde8 f08f3e46 bae7ea68 da600027  ......>F...h.`.'
 06050 3e46ef60 b4e70197 5a462b8b 28460599  >F.`....ZF+.(F..
 06060 02932b1d 00932b46 00f076fa d6e7eb68  ..+...+F..v....h
 06070 1360ece7 29461448 fff706ff 2b7d012b  .`..)F.H....+}.+
 06080 15d02946 012007b0 bde8f04f 01f0c6b9  ..)F. .....O....
 06090 094b4ff4 10720d49 0d480ef0 05ff0020  .KO..r.I.H..... 
 060a0 0ff02cfb 2046fdf7 81fd0bf0 07fbfff7  ..,. F..........
 060b0 6bfe00bf 3c0f0020 081e0020 f4420020  k...<.. ... .B. 
 060c0 f0420020 8f430020 04430020 d41d0020  .B. .C. .C. ... 
 060d0 f01c0020 08b562b1 41b18b8e 33b1282b  ... ..b.A...3.(+
 060e0 05d9283b 9bb29842 28bf1846 08bd0020  ..(;...B(..F... 
 060f0 08bdfff7 5ffe00bf 00283cd0 0268f8b5  ...._....(<..h..
 06100 054602b9 f8bd224b 0e461c68 a4b12168  .F...."K.F.h..!h
 06110 4ff6a967 8a4205d0 e4686cb1 2a682168  O..g.B...hl.*h!h
 06120 8a42f9d1 92b22046 0121ba42 f4d0e468  .B.... F.!.B...h
 06130 fff714ff 002cf1d1 164b1c68 44b14ff6  .....,...K.hD.O.
 06140 a9672268 29688a42 16d0e468 002cf8d1  .g"h)h.B...h.,..
 06150 002ed7d0 3368002b d4d00f4b 1b68002b  ....3h.+...K.h.+
 06160 d0d01968 2a689142 01d13268 1a60db68  ...h*h.B..2h.`.h
 06170 002bf6d1 f8bd7047 92b22046 0121ba42  .+....pG.. F.!.B
 06180 e3d0e468 fff7eafe 002cdad1 e0e700bf  ...h.....,......
 06190 f0420020 f4420020 fc420020 704700bf  .B. .B. .B. pG..
 061a0 08b50ff0 2bfb20b1 c31c23f0 03039842  ....+. ...#....B
 061b0 00d108bd 064bc822 06490748 0ef074fe  .....K.".I.H..t.
 061c0 00200ff0 9bfa0120 fdf7f0fc 0bf076fa  . ..... ......v.
 061d0 7c180020 a0180020 f01c0020 10b540b1  |.. ... ... ..@.
 061e0 c31c23f0 03039842 11d1bde8 10400ff0  ..#....B.....@..
 061f0 0dbb094b d9220949 09480ef0 55fe0020  ...K.".I.H..U.. 
 06200 0ff07cfa 0120fdf7 d1fc0bf0 57fa024b  ..|.. ......W..K
 06210 da220449 f0e700bf 7c180020 54180020  .".I....|.. T.. 
 06220 f01c0020 64180020 f8b50546 07200f46  ... d.. ...F. .F
 06230 164601f0 dff80446 90b10023 0f498760  .F.....F...#.I.`
 06240 c660c0e9 00350b68 1bb907e0 19461b68  .`...5.h.....F.h
 06250 1bb15a68 aa1a002a f8da2360 0c60f8bd  ..Zh...*..#`.`..
 06260 074bbe22 07490848 0ef01efe 20460ff0  .K.".I.H.... F..
 06270 45fa0120 fdf79afc 0bf020fa 28400020  E.. ...... .(@. 
 06280 301d0020 5c1d0020 f01c0020 70b50446  0.. \.. ... p..F
 06290 0d461646 40f22711 0f4a1048 fdf792fc  .F.F@.'..J.H....
 062a0 b4f1804f 08d2fdf7 79fc3246 29462044  ...O....y.2F)F D
 062b0 bde87040 fff7b8bf 084b40f2 29120849  ..p@.....K@.)..I
 062c0 08480ef0 f1fd0020 0ff018fa 0120fdf7  .H..... ..... ..
 062d0 6dfc0bf0 f3f900bf 780f0020 301d0020  m.......x.. 0.. 
 062e0 9c1d0020 f01c0020 38b5114a 04460d46  ... ... 8..J.F.F
 062f0 104840f2 4111fdf7 65fc0f49 0b68a3b1  .H@.A...e..I.h..
 06300 002003e0 1a681846 134672b1 9a68a242  . ...h.F.Fr..h.B
 06310 f8d1da68 aa42f5d1 1a6838b1 02601946  ...h.B...h8..`.F
 06320 0720bde8 384001f0 79b838bd 0a60f6e7  . ..8@..y.8..`..
 06330 540f0020 301d0020 28400020 2de9f843  T.. 0.. (@. -..C
 06340 044670b3 14311546 476a4ff4 2072b0f8  .Fp..1.FGjO. r..
 06350 169089b2 2420b4f8 1880668d fff79af9  ....$ ....f.....
 06360 e8b14389 132b2bd9 628d99fa 99f9636a  ..C..++.b.....cj
 06370 98fa98f8 3fba76ba 99184368 0022a3f8  ....?.v...Ch."..
 06380 00901a74 5a749a74 da745022 a3f80280  ...tZt.t.tP"....
 06390 1a731022 5d609f60 de815a73 e162bde8  .s."]`.`..Zs.b..
 063a0 f8830a4b 40f24672 09490a48 0ef07cfd  ...K@.Fr.I.H..|.
 063b0 00200ff0 a3f90120 fdf7f8fb 0bf07ef9  . ..... ......~.
 063c0 024b40f2 27720449 efe700bf 8c1f0020  .K@.'r.I....... 
 063d0 e01e0020 f01c0020 081f0020 00b17047  ... ... ... ..pG
 063e0 10b50446 074b40f2 5a720749 07480ef0  ...F.K@.Zr.I.H..
 063f0 5bfd2046 0ff082f9 0120fdf7 d7fb0bf0  [. F..... ......
 06400 5df900bf 8c1f0020 641f0020 f01c0020  ]...... d.. ... 
 06410 70b50d46 86b00029 32d00446 164630b3  p..F...)2..F.F0.
 06420 007ab0b9 18460593 00f060fd 059ab0b1  .z...F....`.....
 06430 e37aa47a 00940624 31460290 01942846  .z.z...$1F....(F
 06440 00f050fe 04462846 fff7baf8 204606b0  ..P..F(F.... F..
 06450 70bd0593 fff78cfb 059a0028 e8d16ff0  p..........(..o.
 06460 03042846 fff7acf8 204606b0 70bd1846  ..(F.... F..p..F
 06470 059300f0 3bfd0028 f1d0ff23 059ad9e7  ....;..(...#....
 06480 074b40f2 8a720749 07480ef0 0dfd2846  .K@..r.I.H....(F
 06490 0ff034f9 0120fdf7 89fb0bf0 0ff900bf  ..4.. ..........
 064a0 8c1f0020 381f0020 f01c0020 2de9f041  ... 8.. ... -..A
 064b0 bdf81880 bdf81c70 52b3c3b3 0e464ff4  .......pR....FO.
 064c0 207205ba 14212420 fff7e4f8 0446e0b1   r...!$ .....F..
 064d0 4389132b 30d94368 00225021 98fa98f8  C..+0.Ch."P!....
 064e0 1a747fba 5a7436ba 9a74da74 14221973  .t..Zt6..t.t.".s
 064f0 6ff02f01 5a731622 a3f80080 5f805d60  o./.Zs."...._.]`
 06500 9e609973 da73fff7 69ff2046 bde8f081  .`.s.s..i. F....
 06510 0c4b40f2 c4720c49 0c480ef0 c5fc0020  .K@..r.I.H..... 
 06520 0ff0ecf8 0120fdf7 41fb0bf0 c7f8054b  ..... ..A......K
 06530 40f2c572 0649efe7 024b40f2 27720549  @..r.I...K@.'r.I
 06540 eae700bf 8c1f0020 70200020 f01c0020  ....... p . ... 
 06550 8c200020 081f0020 70b582b0 1c460d46  . . ... p....F.F
 06560 8446bdf8 1c301146 069e2846 00932246  .F...0.F..(F.."F
 06570 bdf82030 65460193 3346fff7 97ff40b1  .. 0eF..3F....@.
 06580 01463346 22462846 02b0bde8 7040fff7  .F3F"F(F....p@..
 06590 3fbf02b0 70bd00bf 38b50446 f8b1026d  ?...p...8..F...m
 065a0 002112ba fff7cafe 054690b1 fff716ff  .!.......F......
 065b0 231d2246 29462046 fff72aff 638b20b9  #."F)F F..*.c. .
 065c0 23f00303 9bb26383 38bd43f0 03036383  #.....c.8.C...c.
 065d0 38bd638b 6ff00100 43f00303 f3e7074b  8.c.o...C......K
 065e0 4ff40362 06490748 0ef05efc 20460ff0  O..b.I.H..^. F..
 065f0 85f80120 fdf7dafa 0bf060f8 8c1f0020  ... ......`.... 
 06600 a8200020 f01c0020 2de9f04f 044685b0  . . ... -..O.F..
 06610 b14a40f2 e341b148 fdf7d4fa 002c00f0  .J@..A.H.....,..
 06620 8d81257d 012d00f0 8e81ad4b 1b68a342  ..%}.-.....K.h.B
 06630 00f05a81 e56eb4f8 4890b4f8 60601db3  ..Z..n..H...``..
 06640 207a04f1 040b0028 40f05281 584600f0   z.....(@.R.XF..
 06650 4dfc8246 baf1000f 00f05981 236813b9  M..F......Y.#h..
 06660 daf80030 2360b145 626c2b89 28bfb146  ...0#`.Ebl+.(..F
 06670 ee689b1a 726812ba 13444b45 0fd9b4f8  .h..rh...DKE....
 06680 60304b45 00f01581 608b8107 00f10b81  `0KE....`.......
 06690 20f08003 00206383 05b0bde8 f08f0023   .... c........#
 066a0 84f89930 236f002b 00f01381 98461b68  ...0#o.+.....F.h
 066b0 002bfbd1 53460027 b2461e46 baf80c30  .+..SF.'.F.F...0
 066c0 5aba9bb2 520700f1 2581226f 62b1618b  Z...R...%."ob.a.
 066d0 11f0440f 8c4607d1 e06e0028 00f0bf80  ..D..F...n.(....
 066e0 0268002a 00f0b580 227d022a 00f08f80  .h.*...."}.*....
 066f0 43f48053 6868aaf8 0c30837b 012b3dd0  C..Shh...0.{.+=.
 06700 2868e066 638b23f0 03036383 e968b5f8  (h.fc.#...c..h..
 06710 08c08b89 49685bba 226d09ba 13f00303  ....Ih[."m......
 06720 18bf0123 634401eb 030ca2eb 0c02002a  ...#cD.........*
 06730 b8bfc4f8 50c0002b 70d0236f 2f60002b  ....P..+p.#o/`.+
 06740 00f08380 d8f80c20 526812ba 8a1a002a  ....... Rh.....*
 06750 c0f29980 c8f80050 a8460546 002d00f0  .......P.F.F.-..
 06760 cb80d5f8 0ca02b89 daf80410 626c09ba  ......+.....bl..
 06770 9b1a0b44 4b45a1d9 608b89e7 636a628d  ...DKE..`...cjb.
 06780 19ba1344 52bacaf8 0810aaf8 0e20e362  ...DR........ .b
 06790 ab7a13f0 010146d1 0af1140a b4f93030  .z....F.......00
 067a0 626b002b eb68b8bf 27862ab9 4d4a1268  bk.+.h..'.*.MJ.h
 067b0 62635a68 12baa263 42680029 4189a3eb  bcZh...cBh.)A...
 067c0 02024360 92b2a1eb 02014181 0189a1eb  ..C`......A.....
 067d0 02020281 14bf1822 14221f74 5f741344  .......".".t_t.D
 067e0 9a4540f0 a6800623 02965a46 21460193  .E@....#..ZF!F..
 067f0 a37a0093 e37a00f0 75fc0028 40f08280  .z...z..u..(@...
 06800 237d2868 022be066 7ff47caf 7ee76868  #}(h.+.f..|.~.hh
 06810 837b012b b2d02868 e06677e7 2846fff7  .{.+..(h.fw.(F..
 06820 dffae56e 9ae73146 5a4640f2 b4500af1  ...n..1FZF@..P..
 06830 180afff7 4ffc40f0 017000ba 4af8040c  ....O.@..p..J...
 06840 ab7a6868 03f00101 a8e7a846 25670546  .zhh.......F%g.F
 06850 84e7b0f8 08e0628e 9645bff4 45afb4f8  ......b..E..E...
 06860 6420002a 3ff440af b4f86620 0f2a3ff6  d .*?.@...f .*?.
 06870 3baf11f0 a00f7ff4 37af0346 6046002b  ;.......7..F`F.+
 06880 7ff406af 39e004f1 700002e0 18461b68  ....9...p....F.h
 06890 2bb1da68 526812ba 521a002a f6db2b60  +..hRh..R..*..+`
 068a0 0560e56e 5ae72046 05b0bde8 f04ffff7  .`.nZ. F.....O..
 068b0 73be236f 002b7ff4 e7ae94f8 9930002b  s.#o.+.......0.+
 068c0 7ff4e2ae 4ff48072 84f89a30 a4f89820  ....O..r...0... 
 068d0 dae69846 eee600bf b80e0020 8c1f0020  ...F....... ... 
 068e0 f8420020 00430020 002005b0 bde8f08f  .B. .C. . ......
 068f0 fff73ef9 8246ade6 618b0023 0846a4f8  ..>..F..a..#.F..
 06900 6830c5e6 638b43f0 80036383 c4e66ff0  h0..c.C...c...o.
 06910 0300c1e6 0e4b40f2 3a520e49 0e480ef0  .....K@.:R.I.H..
 06920 c3fa0020 0ef0eafe 0120fdf7 3ff90af0  ... ..... ..?...
 06930 c5fe074b 4ff4c462 0849efe7 044b40f2  ...KO..b.I...K@.
 06940 e5420749 eae7024b 40f2e742 0549e5e7  .B.I...K@..B.I..
 06950 8c1f0020 b41e0020 f01c0020 cc1e0020  ... ... ... ... 
 06960 741e0020 8c1e0020 836c23b1 00221a72  t.. ... .l#..".r
 06970 1b68002b fbd17047 71b30b68 f0b50d46  .h.+..pGq..h...F
 06980 83b03bb3 b2fa82f6 76091ab3 116809b3  ..;.....v....h..
 06990 846cfcb1 4ff6a967 02e02468 d4b12b68  .l..O..g..$h..+h
 069a0 61689942 f9d19bb2 bb42f6d1 1388bb42  ah.B.....B.....B
 069b0 f3d0237a 052b10d8 032b11d8 013b022b  ..#z.+...+...;.+
 069c0 ebd82369 02212672 01920090 9847dde9  ..#i.!&r.....G..
 069d0 0002e2e7 03b0f0bd 7047072b ddd1f0e7  ........pG.+....
 069e0 06232372 d9e700bf 2a4b2de9 f0411b68  .##r....*K-..A.h
 069f0 8ab01646 07468846 4ff42072 08213820  ...F.F.FO. r.!8 
 06a00 0893fef7 47fe0028 31d04389 04464568  ....G..(1.C..FEh
 06a10 072b2fd9 3b68162e 0893d8f8 04306b60  .+/.;h.......0k`
 06a20 01d01d4a 04e00123 08f10402 88f80830  ...J...#.......0
 06a30 2e700026 08212846 6e70ae70 ee700792  .p.&.!(Fnp.p.p..
 06a40 fdf7b6fa 40f29441 68800220 079a0991  ....@..Ah.. ....
 06a50 04210190 01230491 09a92046 02970391  .!...#.... F....
 06a60 08a90096 00f012fb 2046fef7 a9fd0ab0  ........ F......
 06a70 bde8f081 094b40f2 02320949 09480ef0  .....K@..2.I.H..
 06a80 13fa0020 0ef03afe 0120fdf7 8ff80af0  ... ..:.. ......
 06a90 15fe00bf 1c170020 c43c0020 a4150020  ....... .<. ... 
 06aa0 48160020 f01c0020 836a1bb3 70b51c68  H.. ... .j..p..h
 06ab0 fcb1114e 012501e0 2468d4b1 637a022b  ...N.%..$h..cz.+
 06ac0 06d0012b f8d16389 013b9bb2 042bf3d9  ...+..c..;...+..
 06ad0 fdf7a2f8 a6fb0032 657222f0 030303eb  .......2er".....
 06ae0 9203c01a 012838bf 01206081 2468002c  .....(8.. `.$h.,
 06af0 e4d170bd 704700bf cdcccccc f8b50f46  ..p.pG.........F
 06b00 0646224a 40f24921 2148fdf7 5bf83d68  .F"J@.I!!H..[.=h
 06b10 05f0f003 e02b2bd1 1e4b1b68 9d4227d0  .....++..K.h.B'.
 06b20 96f83d30 9b0623d5 b36a0bb3 1c4601e0  ..=0..#..j...F..
 06b30 2468ecb1 62689542 fad1227b 012a03d9  $h..bh.B.."{.*..
 06b40 013a0020 2273f8bd 1a461b68 9c4212d0  .:. "s...F.h.B..
 06b50 002bf9d1 237a9bb9 736c1bb1 00223946  .+..#z..sl..."9F
 06b60 30469847 21460620 00f058fc 0020f8bd  0F.G!F. ..X.. ..
 06b70 6ff00500 f8bd2368 1360237a 002bebd0  o.....#h.`#z.+..
 06b80 17222146 3046fff7 2fffe5e7 c40e0020  ."!F0F../...... 
 06b90 a4150020 c83c0020 2de9f843 002974d0  ... .<. -..C.)t.
 06ba0 b0fa80f5 04466d09 00286ed0 0e469146  .....Fm..(n..F.F
 06bb0 4ff49a71 4ff42072 38209846 fef76afd  O..qO. r8 .F..j.
 06bc0 07460028 61d04389 b3f59a7f 74d3b9f1  .F.(a.C.....t...
 06bd0 030f42d0 b379002b 69d03f4b 18687d68  ..B..y.+i.?K.h}h
 06be0 4ff49a72 30600021 28460ff0 7ff80123  O..r0`.!(F.....#
 06bf0 2b706b70 94f83c30 ab704ff4 88733268  +pkp..<0.pO..s2h
 06c00 23fa09f3 12badb07 6a6042d5 2368eb60  #.......j`B.#h.`
 06c10 04f13501 05f11b0c 3b3411f8 01efa142  ..5.....;4.....B
 06c20 0cf801ef f9d16323 6ff07d02 85f8f290  ......c#o.}.....
 06c30 384685f8 ec3085f8 ef303523 85f8ed20  8F...0...05#... 
 06c40 532285f8 f0300123 85f8ee20 85f8f130  S"...0.#... ...0
 06c50 0323a8f8 0030bde8 f8837379 032b1fd0  .#...0....sy.+..
 06c60 29467d68 4ff49a72 28460ff0 3ff80123  )F}hO..r(F..?..#
 06c70 2b706b70 94f83c30 ab703368 1bba6b60  +pkp..<0.p3h..k`
 06c80 7379043b 012bc3d8 c0e70027 3846bde8  sy.;.+.....'8F..
 06c90 f883b9f1 070fb9d0 b9f1030f b8d1efe7  ................
 06ca0 b37923b1 0c4b2946 1b683360 d9e7fcf7  .y#..K)F.h3`....
 06cb0 b3ff094b 186092e7 084b40f2 7a720849  ...K.`...K@.zr.I
 06cc0 08480ef0 f1f82846 0ef018fd 0120fcf7  .H....(F..... ..
 06cd0 6dff0af0 f3fc00bf 64430020 6c100020  m.......dC. l.. 
 06ce0 98100020 f01c0020 08b54ff4 b462064b  ... ... ..O..b.K
 06cf0 06490748 0ef0d8f8 00200ef0 fffc0120  .I.H..... ..... 
 06d00 fcf754ff 0af0dafc 6c100020 fc100020  ..T.....l.. ... 
 06d10 f01c0020 03460430 442810b5 15d8140e  ... .F.0D(......
 06d20 03f1010e 03f1020c 80b2cc54 1ffa8efe  ...........T....
 06d30 140c0333 1ffa8cfc 01f80e40 9bb24fea  ...3.......@..O.
 06d40 122e01f8 0ce0ca54 10bd074b 40f2bd52  .......T...K@..R
 06d50 06490748 0ef0a8f8 00200ef0 cffc0120  .I.H..... ..... 
 06d60 fcf724ff 0af0aafc 6c100020 40110020  ..$.....l.. @.. 
 06d70 f01c0020 38b50e4b 1c7854b1 013ce4b2  ... 8..K.xT..<..
 06d80 1c7004b1 38bd0b4d 2868fdf7 75fa2c60  .p..8..M(h..u.,`
 06d90 38bd094b 4ff49772 08490948 0ef084f8  8..KO..r.I.H....
 06da0 20460ef0 abfc0120 fcf700ff 0af086fc   F..... ........
 06db0 84430020 003f0020 6c100020 d8100020  .C. .?. l.. ... 
 06dc0 f01c0020 2de9f041 054684b0 434a40f2  ... -..A.F..CJ@.
 06dd0 3251ec69 4248fcf7 f5fe002c 6ad06379  2Q.iBH.....,j.cy
 06de0 002b67d0 0023ea69 a169a362 0391e381  .+g..#.i.i.b....
 06df0 2361a382 c4e90633 c4e90833 c4e90b33  #a.....3...3...3
 06e00 002a5ad0 53791a1f 012a01d9 0a2b54d1  .*Z.Sy...*...+T.
 06e10 00270df1 0a030722 21462846 6771a771  .'....."!F(Fgq.q
 06e20 2781fff7 b9fe0646 00283bd0 7368bdf8  '......F.(;.sh..
 06e30 0a0003f1 f008831d 442b4cd8 431c3622  ........D+L.C.6"
 06e40 414608f8 00209bb2 04220230 08f80320  AF... ...".0... 
 06e50 80b2039a adf80a00 12bafff7 5bff431c  ............[.C.
 06e60 ff21adf8 0a009bb2 024608f8 0010432b  .!.......F....C+
 06e70 08d8c2f1 430208eb 03003946 92b20ef0  ....C.....9F....
 06e80 35ff4423 f0333046 99b2fef7 91fc154a  5.D#.30F.......J
 06e90 00954323 10683146 03aafdf7 c1f93046  ..C#.h1F......0F
 06ea0 fef78efb 104b2846 1a461946 fef7a6fe  .....K(F.F.F....
 06eb0 23794bb9 04b0bde8 f0810023 6371a371  #yK........#cq.q
 06ec0 23812379 002bf5d0 fff754ff 00232371  #.#y.+....T..##q
 06ed0 04b0bde8 f081fff7 07ff00bf dc0e0020  ............... 
 06ee0 6c100020 003f0020 1c170020 0b4b1b68  l.. .?. ... .K.h
 06ef0 5bb193f8 3d2002f0 0502052a 07d11a68  [...= .....*...h
 06f00 42b10278 7f2a08bf 00231846 70470023  B..x.*...#.FpG.#
 06f10 18467047 13461846 704700bf 24400020  .FpG.F.FpG..$@. 
 06f20 2de9f04f 87b00446 9a460e46 9df84030  -..O...F.F.F..@0
 06f30 154640f2 75314e4a 4e480193 9df844b0  .F@.u1NJNH....D.
 06f40 ddf84890 bdf85070 fcf73cfe a37b012b  ..H...Pp..<..{.+
 06f50 79d1002d 58d0002f 53d0282f 70d807f1  y..-X../S.(/p...
 06f60 03082046 28f00308 1ffa88f8 08f11403  .. F(...........
 06f70 41469bb2 0293fef7 ebfa0028 5dd10390  AF.........(]...
 06f80 3a461399 60680ef0 23fc4745 039b46d3  :F..`h..#.GE..F.
 06f90 14212046 fef7dcfa 07460028 4dd16289  .! F.....F.(M.b.
 06fa0 6368132a 5ed9029a 83f808a0 920883f8  ch.*^...........
 06fb0 09b02868 42f0400c 019a2f49 5a7083f8  ..(hB.@.../IZp..
 06fc0 00c02289 186152ba 9f71df71 5a800a88  .."..aR..q.qZ...
 06fd0 50ba0132 98800a80 f6b13268 da600022  P..2......2h.`."
 06fe0 9a72da72 b9f83430 13b12289 9a421ed8  .r.r..40.."..B..
 06ff0 d9f81030 2a462146 48469847 07b0bde8  ...0*F!FHF.G....
 07000 f08f1423 0293c3e7 6389132b 15d96368  ...#....c..+..ch
 07010 05ad1b69 0593e5e7 184a1268 dee76068  ...i.....J.h..`h
 07020 a8eb0702 19463844 0ef060fe b0e72a46  .....F8D..`...*F
 07030 49462046 00f0b0f8 e0e76ff0 0100dde7  IF F......o.....
 07040 6ff00500 dae70b4b 40f27632 0c490d48  o......K@.v2.I.H
 07050 0df02aff 00200ef0 51fb0120 fcf7a6fd  ..*.. ..Q.. ....
 07060 0af02cfb 034b40f2 aa320749 efe700bf  ..,..K@..2.I....
 07070 f40e0020 b4160020 68430020 1c170020  ... ... hC. ... 
 07080 e0160020 f01c0020 ec160020 f0b59e46  ... ... ... ...F
 07090 9df81450 9df81860 bdf824c0 dde90747  ...P...`..$....G
 070a0 1ab109b1 0b6803b9 21467346 0595cde9  .....h..!FsF....
 070b0 087ccde9 0664bde8 f040fff7 31bf00bf  .|...d...@..1...
 070c0 10b586b0 9df82040 00940024 cde90344  ...... @...$...D
 070d0 9df82440 01940a9c 0294fff7 21ff06b0  ..$@........!...
 070e0 10bd00bf f0b587b0 9df83050 9df83460  ..........0P..4`
 070f0 0e9c1ab1 09b10f68 07b92146 0095cde9  .......h..!F....
 07100 01640024 cde90344 fff70aff 07b0f0bd  .d.$...D........
 07110 70b5056a 0db12b79 03b970bd 04460a4a  p..j..+y..p..F.J
 07120 4ff4ac71 0948fcf7 4dfd0022 4ff6a963  O..q.H..M.."O..c
 07130 2a712288 9a42f0d1 054b2046 1a461946  *q"..B...K F.F.F
 07140 bde87040 fef75abd 0c0f0020 f80f0020  ..p@..Z.... ... 
 07150 1c170020 10b50446 48b14069 08b1fef7  ... ...FH.@i....
 07160 2ffa2146 0520bde8 104000f0 57b9074b  /.!F. ...@..W..K
 07170 40f2ce22 06490748 0df096fe 20460ef0  @..".I.H.... F..
 07180 bdfa0120 fcf712fd 0af098fa 20170020  ... ........ .. 
 07190 6c170020 f01c0020 2de9f04f 8b8e8db0  l.. ... -..O....
 071a0 06460a92 b3f11402 089148bf a3f10d02  .F........H.....
 071b0 4368c2f3 cf020293 06921a46 1b7803f0  Ch.........F.x..
 071c0 0f03052b 4fea8305 40f0af80 4389132b  ...+O...@...C..+
 071d0 40f2ab80 0389143b 99b20391 d3885bba  @......;......[.
 071e0 c3f30c02 03f40053 05920b93 002900f0  .......S.....)..
 071f0 8580069b 0024dff8 7091db00 9bb20793  .....$..p.......
 07200 4ff42072 14211020 fef744fa 079b039a  O. r.!. ..D.....
 07210 80469342 28bf1346 04930028 00f08280  .F.B(..F...(....
 07220 4389132b 40f29380 02994368 0a684f68  C..+@.....Ch.hOh
 07230 8868c968 1a60d960 02995f60 98600a69  .h.h.`.`.._`.`.i
 07240 1a61d8f8 04300993 049b53b3 1f467389  .a...0....S..Fs.
 07250 5c1bab42 a4b26bd3 bc4228bf 3c46002c  \..B..k..B(.<F.,
 07260 4ed00520 00f0c6f8 83460028 4fd00194  N.. .....F.(O...
 07270 41227368 21462b44 00930346 0020fef7  A"sh!F+D...F. ..
 07280 4bf98246 00283ed0 3f1b3046 fef7fefa  K..F.(>.?.0F....
 07290 5146bfb2 4046cbe9 0496fef7 03fb002f  QF..@F........./
 072a0 2ed1089b 25440399 9a8eadb2 059b133a  ....%D.........:
 072b0 c3f30c03 8a4232dd 0b9a82bb 099a5bba  .....B2.......[.
 072c0 049f4146 d38007f1 14030898 5bba5380  ..AF........[.S.
 072d0 00239372 d3720a9a 03699847 4046fef7  .#.r.r...i.G@F..
 072e0 6ff9039b a3eb070b dde90532 13441ffa  o..........2.D..
 072f0 8bf29bb2 03920593 002a81d1 00200be0  .........*... ..
 07300 36680025 a3e75946 052000f0 87f84046  6h.%..YF. ....@F
 07310 fef756f9 4ff0ff30 0db0bde8 f08f43f4  ..V.O..0......C.
 07320 0053cbe7 4ff0ff30 f6e76ff0 0500f3e7  .S..O..0..o.....
 07330 094b40f2 2d320949 09480df0 b5fd0020  .K@.-2.I.H..... 
 07340 0ef0dcf9 0120fcf7 31fc0af0 b7f9024b  ..... ..1......K
 07350 4ff44972 0349efe7 20170020 a4160020  O.Ir.I.. .. ... 
 07360 f01c0020 84160020 55710000 f8b50a4c  ... ... Uq.....L
 07370 00270646 04f1f005 237d13b1 a368b342  .'.F....#}...h.B
 07380 03d01834 ac42f7d1 f8bd2068 10b1fef7  ...4.B.... h....
 07390 17f92760 2775f4e7 cc3c0020 08b54ff4  ..'`'u...<. ..O.
 073a0 8c72064b 06490748 0df07efd 00200ef0  .r.K.I.H..~.. ..
 073b0 a5f90120 fcf7fafb 0af080f9 14150020  ... ........... 
 073c0 3c150020 f01c0020 08b54ff4 b672064b  <.. ... ..O..r.K
 073d0 06490748 0df068fd 00200ef0 8ff90120  .I.H..h.. ..... 
 073e0 fcf7e4fb 0af06af9 14150020 f4140020  ......j.... ... 
 073f0 f01c0020 09280bd8 08b5074b 53f82030  ... .(.....KS. 0
 07400 9b681868 18b10268 1a608307 02d108bd  .h.h...h.`......
 07410 00207047 fff7c2ff 3c190020 09280bd8  . pG....<.. .(..
 07420 51b18a07 08b5064b 53f82030 05d19b68  Q......KS. 0...h
 07430 1a680a60 196008bd 7047fff7 c5ff00bf  .h.`.`..pG......
 07440 3c190020 024b0022 1a609a80 fcf786bb  <.. .K.".`......
 07450 cc400020 1a4a1368 591c10b5 1160d3b1  .@. .J.hY....`..
 07460 184a1949 19480df0 8ffa194a 1368591c  .J.I.H.....J.hY.
 07470 1160f3b1 134a1749 17480df0 85fa174a  .`...J.I.H.....J
 07480 1368591c 11606bb1 0e4a1549 1548bde8  .hY..`k..J.I.H..
 07490 10400df0 79ba144c 20460ef0 79ff134b  .@..y..L F..y..K
 074a0 1c60dde7 124c2046 0ef06aff 114b1c60  .`...L F..j..K.`
 074b0 eae7114c 20460ef0 73ff104b 1c60d9e7  ...L F..s..K.`..
 074c0 2c3a0020 98230020 353a0000 503b0020  ,:. .#. 5:..P;. 
 074d0 d43a0020 213d0000 703b0020 d0390020  .:. !=..p;. .9. 
 074e0 813d0000 343b0020 343a0020 303a0020  .=..4;. 4:. 0:. 
 074f0 d8390020 d4390020 dc3a0020 d83a0020  .9. .9. .:. .:. 
 07500 40687047 1d4a0020 1d491368 10b51d4c  @hpG.J. .I.h...L
 07510 c1e90040 591c1160 d3b11b4a 1b491c48  ...@Y..`...J.I.H
 07520 0df032fa 1b4a1368 591c1160 f3b1164a  ..2..J.hY..`...J
 07530 19491a48 0df028fa 194a1368 591c1160  .I.H..(..J.hY..`
 07540 6bb1114a 17491848 bde81040 0df01cba  k..J.I.H...@....
 07550 164c2046 0ef01cff 154b1c60 dde7154c  .L F.....K.`...L
 07560 20460ef0 0dff144b 1c60eae7 134c2046   F.....K.`...L F
 07570 0ef016ff 124b1c60 d9e700bf 2c3a0020  .....K.`....,:. 
 07580 10390020 940e0020 98230020 353a0000  .9. ... .#. 5:..
 07590 543b0020 d43a0020 213d0000 743b0020  T;. .:. !=..t;. 
 075a0 d0390020 813d0000 383b0020 343a0020  .9. .=..8;. 4:. 
 075b0 303a0020 d8390020 d4390020 dc3a0020  0:. .9. .9. .:. 
 075c0 d83a0020 38b5064b 04460360 eff31085  .:. 8..K.F.`....
 075d0 72b609f0 3ffc05b9 62b62046 38bd00bf  r...?...b. F8...
 075e0 1c0c0020 38b5c369 03b31c4b 04461a78  ... 8..i...K.F.x
 075f0 22bb1b4b 1868fcf7 6bfa1a49 0020fcf7  "..K.h..k..I. ..
 07600 affa94f8 223093b9 174be069 1a461946  ...."0...K.i.F.F
 07610 fef7f4fa 0025e069 84f82150 fef78cfb  .....%.i..!P....
 07620 e069fef7 5ffbfff7 0dffe561 38bde069  .i.._......a8..i
 07630 fff7c8fb 002384f8 2230ebe7 00220b48  .....#.."0...".H
 07640 1a7009f0 cdfbeff3 108572b6 074809f0  .p........r..H..
 07650 01fc002d cdd162b6 cbe700bf 7e430020  ...-..b.....~C. 
 07660 243b0020 18390020 1c170020 74230020  $;. .9. ... t#. 
 07670 214a0020 214938b5 1368214c c1e90040  !J. !I8..h!L...@
 07680 591c1160 1bb31f4a 1f492048 0df07cf9  Y..`...J.I H..|.
 07690 1f4a1368 591c1160 3bb31a4a 1d491e48  .J.hY..`;..J.I.H
 076a0 0df072f9 1d4a1368 591c1160 b3b11c4c  ..r..J.hY..`...L
 076b0 144a1c49 1c480df0 67f91c4b 2468114a  .J.I.H..g..K$h.J
 076c0 1c601b49 1b48bde8 38400df0 5db91a4c  .`.I.H..8@..]..L
 076d0 20460ef0 5dfe194b 1c60d4e7 184d104c   F..]..K.`...M.L
 076e0 28460ef0 4dfe2560 e2e7164c 20460ef0  (F..M.%`...L F..
 076f0 57fe154b 1c60d0e7 2c3a0020 18390020  W..K.`..,:. .9. 
 07700 940e0020 98230020 353a0000 583b0020  ... .#. 5:..X;. 
 07710 d43a0020 213d0000 783b0020 d0390020  .:. !=..x;. .9. 
 07720 d4390020 813d0000 3c3b0020 283b0020  .9. .=..<;. (;. 
 07730 c5750000 74230020 343a0020 303a0020  .u..t#. 4:. 0:. 
 07740 d8390020 dc3a0020 d83a0020 29210022  .9. .:. .:. )!."
 07750 10b40177 4ff04071 044cc283 846180f8  ...wO.@q.L...a..
 07760 20205df8 044b8162 704700bf 3c350020    ]..K.bpG..<5. 
 07770 f8b51746 027f8369 01265200 044683f8  ...F...i.&R..F..
 07780 30610d46 83f8a520 090a83f8 2f618069  0a.F... ..../a.i
 07790 03681b68 9847a069 e9b20368 1b689847  .h.h.G.i...h.h.G
 077a0 a0693946 03681b68 98473146 a06908f0  .i9F.h.h.G1F.i..
 077b0 75f82073 f8bd00bf f8b51546 027f8369  u. s.......F...i
 077c0 01275200 044683f8 30710e46 83f8a520  .'R..F..0q.F... 
 077d0 090a83f8 2f718069 03681b68 9847a069  ..../q.i.h.h.G.i
 077e0 f1b20368 1b689847 a069290a 03681b68  ...h.h.G.i)..h.h
 077f0 9847a069 e9b20368 1b689847 3946a069  .G.i...h.h.G9F.i
 07800 08f04cf8 2073f8bd f8b51546 027f8369  ..L. s.....F...i
 07810 01275200 044683f8 30710e46 83f8a520  .'R..F..0q.F... 
 07820 090a83f8 2f718069 03681b68 9847a069  ..../q.i.h.h.G.i
 07830 f1b20368 1b689847 a069290e 03681b68  ...h.h.G.i)..h.h
 07840 9847a069 c5f30741 03681b68 9847a069  .G.i...A.h.h.G.i
 07850 c5f30721 03681b68 9847a069 e9b20368  ...!.h.h.G.i...h
 07860 1b689847 3946a069 08f018f8 2073f8bd  .h.G9F.i.... s..
 07870 70b50125 027f8369 0446aa40 0e4683f8  p..%...i.F.@.F..
 07880 3051090a 83f8a520 83f82f51 80690368  0Q..... ../Q.i.h
 07890 1b689847 a069f1b2 03681b68 98472946  .h.G.i...h.h.G)F
 078a0 a06907f0 fbff2b46 2a462073 217fa069  .i....+F*F s!..i
 078b0 08f072f8 a0690b4a 03685b69 93420bd1  ..r..i.J.h[i.B..
 078c0 90f8a230 90f8a320 9a4208d9 5a190344  ...0... .B..Z..D
 078d0 80f8a220 987e70bd 9847c0b2 70bdff20  ... .~p..G..p.. 
 078e0 70bd00bf 9d050000 f8b5584c 584b0c44  p.........XLXK.D
 078f0 9c4201d9 0020f8bd 05466021 fff7b8ff  .B... ...F`!....
 07900 4ff08043 aa8c461c 4b212846 76006408  O..C..F.K!(Fv.d.
 07910 f6b2b3fb f2f303eb c3031b02 9b0903fb  ................
 07920 06f6f709 b60907f5 7a12b2fb f6f2ff2a  ........z......*
 07930 28bfff22 d2b2fff7 1bff07f5 80518e42  (..".........Q.B
 07940 00f28180 b1fbf6f1 013931f0 ff0209d0  .........91.....
 07950 00234908 013321f0 ff029bb2 002af8d1  .#I..3!......*..
 07960 1a0292b2 0a4392b2 07eb0437 5a212846  .....C.....7Z!(F
 07970 2403fff7 21ffbe42 63d8b7fb f6f7013f  $...!..Bc......?
 07980 37f0ff02 09d00023 7f080133 27f0ff02  7......#...3'...
 07990 9bb2002a f8d11a02 92b23a43 92b25e21  ...*......:C..^!
 079a0 2846fff7 09ff6321 2846fff7 61ffa98c  (F....c!(F..a...
 079b0 4ff08042 431cb2fb f1f202eb c2025b00  O..BC.........[.
 079c0 1202dbb2 920902fb 03f3df09 9e0907f5  ................
 079d0 8051b1eb 931f32d3 b1fbf6f1 013931f0  .Q....2......91.
 079e0 ff0209d0 00234908 013321f0 ff029bb2  .....#I..3!.....
 079f0 002af8d1 1a0292b2 0a4392b2 3c445c21  .*.......C..<D\!
 07a00 2846fff7 d9fea642 17d8b4fb f6f4013c  (F.....B.......<
 07a10 34f0ff02 09d00023 64080133 24f0ff02  4......#d..3$...
 07a20 9bb2002a f8d11a02 92b22243 92b22846  ...*......"C..(F
 07a30 6121fff7 c1fe0120 f8bd0022 f7e70022  a!..... ..."..."
 07a40 dce70022 abe70022 8ee700bf 50eeffff  ..."..."....P...
 07a50 e0c81000 70b50125 027f8369 0446aa40  ....p..%...i.F.@
 07a60 0e4683f8 3051090a 83f8a520 83f82f51  .F..0Q..... ../Q
 07a70 80690368 1b689847 a069f1b2 03681b68  .i.h.h.G.i...h.h
 07a80 98472946 a06907f0 09ff2b46 20730222  .G)F.i....+F s."
 07a90 217fa069 07f080ff a069174d 03685b69  !..i.....i.M.h[i
 07aa0 ab421fd1 90f8a230 90f8a320 9a4220d9  .B.....0... .B .
 07ab0 5a1c0344 80f8a220 987ea369 04021a68  Z..D... .~.i...h
 07ac0 a4b25269 aa420fd1 93f8a220 93f8a310  ..Ri.B..... ....
 07ad0 91420ed9 511c1a44 83f8a210 937e44ea  .B..Q..D.....~D.
 07ae0 030070bd 9847e8e7 18469047 204380b2  ..p..G...F.G C..
 07af0 70bd4ff6 ff7070bd 9d050000 10b50446  p.O..pp........F
 07b00 6021fff7 b5fe4ff0 8042b4f8 24c0431c  `!....O..B..$.C.
 07b10 5e212046 5b00b2fb fcf202eb c202dbb2  ^! F[...........
 07b20 12029209 02fb03f4 fff794ff c1b2c0f3  ................
 07b30 0f20a309 4ff40062 81400024 0131e3fb  . ..O..b.@.$.1..
 07b40 0124100b 40ea0450 00f6d800 400010bd  .$..@..P....@...
 07b50 70b50d46 0446fff7 d1ff0646 012d04d0  p..F.F.....F.-..
 07b60 022d55d0 85b30020 70bd0b22 60212046  .-U.... p.."`! F
 07b70 fff7fefd 09226321 2046fff7 f9fd7822  ....."c! F....x"
 07b80 69212046 fff7f4fd 0b227821 2046fff7  i! F....."x! F..
 07b90 effd0922 79212046 fff7eafd 0a227a21  ..."y! F....."z!
 07ba0 2046fff7 e5fd0a22 7b212046 fff7e0fd   F....."{! F....
 07bb0 41f2b013 9e4203d9 31462046 fff794fe  A....B..1F F....
 07bc0 012084f8 2b5070bd 20460722 6021fff7  . ..+Pp. F."`!..
 07bd0 cffd2046 05226321 fff7cafd 20463822  .. F."c!.... F8"
 07be0 6921fff7 c5fd2046 07227821 fff7c0fd  i!.... F."x!....
 07bf0 20460522 7921fff7 bbfd2046 06227a21   F."y!.... F."z!
 07c00 fff7b6fd 06227b21 2046fff7 b1fdcfe7  ....."{! F......
 07c10 20460f22 6021fff7 abfd2046 0d226321   F."`!.... F."c!
 07c20 fff7a6fd 2046b822 6921fff7 a1fd2046  .... F."i!.... F
 07c30 0f227821 fff79cfd 20460d22 7921fff7  ."x!.... F."y!..
 07c40 97fd2046 0e227a21 fff792fd 0e227b21  .. F."z!....."{!
 07c50 2046fff7 8dfdabe7 70b50d46 40f20f11   F......p..F@...
 07c60 0446fff7 f7fe4ef6 cc239842 01d00020  .F....N..#.B... 
 07c70 70bd0022 20461146 fff77afd 6649674a  p.." F.F..z.fIgJ
 07c80 674b4868 1268a3fb 02326423 920c03fb  gKHh.h...2d#....
 07c90 02f24b68 1b1a9a42 fbd80122 00212046  ..Kh...B...".! F
 07ca0 604efff7 65fd0120 0bf0dcfe 33686384  `N..e.. ....3hc.
 07cb0 e5212046 fff7dcfd c30701d5 237b6bb1  .! F........#{k.
 07cc0 e28b002a f4d03368 618c5b1a 9bb29a42  ...*..3ha.[....B
 07cd0 eed20123 002084f8 203070bd 002d40f0  ...#. .. 0p..-@.
 07ce0 8e800621 2046fff7 b5fe0346 de212046  ...! F.....F.! F
 07cf0 a384fff7 affe0346 4ff42062 2046e384  .......FO. b F..
 07d00 2421fff7 59fd2046 02223121 fff730fd  $!..Y. F."1!..0.
 07d10 20460822 3621fff7 2bfd2046 10223721   F."6!..+. F."7!
 07d20 fff726fd 20460122 3921fff7 21fd2046  ..&. F."9!..!. F
 07d30 ff223e21 fff71cfd 20460022 3f21fff7  .">!.... F."?!..
 07d40 17fd2046 02224021 fff712fd 20460022  .. F."@!.... F."
 07d50 5021fff7 31fd2046 00225221 fff72cfd  P!..1. F."R!..,.
 07d60 20463822 5721fff7 03fd2046 4ff4b472   F8"W!.... FO..r
 07d70 6421fff7 21fd2046 c0226621 fff71cfd  d!..!. F."f!....
 07d80 20460122 7121fff7 f3fc2046 01227c21   F."q!.... F."|!
 07d90 fff7eefc 20460222 7e21fff7 e9fc2046  .... F."~!.... F
 07da0 00228221 fff7e4fc 20460122 7721fff7  .".!.... F."w!..
 07db0 dffc2046 8b228121 fff7dafc 20464ff4  .. F.".!.... FO.
 07dc0 48425421 fff7f8fc 02222046 4f21fff7  HBT!....." FO!..
 07dd0 cffc0221 2046fff7 bbfe4cf2 50312046  ...! F....L.P1 F
 07de0 fff782fd 22212046 fff734fe 02461e21  ...."! F..4..F.!
 07df0 20469200 92b2fff7 dffc0120 70bd2e21   F......... p..!
 07e00 2046fff7 35fd0246 2e212046 42f00102   F..5..F.! FB...
 07e10 d2b2fff7 adfc64e7 001000e0 44230020  ......d.....D#. 
 07e20 83de1b43 e8420020 c38c0a46 6c2103fb  ...C.B. ...Fl!..
 07e30 02f210b5 0446fff7 e7fc0122 86212046  .....F.....".! F
 07e40 fff796fc 20464022 8721bde8 1040fff7  .... F@".!...@..
 07e50 8fbc00bf 10b50b21 0446fff7 09fd0346  .......!.F.....F
 07e60 08212046 84f82930 fff702fd 94f82920  .! F..)0......) 
 07e70 03460b21 204602f0 7f0284f8 2a30fff7  .F.! F......*0..
 07e80 77fc94f8 2a202046 082102f0 03020c32  w...*  F.!.....2
 07e90 fff76efc 01222046 4d21fff7 69fcd821  ..n.." FM!..i..!
 07ea0 2046fff7 e5fc4721 02462046 bde81040   F....G!.F F...@
 07eb0 fff75ebc 38b50125 027f8369 0446aa40  ..^.8..%...i.F.@
 07ec0 002183f8 305183f8 a52083f8 2f518069  .!..0Q... ../Q.i
 07ed0 03681b68 9847a069 89210368 1b689847  .h.h.G.i.!.h.h.G
 07ee0 2946a069 07f0dafc 2b461122 2073217f  )F.i....+F." s!.
 07ef0 a06907f0 51fda369 9a4d1a68 5269aa42  .i..Q..i.M.hRi.B
 07f00 40f03281 93f8a220 93f8a310 914240f2  @.2.... .....B@.
 07f10 d081511c 1a4483f8 a210907e a369a073  ..Q..D.....~.i.s
 07f20 1a685269 aa4240f0 298193f8 a22093f8  .hRi.B@.).... ..
 07f30 a3109142 40f2bb81 013283f8 a220a369  ...B@....2... .i
 07f40 1a685269 aa4240f0 218193f8 a22093f8  .hRi.B@.!.... ..
 07f50 a3109142 40f2ab81 511c1a44 83f8a210  ...B@...Q..D....
 07f60 907ea369 e0731a68 5269aa42 40f01881  .~.i.s.hRi.B@...
 07f70 93f8a220 93f8a310 914240f2 ae81511c  ... .....B@...Q.
 07f80 1a4483f8 a210a369 907e1a68 00025269  .D.....i.~.h..Ri
 07f90 2082aa42 40f00f81 93f8a220 93f8a310   ..B@...... ....
 07fa0 914240f2 9681511c 1a4483f8 a210907e  .B@...Q..D.....~
 07fb0 a369228a 10431a68 52692082 aa4240f0  .i"..C.hRi ..B@.
 07fc0 068193f8 a22093f8 a3109142 17d90132  ..... .....B...2
 07fd0 83f8a220 a3691a68 5269aa42 40f0ff80  ... .i.hRi.B@...
 07fe0 93f8a220 93f8a310 914208d9 013283f8  ... .....B...2..
 07ff0 a220a369 1a685269 aa4240f0 f88093f8  . .i.hRi.B@.....
 08000 a22093f8 a3109142 40f26f81 511c1a44  . .....B@.o.Q..D
 08010 83f8a210 907ea369 00021a68 60825269  .....~.i...h`.Ri
 08020 aa4240f0 ef8093f8 a22093f8 a3109142  .B@...... .....B
 08030 40f25781 511c1a44 83f8a210 907ea369  @.W.Q..D.....~.i
 08040 628a1043 1a685269 6082aa42 40f0e680  b..C.hRi`..B@...
 08050 93f8a220 93f8a310 914217d9 013283f8  ... .....B...2..
 08060 a220a369 1a685269 aa4240f0 df8093f8  . .i.hRi.B@.....
 08070 a22093f8 a3109142 08d90132 83f8a220  . .....B...2... 
 08080 a3691a68 5269aa42 40f0d880 93f8a220  .i.hRi.B@...... 
 08090 93f8a310 914208d9 013283f8 a220a369  .....B...2... .i
 080a0 1a685269 aa4240f0 d18093f8 a22093f8  .hRi.B@...... ..
 080b0 a3109142 08d90132 83f8a220 a3691a68  ...B...2... .i.h
 080c0 5269aa42 40f0ca80 93f8a220 93f8a310  Ri.B@...... ....
 080d0 914240f2 fb80511c 1a4483f8 a210907e  .B@...Q..D.....~
 080e0 a3690002 1a68a082 5269aa42 40f0c180  .i...h..Ri.B@...
 080f0 93f8a220 93f8a310 914240f2 e380511c  ... .....B@...Q.
 08100 1a4483f8 a210907e a369a28a 10431a68  .D.....~.i...C.h
 08110 5269a082 aa4240f0 b88093f8 a22093f8  Ri...B@...... ..
 08120 a3109142 40f2ca80 511c1a44 83f8a210  ...B@...Q..D....
 08130 a369907e 1a680002 5269e082 aa4240f0  .i.~.h..Ri...B@.
 08140 af8093f8 a22093f8 a3109142 40f2b380  ..... .....B@...
 08150 511c1a44 83f8a210 907ee38a 1843e082  Q..D.....~...C..
 08160 38bd00bf 9d050000 18469047 a369c0b2  8........F.G.i..
 08170 a0731a68 5269aa42 3ff4d7ae 18469047  .s.hRi.B?....F.G
 08180 a3691a68 5269aa42 3ff4dfae 18469047  .i.hRi.B?....F.G
 08190 a369c0b2 e0731a68 5269aa42 3ff4e8ae  .i...s.hRi.B?...
 081a0 18469047 a3690002 1a6880b2 52692082  .F.G.i...h..Ri .
 081b0 aa423ff4 f1ae1846 9047228a a3691043  .B?....F.G"..i.C
 081c0 1a6880b2 52692082 aa423ff4 faae1846  .h..Ri ..B?....F
 081d0 9047a369 1a685269 aa423ff4 01af1846  .G.i.hRi.B?....F
 081e0 9047a369 1a685269 aa423ff4 08af1846  .G.i.hRi.B?....F
 081f0 9047a369 00021a68 80b25269 6082aa42  .G.i...h..Ri`..B
 08200 3ff411af 18469047 628aa369 10431a68  ?....F.Gb..i.C.h
 08210 80b25269 6082aa42 3ff41aaf 18469047  ..Ri`..B?....F.G
 08220 a3691a68 5269aa42 3ff421af 18469047  .i.hRi.B?.!..F.G
 08230 a3691a68 5269aa42 3ff428af 18469047  .i.hRi.B?.(..F.G
 08240 a3691a68 5269aa42 3ff42faf 18469047  .i.hRi.B?./..F.G
 08250 a3691a68 5269aa42 3ff436af 18469047  .i.hRi.B?.6..F.G
 08260 a3690002 1a6880b2 5269a082 aa423ff4  .i...h..Ri...B?.
 08270 3faf1846 9047a28a a3691043 1a6880b2  ?..F.G...i.C.h..
 08280 5269a082 aa423ff4 48af1846 9047a369  Ri...B?.H..F.G.i
 08290 00021a68 80b25269 e082aa42 3ff451af  ...h..Ri...B?.Q.
 082a0 18469047 e38a1843 80b2e082 38bdff20  .F.G...C....8.. 
 082b0 58e6ff20 33e64ff6 ff7050e7 4ff47f42  X.. 3.O..pP.O..B
 082c0 e2823ee7 4ff6ff72 a28226e7 4ff47f40  ..>.O..r..&.O..@
 082d0 08e74ff6 ff722282 73e64ff4 7f422282  ..O..r".s.O..B".
 082e0 5ae64ff6 ff726282 b2e64ff4 7f4094e6  Z.O..rb...O..@..
 082f0 018aa9b1 b0f812c0 c28a6244 4ff6ff7c  ..........bDO..|
 08300 624528bf 6246b1eb 024f00b5 4fea024e  bE(.bF...O..O..N
 08310 0bd94ff4 00425421 5df804eb fff74cba  ..O..BT!].....L.
 08320 4ff40042 5421fff7 47babefb f1fe4ff0  O..BT!..G.....O.
 08330 20625421 b2fbfef2 62455df8 04eb28bf   bT!....bE]...(.
 08340 624692b2 fff738ba 40f2db71 838a827b  bF....8.@..q...{
 08350 01fb03f3 511e03f5 8063db0a 03801129  ....Q....c.....)
 08360 21d8dfe8 01f00909 09222426 0a2a2c20  !........"$&.*, 
 08370 20320a20 20200928 0522c38a dfed146a   2.   .(.".....j
 08380 07ee103a 438a8270 07ee903a b8ee477a  ...:C..p...:..Gz
 08390 f8ee677a 27ee267a 67eea67a 80ed017a  ..gz'.&zg..z...z
 083a0 c0ed027a 7047ff22 e7e70222 e5e70422  ...zpG."..."..."
 083b0 e3e70122 e1e70a22 dfe70322 dde7c37b  ..."..."..."...{
 083c0 002b14bf 00220622 d7e70922 d5e700bf  .+..."."..."....
 083d0 0000003c 38b50446 c1b1194d 2b684384  ...<8..F...M+hC.
 083e0 31212046 fff744fa c34313f0 01030dd1  1! F..D..C......
 083f0 e18b0029 f4d02a68 608c121a 92b29142  ...)..*h`......B
 08400 eed20122 184684f8 202038bd 2046fff7  ...".F..  8. F..
 08410 51fd94f8 28305bb1 2046fff7 69ff2046  Q...(0[. F..i. F
 08420 fff792ff 01228621 fff7a2f9 208838bd  .....".!.... .8.
 08430 2046fff7 0ffd0123 84f82830 ece700bf   F.....#..(0....
 08440 e8420020 044bff20 4ff0ff31 00221860  .B. .K. O..1.".`
 08450 c3e90212 704700bf 682f0020 30b482b0  ....pG..h/. 0...
 08460 0c4602ab 03e90600 c37c002b 30d072b6  .F.......|.+0.r.
 08470 c37cda07 08d54ff0 e0214569 d1f88021  .|....O..!Ei...!
 08480 2a408262 c1f88021 9d0708d5 4ff0e021  *@.b...!....O..!
 08490 8569d1f8 84212a40 c262c1f8 84215907  .i...!*@.b...!Y.
 084a0 08d54ff0 e021c569 d1f88821 2a400263  ..O..!.i...!*@.c
 084b0 c1f88821 1a0708d5 4ff0e021 056ad1f8  ...!....O..!.j..
 084c0 8c212a40 4263c1f8 8c21db06 2fd462b6  .!*@Bc...!../.b.
 084d0 83689c42 35d0224b 84609b69 214ac3f3  .h.B5."K.`.i!J..
 084e0 0111c3f3 826352f8 21100133 b1fbf3f2  .....cR.!..3....
 084f0 ccb19442 27d8b2fb f4f3b2fb f3f29442  ...B'..........B
 08500 2cd3b3f5 817f20d3 174cc460 03680322  ,..... ..L.`.h."
 08510 00200199 18615a62 01221c64 19661a61  . ...aZb.".d.f.a
 08520 02b030bc 70479942 efd3531c e9e74ff0  ..0.pG.B..S...O.
 08530 e022416a d2f89031 0b408363 c2f89031  ."Aj...1.@.c...1
 08540 c5e7c468 e2e70024 dfe7022b fbd9023b  ...h...$...+...;
 08550 5a081402 44ea0244 1c43d6e7 1a46e4e7  Z...D..D.C...F..
 08560 00c00f40 a80e0020 ff7f7f00 7f28a2eb  ...@... .....(..
 08570 010205d8 12b10a46 02f8010b 10467047  .......F.....FpG
 08580 b0f5006f 0fd2012a 40d94fea 901c00f0  ...o...*@.O.....
 08590 3f030a46 6cf03f00 63f07f03 02f8020b  ?..Fl.?.c.......
 085a0 10464b70 7047b0f5 803f16d2 022a2dd9  .FKppG...?...*-.
 085b0 c0f3851c 00f03f03 ca1c63f0 7f0300b5  ......?...c.....
 085c0 4fea103e 6cf07f00 8b706ef0 1f0e4870  O..>l....pn...Hp
 085d0 104681f8 00e05df8 04fb032a 16d94fea  .F....]....*..O.
 085e0 904cc0f3 0532c0f3 851300f0 3f0062f0  .L...2......?.b.
 085f0 7f026cf0 0f0c63f0 7f0360f0 7f004a70  ..l...c...`...Jp
 08600 0a1dc870 81f800c0 8b70b7e7 0022b5e7  ...p.....p..."..
 08610 88423dd2 034610b4 90f90000 1c780028  .B=..F.......x.(
 08620 2dda04f0 e000c028 34d004f0 f000e028  -......(4......(
 08630 34d004f0 f800f028 26d104f0 07040420  4......(&...... 
 08640 18448842 20d80133 13f8011b 01f0c00c  .D.B ..3........
 08650 01f03f01 bcf1800f 41ea8414 14d18342  ..?.....A......B
 08660 f2d1a4f1 80010f4b 99420dd8 a4f55843  .......K.B....XC
 08670 b3f5006f 08d31460 5df8044b 7047581c  ...o...`]..KpGX.
 08680 14605df8 044b7047 00205df8 044b7047  .`]..KpG. ]..KpG
 08690 00207047 04f01f04 0220d1e7 04f00f04  . pG..... ......
 086a0 0320cde7 7fff1000 10b50446 808982b0  . .........F....
 086b0 18b10023 a38102b0 10bdd4e9 01318b42  ...#.........1.B
 086c0 f9d201aa 1846fff7 a3ff80b1 019b6060  .....F........``
 086d0 b3f5803f 01d298b2 ede7980a c3f30903  ...?............
 086e0 a0f52150 a3f51053 80b2a381 e3e74ff6  ..!P...S......O.
 086f0 ff70e0e7 7e283ed9 4ff0350c 002330b4  .p..~(>.O.5..#0.
 08700 284c04e0 34f82120 824220d8 0b46aceb  (L..4.! .B ..F..
 08710 0302012a 03eb5201 f4d89bb2 34f82320  ...*..R.....4.# 
 08720 904216d2 4b240023 1f4d04e0 35f82120  .B..K$.#.M..5.! 
 08730 82421ed8 0b46e21a 012a03eb 5201f5d8  .B...F...*..R...
 08740 9bb235f8 23208242 1fd030bc 70478c46  ..5.# .B..0.pG.F
 08750 dde704eb 8304821a e3789a42 e2da94f9  .........x.B....
 08760 0230012b 16d0d3b1 9bb20344 30bc98b2  .0.+.......D0...
 08770 70470c46 dfe7a0f1 6103192b 8cbf0023  pG.F....a..+...#
 08780 0123a0eb 431398b2 704705eb 83056888  .#..C...pG....h.
 08790 30bc7047 02f00102 831a98b2 d5e74ef2  0.pG..........N.
 087a0 a033e2e7 00080020 d4060020 30b50378  .3..... ... 0..x
 087b0 83b0dc07 1dd50446 406804f1 10020368  .......F@h.....h
 087c0 e1680192 5b6a9847 019a0546 a8b12378  .h..[j.G...F..#x
 087d0 990708d5 6068d4e9 02311944 03685b6a  ....`h...1.D.h[j
 087e0 984750b1 237823f0 01032846 237003b0  .GP.#x#...(F#p..
 087f0 30bd0125 284603b0 30bd0025 284603b0  0..%(F..0..%(F..
 08800 30bd00bf f8b54368 0bb3c368 04460f46  0.....Ch...h.F.F
 08810 15468b42 06d110f8 103b05f0 03052b43  .F.B.....;....+C
 08820 2370f8bd fff7c2ff 88b16b07 05d504f1  #p........k.....
 08830 10063046 0023e760 efe76068 04f11006  ..0F.#.`..`h....
 08840 39460368 32461b69 98470028 f1d10020  9F.h2F.i.G.(... 
 08850 f8bd00bf b1f5807f 21d81029 2ed84023  ........!..)..@#
 08860 4ff0200c b2fbf3f1 b1f5806f 20d203fb  O. ........o ...
 08870 112300b5 b2fbfcfe b3fbfcf3 0cfb1e22  .#............."
 08880 4fea910c dbb20132 2cf03f0c c9b20370  O......2,.?....p
 08890 42ea0c02 8170d2b2 42705df8 04fb3f23  B....p..Bp]...?#
 088a0 9c468029 10d9b1f5 fc7f0fd8 1b01d9e7  .F.)............
 088b0 ff21fe23 41700370 81707047 202916d8  .!.#Ap.p.ppG )..
 088c0 80234ff0 200ccde7 db00cbe7 b1f57c7f  .#O. .........|.
 088d0 04d9b1f5 fc6f03d8 9b01c3e7 5b01c1e7  .....o......[...
 088e0 b1f57c6f 94bfdb01 c3eb0323 bae72023  ..|o.......#.. #
 088f0 9c46d6e7 08467047 f8b50026 8f6b0d46  .F...FpG...&.k.F
 08900 0446c0e9 0e669fb1 01462420 fff7f2ff  .F...f...F$ ....
 08910 06808670 8446ad6b a0630fcd ace80f00  ...p.F.k.c......
 08920 0fcdace8 0f002b68 ccf80030 2046f8bd  ......+h...0 F..
 08930 cb6b002b fad00146 3820fff7 dbff80f8  .k.+...F8 ......
 08940 31704786 0246eb6b e06303f1 30071e68  1pG..F.k.c..0..h
 08950 103353f8 0c5c1032 53f8080c 53f8041c  .3S..\.2S...S...
 08960 bb4242f8 106c42f8 0c5c42f8 080c42f8  .BB..lB..\B...B.
 08970 041cecd1 1b682046 1360f8bd 10b50446  .....h F.`.....F
 08980 806b10b1 01f064fd 30b9e06b 10b104f0  .k....d.0..k....
 08990 1bfe20b9 002010bd 0023a363 10bd0023  .. .. ...#.c...#
 089a0 e36310bd 002952d0 2de9f041 0446806b  .c...)R.-..A.F.k
 089b0 0d461746 1e4610b1 01f04afd a0bbe06b  .F.F.F....J....k
 089c0 10b104f0 01feb8bb d5f88084 b8f1000f  ................
 089d0 11d02146 2420fff7 8dff3346 00263a46  ..!F$ ....3F.&:F
 089e0 06808670 a063d5f8 801401f0 39ff58bb  ...p.c......9.X.
 089f0 a063bde8 f081d5f8 843493b1 21463820  .c.......4..!F8 
 08a00 fff778ff 334680f8 31803a46 a0f83280  ..x.3F..1.:F..2.
 08a10 e063d5f8 841405f0 0bfaa8b9 e063bde8  .c...........c..
 08a20 f0810020 bde8f081 0023d5f8 8084a363  ... .....#.....c
 08a30 b8f1000f cdd1dee7 0023d5f8 8084e363  .........#.....c
 08a40 b8f1000f c5d1d6e7 0120bde8 f0810020  ......... ..... 
 08a50 704700bf f8b50446 806b0d46 174610b1  pG.....F.k.F.F..
 08a60 01f0f6fc 38bbe06b 10b104f0 adfd38bb  ....8..k......8.
 08a70 ae6b76b1 21462420 fff73cff 00213a46  .kv.!F$ ..<..!:F
 08a80 01808170 a063a96b 02f050fa 88b9a063  ...p.c.k..P....c
 08a90 f8bde86b 0028fbd0 21463820 fff72aff  ...k.(..!F8 ..*.
 08aa0 3a4680f8 31604686 e063e96b 05f0c8f9  :F..1`F..c.k....
 08ab0 20b10120 f8bd0023 a363d9e7 e063f8bd   .. ...#.c...c..
 08ac0 0023e363 d4e700bf 2de9f041 00260446  .#.c....-..A.&.F
 08ad0 9846c0f8 8814c0f8 80640146 4ff49060  .F.......d.FO..`
 08ae0 1746fff7 07ff4246 80f84464 054680f8  .F....BF..Dd.F..
 08af0 7964a0f8 7a64c4f8 8404d4f8 881406f0  yd..zd..........
 08b00 35fda0bb 00262146 40f26c40 c4f88464  5....&!F@.l@...d
 08b10 fff7f0fe 0223c671 4246a0f8 48640546  .....#.qBF..Hd.F
 08b20 80f84a64 0372c4f8 8004d4f8 881400f0  ..Jd.r..........
 08b30 01ff38b9 00231a4a 18461360 c4f88034  ..8..#.J.F.`...4
 08b40 bde8f081 05f58966 304601f0 81fc2946  .......f0F....)F
 08b50 304601f0 bbfe0028 ecd0124b 1a68aab9  0F.....(...K.h..
 08b60 1d600f4b afb10120 1c60bde8 f08105f5  .`.K... .`......
 08b70 89663046 04f028fd 29463046 04f052fd  .f0F..(.)F0F..R.
 08b80 0028bfd0 084b1a68 002ae9d0 044b002f  .(...K.h.*...K./
 08b90 e9d11a68 002ae6d0 0120bde8 f08100bf  ...h.*... ......
 08ba0 1c3b0020 203b0020 e83a0020 70b50025  .;.  ;. .:. p..%
 08bb0 4ff47a76 04464560 05738660 c0e91255  O.zv.FE`.s.`...U
 08bc0 034d40f8 105bfff7 edfe2046 70bd00bf  .M@..[.... Fp...
 08bd0 2c0d0020 042a04d8 01eb4202 b2f80100  ,.. .*....B.....
 08be0 70470a2a 03d801eb 42029088 70470c2a  pG.*....B...pG.*
 08bf0 03d801eb 4201c888 70470020 704700bf  ....B...pG. pG..
 08c00 f8b50478 0e467cb1 14f06004 174607d0  ...x.F|...`..F..
 08c10 012a09d9 2f220023 01200a70 4b70f8bd  .*../".#. .pKp..
 08c20 214601f0 05fc18b9 00231846 3370f8bd  !F.......#.F3p..
 08c30 0346a446 082111e0 027b1142 03d00ef1  .F.F.!...{.B....
 08c40 200e5ffa 8efe651c bd42edd2 0cf1010c   ._...e..B......
 08c50 06f804e0 ecb2bcf1 0c0f10d0 bcf1080f  ................
 08c60 11d013f8 01ebaef1 4102192a e4d9bef1  ........A..*....
 08c70 200fe8d1 0cf1010c bcf10c0f eed10023   ..............#
 08c80 20463355 f8bd1a78 202af8d0 10214ff0   F3U...x *...!O.
 08c90 2e0ed8e7 2de9f04f 00248bb0 03788946  ....-..O.$...x.F
 08ca0 0194002b 55d0c378 0646002b 58d00146  ...+U..x.F.+X..F
 08cb0 01a89046 01f0dcfd 00284ad0 f0780028  ...F.....(J..x.(
 08cc0 43d008f1 ff38cb46 4ff0010a c844b188  C....8.FO....D..
 08cd0 01a8a1eb 0a0189b2 490102f0 5df8c0b3  ........I...]...
 08ce0 002101a8 01f0f8fe 98b3c37a 0f2b30d1  .!.........z.+0.
 08cf0 03785ffa 8af103f0 1f038b42 29d1471c  .x_........B).G.
 08d00 0025042d ebb23fd8 3b8874bb 03f52051  .%.-..?.;.t... Q
 08d10 89b2b1f5 006f3ed3 a3b11846 59464246  .....o>....FYFBF
 08d20 fff724fc 8346a0b1 00240135 02370d2d  ..$..F...$.5.7.-
 08d30 e7d10af1 010af178 5ffa8af3 1ffa8afa  .......x_.......
 08d40 9942c4d2 abeb0900 d9460023 89f80030  .B.......F.#...0
 08d50 03e00023 184689f8 00300bb0 bde8f08f  ...#.F...0......
 08d60 fff74eff 0bb0bde8 f08f03f5 105189b2  ..N..........Q..
 08d70 b1f5806f edd20a4a c3f30903 02ea8420  ...o...J....... 
 08d80 184300f5 8030c9e7 0a2b94bf b7f80330  .C...0...+.....0
 08d90 b7f80530 b9e7b1f5 806fdad2 1c46c4e7  ...0.....o...F..
 08da0 00fc0f00 fff776bf 2de9f843 ddf82090  ......v.-..C.. .
 08db0 a2b10546 0c469846 571801e0 bc420dd0  ...F.F.FW....B..
 08dc0 2b682046 49465e6a c0472146 02462846  +h FIF^j.G!F.F(F
 08dd0 0134b047 0028f1d1 bde8f883 0120bde8  .4.G.(....... ..
 08de0 f88300bf 486810b5 0c4630b1 0b894a89  ....Hh...F0...J.
 08df0 01339bb2 9a420b81 01d92068 10bd0368  .3...B.... h...h
 08e00 01220349 5b689847 00232068 238110bd  .".I[h.G.# h#...
 08e10 a8170020 2de9f04f 054687b0 88469246  ... -..O.F...F.F
 08e20 00214ff4 0072406a 0cf060ff 286a28b1  .!O..r@j..`.(j(.
 08e30 03680c22 3a495b68 9847286a 6b6a4ff0  .h.":I[h.G(jkjO.
 08e40 0009ee69 0af1ff32 dff8e0c0 e968adf8  ...i...2.....h..
 08e50 14904c1c cde90330 4fea5a13 adf81630  ..L....0O.Z....0
 08e60 3368df6a 674526d1 6ab301eb 0a07dff8  3h.jgE&.j.......
 08e70 c0a00ae0 2146039a 30460134 d8470028  ....!F..0F.4.G.(
 08e80 3fd0a742 1ed03368 0498d3f8 24b00028  ?..B..3h....$..(
 08e90 f0d0bdf8 1430bdf8 16200133 9bb29a42  .....0... .3...B
 08ea0 adf81430 e6d80368 51460122 5b689847  ...0...hQF."[h.G
 08eb0 adf81490 dee703ab 21463046 0093194b  ........!F0F...K
 08ec0 b847f0b1 286a20b1 03680222 16495b68  .G..(j ..h.".I[h
 08ed0 9847b8f1 100f4ff0 f8016a6a 4ff00103  .G....O...jjO...
 08ee0 0cbf0420 0c201170 ff216a6a d1540133  ... . .p.!jj.T.3
 08ef0 9842fad1 e8696a6a 0368e968 5b6a9847  .B...ijj.h.h[j.G
 08f00 18b90020 07b0bde8 f08fd5e9 0231e869  ... .........1.i
 08f10 19446a6a 03685b6a 984707b0 bde8f08f  .Djj.h[j.G......
 08f20 d4080020 e58d0000 5c090020 a98d0000  ... ....\.. ....
 08f30 a8170020 38b5436a 4ff40075 04460021  ... 8.CjO..u.F.!
 08f40 2a461846 0cf0d2fe 4ff02031 eb22a0f8  *F.F....O. 1."..
 08f50 0b50c0f8 03100346 c0f80710 90210270  .P.....F.....!.p
 08f60 76209970 02225870 94f82b10 59734af6  v .p."Xp..+.YsJ.
 08f70 5521208d 1a74f822 d8815a75 2269da61  U! ..t."..Zu"i.a
 08f80 a269a3f8 fe111a62 38bd00bf 70b50446  .i.....b8...p..F
 08f90 4ff40072 0021406a 0cf0a8fe 656a2269  O..r.!@j....ej"i
 08fa0 216805f2 bf10fff7 55fca369 226905f2  !h......U..i"i..
 08fb0 c3102168 1a44013a fff74cfc 94f82a20  ..!h.D.:..L...* 
 08fc0 4af65523 85f8c221 2269e069 c5f8c621  J.U#...!"i.i...!
 08fd0 626aa169 a5f8fe31 0368c5f8 ca110021  bj.i...1.h.....!
 08fe0 5b6abde8 70401847 70b54669 4ff48073  [j..p@.Gp.FiO..s
 08ff0 90f82be0 0446a6f5 8072456a 4360b2fb  ..+..F...rEjC`..
 09000 fef202f2 011c4fea 1c214fea 410c8160  ......O..!O.A..`
 09010 0cf1a100 98420ed9 8033f21a b2fbfef2  .....B...3......
 09020 02f20111 090a4fea 410c0cf1 a1008342  ......O.A......B
 09030 f2d3c4e9 01311b1a a2f6f571 03f18000  .....1.....q....
 09040 b1f5704f 20614fd2 0cf1210c 81332046  ..pO aO...!..3 F
 09050 02fb0ec2 e360b2f5 803fa261 34bf0423  .....`...?.a4..#
 09060 062384f8 2a300123 2385fff7 8fff08b9  .#..*0.##.......
 09070 002070bd 2046fff7 5dff2922 a1684ff0  . p. F..].)".hO.
 09080 203385f8 26204622 c5f82f30 802085f8   3..& F"../0. ..
 09090 36205422 c5f82b30 c5f83230 312385f8  6 T"..+0..201#..
 090a0 38203622 e9824121 85f83930 85f83710  8 6"..A!..90..7.
 090b0 4ff40071 85f82400 85f83a20 0f4be069  O..q..$...: .K.i
 090c0 c5f82730 0368a5f8 1110626a 21695b6a  ..'0.h....bj!i[j
 090d0 98470028 ccd06268 2046e368 1021d21a  .G.(..bh F.h.!..
 090e0 bde87040 fff796be 206a0028 c0d00368  ..p@.... j.(...h
 090f0 13220349 5b689847 002070bd 87d61200  .".I[h.G. p.....
 09100 1c090020 f8b54669 4ff40053 90f82bc0  ... ..FiO..S..+.
 09110 4ff48042 a6f58041 036142f2 090e0446  O..B...A.aB....F
 09120 456a4260 b1fbfcf1 01f18103 db098360  EjB`...........`
 09130 0eeb4300 904240f2 b68002f5 0052b11a  ..C..B@......R..
 09140 b1fbfcf1 01f18103 db090eeb 43005f00  ............C._.
 09150 8242f2d3 c4e90123 4ff6f473 994240f2  .B.....#O..s.B@.
 09160 978001fb 0c2ca2f5 00522046 d21b92b2  .....,...R F....
 09170 02f50053 22854d4a e360acf5 00539445  ...S".MJ.`...S.E
 09180 94bf4ff0 0b0c4ff0 0c0ca361 84f82ac0  ..O...O....a..*.
 09190 fff7fcfe 08b90020 f8bd2046 fff7cafe  ....... .. F....
 091a0 a1682922 4ff02033 80206962 85f84220  .h)"O. 3. ib..B 
 091b0 54214622 c5f84b30 85f84000 4120c5f8  T!F"..K0..@.A ..
 091c0 4730c5f8 4e300223 85f85220 332285f8  G0..N0.#..R 3"..
 091d0 54103221 85f85520 85f85300 85f85610  T.2!..U ..S...V.
 091e0 eb62e069 324b334a 2b630368 c5f84320  .b.i2K3J+c.h..C 
 091f0 5b6a626a 21699847 0028ccd0 e0692169  [jbj!i.G.(...i!i
 09200 03680631 626a5b6a 98470028 c3d04ff4  .h.1bj[j.G.(..O.
 09210 00720021 606a0cf0 69fde069 264a0368  .r.!`j..i..i&J.h
 09220 c5f8fc21 21695b6a 0231626a 98470028  ...!!i[j.1bj.G.(
 09230 b1d0e069 21690368 0831626a 5b6a9847  ...i!i.h.1bj[j.G
 09240 0028a8d0 4ff0ff33 e0691c4a c5e97a33  .(..O..3.i.J..z3
 09250 1b4b2a60 c5f8e431 03682169 626a5b6a  .K*`...1.h!ibj[j
 09260 01319847 002896d0 e0692169 0368626a  .1.G.(...i!i.hbj
 09270 07315b6a 98470028 8dd0a268 204694f8  .1[j.G.(...h F..
 09280 2b302021 03eb4202 bde8f840 fff7c2bd  +0 !..B....@....
 09290 206a0028 3ff47faf 03681322 09495b68   j.(?....h.".I[h
 092a0 98470020 f8bd5f00 56e700bf 0004fb00  .G. .._.V.......
 092b0 01000600 87d61200 000055aa 52526141  ..........U.RRaA
 092c0 72724161 1c090020 38b50446 0d68c161  rrAa... 8..F.h.a
 092d0 08466262 ea692362 904700f2 ff736061  .Fbb.i#b.G...s`a
 092e0 db0a062b 236024d9 102b13d8 0223b0f5  ...+#`$..+...#..
 092f0 800f84f8 2b302046 2ed2fff7 75fe0546  ....+0 F....u..F
 09300 206a05b3 20b10368 0d221949 5b689847   j.. ..h.".I[h.G
 09310 284638bd 202b23d9 402b23d9 802b23d9  (F8. +#.@+#..+#.
 09320 b3f5806f 22d9b3f5 004f8cbf 80234023  ...o"....O...#@#
 09330 dde7206a 20b10368 14220e49 5b689847  .. j ..h.".I[h.G
 09340 00252846 38bd0028 fad00368 0f220a49  .%(F8..(...h.".I
 09350 5b689847 284638bd fff7d4fe 0546cfe7  [h.G(F8......F..
 09360 0423c4e7 0823c2e7 1023c0e7 2023bee7  .#...#...#.. #..
 09370 fc080020 e4080020 0c090020 2de9f843  ... ... ... -..C
 09380 dde90887 c3b18146 0c461546 5e1802e0  .......F.F.F^...
 09390 c047b442 10d0d9f8 00302146 2a464846  .G.B.....0!F*FHF
 093a0 1b699847 03463a46 20462946 0134002b  .i.G.F:F F)F.4.+
 093b0 eed11846 bde8f883 01231846 bde8f883  ...F.....#.F....
 093c0 10b41468 b4f5807f a44628bf 4ff4807c  ...h.....F(.O..|
 093d0 01eb4c00 814207d2 31f8023b 13b95368  ..L..B..1..;..Sh
 093e0 01335360 8842f7d8 a4eb0c04 14605df8  .3S`.B.......`].
 093f0 044b7047 10b41468 802ca446 28bf4ff0  .KpG...h.,.F(.O.
 09400 800c01eb 8c008142 07d251f8 043b13b9  .......B..Q..;..
 09410 53680133 53608842 f7d8a4eb 0c041460  Sh.3S`.B.......`
 09420 5df8044b 704700bf 2de9f843 c3790446  ]..KpG..-..C.y.F
 09430 0d461746 202b59d0 102b30d0 0c2b51d1  .F.F +Y..+0..+Q.
 09440 027ac1f3 4e018369 00f50e79 11fa85f1  .z..N..i...y....
 09450 a2f10202 48468eb2 b2fa82f2 c1f34621  ....HF........F!
 09460 520901eb 03085200 4146fff7 cbf90028  R.....R.AF.....(
 09470 38d0c6f3 0806731c 865db3f5 007f23d0  8.....s..]....#.
 09480 18440378 ea07e269 46ea0323 4cbf1b09  .D.x...iF..#L...
 09490 c3f30b03 9a4240d2 0020bde8 f883027a  .....B@.. .....z
 094a0 c1f30721 836900f5 0e70a2f1 02021944  ...!.i...p.....D
 094b0 b2fa82f2 52095200 fff7a4f9 90b16d00  ....R.R.......m.
 094c0 05f4ff75 435b25e0 227a08f1 01014846  ...uC[%."z....HF
 094d0 a2f10202 b2fa82f2 52095200 fff792f9  ........R.R.....
 094e0 0028ced1 4ff0ff30 bde8f883 027a8169  .(..O..0.....z.i
 094f0 00f50e70 a2f10202 01ebd511 b2fa82f2  ...p............
 09500 52095200 fff77ef9 0028ebd0 ad0005f4  R.R...~..(......
 09510 fe754359 e2699a42 bed30120 3b60bde8  .uCY.i.B... ;`..
 09520 f88300bf 2de9f843 c3790546 0c461646  ....-..C.y.F.F.F
 09530 202b48d0 102b2dd0 0c2b41d1 c1f34e01   +H..+-..+A...N.
 09540 836900f5 0e7911fa 84f11ffa 81f8c1f3  .i...y..........
 09550 4621cf18 037a4846 022b3946 14bf0122  F!...zHF.+9F..."
 09560 0322fff7 4ff958b3 14f00104 c8f30803  ."..O.X.........
 09570 3fd0c25c 02f00f02 42ea0612 c2540133  ?..\....B....T.3
 09580 b3f5007f 3ad0c6f3 07120344 01201a70  ....:......D. .p
 09590 bde8f883 027ac1f3 07218369 00f50e70  .....z...!.i...p
 095a0 022a1944 14bf0122 0322fff7 2bf90346  .*.D..."."..+..F
 095b0 30b16400 012004f4 ff741e53 bde8f883  0.d.. ...t.S....
 095c0 0020bde8 f883037a 816900f5 0e70022b  . .....z.i...p.+
 095d0 01ebd411 14bf0122 0322fff7 13f90346  .......".".....F
 095e0 0028edd0 a4000120 04f4fe74 1e51bde8  .(..... ...t.Q..
 095f0 f883c654 0133b3f5 007f15d1 2b7a791c  ...T.3......+zy.
 09600 4846022b 14bf0122 0322fff7 fbf80346  HF.+...".".....F
 09610 0028d5d0 c6f30712 002cb7d1 197821f0  .(.......,...x!.
 09620 0f0141ea 1212b1e7 c6f30712 0344f5e7  ..A..........D..
 09630 2de9f041 c46882b0 05460e46 8c429046  -..A.h...F.F.B.F
 09640 40d30127 0134eb69 01aa2846 a34205d2  @..'.4.i..(F.B..
 09650 9fbbec68 01273c44 a3422ed3 a64218bf  ...h.'<D.B...B..
 09660 012c2146 29d9fff7 dffe0028 25dbe9d0  .,!F)......(%...
 09670 019b002b e6d107b1 ec60eb69 a3421cd3  ...+.....`.i.B..
 09680 6ff07042 21462846 fff74cff 0746a0b1  o.pB!F(F..L..F..
 09690 3eb96b6a 002b01db 013b6b62 c8f80040  >.kj.+...;kb...@
 096a0 0ce0012e 09d0eb69 9e4206d8 31462246  .......i.B..1F"F
 096b0 2846fff7 37ff0028 ebd10027 384602b0  (F..7..(...'8F..
 096c0 bde8f081 0c460027 bce700bf 01290cd9  .....F.'.....)..
 096d0 10b4c469 8c4203d3 5df8044b fff7a4be  ...i.B..]..K....
 096e0 4ff0ff30 5df8044b 70474ff0 ff307047  O..0]..KpGO..0pG
 096f0 01290bd9 10b4c469 8c4203d3 5df8044b  .).....i.B..]..K
 09700 fff710bf 00205df8 044b7047 00207047  ..... ]..KpG. pG
 09710 70b50023 82b00546 0c460193 1de0eb69  p..#...F.F.....i
 09720 9c421fd8 fff780fe 06462146 0022002e  .B.......F!F."..
 09730 284617db eb699c42 14d8fff7 f3fe621e  (F...i.B......b.
 09740 80b16b6a 002b03f1 0103a8bf 6b62eb68  ..kj.+......kb.h
 09750 a342019c 88bfea60 2eb1012c 214601aa  .B.....`...,!F..
 09760 2846dcd8 002002b0 70bd00bf 2de9f047  (F... ..p...-..G
 09770 0646406a 84b00028 1bdaf279 0c2a1bd1  .F@j...(...y.*..
 09780 f7697b1c 022b40f2 cd800224 00252146  .i{..+@....$.%!F
 09790 02aa3046 fff748fe 002804f1 010306db  ..0F..H..(......
 097a0 57d1a742 1c465cd0 f2699342 efd94ff0  W..B.F\..i.B..O.
 097b0 ff3004b0 bde8f087 f1690020 96f83832  .0.......i. ..82
 097c0 01313469 db07cde9 021000f1 85800021  .14i...........!
 097d0 4ff0ff33 202a06f5 127786f8 3812c6f8  O..3 *...w..8...
 097e0 443242d0 d6f80080 4f4bd8f8 0020d6f8  D2B.....OK... ..
 097f0 18a09569 9d4278d1 002c00f0 82800aeb  ...i.Bx..,......
 09800 04091369 51463a46 40469847 0028ced0  ...iQF:F@F.G.(..
 09810 0299b1f5 807f8e46 28bf4ff4 807e07eb  .......F(.O..~..
 09820 4e0cbc45 0bd9039d 3b460022 33f8024b  N..E....;F."3..K
 09830 0cb90135 02469c45 f8d802b1 03950af1  ...5.F.E........
 09840 010aa1eb 0e01d145 02915ad0 d8f80020  .......E..Z.... 
 09850 d7e7029a 002aa4d1 a74205f1 01051c46  .....*...B.....F
 09860 a2d12846 04b0bde8 f087d6f8 00a02e4b  ..(F...........K
 09870 daf80020 d6f81890 95699d42 46d1002c  ... .....i.BF..,
 09880 3fd009eb 04081369 49463a46 50469847  ?......iIF:FPF.G
 09890 00288cd0 ddf808c0 bcf1800f e64628bf  .(...........F(.
 098a0 4ff0800e 07eb8e02 ba420bd9 039d3b46  O........B....;F
 098b0 002153f8 044b0cb9 01350146 9a42f8d8  .!S..K...5.F.B..
 098c0 01b10395 09f10109 aceb0e03 c8450293  .............E..
 098d0 17d0daf8 0020d6e7 06f50e70 fef766ff  ..... .....p..f.
 098e0 00283ff4 64aff279 71e72346 02ac3a46  .(?.d..yq.#F..:F
 098f0 51460194 40460d4c 0094a847 00283ff4  QF..@F.L...G.(?.
 09900 56af0398 706204b0 bde8f087 234602ac  V...pb......#F..
 09910 3a464946 01945046 054c0094 a8470028  :FIF..PF.L...G.(
 09920 efd144e7 002044e7 7d930000 c1930000  ..D.. D.}.......
 09930 f5930000 70b50023 04461546 01204ff0  ....p..#.F.F. O.
 09940 ff3204f1 28062160 e371e060 e162c4f8  .2..(.!`.q.`.b..
 09950 3c1284f8 283084f8 38326263 c4f84422  <...(0..82bc..D"
 09960 cdb1042d 01d90020 70bd1a46 19463046  ...-... p..F.F0F
 09970 fef748ff 6ff07043 00f5df72 2b441d01  ..H.o.pC...r+D..
 09980 02eb0313 0028eed0 19790029 ebd0525d  .....(...y.)..R]
 09990 5206e8d1 9d680022 29463046 fef732ff  R....h.")F0F..2.
 099a0 0028e0d0 b0f80b30 b3f5007f dbd1037c  .(.....0.......|
 099b0 5a1e2372 012ad6d8 417b4b1e 01292171  Z.#r.*..A{K..)!q
 099c0 63714ff0 0003a371 44d00122 52000133  cqO....qD.."R..3
 099d0 d2b2dbb2 914204d0 082bf7d1 0020a371  .....B...+... .q
 099e0 70bd1e46 a371c18a 216109b9 416a2161  p..F.q..!a..Aj!a
 099f0 c289b0f8 11302a44 63815b01 a26190f8  .....0*Dc.[..a..
 09a00 10c003f2 ff1301fb 0c2202eb 53232262  ........."..S#"b
 09a10 b0f81320 636102b9 026aed1a ab18f340  ... ca...j.....@
 09a20 5a1ce261 4ff0ff32 626240f6 f4729342  Z..aO..2bb@..r.B
 09a30 0cd94ff6 f4729342 0ad9c26a 20232262  ..O..r.B...j #"b
 09a40 0120e371 2163c4f8 401270bd 0c23f7e7  . .q!c..@.p..#..
 09a50 1023f5e7 1e46c6e7 2de9f04f 84468db0  .#...F..-..O.F..
 09a60 14461568 98460646 894603af 01934ff0  .F.h.F.F.F....O.
 09a70 000ebce8 0f000fc7 bce80f00 0fc7dcf8  ................
 09a80 00306560 3b604346 a4f80ce0 002b3fd0  .0e`;`CF.....+?.
 09a90 4ff0010a a9eb0a01 03a889b2 490101f0  O...........I...
 09aa0 7bf950b3 002103a8 01f016f8 074620b3  {.P..!.......F .
 09ab0 00250de0 fef7f8fd 80465846 fef71afe  .%.......FXF....
 09ac0 83464046 fef716fe 834516d1 0d2d18d0  .F@F.....E...-..
 09ad0 eab23946 30460135 fff77cf8 a3898346  ..9F0F.5..|....F
 09ae0 2046002b e6d1d4e9 01329342 e2d1bbfa   F.+.....2.B....
 09af0 8bf04009 0db0bde8 f08f0020 0db0bde8  ..@........ ....
 09b00 f08f0af1 010a019b 5ffa8afa 5345c1d2  ........_...SE..
 09b10 0120efe7 2de9f04f 07468db0 16469a46  . ..-..O.F...F.F
 09b20 0df10c0c 02f11504 02f12005 01914ff0  .......... ...O.
 09b30 00090fcf ace80f00 0fcface8 0f003b68  ..............;h
 09b40 ccf80030 4feac913 14f8012f 43ea5903  ...0O....../C.Y.
 09b50 a54252fa 83f35ffa 83f9f3d1 33684ff0  .BR..._.....3hO.
 09b60 00087360 a6f80c80 baf1000f 4ed00127  ..s`........N..'
 09b70 019b03a8 d91b89b2 490101f0 0df90028  ........I......(
 09b80 55d00021 03a800f0 a7ff0028 4fd0059a  U..!.......(O...
 09b90 574500f1 010b4ff0 010492f8 28304ff0  WE....O.....(0O.
 09ba0 000543f0 010382f8 28304ff0 0f030cbf  ..C.....(0O.....
 09bb0 47f04002 3a46c372 4ff00003 02700373  G.@.:F.rO....p.s
 09bc0 4ff00003 80f80d90 438306e0 abf80000  O.......C.......
 09bd0 01340135 0bf1020b e4b2b089 18b9d6e9  .4.5............
 09be0 01239a42 16d03046 fef75efd 042debb2  .#.B..0F..^..-..
 09bf0 ecd90a2b 02d8abf8 0300e9e7 0d2cabf8  ...+.........,..
 09c00 0500e5d1 0137ffb2 ba45b1d2 01200db0  .....7...E... ..
 09c10 bde8f08f b8f1000f 06d008f1 01084ff6  ..............O.
 09c20 ff705ffa 88f8e1e7 4ff00108 dee70020  .p_.....O...... 
 09c30 0db0bde8 f08f00bf 02464ff0 203152f8  .........FO. 1R.
 09c40 163b2de9 f043c0f8 16108646 84685160  .;-..C.....F.hQ`
 09c50 c2f80710 1a782e2a 14bf0120 002003d1  .....x.*... . ..
 09c60 13f8012f 2e2afbd0 611e9942 0bd90a46  .../.*..a..B...F
 09c70 02e09342 114606d0 1146013a 91f800c0  ...B.F...F.:....
 09c80 bcf12e0f f5d19c42 4ff00005 40f28680  .......BO...@...
 09c90 07260827 a946a846 06e00133 0a264ff0  .&.'.F.F...3.&O.
 09ca0 08091027 9c425bd9 1a782e2a 08bf9942  ...'.B[..x.*...B
 09cb0 f3d0222a 0dd07c2a 0bd0a2f1 5b0cbcf1  .."*..|*....[...
 09cc0 020f06d9 a2f12a0c bcf1050f 21d82d2a  ......*.....!.-*
 09cd0 1fd002f0 c002802a 5dd04e45 2fd29942  .......*].NE/..B
 09ce0 2cbf0020 01200a2e 08bf40f0 01000028  ,.. . ....@....(
 09cf0 47d09ef8 1630202b 40d09ef8 14300120  G....0 +@....0. 
 09d00 7e213122 73448ef8 15009975 da75bde8  ~!1"sD.....u.u..
 09d10 f083a2f1 3a0cbcf1 050fdad9 a2f1210c  ....:.........!.
 09d20 bcf15d0f d5d84e45 d9d3a2f1 610cbcf1  ..]...NE....a...
 09d30 190f28d8 203a3d43 d2b2edb2 01e00020  ..(. :=C....... 
 09d40 5f2209f1 010cf144 013389f8 16205ffa  _".....D.3... _.
 09d50 8cf2062a 914698bf 8ef81420 9c42a3d8  ...*.F..... .B..
 09d60 9ef81630 202b09d0 0028c6d0 18ea050f  ...0 +...(......
 09d70 18bf0225 8ef81550 bde8f083 0020bde8  ...%...P..... ..
 09d80 f0830b46 8ee7a2f1 410cbcf1 190f98bf  ...F....A.......
 09d90 47ea0808 d5e70133 002083e7 a846dfe7  G......3. ...F..
 09da0 2de9f84f 4ff06209 00250f46 0446dff8  -..OO.b..%.F.F..
 09db0 a0b04ff0 7e0a91f8 148001f1 1606b8f1  ..O.~...........
 09dc0 030fdbf8 003028bf 4ff00308 2b449db2  .....0(.O...+D..
 09dd0 08f10403 dbb205f0 0f02581e 2d09092a  ..........X.-..*
 09de0 02f13701 98bf02f1 3001fa18 c3b29175  ..7.....0......u
 09df0 9845f0d1 07eb0803 00212046 83f816a0  .E.......! F....
 09e00 00f0caff 01212046 00f066fe 03460b22  .....! F..f..F."
 09e10 30469bb1 93f800c0 1946bcf1 000f13d0  0F.......F......
 09e20 db7a1b07 eed40bf0 37ff0028 ead109f1  .z......7..(....
 09e30 ff3919f0 ff09c2d1 484603e0 6078b0fa  .9......HF..`x..
 09e40 80f04009 bde8f88f 0120bde8 f88f00bf  ..@...... ......
 09e50 e8420020 2de9f04f 2ded028b 8bb0cde9  .B. -..O-.......
 09e60 02038b68 07930b78 13f0700f 53d0029b  ...h...x..p.S...
 09e70 1b78002b 4fd11369 90469a4a 0e460c33  .x.+O..i.F.J.F.3
 09e80 a2fb0323 c3f38702 98f81530 98070492  ...#.......0....
 09e90 00f0a780 571cffb2 00233046 19461c46  ....W....#0F.F.F
 09ea0 069300f0 79ff08f1 1603a346 a146a246  ....y......F.F.F
 09eb0 08ee103a 05947569 00213046 00f00cfe  ...:..ui.!0F....
 09ec0 c5f34f15 034620b3 0278e52a 29d042b3  ..O..F ..x.*).B.
 09ed0 bc4238bf 00242e2a 2bd090f8 0bc0bcf1  .B8..$.*+.......
 09ee0 0f0f54d0 1cf0080c 23d1b9f1 000f40f0  ..T.....#.....@.
 09ef0 d5800b22 18ee101a 0bf0cefe 0028dad1  ...".........(..
 09f00 98f81530 13f00103 00f0e480 01230593  ...0.........#..
 09f10 d1e77378 83b10020 0bb0bdec 028bbde8  ..sx... ........
 09f20 f08f002c 08bfaa46 bc4201d2 0134e4b2  ...,...F.B...4..
 09f30 12b14ff0 0009bee7 039b9a05 ebd503f0  ..O.............
 09f40 0303013b 012be6d8 002c08bf aa46bc42  ...;.+...,...F.B
 09f50 03d348e0 dcb2a742 45d00021 304600f0  ..H....BE..!0F..
 09f60 bbfd631c 0028f5d1 7378002b d3d1a742  ..c..(..sx.+...B
 09f70 39d9079d 05e02b79 04eb0314 e4b2a742  9.....+y.......B
 09f80 31d93046 00f018fa 0028f4d1 c3e7b9f1  1.0F.....(......
 09f90 000f19d1 02f01f0b 04995945 8bd112f0  ..........YE....
 09fa0 400988d0 437b8946 0693bbf1 010f82d1  @...C{.F........
 09fb0 691c4b46 42463046 89b2fff7 4dfd0028  i.KFBF0F....M..(
 09fc0 08bf4ff0 000976e7 0bf1ff3b 5ffa8bfb  ..O...v....;_...
 09fd0 5a45aed1 437b069a 9342e6d0 4ff00009  ZE..C{...B..O...
 09fe0 69e70127 58e7059b 2bb14146 3046fff7  i..'X...+.AF0F..
 09ff0 d7fe0028 8fd0013f 42463046 fbb20aeb  ...(...?BF0F....
 0a000 03051f46 adb22946 fff784fd 002882d0  ...F..)F.....(..
 0a010 69013046 00f0c0fe 00283ff4 7caf0021  i.0F.....(?.|..!
 0a020 304600f0 59fd0446 00283ff4 74af2022  0F..Y..F.(?.t. "
 0a030 00210bf0 5bfed8f8 1620d8f8 1a302260  .!..[.... ...0"`
 0a040 636098f8 2030b8f8 1e20a372 228198f8  c`.. 0... .r"...
 0a050 153003f0 18032373 234b1b68 002b3bd0  .0....#s#K.h.+;.
 0a060 0df12302 0df12601 09a89847 bdf82430  ..#...&....G..$0
 0a070 2382bdf8 2630e381 9df82330 6373079a  #...&0....#0cs..
 0a080 92f82830 43f00103 82f82830 039b2a46  ..(0C.....(0..*F
 0a090 31460298 009700f0 d7fe3de7 bbf1010f  1F........=.....
 0a0a0 7ff439af 0a3001e0 13f8012f 4feacc11  ..9..0...../O...
 0a0b0 984241ea 5c0152fa 81f25ffa 82fcf3d1  .BA.\.R..._.....
 0a0c0 069b6345 7ff427af 4f46039b 19053ff5  ..cE..'.OF....?.
 0a0d0 22afdbe7 1f46f8e7 45f62123 23822383  "....F..E.!##.#.
 0a0e0 6382cce7 4fecc44e cc390020 2de9f041  c...O..N.9. -..A
 0a0f0 1f460b78 82b00c46 202b1546 03d114f8  .F.x...F +.F....
 0a100 013f202b fbd02c60 237863b3 2f2b2ad0  .? +..,`#xc./+*.
 0a110 4ff00008 294e211d 204601aa fef778fa  O...)N!. F....x.
 0a120 044670b1 019bb3f5 803f40d2 7f2b08f1  .Fp......?@..+..
 0a130 010831d8 3c2bd9b2 29d82129 05d81f29  ..1.<+..).!)...)
 0a140 09d80020 02b0bde8 f0812239 c9b226fa  ... ......"9..&.
 0a150 01f1ca07 f5d42e2b 01d0202b 1cd12378  .......+.. +..#x
 0a160 0bb12f2b d7d12b69 013bfe2b e9d82378  ../+..+i.;.+..#x
 0a170 202b03d1 14f8013f 202bfbd0 2f2bf9d0   +.....? +../+..
 0a180 28463c60 02b0bde8 f041fff7 55bd5c29  (F<`.....A..U.\)
 0a190 d7d005d9 7c29d4d0 c5f81080 ac60dee7  ....|).......`..
 0a1a0 3e390129 f8d80020 02b0bde8 f08108f1  >9.)... ........
 0a1b0 0208ac60 c5f81080 d1e700bf 01210005  ...`.........!..
 0a1c0 f0b50023 8bb00193 83789a07 24d5016a  ...#.....x..$..j
 0a1d0 054619b1 8068fff7 9bfae8b1 01212846  .F...h.......!(F
 0a1e0 00f026f9 c0b1421e 00f10a0c 0024e301  ..&...B......$..
 0a1f0 12f8011f 43ea5403 944551fa 83f3dcb2  ....C.T..EQ.....
 0a200 f5d1e526 00230670 af682b70 07f12800  ...&.#.p.h+p..(.
 0a210 ab70fef7 cbfa10b9 00200bb0 f0bd07f5  .p....... ......
 0a220 0e70fef7 c3fa0028 f6d03868 03681b6a  .p.....(..8h.h.j
 0a230 98470028 f0d0eb78 002beed0 294601a8  .G.(...x.+..)F..
 0a240 00f016fb 0028e7d0 eb78002b e4d00127  .....(...x.+...'
 0a250 21e001a8 00f040fc 7b1cf9b2 0028dbd0  !.....@.{....(..
 0a260 c27a0f2a d8d10278 5ffa83fc 9fb202f0  .z.*...x_.......
 0a270 1f038b42 d0d1437b a342cdd1 0670a968  ...B..C{.B...p.h
 0a280 91f82830 43f00103 81f82830 53060dd4  ..(0C.....(0S...
 0a290 eb786345 c0d3a988 01a8c91b 89b24901  .xcE..........I.
 0a2a0 00f07afd 00210028 d3d1b5e7 ac6804f1  ..z..!.(.....h..
 0a2b0 2800fef7 7bfa0028 aed004f5 0e70fef7  (...{..(.....p..
 0a2c0 75fa0028 a8d02068 03681b6a 9847a4e7  u..(.. h.h.j.G..
 0a2d0 70b590f9 023082b0 0446002b 0ddba568  p....0...F.+...h
 0a2e0 05f12800 fef762fa 00283bd1 63780020  ..(...b..(;.cx. 
 0a2f0 43f00103 637002b0 70bd8068 0122a169  C...cp..p..h.".i
 0a300 2830fef7 7ffa0028 f0d0a588 05f00f05  (0.....(........
 0a310 6b0100eb 4515c35c e52be7d0 23781b07  k...E..\.+..#x..
 0a320 01d5e369 eb61236a 15491a0c 6b830e68  ...i.a#j.I..k..h
 0a330 aa8266b1 0df10302 0df10601 01a8b047  ..f............G
 0a340 bdf80430 bdf80620 2b836b82 ea82a378  ...0... +.k....x
 0a350 a56803f0 7f0305f1 2800a370 fef726fa  .h......(..p..&.
 0a360 0028c3d0 05f50e70 fef720fa 0028bdd0  .(.....p.. ..(..
 0a370 28680368 1b6a9847 0028b7d0 bbe700bf  (h.h.j.G.(......
 0a380 cc390020 024638b5 52f8105f 04468068  .9. .F8.R.._.F.h
 0a390 2946fff7 4df950b1 55b12369 0135ab42  )F..M.P.U.#i.5.B
 0a3a0 a37818bf 03f0bf03 63f07f03 a37038bd  .x......c....p8.
 0a3b0 a37843f0 4003f7e7 f8b50478 14f02004  .xC.@......x.. .
 0a3c0 04d11a4b 05464269 9a4202d3 00273846  ...K.FBi.B...'8F
 0a3d0 f8bdfff7 d7ff0746 0028f7d0 a8682e69  .......F.(...h.i
 0a3e0 8279023e 41699640 0e440179 a9b12146  .y.>Ai.@.D.y..!F
 0a3f0 06e00bf0 7bfca868 e1b20279 8a420bd9  ....{..h...y.B..
 0a400 31440522 28300134 fef7fcf9 4ff40072  1D."(0.4....O..r
 0a410 00210028 edd1d9e7 82794ff4 00736969  .!.(.....yO..sii
 0a420 38469340 11fa83f3 6b61f8bd 00fe1f00  8F.@....ka......
 0a430 10b50446 80680a46 2830a169 fef7e2f9  ...F.h.F(0.i....
 0a440 20b1a388 03f00f03 00eb4310 10bd00bf   .........C.....
 0a450 10b50378 04462bb1 fff73aff 00232370  ...x.F+...:..##p
 0a460 a37010bd 00230120 2370a370 10bd00bf  .p...#. #p.p....
 0a470 38b50378 05460c46 13b1fff7 29fff0b1  8..x.F.F....)...
 0a480 a8680022 a9692830 fef7bcf9 b8b1aa88  .h.".i(0........
 0a490 02f00f02 00eb4213 52015d68 80589968  ......B.R.]h.X.h
 0a4a0 da682060 6560a160 e2601869 5d699969  .h `e`.`.`.i]i.i
 0a4b0 da692061 01206561 a161e261 38bd0020  .i a. ea.a.a8.. 
 0a4c0 38bd00bf 30b589b0 0d461446 6946fff7  8...0....F.FiF..
 0a4d0 cfff28b1 bdf81020 bdf80e30 2a802380  ..(.... ...0*.#.
 0a4e0 09b030bd 30b589b0 0d461446 6946fff7  ..0.0....F.FiF..
 0a4f0 bfff28b1 bdf81820 bdf81630 2a802380  ..(.... ...0*.#.
 0a500 09b030bd 0b7813f0 700f01d1 00207047  ..0..x..p.... pG
 0a510 f0b540f6 022389b0 0d460446 fff79afc  ..@..#...F.F....
 0a520 38b10122 10232046 a2702370 fff744ff  8..".# F.p#p..D.
 0a530 10b90020 09b0f0bd 22692378 22626bb1  ... ...."i#x"bk.
 0a540 636933b1 a3780022 23f02003 c4e90422  ci3..x."#. ...."
 0a550 a3702046 fff7bcfe 0028ead0 a0680122  .p F.....(...h."
 0a560 a1692830 fef74ef9 0028e2d0 b4f804c0  .i(0..N..(......
 0a570 10220cf0 0f0c4fea 4c1300eb 4c1c8cf8  ."....O.L...L...
 0a580 0b20c058 a768236a 97f806e0 9e1edcf8  . .X.h#j........
 0a590 0410dcf8 0820dcf8 0c3006fa 0ef6ee46  ..... ...0.....F
 0a5a0 aee80f00 dcf81000 dcf81410 dcf81820  ............... 
 0a5b0 dcf81c30 aee80f00 7b6907f1 28000122  ...0....{i..(.."
 0a5c0 f1184ff0 2033cdf8 0130cdf8 0530adf8  ..O. 3...0...0..
 0a5d0 0930fef7 17f98446 0028aad0 2e27ee46  .0.....F.(...'.F
 0a5e0 8df80070 7646bee8 0f00ccf8 0000ccf8  ...pvF..........
 0a5f0 0410ccf8 0820ccf8 0c308df8 0170bee8  ..... ...0...p..
 0a600 0f00ccf8 1000ccf8 1410ccf8 1820ccf8  ............. ..
 0a610 1c302b6a 1a0cadf8 1a30adf8 14200fce  .0+j.....0... ..
 0a620 ccf82000 ccf82410 ccf82820 ccf82c30  .. ...$...( ..,0
 0a630 0fceccf8 3000ccf8 3410ccf8 3820ccf8  ....0...4...8 ..
 0a640 3c30a468 04f12800 fef7b0f8 00283ff4  <0.h..(......(?.
 0a650 70af04f5 0e70fef7 a9f80028 3ff469af  p....p.....(?.i.
 0a660 20680368 1b6a09b0 bde8f040 184700bf   h.h.j.....@.G..
 0a670 2de9f041 002694b0 98460378 0192adf8  -..A.&...F.x....
 0a680 14600b96 002b41d1 0b780d46 13f0700f  .`...+A..x.F..p.
 0a690 3cd01378 04461646 2f2b3bd0 002728e0  <..x.F.F/+;..'(.
 0a6a0 019e3678 002e50d0 fff7d4fb 034602aa  ..6x..P......F..
 0a6b0 29462046 2bb9b8f1 000f27d0 fff722ff  )F F+.....'...".
 0a6c0 20b3a646 0df12c0c bee80f00 ace80f00   ..F..,.........
 0a6d0 bee80f00 ace80f00 def80050 20462378  ...........P F#x
 0a6e0 ccf80050 0bb1fff7 f3fd019e 0bad2770  ...P..........'p
 0a6f0 a7703146 01ab02aa 2046fff7 f7fc0646  .p1F.... F.....F
 0a700 02aa2946 00232046 002ec9d1 002014b0  ..)F.# F..... ..
 0a710 bde8f081 01360196 33782f2b fad0ad68  .....6..3x/+...h
 0a720 24220021 0ba80bf0 e1fa0d95 eb79102b  $".!.........y.+
 0a730 03d0202b 0fd00c2b e8d12023 8df82c30  .. +...+.. #..,0
 0a740 01230bad 8df82e30 a8e702aa fff7dafe  .#.....0........
 0a750 14b0bde8 f0814023 f0e700bf 2de9f041  ......@#....-..A
 0a760 002594b0 98460378 01920295 adf83850  .%...F.x......8P
 0a770 002b37d1 0b780e46 13f0700f 32d01378  .+7..x.F..p.2..x
 0a780 04461546 2f2b31d0 00271ee0 019d2d78  .F.F/+1..'....-x
 0a790 002d40d0 fff75efb a6460df1 080c08b3  .-@...^..F......
 0a7a0 66462578 bee80f00 ace80f00 bee80f00  fF%x............
 0a7b0 ace80f00 def80030 2046ccf8 00300db1  .......0 F...0..
 0a7c0 fff786fd 019d2770 a7702946 01ab0baa  ......'p.p)F....
 0a7d0 2046fff7 8bfc0546 0baa3146 00232046   F.....F..1F.# F
 0a7e0 002dd3d1 002014b0 bde8f081 01350195  .-... .......5..
 0a7f0 29782f29 fad0a9b9 b5682422 20460bf0  )x/).....h$" F..
 0a800 75faa560 eb79102b 03d0202b 22d00c2b  u..`.y.+.. +"..+
 0a810 e8d12022 1fe04346 0baafff7 1bfb14b0  .. "..CF........
 0a820 bde8f081 b6682422 002102a8 0bf05efa  .....h$".!....^.
 0a830 0496f379 102b03d0 202b03d0 0c2bd1d1  ...y.+.. +...+..
 0a840 202300e0 40238df8 08300123 02ae8df8   #..@#...0.#....
 0a850 0a3099e7 40220123 22701846 a370c2e7  .0..@".#"p.F.p..
 0a860 19b101f5 8961fff7 79bf0846 704700bf  .....a..y..FpG..
 0a870 cb6870b5 0d460446 93b90678 0eb11846  .hp..F.F...x...F
 0a880 70bd8d68 24223146 0bf030fa a560eb79  p..h$"1F..0..`.y
 0a890 102b18d0 202b10d0 0c2b14d0 304670bd  .+.. +...+..0Fp.
 0a8a0 24220021 0bf022fa 01201023 a0702370  $".!..".. .#.p#p
 0a8b0 d5e90223 a2602362 70bd4022 01232270  ...#.`#bp.@".#"p
 0a8c0 1846a370 70bd2022 f8e700bf 70b50578  .F.pp. "....p..x
 0a8d0 0db10020 70bd0e46 04462422 29460bf0  ... p..F.F$")F..
 0a8e0 05faa660 f379102b 0bd0202b 03d00c2b  ...`.y.+.. +...+
 0a8f0 07d02846 70bd4022 01232270 1846a370  ..(Fp.@".#"p.F.p
 0a900 70bd2022 f8e700bf 2de9f04f 2ded028b  p. "....-..O-...
 0a910 837883b0 0546df07 40f18c80 88460178  .x...F..@....F.x
 0a920 92460e07 00f19180 8c0608d5 83685a89  .F...........hZ.
 0a930 4369c3eb 42139bb2 9a4528bf 9a46baf1  Ci..B....E(..F..
 0a940 000f00f0 af806a69 05f11003 88065646  ......ji......VF
 0a950 4ff00009 08ee103a af68c2f3 080b3dd5  O......:.h....=.
 0a960 396a01eb 5221bbf1 000f51d1 b6f5007f  9j..R!....Q.....
 0a970 4ed37a6b 91424bd0 b6f5806f c0f08280  N.zk.BK....o....
 0a980 2878730a 800605d4 3879a0eb 09008342  (xs.....8y.....B
 0a990 28bf0346 91424fea 43240cd8 c8188242  (..F.BO.C$.....B
 0a9a0 09d207f1 2800cde9 0013fdf7 fffedde9  ....(...........
 0a9b0 00130028 3ed0f86a 02685769 4246b847  ...(>..j.hWiBF.G
 0a9c0 002837d0 6a69361b a0442244 6a6169d0  .(7.ji6..D"Djai.
 0a9d0 2978c2f3 080baf68 8806c1d4 97f80590  )x.....h........
 0a9e0 09ea5229 bbf1000f 36d1b9f1 000f33d1  ..R)....6.....3.
 0a9f0 002a33d1 4a064cbf 3a6a2a6a 2a61023a  .*3.J.L.:j*j*a.:
 0aa00 b8797969 82404944 1144bbf1 000fadd0  .yyi.@ID.D......
 0aa10 cbf50074 002207f1 2800b442 28bf3446  ...t."..(..B(.4F
 0aa20 fdf7f0fe 30b100eb 0b012246 40460af0  ....0....."F@F..
 0aa30 cffec7e7 6b784ff0 ff3043f0 02036b70  ....kxO..0C...kp
 0aa40 03b0bdec 028bbde8 f08fc369 42699b1a  ...........iBi..
 0aa50 9a4528bf 9a4672e7 2a69d0e7 0b0705d5  .E(..Fr.*i......
 0aa60 aa785406 02d52a69 0132c7e7 18ee102a  .xT...*i.2.....*
 0aa70 38462969 fef72afe 0028dbdb 0cd0af68  8F)i..*..(.....h
 0aa80 2a69bce7 f86a4246 03681b69 98470028  *i...jBF.h.i.G.(
 0aa90 d0d04ff4 007495e7 2b7813f0 700fc9d0  ..O..t..+x..p...
 0aaa0 aaeb060a 504603b0 bdec028b bde8f08f  ....PF..........
 0aab0 70b582b0 01220446 0df10701 d0e90456  p....".F.......V
 0aac0 fff722ff 01280cbf 9df80700 4ff0ff30  .."..(......O..0
 0aad0 c4e90456 02b070bd 436913f4 f07f30b5  ...V..p.Ci....0.
 0aae0 044683b0 c3f34315 09d00129 07d12033  .F....C....).. 3
 0aaf0 4361a068 383000eb 451003b0 30bd0122  Ca.h80..E...0.."
 0ab00 0df10701 2046fff7 fffe40b2 012803d1  .... F....@..(..
 0ab10 63691f33 6361ece7 0020eee7 2de9f041  ci.3ca... ..-..A
 0ab20 03789ab0 002613f0 180f0896 119606d0  .x...&..........
 0ab30 17468368 8a680446 0d469a42 03d00020  .F.h.h.F.F.B... 
 0ab40 1ab0bde8 f081fff7 c3fba646 0df1440c  ...........F..D.
 0ab50 bee80f00 ace80f00 bee80f00 ace80f00  ................
 0ab60 def80030 3246a169 ccf80030 a36803f1  ...02F.i...0.h..
 0ab70 2800fdf7 47fe0028 e1d0a288 ec4694f8  (...G..(.....F..
 0ab80 008002f0 0f0200eb 421e5201 def80410  ........B.R.....
 0ab90 8058def8 0c30def8 0820ace8 0f00def8  .X...0... ......
 0aba0 1410def8 1820def8 1c30def8 1000ace8  ..... ...0......
 0abb0 0f0018f0 08033a46 294640f0 9b8008a8  ......:F)F@.....
 0abc0 fff756fd 0028bad0 109ebdf8 24300025  ..V..(......$0.%
 0abd0 0e990122 a3809df8 2330a068 e3700b9b  ..."....#0.h.p..
 0abe0 2830a161 e3608df8 20508df8 2250fdf7  (0.a.`.. P.."P..
 0abf0 09fe0028 a3d0a388 03f00f03 00eb4310  ...(..........C.
 0ac00 ddf80d30 c0f80d30 ddf81130 c0f81130  ...0...0...0...0
 0ac10 ddf81530 c0f81530 ddf81930 c0f81930  ...0...0...0...0
 0ac20 bdf81d30 a0f81d30 9df81f30 c3779df8  ...0...0...0.w..
 0ac30 0b30c372 002e3bd0 a068b31e 2a468179  .0.r..;..h..*F.y
 0ac40 28308b40 50f8141c 1944fdf7 dbfd0546  (0.@P....D.....F
 0ac50 00283ff4 74af006a 6f46696a aa6aeb6a  .(?.t..joFij.j.j
 0ac60 0fc7286b 696baa6b eb6b0fc7 3146a068  ..(kik.k.k..1F.h
 0ac70 fef74efd 00283ff4 62afa068 236a8279  ..N..(?.b..h#j.y
 0ac80 2830023b 50f8141c 93400122 1944fdf7  (0.;P....@.".D..
 0ac90 b9fd0646 00283ff4 52af6d46 0fcd3062  ...F.(?.R.mF..0b
 0aca0 7162b262 f3620fcd 30637163 b263f363  qb.b.b..0cqc.c.c
 0acb0 00210222 082311a8 19918df8 46208df8  .!.".#......F ..
 0acc0 4430fff7 7dfa0028 3ff439af a46804f1  D0..}..(?.9..h..
 0acd0 2800fdf7 6bfd0028 3ff431af 04f50e70  (...k..(?.1....p
 0ace0 fdf764fd 00283ff4 2aaf2068 03681b6a  ..d..(?.*. h.h.j
 0acf0 984725e7 40f60123 6046fff7 2ffd0028  .G%.@..#`F../..(
 0ad00 7ff463af 1be700bf 0378da06 01d40020  ..c......x..... 
 0ad10 70474369 30b50446 83b033b1 83780022  pGCi0..F..3..x."
 0ad20 23f02003 c0e90422 83700023 0fe06361  #. ....".p.#..ca
 0ad30 a3686a01 38339a5c 03eb4513 eab1e52a  .hj.83.\..E....*
 0ad40 04d02e2a 02d0db7a 1b0722d5 636913f4  ...*...z..".ci..
 0ad50 f07fc3f3 431503f1 2003e8d1 01220df1  ....C... ...."..
 0ad60 07012046 fff7d0fd 40b20128 03d16369  .. F....@..(..ci
 0ad70 1f336361 dce76378 5bb9a378 08222046  .3ca..cx[..x." F
 0ad80 43f00203 2270a370 03b0bde8 3040fff7  C..."p.p....0@..
 0ad90 17ba0020 03b030bd 2de9f041 03780446  ... ..0.-..A.x.F
 0ada0 0769002b 39d00d46 4169a942 42d0002d  .i.+9..FAi.BB..-
 0adb0 37d01807 2ad5e269 aa422ed3 d4f808c0  7...*..i.B......
 0adc0 6e1ea278 9cf80600 12f0400f 00f10900  n..x......@.....
 0add0 c0b226fa 00f630d1 4a1ec240 09b19642  ..&...0.J..@...B
 0ade0 2fd25b06 4cbfdcf8 2030236a 236104f1  /.[.L... 0#j#a..
 0adf0 100806e0 2169013e a068fef7 67fc0028  ....!i.>.h..g..(
 0ae00 0bdd4246 002ef5d1 a2780ce0 9a06d5d5  ..BF.....x......
 0ae10 a3685b89 b5eb431f f6d90020 2761bde8  .h[...C.... 'a..
 0ae20 f0818278 056122f0 20020120 6561a270  ...x.a". .. ea.p
 0ae30 bde8f081 0120bde8 f081236a 33442361  ..... ....#j3D#a
 0ae40 f1e7b61a d3e700bf 2de9f041 0e461546  ........-..A.F.F
 0ae50 00212422 04469846 9df81870 0af046ff  .!$".F.F...p..F.
 0ae60 b068336a 00f13802 a58005f0 0f0502eb  .h3j..8.........
 0ae70 4512c4e9 0203d17a 0b0711d4 01f01701  E......z........
 0ae80 2170d37a 13f0180f 02d141f0 08012170  !p.z......A...!p
 0ae90 08f00303 e770012b 38d0022b 06d0f3b1  .....p.+8..+....
 0aea0 00231846 2370a370 bde8f081 03232178  .#.F#p.p.....#!x
 0aeb0 cd06f5d4 ce07f3d4 08f00801 18f4806f  ...............o
 0aec0 43ea0103 a370416b 958aa161 518b41ea  C....pAk...aQ.A.
 0aed0 054112d0 19bb63f0 7f03a370 10e018f4  .A....c....p....
 0aee0 806fddd1 08f00803 43f00103 a370416b  .o......C....pAk
 0aef0 938aa161 518b41ea 03412162 d369e361  ...aQ.A..A!b.i.a
 0af00 18f4804f 04d10120 bde8f081 0223cee7  ...O... .....#..
 0af10 e1692046 fff740ff 0028f4d1 c0e7fef7  .i F..@..(......
 0af20 f7fb0028 bcd0a378 d5e700bf 0378002b  ...(...x.....x.+
 0af30 45d12de9 f0470b78 84b00c46 13f0700f  E.-..G.x...F..p.
 0af40 30d04b69 13f01f05 2cd10646 9046a946  0.Ki....,..F.F.F
 0af50 01220df1 0f012046 c3f3431a 5f09fff7  .".... F..C._...
 0af60 d3fc40b2 4fea4a12 01281bd1 6369a168  ..@.O.J..(..ci.h
 0af70 1f3301f1 380c6361 1cf80220 0ceb4a1c  .3..8.ca... ..J.
 0af80 82b12e2a 12d0a2f1 e500b0fa 80f04009  ...*..........@.
 0af90 60b99cf8 0b1011f0 080e12d0 0f2907d0  `............)..
 0afa0 0546d5e7 002004b0 bde8f087 0025cfe7  .F... .......%..
 0afb0 5106cdd5 02f01f05 9cf80d90 c8e70020  Q.............. 
 0afc0 704785b1 0cf10a01 01e01cf8 012f4fea  pG.........../O.
 0afd0 ce136145 43ea5e03 52fa83f3 5ffa83fe  ..aEC.^.R..._...
 0afe0 f3d1ce45 ded14346 bab22146 30460095  ...E..CF..!F0F..
 0aff0 fff72aff d7e700bf 03780bb1 fff768b9  ..*......x....h.
 0b000 01207047 2de9f047 0e460178 82b00907  . pG-..G.F.x....
 0b010 9df82870 9df82c90 9df830a0 9df83480  ..(p..,...0...4.
 0b020 18d5a2f2 bc7294b2 7f2c13d8 5a1e0193  .....r...,..Z...
 0b030 0b2a0fd8 7a1e1e2a 0cd8baf1 3b0f98bf  .*..z..*....;...
 0b040 b9f1170f 06d8b8f1 3b0f03d8 0546fff7  ........;....F..
 0b050 3ff918b9 002002b0 bde8f087 a8680122  ?.... .......h."
 0b060 a9692830 fdf7cefb 0028f3d0 019b4fea  .i(0.....(....O.
 0b070 5802a988 47ea4313 f70701f0 0f0142ea  X...G.C.......B.
 0b080 4a1243ea 442300eb 41109bb2 42eac922  J.C.D#..A...B.."
 0b090 48bf4382 b40792b2 08d518f0 01080382  H.C.............
 0b0a0 c28118bf 4ff06408 80f80d80 710701d5  ....O.d.....q...
 0b0b0 0383c282 ac6804f1 2800fdf7 77fb0028  .....h..(...w..(
 0b0c0 c8d004f5 0e70fdf7 71fb0028 c2d02068  .....p..q..(.. h
 0b0d0 03681b6a 02b0bde8 f0471847 83789b07  .h.j.....G.G.x..
 0b0e0 27d5036a 10b50446 82b0abb1 016911bb  '..j...F.....i..
 0b0f0 01930162 1946a068 fef70afb b0b1a378  ...b.F.h.......x
 0b100 616963f0 7f032278 e161a370 22b12046  aic..."x.a.p". F
 0b110 fff7def8 02b010bd 012002b0 10bd6ff0  ......... ....o.
 0b120 70422169 a068fef7 e3fa68b9 002002b0  pB!i.h....h.. ..
 0b130 10bd0020 70470023 01aa8068 0193fef7  ... pG.#...h....
 0b140 c5fa0028 f2dbead1 019b002b d7d0d1e7  ...(.......+....
 0b150 2de9f047 83780546 9c0777d5 88461907  -..G.x.F..w..F..
 0b160 914600f1 b5806b69 13eb0902 6ed2b9f1  .F....ki....n...
 0b170 000f40d0 4f464ff0 000aa868 c3f30806  ..@.OFO....h....
 0b180 29694479 14ea5324 3fd1002e 3dd10029  )iDy..S$?...=..)
 0b190 6ed0aa78 520676d5 ea699a42 73d90131  n..xR.v..i.Bs..1
 0b1a0 29610239 82794369 91401944 b7f5007f  )a.9.yCi.@.D....
 0b1b0 53d3b7f5 806f70d3 03797a0a 1b1b9342  S....op..yz....B
 0b1c0 28bf1346 426b8a42 4fea4324 07d35e18  (..FBk.BO.C$..^.
 0b1d0 b24204d2 4ff0ff32 80f828a0 4263c06a  .B..O..2..(.Bc.j
 0b1e0 42460668 b66ab047 80b36b69 3f1ba044  BF.h.j.G..ki?..D
 0b1f0 23446b61 c1d1ea69 9a4276d2 aa784846  #Dka...i.Bv..xHF
 0b200 eb6162f0 7f03ab70 25e08279 02394369  .ab....p%..y.9Ci
 0b210 91401944 2144002e c8d0c6f5 00740122  .@.D!D.......t."
 0b220 bc4228bf 3c462830 fdf7ecfa 70b13044  .B(.<F(0....p.0D
 0b230 26442246 41460af0 cbfab6f5 007fa868  &D"FAF.........h
 0b240 d3d12830 fdf7b2fa 0028ced1 6b780020  ..(0.....(..kx. 
 0b250 43f00103 6b70bde8 f087c6f5 00746a69  C...kp.......tji
 0b260 eb69bc42 28bf3c46 9a4205d3 0522dae7  .i.B(.<F.B..."..
 0b270 296a21b3 296194e7 ab7813f0 200f14bf  )j!.)a...x.. ...
 0b280 05220122 cfe705f1 1002fef7 1ffa0028  ."."...........(
 0b290 dcdb24d0 a8682969 83e7436b 8b4204d1  ..$..h)i..Ck.B..
 0b2a0 4ff0ff33 80f828a0 4363c06a 42460368  O..3..(.Cc.jBF.h
 0b2b0 5b6a9847 0028c9d0 4ff40074 95e72846  [j.G.(..O..t..(F
 0b2c0 fff760f8 0028c1d0 2969a868 296268e7  ..`..(..)i.h)bh.
 0b2d0 c169fff7 61fd0028 7ff445af b6e72846  .i..a..(..E...(F
 0b2e0 fff750f8 0028d5d1 b0e7054b 1b682bb1  ..P..(.....K.h+.
 0b2f0 ab784846 63f07f03 ab70ace7 4846aae7  .xHFc....p..HF..
 0b300 cc390020 08b50346 53f8040b 93e80600  .9. ...FS.......
 0b310 fdf7a4f8 08bd00bf 84b00df1 100c0ce9  ................
 0b320 0e000246 23b11846 136004b0 f4f7cabf  ...F#..F.`......
 0b330 024b1846 136004b0 f4f7c4bf 4c340020  .K.F.`......L4. 
 0b340 0268d37c 13b3d807 04d5906a 4ff0e021  .h.|.......jO..!
 0b350 c1f80001 990704d5 d06a4ff0 e021c1f8  .........jO..!..
 0b360 04015807 04d5106b 4ff0e021 c1f80801  ..X....kO..!....
 0b370 190704d5 506b4ff0 e021c1f8 0c01db06  ....PkO..!......
 0b380 04d5926b 4ff0e023 c3f81021 704700bf  ...kO..#...!pG..
 0b390 0068f5f7 b5b800bf 0268ff23 12685366  .h.......h.#.hSf
 0b3a0 d36d13f4 f81ffbd0 506fc0b2 704700bf  .m......Po..pG..
 0b3b0 30b50c46 83b00546 ff212046 01920af0  0..F...F.! F....
 0b3c0 95fc2868 019b2246 2146f5f7 95f80020  ..(h.."F!F..... 
 0b3d0 03b030bd 03681a68 5166d36d 13f4f81f  ..0..h.hQf.m....
 0b3e0 fbd0536f 704700bf 531eb3f5 007f30b5  ..SopG..S.....0.
 0b3f0 1446adf5 017d0546 11d36ab1 0368481e  .F...}.F..j..hH.
 0b400 19688218 10f8013f 4b66cb6d 13f4f81f  .h.....?Kf.m....
 0b410 fbd09042 4b6ff5d1 0df5017d 30bd6846  ...BKo.....}0.hF
 0b420 0af0d6f9 6a462346 28681146 f5f764f8  ....jF#F(h.F..d.
 0b430 0df5017d 30bd00bf 012105f0 11ba00bf  ...}0....!......
 0b440 05f0d2b9 00207047 00207047 00207047  ..... pG. pG. pG
 0b450 704700bf 084b0021 084a0948 10b49963  pG...K.!.J.H...c
 0b460 1c6b1460 12685df8 044b1a63 9a6c22f0  .k.`.h]..K.c.l".
 0b470 81029a64 01707047 00002c40 c8390020  ...d.ppG..,@.9. 
 0b480 7a430020 034b586a 80f08070 c0f30060  zC. .KXj...p...`
 0b490 704700bf 00002c40 014b1878 704700bf  pG....,@.K.xpG..
 0b4a0 7a430020 2b4a2c4b 526ad3f8 00312b49  zC. +J,KRj...1+I
 0b4b0 c2f3c222 03f03f03 013270b5 284c4ff4  ..."..?..2p.(LO.
 0b4c0 7a75a4fb 034305fb 00f09b08 b1fbf3fe  zu...C..........
 0b4d0 befbf2fe b0eb1e1f 35d20123 1e465b00  ........5..#.F[.
 0b4e0 1a01befb f2f28242 01d9ff2b f6d9befb  .......B...+....
 0b4f0 f3f23602 90422ad2 4fea430c 012200e0  ..6..B*.O.C.."..
 0b500 a4461546 03eb0c04 0132befb fcf18142  .F.F.....2.....B
 0b510 17d9102a f4d1f025 4ff47a73 1149124a  ...*...%O.zs.I.J
 0b520 03fb0cfc befbfcf3 0b60104b d16a0b40  .........`.K.j.@
 0b530 2b433343 43f46023 d362536a 1b07fcd5  +C3CC.`#.bSj....
 0b540 70bd2d01 e8e77246 00260123 d2e79c46  p.-...rF.&.#...F
 0b550 0025e1e7 00c00f40 00800d40 00ec695e  .%.....@...@..i^
 0b560 abaaaaaa fc380020 00002c40 0f00f0ff  .....8. ..,@....
 0b570 014b1878 704700bf 7c240020 014b1868  .K.xpG..|$. .K.h
 0b580 704700bf c8390020 10b4074c 8c460fcc  pG...9. ...L.F..
 0b590 ccf80000 0120ccf8 0410ccf8 0820ccf8  ..... ....... ..
 0b5a0 0c305df8 044b7047 9c390020 10b4074c  .0]..KpG.9. ...L
 0b5b0 8c460fcc ccf80000 0120ccf8 0410ccf8  .F....... ......
 0b5c0 0820ccf8 0c305df8 044b7047 ac390020  . ...0]..KpG.9. 
 0b5d0 024b0120 1b680b60 704700bf bc390020  .K. .h.`pG...9. 
 0b5e0 704700bf 10b50446 0c2107f0 ddf82046  pG.....F.!.... F
 0b5f0 10bd00bf 044b1b78 23b1044b 18780230  .....K.x#..K.x.0
 0b600 c0b27047 01207047 77430020 78430020  ..pG. pGwC. xC. 
 0b610 184b1a78 12f0c002 0fd0402a 01d00020  .K.x......@*... 
 0b620 7047587a da79197a 013002f0 3f0300eb  pGXz.y.z.0..?...
 0b630 034000eb 01208002 70475a7a 9979d879  .@... ..pGZz.y.y
 0b640 02f00302 93f808c0 01f00301 80005200  ..............R.
 0b650 40ea8120 00b593f8 0ae040ea 9c105b79  @.. ......@...[y
 0b660 42eade12 013003f0 0f031344 073b9840  B....0.....D.;.@
 0b670 5df804fb ac390020 2de9f041 08f046fa  ]....9. -..A..F.
 0b680 174e184d 0746dff8 748004e0 08f03efa  .N.M.F..t.....>.
 0b690 c01b4045 1bd8346b 2c40f7d0 124a0021  ..@E..4k,@...J.!
 0b6a0 124b1170 326b1a60 1968114a 31631b68  .K.p2k.`.h.J1c.h
 0b6b0 134209d0 0f491f24 0f4b40f2 7a220020  .B...I.$.K@.z". 
 0b6c0 0c701a60 bde8f081 0120bde8 f081064a  .p.`..... .....J
 0b6d0 064b1470 326b1a60 1b683363 eae700bf  .K.p2k.`.h3c....
 0b6e0 00002c40 02007f11 79430020 c8390020  ..,@....yC. .9. 
 0b6f0 00007f11 7c240020 20390020 40420f00  ....|$.  9. @B..
 0b700 2de9f843 264c0f46 2378002b 38d1254b  -..C&L.F#x.+8.%K
 0b710 5a6ad205 2bd5234d dff89480 ab6a43f4  Zj..+.#M.....jC.
 0b720 8033ab62 08f0f2f9 064604e0 08f0eef9  .3.b.....F......
 0b730 801b4045 2ad86b6a 13f48069 f6d007f1  ..@E*.kj...i....
 0b740 3c0c1848 07f50f77 436a5b05 fcd5acf1  <..H...wCj[.....
 0b750 400353f8 042f9c45 0262fad1 0cf1400c  @.S../.E.b....@.
 0b760 bc45f1d1 01231846 2370bde8 f8839a6a  .E...#.F#p.....j
 0b770 22f48032 9a629a6a 42f40032 9a62cae7  "..2.b.jB..2.b..
 0b780 fff77aff 0028c2d1 bde8f883 06492124  ..z..(.......I!$
 0b790 064b40f2 d9324846 0c701a60 bde8f883  .K@..2HF.p.`....
 0b7a0 79430020 00002c40 7c240020 20390020  yC. ..,@|$.  9. 
 0b7b0 40420f00 2de9f041 07468846 1f4c08f0  @B..-..A.F.F.L..
 0b7c0 a5f91f4e 054604e0 08f0a0f9 431bb342  ...N.F......C..B
 0b7d0 24d8636a d907f7d4 bb02c4f8 088020d4  $.cj.......... .
 0b7e0 27f0ff03 154c174e e36008f0 8ff9144f  '....L.N.`.....O
 0b7f0 054604e0 08f08af9 401bb842 0ed8236b  .F......@..B..#k
 0b800 3342f7d0 226b104b 1a601a68 22631a68  3B.."k.K.`.h"c.h
 0b810 d20703d5 1b6813f4 702f0bd0 0020bde8  .....h..p/... ..
 0b820 f081a26c fbb222f0 ff02a264 a26c1343  ...l.."....d.l.C
 0b830 a364d5e7 0120bde8 f08100bf 00002c40  .d... ........,@
 0b840 40420f00 01000f00 c8390020 154b30b5  @B.......9. .K0.
 0b850 0d4685b0 1968fff7 adff08b3 124b05f1  .F...h.......K..
 0b860 0f041a69 00925969 01919969 0291db69  ...i..Yi...i...i
 0b870 03930023 01e05ef8 102c03f0 030c0133  ...#..^..,.....3
 0b880 4feacc0c 23f0030e 0f2b22fa 0cf20ef1  O...#....+".....
 0b890 100104f8 012d0deb 010eecd1 0023eb73  .....-.......#.s
 0b8a0 05b030bd c0390020 00002c40 10b5037a  ..0..9. ..,@...z
 0b8b0 db0705d5 154b1b68 b3b1bde8 10401847  .....K.h.....@.G
 0b8c0 134b1b78 3bb9134b 5c6a84f0 8074c4f3  .K.x;..K\j...t..
 0b8d0 00642046 10bd0f4b 0f4c1b6b 1c40b4fa  .d F...K.L.k.@..
 0b8e0 84f46409 204610bd 0c4b1c78 002cf0d0  ..d. F...K.x.,..
 0b8f0 0b4b0c48 1968fff7 5dff0028 e9d0054b  .K.H.h..]..(...K
 0b900 1c6984f4 8074c4f3 0024e2e7 c4390020  .i...t...$...9. 
 0b910 79430020 00002c40 02007f11 76430020  yC. ..,@....vC. 
 0b920 c0390020 00001a0d 08b5044b 04481968  .9. .......K.H.h
 0b930 fff740ff 08b1034b 186908bd c0390020  ..@....K.i...9. 
 0b940 00001a0d 00002c40 08b5074b 07481968  ......,@...K.H.h
 0b950 fff730ff 30b1064b 186980f4 8070c0f3  ..0.0..K.i...p..
 0b960 002008bd 012008bd c0390020 00001a0d  . ... ...9. ....
 0b970 00002c40 2de9f047 294b8946 dff8c0a0  ..,@-..G)K.F....
 0b980 284ecaf8 003008f0 c1f8274d 0446dff8  (N...0....'M.F..
 0b990 b480264f 06e008f0 b9f8001b b84229d8  ..&O.........B).
 0b9a0 06f07cfa 31682846 fff704ff 0028f2d0  ..|.1h(F.....(..
 0b9b0 d8f81030 db05eed5 00234ff4 0072caf8  ...0.....#O..r..
 0b9c0 0030d8f8 283023f4 8033c8f8 2830184b  .0..(0#..3..(0.K
 0b9d0 c8f80420 1b78cbb1 49461648 fff7eafe  ... .x..IF.H....
 0b9e0 30b91549 0e24154b 4ff48762 0c701a60  0..I.$.KO..b.p.`
 0b9f0 bde8f087 104a0a21 0020104b 117040f2  .....J.!. .K.p@.
 0ba00 2c42caf8 00001a60 bde8f087 4fea4929  ,B.....`....O.I)
 0ba10 08484946 fff7cefe 0028e9d1 e1e700bf  .HIF.....(......
 0ba20 49b90000 c0390020 00001a0d 40420f00  I....9. ....@B..
 0ba30 78430020 20003a19 7c240020 20390020  xC.  .:.|$.  9. 
 0ba40 c4390020 00002c40 2de9f041 254c0021  .9. ..,@-..A%L.!
 0ba50 2548a36a 23f48033 a362fff7 abfe0546  %H.j#..3.b.....F
 0ba60 48b92249 0920224b 40f23d22 08701a60  H."I. "K@.=".p.`
 0ba70 2846bde8 f0811f4b dff88080 c8f80030  (F.....K.......0
 0ba80 08f044f8 636a0646 d80118d4 1a4f04e0  ..D.cj.F.....O..
 0ba90 06f004fa 636ad901 11d408f0 37f8831b  ....cj......7...
 0baa0 bb42f5d9 114a0a21 0025114b 11704ff4  .B...J.!.%.K.pO.
 0bab0 10722846 c8f80050 1a60bde8 f0810022  .r(F...P.`....."
 0bac0 084bc8f8 00205a6a 9207d1d5 586b9a6a  .K... Zj....Xk.j
 0bad0 d96a22f4 803241f0 8061d962 58639a62  .j"..2A..a.bXc.b
 0bae0 c6e700bf 00002c40 0000db0c 7c240020  ......,@....|$. 
 0baf0 20390020 85b40000 40420f00 c4390020   9. ....@B...9. 
 0bb00 2de9f047 82468946 364e07f0 ffff364d  -..G.F.F6N....6M
 0bb10 0446dff8 0081354f 04e007f0 f7ff031b  .F....5O........
 0bb20 bb4227d8 31682846 fff744fe 0028f4d0  .B'.1h(F..D..(..
 0bb30 d8f81030 da05f0d5 01232d4d 2d4f5146  ...0.....#-M-OQF
 0bb40 2b700023 2c483b60 2c4bc8f8 0090c8f8  +p.#,H;`,K......
 0bb50 04302b4b c8f83830 fff72cfe 0446a0b9  .0+K..80..,..F..
 0bb60 28490420 284b40f2 9f120870 20461a60  (I. (K@....p F.`
 0bb70 bde8f087 23490a20 234b4ff4 cc720024  ....#I. #KO..r.$
 0bb80 08701a60 2046bde8 f087204b dff88890  .p.` F.... K....
 0bb90 c9f80030 07f0baff 2b780646 bbb1dff8  ...0....+x.F....
 0bba0 4c8003e0 06f07af9 2b7883b1 07f0aeff  L.....z.+x......
 0bbb0 831b4345 f6d90023 c9f80030 11492520  ..CE...#...0.I% 
 0bbc0 114b4ff4 d1720024 08701a60 dae73b68  .KO..r.$.p.`..;h
 0bbd0 00229b07 c9f80020 f0d53a68 0c4b1a42  ."..... ..:h.K.B
 0bbe0 d0d0ebe7 c0390020 00001a0d 40420f00  .....9. ....@B..
 0bbf0 7a430020 c8390020 11003a06 40000100  zC. .9. ..:.@...
 0bc00 02007f11 7c240020 20390020 99b40000  ....|$.  9. ....
 0bc10 00007f11 00002c40 c4390020 2de9f041  ......,@.9. -..A
 0bc20 324d1446 ab7a13f0 400012d1 03f03f03  2M.F.z..@.....?.
 0bc30 ea7a5b00 43ead213 621c0a43 134208d0  .z[.C...b..C.B..
 0bc40 2b492724 2b4b40f2 e3220c70 1a60bde8  +I'$+K@..".p.`..
 0bc50 f081294b 1b780bb9 49026402 2748fff7  ..)K.x..I.d.'H..
 0bc60 a9fd40b9 22490f24 224b40f2 eb220c70  ..@."I.$"K@..".p
 0bc70 1a60bde8 f0812146 2148fff7 9bfd40b9  .`....!F!H....@.
 0bc80 1b491024 1b4b40f2 ee220c70 1a60bde8  .I.$.K@..".p.`..
 0bc90 f0810021 1b48fff7 8dfd38b9 14491124  ...!.H....8..I.$
 0bca0 144b40f2 f1220c70 1a60e2e7 07f02eff  .K@..".p.`......
 0bcb0 154e164d 0446dff8 5c80154f 31682846  .N.M.F..\..O1h(F
 0bcc0 fff778fd 18b1d8f8 1030db05 d1d407f0  ..x......0......
 0bcd0 1dff001b b842f1d9 05492824 054b4ff4  .....B...I($.KO.
 0bce0 3d720020 0c701a60 c3e700bf ac390020  =r. .p.`.....9. 
 0bcf0 7c240020 20390020 78430020 00001a20  |$.  9. xC. ... 
 0bd00 00001a21 00001b26 c0390020 00001a0d  ...!...&.9. ....
 0bd10 40420f00 00002c40 2de9f04f 12f00304  @B....,@-..O....
 0bd20 83b018bf 01240190 0093002b 08bf44f0  .....$.....+..D.
 0bd30 01045cb1 40492520 404b40f2 f5120024  ..\.@I% @K@....$
 0bd40 08701a60 204603b0 bde8f08f 3c4b1546  .p.` F......<K.F
 0bd50 3c4a0e46 dff80c91 136007f0 d7fedff8  <J.F.....`......
 0bd60 08810746 dff804b1 dff8f0a0 06e007f0  ...F............
 0bd70 cdfec01b 504544d8 06f090f8 d9f80010  ....PED.........
 0bd80 4046fff7 17fd0028 f1d0dbf8 1030da05  @F.....(.....0..
 0bd90 edd5009a 2c4b2b49 03ea0243 00222b4f  ....,K+I...C."+O
 0bda0 0a6043f4 00730121 dff8c480 3970c8f8  .`C..s.!....9p..
 0bdb0 0020cbf8 0050cbf8 0430254b cbf83830  . ...P...0%K..80
 0bdc0 244b1b78 43b33146 0198fff7 f3fc8146  $K.xC.1F.......F
 0bdd0 0028b7d0 204b1b4a 136007f0 97fe3b78  .(.. K.J.`....;x
 0bde0 0546dbb1 1d4e03e0 06f058f8 3b78abb1  .F...N....X.;x..
 0bdf0 07f08cfe 401bb042 f6d90023 114a1360  ....@..B...#.J.`
 0be00 a0e70d4b 0a220021 0e481a70 4ff4fc72  ...K.".!.H.pO..r
 0be10 0a4b0160 1a6095e7 7602d4e7 0023094a  .K.`.`..v....#.J
 0be20 1360d8f8 00309b07 8cd5d8f8 00200c4b  .`...0....... .K
 0be30 1a4208bf 4c4685e7 7c240020 20390020  .B..LF..|$.  9. 
 0be40 49b90000 c4390020 0000ff1f 7a430020  I....9. ....zC. 
 0be50 02007f11 78430020 99b40000 40420f00  ....xC. ....@B..
 0be60 00007f11 c0390020 00001a0d 00002c40  .....9. ......,@
 0be70 c8390020 f8b50646 007a0c46 1546c007  .9. ...F.z.F.F..
 0be80 1f4613d4 83b10f44 01e0bc42 0cd03368  .F.....D...B..3h
 0be90 2a462146 30461b69 013405f5 00759847  *F!F0F.i.4...u.G
 0bea0 0028f2d1 0020f8bd 0120f8bd 900712d0  .(... ... ......
 0beb0 002bf9d0 0f4401e0 bc42f5d0 33682a46  .+...D...B..3h*F
 0bec0 21463046 1b690134 05f50075 98470028  !F0F.i.4...u.G.(
 0bed0 f2d10020 e7e70648 fff71eff 0028e3d1  ... ...H.....(..
 0bee0 04490c24 044b40f2 82320c70 1a60f8bd  .I.$.K@..2.p.`..
 0bef0 37003a12 7c240020 20390020 f8b50646  7.:.|$.  9. ...F
 0bf00 007a0c46 1546c007 1f4613d4 83b10f44  .z.F.F...F.....D
 0bf10 01e0bc42 0cd03368 2a462146 30465b6a  ...B..3h*F!F0F[j
 0bf20 013405f5 00759847 0028f2d1 0020f8bd  .4...u.G.(... ..
 0bf30 0120f8bd 900712d0 002bf9d0 0f4401e0  . .......+...D..
 0bf40 bc42f5d0 33682a46 21463046 5b6a0134  .B..3h*F!F0F[j.4
 0bf50 05f50075 98470028 f2d10020 e7e70648  ...u.G.(... ...H
 0bf60 fff7dafe 0028e3d1 04490e24 044b40f2  .....(...I.$.K@.
 0bf70 1e420c70 1a60f8bd 27003a19 7c240020  .B.p.`..'.:.|$. 
 0bf80 20390020 2de9f04f a84b0022 dff8fc82   9. -..O.K."....
 0bf90 91b0a74d a74fa84e 2a704272 88f80020  ...M.O.N*pBr... 
 0bfa0 3a703270 d3f80021 01720521 42f08002  :p2p...!.r.!B...
 0bfb0 dff8a092 c3f80021 d3f80021 22f03f02  .......!...!".?.
 0bfc0 c3f80021 d3f80021 42f01802 c3f80021  ...!...!B......!
 0bfd0 d3f80021 22f08002 c3f80021 03f51033  ...!"......!...3
 0bfe0 964ad3f8 800040f0 0c00c3f8 8000586a  .J....@.......Xj
 0bff0 20f46050 5862d869 40f48030 d861586a   .`PXb.i@..0.aXj
 0c000 40f40060 5862c2f8 cc11c2f8 d011c2f8  @..`Xb..........
 0c010 bc11c2f8 c011c2f8 c411c2f8 c811d9f8  ................
 0c020 4820874b 42f00042 c9f84820 d9f82c20  H .KB..B..H .., 
 0c030 1343c9f8 2c30d9f8 2c4014f0 8074fad1  .C..,0..,@...t..
 0c040 4ff4c870 fff72efa 7c4b47f2 b80241f2  O..p....|KG...A.
 0c050 b801c3f8 cc41c3f8 d041c3f8 bc41c3f8  .....A...A...A..
 0c060 c041c3f8 c441c3f8 c841c3f8 bc23c3f8  .A...A...A...#..
 0c070 c023c3f8 ac23c3f8 b013c3f8 b423c3f8  .#...#.......#..
 0c080 b823704b 704ac9f8 3430704b c3f8f821  .#pKpJ..40pK...!
 0c090 6f4b6022 83f86e20 4ff0e023 4ff48042  oK`"..n O..#O..B
 0c0a0 c3f80c21 d9f82c30 43f00063 c9f82c30  ...!..,0C..c..,0
 0c0b0 684bd96a 11f00061 fbd10846 fff77afb  hK.j...a...F..z.
 0c0c0 044648b9 0121644b 40f28e22 29701a60  .FH..!dK@..")p.`
 0c0d0 204611b0 bde8f08f 0324dff8 b4914ff4   F.......$....O.
 0c0e0 d5714846 fff766fb 002844d1 013cf6d1  .qHF..f..(D..<..
 0c0f0 32785a4b 002a14bf 9a464ff4 401a07f0  2xZK.*...FO.@...
 0c100 05fd574e 0446dff8 8cb1dff8 8c910021  ..WN.F.........!
 0c110 3046fff7 4ffb50b9 00241721 4e4b40f2  0F..O.P..$.!NK@.
 0c120 9f222046 29701a60 11b0bde8 f08f5146  ." F)p.`......QF
 0c130 5846fff7 3ffb0028 eed007f0 e7fc001b  XF..?..(........
 0c140 444b4845 e8d81a69 002ae0da 1969454a  DKHE...i.*...iEJ
 0c150 11601b69 5a0001d5 01233b70 00214248  .`.iZ....#;p.!BH
 0c160 fff728fb 0446c0b9 02213b4b 4ff42a72  ..(..F...!;KO.*r
 0c170 29701a60 ace7374b 1b69b3f5 d57f07d0  )p.`..7K.i......
 0c180 0621354b 4ff42572 00242970 1a609fe7  .!5KO.%r.$)p.`..
 0c190 0123dff8 c8a03370 b1e70021 3348fff7  .#....3p...!3H..
 0c1a0 09fb0446 30b90321 2b4b40f2 ab222970  ...F0..!+K@..")p
 0c1b0 1a608de7 274e2e4b 32692e4f 13402e49  .`..'N.K2i.O.@.I
 0c1c0 2e483b60 fff742fb 044630b9 0721224b  .H;`..B..F0..!"K
 0c1d0 4ff42c72 29701a60 7ae72949 2948fff7  O.,r)p.`z.)I)H..
 0c1e0 35fb0446 30b90821 1b4b40f2 b3222970  5..F0..!.K@..")p
 0c1f0 1a606de7 39682448 fff7dcfa 044630b9  .`m.9h$H.....F0.
 0c200 0521154b 40f2b622 29701a60 60e73968  .!.K@..")p.``.9h
 0c210 1348fff7 cffa0028 40d11421 0e4b40f2  .H.....(@..!.K@.
 0c220 ba220024 29701a60 52e700bf 00800d40  .".$)p.`R......@
 0c230 7c240020 78430020 77430020 00801f40  |$. xC. wC. ...@
 0c240 00800001 0b007f11 55b40000 00280020  ........U....(. 
 0c250 00e400e0 00002c40 20390020 00003040  ......,@ 9. ..0@
 0c260 00001a37 bc390020 00000902 00001a03  ...7.9. ........
 0c270 0000ffff c0390020 ac390020 00000909  .....9. .9. ....
 0c280 9c390020 0000090a 00001b07 76430020  .9. ........vC. 
 0c290 00001a08 00000229 40420f00 02212e48  .......)@B...!.H
 0c2a0 fff788fa 04460028 b7d0b36a 4ff01012  .....F.(...jO...
 0c2b0 6ff07f40 694623f0 0603b362 b36a43f0  o..@iF#....b.jC.
 0c2c0 0203b362 7264fff7 1bfc18b1 9df80d30  ...brd.........0
 0c2d0 9b0732d4 46f2a810 204d0523 c5f8cc31  ..2.F... M.#...1
 0c2e0 c5f8d031 c5f8bc31 c5f8c031 c5f8c431  ...1...1...1...1
 0c2f0 c5f8c831 fff7d6f8 002347f2 b802c5f8  ...1.....#G.....
 0c300 cc31c5f8 d031c5f8 bc31c5f8 c031c5f8  .1...1...1...1..
 0c310 c431c5f8 c83141f2 b803c5f8 bc23c5f8  .1...1A......#..
 0c320 c023c5f8 ac23c5f8 b0330123 c5f8b423  .#...#...3.#...#
 0c330 c5f8b823 88f80030 cae66946 0848fff7  ...#...0..iF.H..
 0c340 dffb0028 c6d09df8 103003f0 0f03012b  ...(.....0.....+
 0c350 c0d14cf2 5030bfe7 00001a06 00801f40  ..L.P0.........@
 0c360 f1ffff80 374b5a6a 92052de9 f0410f46  ....7KZj..-..A.F
 0c370 0dd49a6a 22f48032 9a6272b6 9a6a42f4  ...j"..2.br..jB.
 0c380 00329a62 9a6a42f4 80329a62 62b607f0  .2.b.jB..2.bb...
 0c390 bdfb2c4e dff8c480 054604e0 07f0b6fb  ..,N.....F......
 0c3a0 431b4345 37d8746a 14f40064 f6d007f1  C.CE7.tj...d....
 0c3b0 3c0c2448 07f50f77 436a1b05 fcd5acf1  <.$H...wCj......
 0c3c0 4003026a 43f8042f 9c45fad1 0cf1400c  @..jC../.E....@.
 0c3d0 6745f1d1 07f09afb 1a4f1b4d 0646dff8  gE.......O.M.F..
 0c3e0 7c8004e0 07f092fb 831b4345 1dd83c6b  |.........CE..<k
 0c3f0 2c40f7d0 3b6b154a 13601368 3b631368  ,@..;k.J.`.h;c.h
 0c400 13f00203 1bd01268 114b1a42 0cbf0120  .......h.K.B... 
 0c410 0020bde8 f0810f49 1a250f4b 40f23732  . .....I.%.K@.72
 0c420 20460d70 1a60bde8 f0810a49 1d250a4b   F.p.`.....I.%.K
 0c430 40f24232 20460d70 1a60bde8 f0811846  @.B2 F.p.`.....F
 0c440 bde8f081 00002c40 02007f11 c8390020  ......,@.....9. 
 0c450 00007f11 7c240020 20390020 40420f00  ....|$.  9. @B..
 0c460 2de9f047 294b8946 dff8c0a0 284ecaf8  -..G)K.F....(N..
 0c470 003007f0 4bfb274d 0446dff8 b480264f  .0..K.'M.F....&O
 0c480 06e007f0 43fb001b b84229d8 05f006fd  ....C....B).....
 0c490 31682846 fff78ef9 0028f2d0 d8f81030  1h(F.....(.....0
 0c4a0 db05eed5 00234ff4 0072caf8 0030d8f8  .....#O..r...0..
 0c4b0 283043f4 8033c8f8 2830184b c8f80420  (0C..3..(0.K... 
 0c4c0 1b78cbb1 49461648 fff774f9 30b91549  .x..IF.H..t.0..I
 0c4d0 0c24154b 40f29e32 0c701a60 bde8f087  .$.K@..2.p.`....
 0c4e0 104a0a21 0020104b 117040f2 9232caf8  .J.!. .K.p@..2..
 0c4f0 00001a60 bde8f087 4fea4929 08484946  ...`....O.I).HIF
 0c500 fff758f9 0028e9d1 e1e700bf 49b90000  ..X..(......I...
 0c510 c0390020 00001a0d 40420f00 78430020  .9. ....@B..xC. 
 0c520 30003a12 7c240020 20390020 c4390020  0.:.|$.  9. .9. 
 0c530 00002c40 2de9f041 00221d4c 0d464272  ..,@-..A.".L.FBr
 0c540 1146a36a 1b4823f4 8033a362 fff732f9  .F.j.H#..3.b..2.
 0c550 40b91949 0924194b 4ff46d72 0c701a60  @..I.$.KO.mr.p.`
 0c560 bde8f081 002dfbd0 154b164e 336007f0  .....-...K.N3`..
 0c570 cdfa636a 0746da01 16d4dff8 4c8004e0  ..cj.F......L...
 0c580 05f08cfc 636adb01 0ed407f0 bffac01b  ....cj..........
 0c590 4045f5d9 084a0a21 0020084b 11704ff4  @E...J.!. .K.pO.
 0c5a0 6e723060 1a60dbe7 00232846 3360d7e7  nr0`.`...#(F3`..
 0c5b0 00002c40 0000db0c 7c240020 20390020  ..,@....|$.  9. 
 0c5c0 85b40000 c4390020 40420f00 0a4b1b78  .....9. @B...K.x
 0c5d0 10b50446 1bb9637a 43b90120 10bdfff7  ...F..czC.. ....
 0c5e0 4bf80028 fad0637a 002bf6d0 20460121  K..(..cz.+.. F.!
 0c5f0 bde81040 fff79ebf 79430020 2de9f041  ...@....yC. -..A
 0c600 0446007a adf5007d 164610f0 010513d0  .F.z...}.F......
 0c610 93073cd0 01233848 6a46fff7 7dfb0028  ..<..#8HjF..}..(
 0c620 3ad04ff4 00726946 304609f0 d1f82846  :.O..riF0F....(F
 0c630 0df5007d bde8f081 dff8cc80 0f4698f8  ...}.........F..
 0c640 0030002b 35d1637a 012b39d0 22682b49  .0.+5.cz.+9."h+I
 0c650 126a8a42 4ad198f8 0020002a 34d1002b  .j.BJ.... .*4..+
 0c660 39d13946 2046fff7 fbfee8b1 01236760  9.9F F.......#g`
 0c670 63723146 2046fff7 75fea8b1 63680546  cr1F F..u...ch.F
 0c680 01332846 63600df5 007dbde8 f0810123  .3(Fc`...}.....#
 0c690 1948fff7 41fb38b9 19490b20 194b40f2  .H..A.8..I. .K@.
 0c6a0 55320025 08701a60 28460df5 007dbde8  U2.%.p.`(F...}..
 0c6b0 f081fef7 e1ff0028 f6d0637a 012bc5d1  .......(..cz.+..
 0c6c0 6268ba42 c2d1d4e7 fef7d6ff 0028ebd0  bh.B.........(..
 0c6d0 637a002b c5d00121 2046fff7 2bff0028  cz.+...! F..+..(
 0c6e0 bfd12846 0df5007d bde8f081 20469047  ..(F...}.... F.G
 0c6f0 0028f6d0 b5e700bf 11003a11 cdc50000  .(........:.....
 0c700 7c240020 20390020 79430020 2de9f041  |$.  9. yC. -..A
 0c710 047aadf5 007d0f46 904614f0 01041dd0  .z...}.F.F......
 0c720 12f0030f 06d06846 11464ff4 00728046  ......hF.FO..r.F
 0c730 09f04ef8 01234246 39462c48 fff7ecfa  ..N..#BF9F,H....
 0c740 044630b9 2a490d20 2a4b40f2 f2320870  .F0.*I. *K@..2.p
 0c750 1a602046 0df5007d bde8f081 264d0646  .` F...}....&M.F
 0c760 2b782bbb 737a022b 29d03268 2349126a  +x+.sz.+).2h#I.j
 0c770 8a4236d1 2a7832bb 002b2bd1 33683946  .B6.*x2..++.3h9F
 0c780 30461b6e 98470028 e3d00223 77607372  0F.n.G.(...#w`sr
 0c790 33684146 3046db6d 98470028 d9d07368  3hAF0F.m.G.(..sh
 0c7a0 04460133 20467360 0df5007d bde8f081  .F.3 Fs`...}....
 0c7b0 fef762ff 0028ccd0 737a022b d5d17268  ..b..(..sz.+..rh
 0c7c0 ba42d2d1 e4e7fef7 57ff0028 c1d0737a  .B......W..(..sz
 0c7d0 002bd3d0 01213046 fff7acfe 0028b8d0  .+...!0F.....(..
 0c7e0 cce73046 90470028 b3d0c7e7 01003a18  ..0F.G.(......:.
 0c7f0 7c240020 20390020 79430020 cdc50000  |$.  9. yC. ....
 0c800 4ff0ff30 704700bf 407c7047 007d7047  O..0pG..@|pG.}pG
 0c810 407d7047 01207047 007f7047 2de9f047  @}pG. pG..pG-..G
 0c820 1e46c37c 05460c46 022b9146 089f28d0  .F.|.F.F.+.F..(.
 0c830 2b682146 28461b6e 984798b1 ac61b9f1  +h!F(F.n.G...a..
 0c840 000f12d0 04eb0908 01e0a045 0dd03946  ...........E..9F
 0c850 2046b047 2b680146 2846db6d 01349847   F.G+h.F(F.m.4.G
 0c860 0028f2d1 0020bde8 f087ab69 287f4b44  .(... .....i(.KD
 0c870 ab610028 f7d12b68 28465b6e bde8f047  .a.(..+h(F[n...G
 0c880 18478369 8b42d3d1 d9e700bf 704700bf  .G.i.B......pG..
 0c890 0430fef7 7dbd00bf 10b50446 202105f0  .0..}......F !..
 0c8a0 83ff2046 10bd00bf 2de9f041 1f46c37c  .. F....-..A.F.|
 0c8b0 05460e46 022b1446 24d02b68 31462846  .F.F.+.F$.+h1F(F
 0c8c0 1b6e9847 78b1ae61 87b10026 01e0b742  .n.Gx..a...&...B
 0c8d0 0cd02a68 21462846 0136d26d 04f50074  ..*h!F(F.6.m...t
 0c8e0 90470028 f3d10020 bde8f081 ab69287f  .G.(... .....i(.
 0c8f0 3b44ab61 0028f7d1 2b682846 5b6ebde8  ;D.a.(..+h(F[n..
 0c900 f0411847 83698b42 d7d1dde7 2de9f041  .A.G.i.B....-..A
 0c910 204e0746 00f10408 356805f5 1675adb2   N.F....5h...u..
 0c920 03e03368 eb1a1b04 10d44046 fef734fd  ..3h......@F..4.
 0c930 ff280446 f5d1fd21 4046fef7 4bfdbb7c  .(.F...!@F..K..|
 0c940 cbb90023 0120fb74 bde8f081 1e23b87c  ...#. .t.....#.|
 0c950 7b740028 f8d0387c 0121fef7 71fdff21  {t.(..8|.!..q..!
 0c960 4046fef7 37fd4046 fef7eafc 00231846  @F..7.@F.....#.F
 0c970 bb74bde8 f0810121 387cfef7 61fd2146  .t.....!8|..a.!F
 0c980 4046fef7 27fd4046 fef7dafc 0023bb74  @F..'.@F.....#.t
 0c990 d7e700bf e8420020 2de9f041 c37c012b  .....B. -..A.|.+
 0c9a0 35d0867c 04464eb1 0430fef7 f5fcb0f1  5..|.FN..0......
 0c9b0 ff0518bf 01252846 bde8f081 071d4ff0  .....%(F......O.
 0c9c0 01083846 fef79efc 3146207c fef738fd  ..8F....1F |..8.
 0c9d0 ff213846 fef7fefc 384684f8 1280fef7  .!8F....8F......
 0c9e0 dbfca37c b0f1ff05 18bf0125 002be2d0  ...|.......%.+..
 0c9f0 4146207c fef724fd ff213846 fef7eafc  AF |..$..!8F....
 0ca00 3846fef7 9dfc2846 a674bde8 f0810025  8F....(F.t.....%
 0ca10 2846bde8 f08100bf 2de9f843 204f0446  (F......-..C O.F
 0ca20 88469146 3d68061d 05f59675 adb203e0  .F.F=h.....u....
 0ca30 3b68eb1a 1b040dd4 3046fef7 adfcff28  ;h......0F.....(
 0ca40 2075f5d0 fe281ad0 1823a07c 637430b9   u...(...#.|ct0.
 0ca50 bde8f883 1d23a07c 63740028 f8d0207c  .....#.|ct.(.. |
 0ca60 0121fef7 edfcff21 3046fef7 b3fc3046  .!.....!0F....0F
 0ca70 fef766fc 00231846 a374bde8 f8834a46  ..f..#.F.t....JF
 0ca80 41463046 fef794fc 207538b9 3046fef7  AF0F.... u8.0F..
 0ca90 83fc3046 fef780fc 0120d9e7 2523d4e7  ..0F..... ..%#..
 0caa0 e8420020 f0b50027 83b00c21 04463a46  .B. ...'...!.F:F
 0cab0 c77400f0 5bf8b0b9 a67c1eb9 01263046  .t..[....|...&0F
 0cac0 03b0f0bd 05460121 207cfef7 b9fc201d  .....F.! |.... .
 0cad0 ff210190 fef77efc 0198fef7 31fc3046  .!....~.....1.0F
 0cae0 a57403b0 f0bd0923 a67c6374 002ee6d0  .t.....#.|ct....
 0caf0 251d207c 01213e46 fef7a2fc ff212846  %. |.!>F.....!(F
 0cb00 fef768fc 2846fef7 1bfc3046 a77403b0  ..h.(F....0F.t..
 0cb10 f0bd00bf c27c022a 03d0012a 04d00120  .....|.*...*... 
 0cb20 70470368 5b6e1847 fff7bcbf 38b50368  pG.h[n.G....8..h
 0cb30 0d460d49 04461a6a 8a420cd1 c27c022a  .F.I.F.j.B...|.*
 0cb40 04d0012a 0bd00120 257738bd 5b6e9847  ...*... %w8.[n.G
 0cb50 0028f8d1 38bd9047 0028fbd0 f3e7fff7  .(..8..G.(......
 0cb60 a1ff0028 f6d0eee7 15cb0000 2de9f041  ...(........-..A
 0cb70 036882b0 0f463549 01920646 1a6a8a42  .h...F5I...F.j.B
 0cb80 5ed1c27c 022a41d0 012a5bd0 b47c002c  ^..|.*A..*[..|.,
 0cb90 47d0351d 0c2f11d0 dff8b480 d8f80040  G.5../.........@
 0cba0 04f59674 a4b204e0 d8f80030 e31a1a04  ...t.......0....
 0cbb0 34d42846 fef7f0fb ff28f5d1 0df10408  4.(F.....(......
 0cbc0 02ac47f0 40012846 fef704fc 14f8011d  ..G.@.(F........
 0cbd0 2846fef7 fffba045 f8d1002f 28464ff0  (F.....E.../(FO.
 0cbe0 0a040cbf 95218721 fef7f4fb 2846fef7  .....!.!....(F..
 0cbf0 d3fb2846 013cfef7 cffb0306 a4b23075  ..(F.<........0u
 0cc00 01d5002c f5d102b0 bde8f081 5b6e9847  ...,........[n.G
 0cc10 0028bbd1 ff2002b0 bde8f081 002fcdd0  .(... ......./..
 0cc20 f8e7351d 2846fef7 6dfb2146 307cfef7  ..5.(F..m.!F0|..
 0cc30 07fcff21 2846fef7 cdfb0123 b374a9e7  ...!(F.....#.t..
 0cc40 9047e5e7 fff72eff e2e700bf 15cb0000  .G..............
 0cc50 e8420020 2de9f047 88b00546 4ff00008  .B. -..G...FO...
 0cc60 174601ac 2e1d85f8 128085f8 118085f8  .F..............
 0cc70 158084e8 0e009df8 04002874 fef7dcfb  ..........(t....
 0cc80 0121287c fef7dcfb 6c490723 c5e90213  .!(|....lI.#....
 0cc90 94e80700 05ab83e8 07003046 0ecbfef7  ..........0F....
 0cca0 3bfbac7c 85f81380 002c67d0 0a240121  ;..|.....,g..$.!
 0ccb0 287cfef7 c5fbff21 3046fef7 8bfb611e  (|.....!0F....a.
 0ccc0 11f0ff04 f7d12146 0a24287c fef7b8fb  ......!F.$(|....
 0ccd0 00222846 1146fff7 49ff0128 04f1ff33  ."(F.F..I..(...3
 0cce0 04460ad0 13f0ff04 f2d10123 a87c6b74  .F.........#.|kt
 0ccf0 002851d1 08b0bde8 f0874ff4 d5720821  .(Q.......O..r.!
 0cd00 2846fff7 33ff4207 57d56c75 2b68dff8  (F..3.B.W.lu+h..
 0cd10 30a19b6d 534561d1 687da0f1 0204dff8  0..mSEa.h}......
 0cd20 2491b4fa 84f4d9f8 00306409 03f5fa68  $........0d....h
 0cd30 a4071ffa 88f805e0 d9f80030 a8eb0303  ...........0....
 0cd40 1b0449d4 37210022 2846fff7 0fff2246  ..I.7!."(F...."F
 0cd50 29212846 fff70aff 0028edd1 2b689b6d  )!(F.....(..+h.m
 0cd60 534565d1 687d0228 49d0ab7c cbbb0723  SEe.h}.(I..|...#
 0cd70 0120c5e9 027308b0 bde8f087 3046fef7  . ...s......0F..
 0cd80 c1fa2146 287cfef7 5bfbff21 3046fef7  ..!F(|..[..!0F..
 0cd90 21fb0123 ab7489e7 287c0121 fef750fb  !..#.t..(|.!..P.
 0cda0 ff213046 fef716fb 3046fef7 c9fa0023  .!0F....0F.....#
 0cdb0 1846ab74 08b0bde8 f0870223 04246b75  .F.t.......#.$ku
 0cdc0 3046fef7 e9fa631e 287513f0 ff04f7d1  0F....c.(u......
 0cdd0 aa289bd0 062389e7 172387e7 28469847  .(...#...#..(F.G
 0cde0 9be70121 287cfef7 2bfbff21 3046fef7  ...!(|..+..!0F..
 0cdf0 f1fa3046 fef7a4fa 0023ab74 b7e70022  ..0F.....#.t..."
 0ce00 3a212846 fff7b2fe a8b93046 fef7c4fa  :!(F......0F....
 0ce10 00f0c000 c02801d1 03236b75 3046fef7  .....(...#ku0F..
 0ce20 bbfa3046 fef7b8fa 3046fef7 b5fa9ce7  ..0F....0F......
 0ce30 28469847 97e71223 58e700bf 801a0600  (F.G...#X.......
 0ce40 11c80000 e8420020 f8b50022 0d463a21  .....B. ...".F:!
 0ce50 0646fff7 8bfee0b9 371d2c1d 3846fef7  .F......7.,.8F..
 0ce60 9bfa04f8 010da542 f8d1b47c 14b90124  .......B...|...$
 0ce70 2046f8bd 307c0121 fef7e2fa ff213846   F..0|.!.....!8F
 0ce80 fef7a8fa 3846fef7 5bfa0023 2046b374  ....8F..[..# F.t
 0ce90 f8bd1223 b47c7374 002ce9d0 341d307c  ...#.|st.,..4.0|
 0cea0 0121fef7 cdfaff21 2046fef7 93fa2046  .!.....! F.... F
 0ceb0 fef746fa 00231c46 b3742046 f8bd00bf  ..F..#.F.t F....
 0cec0 70b51646 82b00022 0446fff7 4ffeb0b1  p..F...".F..O...
 0ced0 1b236374 a07c08b9 02b070bd 251d207c  .#ct.|....p.%. |
 0cee0 0121fef7 adfaff21 2846fef7 73fa2846  .!.....!(F..s.(F
 0cef0 fef726fa 00231846 a37402b0 70bd0546  ..&..#.F.t..p..F
 0cf00 10223146 2046fff7 87fd0028 e2d0a67c  ."1F F.....(...|
 0cf10 002ee1d0 207c0121 fef792fa 201dff21  .... |.!.... ..!
 0cf20 0190fef7 57fa0198 fef70afa 3046a574  ....W.......0F.t
 0cf30 02b070bd 0368254a db6c9342 00b585b0  ..p..h%J.l.B....
 0cf40 0fd16a46 0921fff7 bbff38b1 9df80030  ..jF.!....8....0
 0cf50 13f0c003 08d0402b 27d00020 05b05df8  ......@+'.. ..].
 0cf60 04fb6946 9847f0e7 9df80930 9df80a20  ..iF.G.....0... 
 0cf70 03f00303 9df80610 9df80700 5b0001f0  ............[...
 0cf80 03018000 9df808c0 43ead213 9df80520  ........C...... 
 0cf90 40ea8120 02f00f02 40ea9c10 13440130  @.. ....@....D.0
 0cfa0 073b9840 05b05df8 04fb9df8 09009df8  .;.@..].........
 0cfb0 07300130 9df80820 03f03f03 00eb0340  .0.0... ..?....@
 0cfc0 00eb0220 800205b0 5df804fb f1d20000  ... ....].......
 0cfd0 03680a46 30b59b6d 83b0164d 0446ab42  .h.F0..m...M.F.B
 0cfe0 24d1407d 03284ff0 12012046 18bf5202  $.@}.(O... F..R.
 0cff0 fff7bcfd 20b90123 1846e374 03b030bd  .... ..#.F.t..0.
 0d000 0c23a07c 63740028 f8d0251d 207c0121  .#.|ct.(..%. |.!
 0d010 fef716fa ff212846 fef7dcf9 2846fef7  .....!(F....(F..
 0d020 8ff90023 1846a374 03b030bd 01919847  ...#.F.t..0....G
 0d030 019ad7e7 11c80000 f8b51446 c27c0646  ...........F.|.F
 0d040 0d46012a 1f4602d1 83698b42 05d02946  .F.*.F...i.B..)F
 0d050 3046fff7 bdff80b1 b56187b1 002501e0  0F.......a...%..
 0d060 af420cd0 21464ff4 00723046 013504f5  .B..!FO..r0F.5..
 0d070 0074fff7 d1fc0028 f2d10020 f8bdb369  .t.....(... ...i
 0d080 307f3b44 b3610028 f8d13046 bde8f840  0.;D.a.(..0F...@
 0d090 fff708bd 2de9f84f 9b46c37c 06460c46  ....-..O.F.|.F.F
 0d0a0 012b1546 ddf82890 ddf82c80 02d18369  .+.F..(...,....i
 0d0b0 8b4205d0 21463046 fff78aff b0b1b461  .B..!F0F.......a
 0d0c0 bbf1000f 15d004eb 0b0a02e0 c847a245  .............G.E
 0d0d0 0fd04ff4 00722946 3046fff7 9dfc0746  ..O..r)F0F.....F
 0d0e0 42462046 29460134 002fefd1 0020bde8  BF F)F.4./... ..
 0d0f0 f88fb369 307f5b44 b3610028 f7d13046  ...i0.[D.a.(..0F
 0d100 bde8f84f fff7cebc 03682de9 f0415f69  ...O.....h-..A_i
 0d110 164b9f42 1fd1c37c 04460d46 1646012b  .K.B...|.F.F.F.+
 0d120 02d18369 994205d0 29462046 fff750ff  ...i.B..)F F..P.
 0d130 70b1a561 4ff40072 31462046 fff76cfc  p..aO..r1F F..l.
 0d140 30b1a369 207f0133 a36148b1 bde8f081  0..i ..3.aH.....
 0d150 0020bde8 f081bc46 0123bde8 f0416047  . .....F.#...A`G
 0d160 2046bde8 f041fff7 9dbc00bf 39d00000   F...A......9...
 0d170 03680a46 30b59b6d 83b0164d 0446ab42  .h.F0..m...M.F.B
 0d180 24d1407d 03284ff0 19012046 18bf5202  $.@}.(O... F..R.
 0d190 fff7ecfc 20b90223 0120e374 03b030bd  .... ..#. .t..0.
 0d1a0 0e23a07c 63740028 f8d0251d 207c0121  .#.|ct.(..%. |.!
 0d1b0 fef746f9 ff212846 fef70cf9 2846fef7  ..F..!(F....(F..
 0d1c0 bff80023 1846a374 03b030bd 01919847  ...#.F.t..0....G
 0d1d0 019ad7e7 11c80000 03682de9 f043db6c  .........h-..C.l
 0d1e0 1746414a 85b00446 0e469342 45d16a46  .FAJ...F.F.BE.jF
 0d1f0 0921fff7 65fe0546 b5b19df8 0a305a06  .!..e..F.....0Z.
 0d200 18d5637d 032b01d0 76027f02 32462021  ..c}.+..v...2F !
 0d210 2046fff7 abfc28b9 3a462121 2046fff7   F....(.:F!! F..
 0d220 a5fc70b3 26236374 a57c9db9 284605b0  ..p.&#ct.|..(F..
 0d230 bde8f083 03f03f03 9df80b20 5b0043ea  ......?.... [.C.
 0d240 d2137a1c 32431342 dbd02723 a57c6374  ..z.2C.B..'#.|ct
 0d250 002debd0 251d207c 0121fef7 f1f8ff21  .-..%. |.!.....!
 0d260 2846fef7 b7f82846 fef76af8 00231d46  (F....(F..j..#.F
 0d270 a3742846 05b0bde8 f0836946 98470546  .t(F......iF.G.F
 0d280 bae70246 26212046 fff770fc 0028c9d1  ...F&! F..p..(..
 0d290 dff85880 42f21077 04f10409 d8f80030  ..X.B..w.......0
 0d2a0 1f44bfb2 04e0d8f8 0030fb1a 1b0417d4  .D.......0......
 0d2b0 4846fef7 71f8ff28 0646f4d1 a37c002b  HF..q..(.F...|.+
 0d2c0 b4d00121 207c1d46 fef7baf8 31464846  ...! |.F....1FHF
 0d2d0 fef780f8 4846fef7 33f80023 a374a5e7  ....HF..3..#.t..
 0d2e0 28236374 a0e700bf f1d20000 e8420020  (#ct.........B. 
 0d2f0 70b50022 82b00e46 09210446 fff736fc  p.."...F.!.F..6.
 0d300 b0b11b23 6374a07c 08b902b0 70bd251d  ...#ct.|....p.%.
 0d310 207c0121 fef794f8 ff212846 fef75af8   |.!.....!(F..Z.
 0d320 2846fef7 0df80023 1846a374 02b070bd  (F.....#.F.t..p.
 0d330 05461022 31462046 fff76efb 0028e2d0  .F."1F F..n..(..
 0d340 a67c002e e1d0207c 0121fef7 79f8201d  .|.... |.!..y. .
 0d350 ff210190 fef73ef8 0198fdf7 f1ff3046  .!....>.......0F
 0d360 a57402b0 70bd00bf 70b50022 82b00e46  .t..p...p.."...F
 0d370 0a210446 fff7fafb b0b11b23 6374a07c  .!.F.......#ct.|
 0d380 08b902b0 70bd251d 207c0121 fef758f8  ....p.%. |.!..X.
 0d390 ff212846 fef71ef8 2846fdf7 d1ff0023  .!(F....(F.....#
 0d3a0 1846a374 02b070bd 05461022 31462046  .F.t..p..F."1F F
 0d3b0 fff732fb 0028e2d0 a67c002e e1d0207c  ..2..(...|.... |
 0d3c0 0121fef7 3df8201d ff210190 fef702f8  .!..=. ..!......
 0d3d0 0198fdf7 b5ff3046 a57402b0 70bd00bf  ......0F.t..p...
 0d3e0 70b5051d 16460446 2846fdf7 f3ff4ff4  p....F.F(F....O.
 0d3f0 00723146 2846fdf7 f7ffff21 2846fdf7  .r1F(F.....!(F..
 0d400 e9ffff21 2846fdf7 e5ff2846 fdf7c4ff  ...!(F....(F....
 0d410 00f01f03 2075052b 04d02023 a07c6374  .... u.+.. #.|ct
 0d420 10b970bd 012070bd 207c0121 fef708f8  ..p.. p. |.!....
 0d430 ff212846 fdf7ceff 2846fdf7 81ff0023  .!(F....(F.....#
 0d440 1846a374 70bd00bf 2de9f041 174d0646  .F.tp...-..A.M.F
 0d450 0f4600f1 04082c68 04f51674 a4b203e0  .F....,h...t....
 0d460 2b68e31a 1b040cd4 4046fdf7 95ffff28  +h......@F.....(
 0d470 f6d13a46 fc213046 fff7b2ff 18b1bde8  ..:F.!0F........
 0d480 f0812423 7374b07c 0028f8d0 307c0121  ..$#st.|.(..0|.!
 0d490 fdf7d6ff ff214046 fdf79cff 4046fdf7  .....!@F....@F..
 0d4a0 4fff0023 1846b374 bde8f081 e8420020  O..#.F.t.....B. 
 0d4b0 036870b5 9b6d1646 224a82b0 04460d46  .hp..m.F"J...F.F
 0d4c0 93423cd1 407d0328 4ff01801 204618bf  .B<.@}.(O... F..
 0d4d0 6d022a46 fff74afb 0546b0b1 0d236374  m.*F..J..F...#ct
 0d4e0 a07c08b9 02b070bd 251d207c 0121fdf7  .|....p.%. |.!..
 0d4f0 a7ffff21 2846fdf7 6dff2846 fdf720ff  ...!(F..m.(F.. .
 0d500 00231846 a37402b0 70bd3246 fe212046  .#.F.t..p.2F.! F
 0d510 fff766ff 0028e3d0 a67c002e e2d0207c  ..f..(...|.... |
 0d520 0121fdf7 8dff201d ff210190 fdf752ff  .!.... ..!....R.
 0d530 0198fdf7 05ff3046 a57402b0 70bd9847  ......0F.t..p..G
 0d540 c1e700bf 11c80000 10b4047f 34b10468  ............4..h
 0d550 0123a46a a4465df8 044b6047 5df8044b  .#.j.F]..K`G]..K
 0d560 fff7a6bf 10b584b0 04460df1 040c8ce8  .........F......
 0d570 0e009ce8 0e00fff7 6dfb20b1 9df80530  ........m. ....0
 0d580 03f00103 237704b0 10bd00bf 70b500f1  ....#w......p...
 0d590 240384b0 8c460446 01ad1646 93e80700  $....F.F...F....
 0d5a0 85e80700 4fea4c12 2946206a 01f0c4fe  ....O.L.)F j....
 0d5b0 012806d1 32462946 206a01f0 a1fe04b0  .(..2F)F j......
 0d5c0 70bd0020 04b070bd 10b50446 00f07cfe  p.. ..p....F..|.
 0d5d0 002384f8 313084f8 333010bd 38b51446  .#..10..30..8..F
 0d5e0 0d460022 00f12401 006a01f0 89fe0346  .F."..$..j.....F
 0d5f0 20b14289 01202a80 1b892380 38bd00bf   .B.. *...#.8...
 0d600 38b51446 0d460022 00f12401 006a01f0  8..F.F."..$..j..
 0d610 77fe0346 20b1c289 01202a80 9b892380  w..F .... *...#.
 0d620 38bd00bf 38b50d46 90f83110 09b10020  8...8..F..1.... 
 0d630 38bd3822 044608f0 59fb0123 40222562  8.8".F..Y..#@"%b
 0d640 184684f8 333084f8 312038bd f0b40d46  .F..30..1 8....F
 0d650 09782029 03d115f8 014f202c fbd01560  .x ).....O ,...`
 0d660 95602c78 2f2c11d0 84b16e1c 3c2c1d4f  .`,x/,....n.<,.O
 0d670 35462ad8 212c12d8 04f1ff3c bcf11e0f  5F*.!,.....<....
 0d680 16d80020 f0bc7047 15f8014f 202cfbd0  ... ..pG...O ,..
 0d690 2f2cf9d0 1d601146 f0bc00f0 6fbca4f1  /,...`.F....o...
 0d6a0 220c5ffa 8cfc27fa 0cfc1cf0 010fe8d1  "._...'.........
 0d6b0 2e2c01d0 202c0dd1 16f8014b 002ce5d0  .,.. ,.....K.,..
 0d6c0 2f2ce3d0 3c2c3546 d4d95c2c d9d003d9  /,..<,5F..\,....
 0d6d0 7c2cd6d0 9660efe7 3e3c012c fad80020  |,...`..><.,... 
 0d6e0 f0bc7047 01210005 2de9f04f 90f83330  ..pG.!..-..O..30
 0d6f0 83b00546 dc0774d5 58060f46 904640f1  ...F..t.X..F.F@.
 0d700 b080d5e9 0023d5e9 041018eb 020443f1  .....#........C.
 0d710 0003a142 70eb0303 c0f0a980 b8f1000f  ...Bp...........
 0d720 5bd04646 05f11809 d5e90032 d5f820a0  [.FF.......2.. .
 0d730 daf83844 1c40c4f3 080b002c 70d11343  ..8D.@.....,p..C
 0d740 70d195f8 31305a06 4cbfdaf8 3424ea69  p...10Z.L...4$.i
 0d750 aa619af8 4504023a daf82c14 630a8240  .a..E..:..,.c..@
 0d760 01eb5421 1144bbf1 000f45d1 b6f5007f  ..T!.D....E.....
 0d770 42d3daf8 1c229142 3ed0b6f5 806f58d3  B....".B>....oX.
 0d780 4ff0010b 0bfa00fb abeb030b 730a9b45  O...........s..E
 0d790 28bf9b46 91424fea 4b240ad8 01eb0b03  (..F.BO.K$......
 0d7a0 9a4206d2 0af50470 0191faf7 ffff0199  .B.....p........
 0d7b0 b8b1daf8 14025b46 0268d2f8 14a03a46  ......[F.h....:F
 0d7c0 d04770b1 23462744 d5e90012 5b1842f1  .Gp.#F'D....[.B.
 0d7d0 0002361b c5e90032 a8d14046 03b0bde8  ..6....2..@F....
 0d7e0 f08f95f8 32304ff0 ff3043f0 020385f8  ....20O..0C.....
 0d7f0 323003b0 bde8f08f cbf50074 00220af5  20.........t."..
 0d800 0470b442 28bf3446 faf7fcff 0028e8d0  .p.B(.4F.....(..
 0d810 00eb0b01 22463846 07f0daff 2346d2e7  ...."F8F....#F..
 0d820 aa6996e7 95f83330 5b060ed5 aa690132  .i....30[....i.2
 0d830 8ee7daf8 14023a46 03681b69 98470028  ......:F.h.i.G.(
 0d840 cfd04ff4 00731c46 bde74a46 5046a969  ..O..s.F..JFPF.i
 0d850 01f0b4fd 0028c4db 0cd0d5f8 20a0aa69  .....(...... ..i
 0d860 77e795f8 31301907 7ff558af 49e7a1eb  w...10....X.I...
 0d870 020853e7 95f83130 13f0500f b1d0a8eb  ..S...10..P.....
 0d880 06084046 aae700bf f0b583b0 01220446  ..@F.........".F
 0d890 85690df1 0701d0e9 0067fff7 25ff0128  .i.......g..%..(
 0d8a0 a5610cbf 9df80700 4ff0ff30 c4e90067  .a......O..0...g
 0d8b0 03b0f0bd 2de9f04f 1f4690f8 313083b0  ....-..O.F..10..
 0d8c0 0446d0f8 1880002b 51d01646 d0e9001c  .F.....+Q..F....
 0d8d0 bc4508bf 91425cd0 56ea0702 4dd01d07  .E...B\.V...M...
 0d8e0 04d5d0e9 0402b042 ba4140d3 94f83320  .......B.A@...3 
 0d8f0 751ed4f8 20a00192 47f1ff30 9af84524  u... ...G..0..E$
 0d900 0932d2b2 c2f1200e d540a2f1 200900fa  .2.... ..@.. ...
 0d910 0efb20fa 09f045ea 0b050543 01984006  .. ...E....C..@.
 0d920 33d4481e 20fa02f2 4cf1ff30 51ea0c0c  3.H. ...L..0Q...
 0d930 00fa0efe 20fa09f0 42ea0e02 42ea0002  .... ...B...B...
 0d940 01d09542 29d25b06 4cbfdaf8 3434e369  ...B).[.L...44.i
 0d950 a36104f1 180906e0 a169013d 206a01f0  .a.......i.= j..
 0d960 2dfd0028 03dd4a46 002df5d1 07e00020  -..(..JF.-..... 
 0d970 c4f81880 03b0bde8 f08f0023 83610120  ...........#.a. 
 0d980 c4e90067 03b0bde8 f08fe369 2b44a361  ...g.......i+D.a
 0d990 f5e70120 03b0bde8 f08fad1a d9e700bf  ... ............
 0d9a0 2de9f04f 174690f8 31208fb0 0546002a  -..O.F..1 ...F.*
 0d9b0 40f0d780 8b4691f8 311011f0 500f00f0  @....F..1...P...
 0d9c0 d08003f0 03019a46 032900f0 ca800131  .......F.).....1
 0d9d0 03f00800 41ea0003 0293002f 00f0cb80  ....A....../....
 0d9e0 396901f1 0e08b649 a1fb0818 dbe90010  9i.....I........
 0d9f0 4fead808 014308f1 02085ffa 88f805d0  O....C...._.....
 0da00 00200021 cbf81820 cbe90001 0024029b  . .!... .....$..
 0da10 264643f0 40030393 202206a9 5846fff7  &FC.@... "..XF..
 0da20 63fe00b3 202840f0 9c809df9 18209df8  c... (@...... ..
 0da30 1830002a c0f2a280 34b9dbf8 0020a2f1  .0.*....4.... ..
 0da40 2009dbf8 18200192 444501d2 0134e4b2   .... ..DE...4..
 0da50 002b00f0 13812022 06a95846 0026fff7  .+.... "..XF.&..
 0da60 43fe0028 ded11af4 007f7ad0 029b9b07  C..(......z.....
 0da70 77d5002f 75d04445 17d2ddf8 04a02022  w../u.DE...... "
 0da80 06a95846 fff730fe 631c0028 61d02028  ..XF..0.c..(a. (
 0da90 67d12cb9 dbf80020 dbf818a0 a2f12009  g.,.... ...... .
 0daa0 dcb2a045 ebd8cdf8 04a03822 00212846  ...E......8".!(F
 0dab0 9bf83340 08f01af9 dbf82030 c4f38014  ..3@...... 0....
 0dac0 019a2b62 08230026 85f82c40 85f83130  ..+b.#.&..,@..10
 0dad0 3b68c5e9 09297b60 be81b8f1 000f33d0  ;h...){`......3.
 0dae0 08f1ff39 b346dff8 dca15ffa 89f90122  ...9.F...._...."
 0daf0 59462846 fff74afd 044690b3 90f90020  YF(F..J..F..... 
 0db00 002a2edb 20220021 08f0f0f8 002e00f0  .*.. ".!........
 0db10 bc80bbf1 010f00f0 d780c123 a3461e34  ...........#.F.4
 0db20 04f81e3c bb893846 1bb9d7e9 01239a42  ...<..8F.....#.B
 0db30 05d0faf7 b9fd2bf8 020fa345 f2d10136  ......+....E...6
 0db40 5ffa86fb d845d2d8 284600f0 bdfb0646  _....E..(F.....F
 0db50 0de05846 dbf81860 00f0e6fb 002840f0  ..XF...`.....(@.
 0db60 91800023 1e4685f8 313085f8 33303046  ...#.F..10..300F
 0db70 0fb0bde8 f08f4ff0 030847e7 56bb4445  ......O...G.V.DE
 0db80 38bf0024 852b7ff4 47af3146 38222846  8..$.+..G.1F8"(F
 0db90 012608f0 abf89df8 1c209df8 193085f8  .&....... ...0..
 0dba0 303002f0 3703d206 58bf43f0 080385f8  00..7...X.C.....
 0dbb0 3130dbf8 0030dbf8 2020203b 2a62dbf8  10...0..   ;*b..
 0dbc0 1820c5e9 09239bf8 3330c3f3 801385f8  . ...#..30......
 0dbd0 2c3021e7 c02b28d0 c12b7ff4 3caf3a46  ,0!..+(..+..<.:F
 0dbe0 06a92846 00f03ef9 e8b1bb89 dbb9d7e9  ..(F..>.........
 0dbf0 01329a42 17d11af4 006fb2d1 1af4884f  .2.B.....o.....O
 0dc00 70d195f8 33309807 6cd41af4 806fa8d1  p...30..l....o..
 0dc10 1af4804f abd02846 d5e90423 fff74afe  ...O..(F...#..J.
 0dc20 0028a4d1 9de70646 f6e6029b 85f83330  .(.....F......30
 0dc30 9df81930 9b0702d5 039b85f8 33300b9b  ...0........30..
 0dc40 eb61dde9 0823c5e9 0423dde9 0c23c5e9  .a...#...#...#..
 0dc50 0223002f cfd04ff0 00033a69 bb813b68  .#./..O...:i..;h
 0dc60 7b609df8 1b309a42 7ff4f5ae be8abdf8  {`...0.B........
 0dc70 1c30f61a b6fa86f6 7609cde6 002f7ff4  .0......v..../..
 0dc80 f2ae6ee7 cbf81860 0be78523 237085f8  ..n....`...##p..
 0dc90 309084f8 0190daf8 0030002b 46d00df1  0........0.+F...
 0dca0 13020df1 160105a8 9847bdf8 14306381  .........G...0c.
 0dcb0 bdf81630 23819df8 13302375 3fe700bf  ...0#....0#u?...
 0dcc0 89888888 cc390020 c02384f8 01b02370  .....9. .#....#p
 0dcd0 029b63f0 7f0385f8 33303b69 e370bb8a  ..c.....30;i.p..
 0dce0 a3802ce7 95f83130 d9063ff5 3aaf13f0  ..,...10..?.:...
 0dcf0 01017ff4 36af1af4 806f89d0 95f83320  ....6....o....3 
 0dd00 92077ff5 2eaf002b 3ff42baf d5e90032  .......+?.+....2
 0dd10 134304d0 00220023 a961c5e9 00232846  .C...".#.a...#(F
 0dd20 00f004fd 00283ff4 1caf20e7 45f62123  .....(?... .E.!#
 0dd30 6381e381 638202e7 2de9f043 002597b0  c...c...-..C.%..
 0dd40 994690f8 31300192 1495adf8 1450002b  .F..10.......P.+
 0dd50 3ed191f8 31300f46 13f0500f 38d01378  >...10.F..P.8..x
 0dd60 04461646 2f2b37d0 4ff00008 01ab02aa  .F.F/+7.O.......
 0dd70 31462046 fff76afc 50b3019e 3378002b  1F F..j.P...3x.+
 0dd80 3ed00023 02aa3946 2046fff7 09fef8b1  >..#..9F F......
 0dd90 a44608ad 04f13007 dcf80000 0cf1100c  .F....0.........
 0dda0 5cf80c1c ae465cf8 082c1035 5cf8043c  \....F\..,.5\..<
 0ddb0 bc45aee8 0f00efd1 dcf80000 08af2860  .E............(`
 0ddc0 204600f0 81fa84f8 318084f8 3380cde7   F......1...3...
 0ddd0 002017b0 bde8f083 16f8011f 2f29fbd0  . ........../)..
 0dde0 0196b1b9 38222046 3d6a07f0 7fff0123  ....8" F=j.....#
 0ddf0 40222562 184684f8 333084f8 3120e8e7  @"%b.F..30..1 ..
 0de00 4b4602aa 39462046 fff7cafd 17b0bde8  KF..9F F........
 0de10 f0833822 002108a8 3d6a07f0 67ff0123  ..8".!..=j..g..#
 0de20 08af1095 8df85330 40238df8 51309be7  ......S0@#..Q0..
 0de30 19b101f5 8961fff7 7fbf0846 704700bf  .....a.....FpG..
 0de40 90f83130 63b991f8 313013f0 500f07d0  ..10c...10..P...
 0de50 0b6813f0 1f0c03d1 13466246 fff7a0bd  .h.......FbF....
 0de60 00207047 2de9f041 0c461546 01f11e08  . pG-..A.F.F....
 0de70 ab892846 34f8027f 1bb9d5e9 01239a42  ..(F4........#.B
 0de80 0ed0faf7 11fcfaf7 35fc0646 3846faf7  ........5..F8F..
 0de90 31fc8642 09d14445 ead10120 bde8f081  1..B..DE... ....
 0dea0 b7fa87f0 4009bde8 f0810020 bde8f081  ....@...... ....
 0deb0 2de9f04f 90f83130 83b08846 002b4fd0  -..O..10...F.+O.
 0dec0 90f83030 0746012b 53d9013a 0b464ff0  ..00.F.+S..:.FO.
 0ded0 020a0024 8e18dff8 a0b00022 51463846  ...$......."QF8F
 0dee0 0193fff7 53fb0028 3ad00278 c12a37d1  ....S..(:..x.*7.
 0def0 054600f1 1e09019b 35f8020f 24b300f5  .F......5...$...
 0df00 105292b2 b2f5806f 2ad20bea 8424c0f3  .R.....o*....$..
 0df10 09002043 00f58030 19463246 faf726fb  .. C...0.F2F..&.
 0df20 0346e8b1 00244d45 e6d10af1 010a97f8  .F...$ME........
 0df30 30205ffa 8afa5245 cfd2a3eb 08009846  0 _...RE.......F
 0df40 002388f8 00300fe0 00f52052 92b2b2f5  .#...0.... R....
 0df50 006f02d3 0028dfd1 efe7b2f5 806f06d3  .o...(.......o..
 0df60 00231846 88f80030 03b0bde8 f08f0446  .#.F...0.......F
 0df70 d9e70020 e4e700bf 00fc0f00 70b50c46  ... ........p..F
 0df80 00234ff6 ff752268 19461e46 a3812361  .#O..u"h.F.F..#a
 0df90 626017e0 faf788fb a84222d0 faf7aafb  b`.......B".....
 0dfa0 2369f203 a1890133 42ea5602 060a2361  #i.....3B.V...#a
 0dfb0 52fa80f0 83b2c0f3 4e0040ea c33016fa  R.......N.@..0..
 0dfc0 80f086b2 20460029 e4d1d4e9 01239a42  .... F.).....#.B
 0dfd0 e0d12069 a6820138 fe288cbf 00200120  .. i...8.(... . 
 0dfe0 70bd0020 70bd00bf 8169f8b5 0446006a  p.. p....i...F.j
 0dff0 01b10131 012201f0 a7f80128 054632d9  ...1.".....(.F2.
 0e000 01230146 206a1a46 01f0fef8 064650b3  .#.F j.F.....FP.
 0e010 a3695bb3 94f83320 510612d5 591ca942  .i[...3 Q...Y..B
 0e020 18d022f0 4002e169 84f83320 05e0206a  ..".@..i..3 .. j
 0e030 01f0e6f9 3946b0b1 a3694f1c 99423a46  ....9F...iO..B:F
 0e040 f5d34ff0 ff322946 206a01f0 d9f950b1  ..O..2)F j....P.
 0e050 a16911b9 3046a561 f8bd2a46 206a01f0  .i..0F.a..*F j..
 0e060 cff90028 f6d10026 3046f8bd 94f83330  ...(...&0F....30
 0e070 43f04003 84f83330 ece700bf 90f83330  C.@...30......30
 0e080 9a0736d5 c16970b5 0546a1b9 00242146  ..6..ip..F...$!F
 0e090 07e00378 03f07f03 037095f8 30308b42  ...x.....p..00.B
 0e0a0 29d30134 01222846 fff770fa e1b20028  )..4."(F..p....(
 0e0b0 efd10020 70bd5b06 006a34d5 90f84534  ... p.[..j4...E4
 0e0c0 d5e90224 0933013a dbb244f1 ff34c3f1  ...$.3.:..D..4..
 0e0d0 200cda40 203b04fa 0cfc24fa 03f342ea   ..@ ;....$...B.
 0e0e0 0c021a43 00230132 01f08ef8 0028cdd1  ...C.#.2.....(..
 0e0f0 dfe70020 70470023 2c6a85f8 31302046  ... pG.#,j..10 F
 0e100 85f83330 faf752fb 0028d2d0 04f50470  ..30..R..(.....p
 0e110 faf74cfb 0028ccd0 d4f84004 0368bde8  ..L..(....@..h..
 0e120 70401b6a 184701f0 8bf90028 aed1c0e7  p@.j.G.....(....
 0e130 90f83130 db0601d4 00207047 10b50022  ..10..... pG..."
 0e140 88b00023 0446fff7 b5fb08e0 20281bd1  ...#.F...... (..
 0e150 9df90030 9df80020 002b15db 32b12022  ...0... .+..2. "
 0e160 69462046 fff7c0fa 0028efd1 94f83330  iF F.....(....30
 0e170 08222046 43f00203 84f83120 84f83330  ." FC.....1 ..30
 0e180 fff77cff 08b010bd 002008b0 10bd00bf  ..|...... ......
 0e190 2de9f041 4ff00008 82b04a4f 06464446  -..AO.....JO.FDF
 0e1a0 41460022 3046fff7 f1f90546 30b10178  AF."0F.....F0..x
 0e1b0 c02969d0 c1292bd0 852909d0 96f83230  .)i..)+..)....20
 0e1c0 002043f0 010386f8 323002b0 bde8f081  . C.....20......
 0e1d0 96f83130 03f03703 83803b68 83b10df1  ..10..7...;h....
 0e1e0 03020df1 060101a8 9847bdf8 0630ab81  .........G...0..
 0e1f0 2b82bdf8 0430eb81 6b829df8 03306b75  +....0..k....0ku
 0e200 326a92f8 103243f0 010382f8 10322978  2j...2C......2)x
 0e210 a1f18500 0022b0fa 80f04009 01e00422  ....."....@...."
 0e220 a95ce303 012a02f1 010243ea 540311fa  .\...*....C.T...
 0e230 83f39cb2 01d10028 f1d11f2a f0d908f1  .......(...*....
 0e240 010896f8 30305ffa 88f18b42 a9d20122  ....00_....B..."
 0e250 06f12401 306a01f0 53f80028 aed0356a  ..$.0j..S..(..5j
 0e260 44802846 faf7a2fa 0028a7d0 05f50470  D.(F.....(.....p
 0e270 faf79cfa 0028a1d0 d5f84004 03681b6a  .....(....@..h.j
 0e280 98470028 a1d199e7 96f83330 13f0400f  .G.(......30..@.
 0e290 437814bf 43f00203 03f0fd03 4370d6e9  Cx..C.......Cp..
 0e2a0 0401d6e9 0732c5e9 0201d6e9 02016b61  .....2........ka
 0e2b0 c5e90601 92f81032 43f00103 82f81032  .......2C......2
 0e2c0 2978a5e7 cc390020 38b590f8 313043b3  )x...9. 8...10C.
 0e2d0 90f93320 044690f8 3330002a 0cdb056a  ..3 .F..30.*...j
 0e2e0 2846faf7 63fa78b9 94f83230 002043f0  (F..c.x...20. C.
 0e2f0 010384f8 323038bd 03f07f03 80f83330  ....208.......30
 0e300 bde83840 fff744bf 05f50470 faf74efa  ..8@..D....p..N.
 0e310 0028e9d0 d5f84004 03681b6a 98470028  .(....@..h.j.G.(
 0e320 e2d00120 38bd00bf 70b590f8 31300546  ... 8...p...10.F
 0e330 5a064cd4 80682b6a d3f83c34 1844b0f1  Z.L..h+j..<4.D..
 0e340 806f01d3 002070bd 2846fff7 4dfe0028  .o... p.(F..M..(
 0e350 f8d0286a 0024ae69 90f84534 023e9e40  ..(j.$.i..E4.>.@
 0e360 d0f82c34 1e443119 052200f5 04700134  ..,4.D1.."...p.4
 0e370 faf748fa 4ff40072 00210028 e2d007f0  ..H.O..r.!.(....
 0e380 b5fc286a 012390f8 45249340 9c42ead3  ..(j.#..E$.@.B..
 0e390 95f83130 5b0615d4 95f83320 62f07f02  ..10[.....3 b...
 0e3a0 d5e90231 85f83320 d0f83c24 9b1841f1  ...1..3 ..<$..A.
 0e3b0 0000ab60 d5e90431 e8609b18 41f10001  ...`...1.`..A...
 0e3c0 c5e90431 2846bde8 7040fff7 7dbf006a  ...1(F..p@..}..j
 0e3d0 01f03cf9 afe700bf 70b50446 90f83100  ..<.....p..F..1.
 0e3e0 9cb00023 10f0180f 0c931a93 03d0206a  ...#.......... j
 0e3f0 0b6a9842 02d00020 1cb070bd 40f60123  .j.B... ..p.@..#
 0e400 6846fff7 99fc0028 f5d0a446 04f13006  hF.....(...F..0.
 0e410 0eaddcf8 00000cf1 100c5cf8 0c1cae46  ..........\....F
 0e420 5cf8082c 10355cf8 043cb445 aee80f00  \..,.5\..<.E....
 0e430 efd1dcf8 000009aa 04f12403 28609df8  ..........$.(`..
 0e440 305007ca 83e80700 94f83330 204684f8  0P........30 F..
 0e450 305063f0 7f0384f8 3330fff7 35ff0028  0Pc.....30..5..(
 0e460 c9d00021 02220823 0ea81591 8df86b20  ...!.".#......k 
 0e470 8df86930 fff702fe bee700bf 38b591f8  ..i0........8...
 0e480 313013f0 500f02d1 00252846 38bd40f6  10..P....%(F8.@.
 0e490 02230446 fff784fa 0028f5d0 10232046  .#.F.....(...# F
 0e4a0 84f83130 fff740ff 05460028 ecd0a169  ..10..@..F.(...i
 0e4b0 00220023 2046e161 fff7fcf9 c12294f8  .".# F.a....."..
 0e4c0 313084f8 3320002b dfd04123 204684f8  10..3 .+..A# F..
 0e4d0 3330bde8 3840fff7 5bbe00bf f0b50025  30..8@..[......%
 0e4e0 97b01f46 90f83130 0192adf8 14501495  ...F..10.....P..
 0e4f0 002b46d1 91f83130 0e4613f0 500f40d0  .+F...10.F..P.@.
 0e500 13780446 11462f2b 3ed001ab 02aa2046  .x.F.F/+>..... F
 0e510 fff79cf8 002834d0 019b1b78 002b41d0  .....(4....x.+A.
 0e520 002302aa 31462046 fff73afa 30b947b3  .#..1F F..:.0.G.
 0e530 02aa3146 2046fff7 a1ff10b3 a44608ad  ..1F F.......F..
 0e540 04f13006 dcf80000 0cf1100c 5cf80c1c  ..0.........\...
 0e550 ae465cf8 082c1035 5cf8043c b445aee8  .F\..,.5\..<.E..
 0e560 0f00efd1 dcf80000 08ae2860 2046fff7  ..........(` F..
 0e570 2bf80199 01ab02aa 2046fff7 67f80028  +....... F..g..(
 0e580 cad10020 17b0f0bd 01310191 0b782f2b  ... .....1...x/+
 0e590 fad0316a 08a8fff7 45f80028 f1d00199  ..1j....E..(....
 0e5a0 08aeb2e7 02aa3146 2046fff7 67ff17b0  ......1F F..g...
 0e5b0 f0bd00bf 2de9f04f 0e4690f8 311083b0  ....-..O.F..1...
 0e5c0 09079df8 30b09df8 34909df8 38809df8  ....0...4...8...
 0e5d0 3c7040f1 8580a2f2 bc7294b2 7f2c7fd8  <p@......r...,..
 0e5e0 5a1e0b2a 7cd80bf1 ff321e2a 78d8b8f1  Z..*|....2.*x...
 0e5f0 3b0f98bf b9f1170f 8cbf4ff0 010a4ff0  ;.........O...O.
 0e600 000a3b2f 88bf4af0 010abaf1 000f67d1  ..;/..J.......g.
 0e610 05460193 fff758fe 002861d0 019b5146  .F....X..(a...QF
 0e620 4bea431b 7b0817f0 01074bea 4424d346  K.C.{.....K.D$.F
 0e630 43ea4818 18bf6427 a4b248ea c92806f0  C.H...d'..H..(..
 0e640 01091ffa 88f80022 2846fef7 9fff0028  ......."(F.....(
 0e650 46d090f8 00c0bcf1 850f45d0 0cf14003  F.........E...@.
 0e660 dbb2012b 3cd8acf1 85010023 b1fa81f1  ...+<......#....
 0e670 490902e0 042310f8 03c04fea cb32012b  I....#....O..2.+
 0e680 03f10103 42ea5b02 1cfa82f2 1ffa82fb  ....B.[.........
 0e690 01d10029 eed11f2b edd90af1 010a95f8  ...)...+........
 0e6a0 30305ffa 8af18b42 cdd20122 05f12401  00_....B..."..$.
 0e6b0 286a00f0 25fe98b1 2c6aa0f8 02b02046  (j..%...,j.... F
 0e6c0 faf774f8 60b104f5 0470faf7 6ff838b1  ..t.`....p..o.8.
 0e6d0 d4f84004 03681b6a 03b0bde8 f04f1847  ..@..h.j.....O.G
 0e6e0 002003b0 bde8f08f 95f83130 2a6a03f0  . ........10*j..
 0e6f0 37038380 92f81032 43f00103 82f81032  7......2C......2
 0e700 b9f1000f 02d0a0f8 10804482 b20703d5  ..........D.....
 0e710 0775a0f8 08804481 730703d5 4775a0f8  .u....D.s...Gu..
 0e720 0c80c481 90f800c0 9de700bf 90f83330  ..............30
 0e730 9a0762d5 70b5c569 82b00446 a5b313f0  ..b.p..i...F....
 0e740 400634d0 006aa268 90f845c4 013ae168  @.4..j.h..E..:.h
 0e750 0cf1090c 41f1ff31 5ffa8cfc ccf1200e  ....A..1_..... .
 0e760 22fa0cf2 acf1200c 01fa0efe 21fa0cfc  "..... .....!...
 0e770 a16942ea 0e0242ea 0c020132 19b3013d  .iB...B....2...=
 0e780 6d1a0131 2a440191 72bb63f0 7f032046  m..1*D..r.c... F
 0e790 94ed007b 84f83330 84ed027b 84ed047b  ...{..30...{...{
 0e7a0 fff792fd 02b070bd 012002b0 70bd8169  ......p.. ..p..i
 0e7b0 61b90195 c1612946 206a00f0 41fec8b1  a....a)F j..A...
 0e7c0 94f83330 e1e70195 e161dde7 01aa006a  ..30.....a.....j
 0e7d0 019600f0 f3fd0028 0cdb10d1 019d002d  .......(.......-
 0e7e0 e9d194f8 3330d0e7 00230199 00f00cfd  ....30...#......
 0e7f0 0028e5d1 002002b0 70bd0020 70474ff0  .(... ..p.. pGO.
 0e800 ff32a169 206a00f0 fbfd0028 e6d1f1e7  .2.i j.....(....
 0e810 2de9f043 90f83330 83b00446 9d0740f1  -..C..30...F..@.
 0e820 a1809146 1a070e46 00f19580 b9f1000f  ...F...F........
 0e830 00f02881 23684d46 206aa169 d0f83824  ..(.#hMF j.i..8$
 0e840 02ea0308 c8f30807 b8f1000f 40f09480  ............@...
 0e850 002900f0 d48094f8 33305b06 40f1ec80  .)......30[.@...
 0e860 90f845c4 d4e90232 0cf1090c 013b5ffa  ..E....2.....;_.
 0e870 8cfc42f1 ff32ccf1 200e23fa 0cf3acf1  ..B..2.. .#.....
 0e880 200c02fa 0efe22fa 0cfce269 43ea0e03   ....."....iC...
 0e890 43ea0c03 13449942 80f0d580 0131a161  C....D.B.....1.a
 0e8a0 90f84524 0239d0f8 2c349140 1944b5f5  ..E$.9..,4.@.D..
 0e8b0 007fc0f0 8a80b5f5 806fc0f0 a6800123  .........o.....#
 0e8c0 93406a0a a3eb0803 934228bf 1346d0f8  .@j......B(..F..
 0e8d0 1c228a42 4fea4328 09d35f18 ba4206d2  .".BO.C(.._..B..
 0e8e0 002280f8 10224ff0 ff32c0f8 1c22d0f8  ."..."O..2..."..
 0e8f0 14023246 0768bf6a b84798b3 43464644  ..2F.h.j.G..CFFD
 0e900 a5eb0805 d4e90072 d4e90401 db1942f1  .......r......B.
 0e910 00029842 9141c4e9 003207d2 94f83310  ...B.A...2....3.
 0e920 61f07f01 c4e90432 84f83310 002d83d1  a......2..3..-..
 0e930 d4e90201 98429141 c0f09680 534b1b68  .....B.A....SK.h
 0e940 002b00f0 9d8094f8 33304846 63f07f03  .+......30HFc...
 0e950 84f83330 0de0d0e9 0423fef7 abff0028  ..30.....#.....(
 0e960 7ff464af 94f83230 002043f0 010384f8  ..d...20. C.....
 0e970 323003b0 bde8f083 90f84524 02394fea  20........E$.9O.
 0e980 5828d0f8 2c349140 41441944 002f8ed0  X(..,4.@AD.D./..
 0e990 c7f50078 012200f5 0470a845 28bfa846  ...x."...p.E(..F
 0e9a0 f9f730ff 0028ddd0 38444744 42463146  ..0..(..8DGDBF1F
 0e9b0 06f00eff b7f5007f 206a9fd1 00f50470  ........ j.....p
 0e9c0 f9f7f4fe 002899d1 cce76268 63690092  .....(....bhci..
 0e9d0 01932269 23689342 dde90023 9a4112d2  .."i#h.B...#.A..
 0e9e0 012200f5 0470f9f7 0dff0028 bad02a46  ."...p.....(..*F
 0e9f0 31463844 a84606f0 ebfe2b46 7fe7e169  1F8D.F....+F...i
 0ea00 49b3a161 4ce70522 ebe7d0f8 1c328b42  I..aL..".....2.B
 0ea10 06d10023 80f81032 4ff0ff33 c0f81c32  ...#...2O..3...2
 0ea20 d0f81402 32460368 5b6a9847 002899d0  ....2F.h[j.G.(..
 0ea30 4ff40073 984662e7 04f11802 00f0befc  O..s.Fb.........
 0ea40 00288fdb 04d12046 fff7cefa 002889d0  .(.... F.....(..
 0ea50 a169206a 24e72046 fff7c6fa 002881d0  .i j$. F.....(..
 0ea60 a169206a e1611be7 94f83310 4846c4e9  .i j.a....3.HF..
 0ea70 023261f0 7f0384f8 333003b0 bde8f083  .2a.....30......
 0ea80 484676e7 d4e90032 52e700bf cc390020  HFv....2R....9. 
 0ea90 69b170b5 05460846 0c4606f0 a7fe2b68  i.p..F.F.F....+h
 0eaa0 02462146 28465b68 bde87040 18477047  .F!F(F[h..p@.GpG
 0eab0 8368c3f3 080383b1 002110b4 0269d154  .h.......!...i.T
 0eac0 0133b3f5 007ff9d1 0168d0e9 03321c68  .3.......h...2.h
 0ead0 1846636a 5df8044b 18470120 704700bf  .Fcj]..K.G. pG..
 0eae0 82680346 006940f2 ff1cc2f3 08028154  .h.F.i@........T
 0eaf0 62455868 01eb7001 986800f1 0100c3e9  bEXh..p..h......
 0eb00 011001d0 01207047 d8681968 10b40468  ..... pG.h.h...h
 0eb10 4a1c646a 1a601a69 23465df8 044b1847  J.dj.`.i#F]..K.G
 0eb20 38b58368 cab20d46 0169c3f3 080340f2  8..h...F.i....@.
 0eb30 ff1c0446 ca546345 416802eb 71024260  ...F.TcEAh..q.B`
 0eb40 826802f1 01028260 05d0290a 2046bde8  .h.....`..). F..
 0eb50 3840fff7 c5bf0168 c0684a1c 03685b6a  8@.....h.hJ..h[j
 0eb60 22602269 98470028 efd138bd f8b50023  "`"i.G.(..8....#
 0eb70 06460160 1d46c0e9 0133a8b2 f9f7bafd  .F.`.F...3......
 0eb80 a8420446 07d0c1b2 3046fff7 a9ff0028  .B.F....0F.....(
 0eb90 3bd10020 f8bd6c1c b4f5803f 04d12ae0  ;.. ..l....?..*.
 0eba0 0134b4f5 803f04d0 a0b2f9f7 a3fda042  .4...?.........B
 0ebb0 f6d0671b b7f5007f 1dd34ff6 ff713046  ..g.......O..q0F
 0ebc0 fff7aeff 0028e4d0 b9b23046 fff7a8ff  .....(....0F....
 0ebd0 0028ded0 2546b5f5 803fced1 3046bde8  .(..%F...?..0F..
 0ebe0 f840fff7 65bfc5f3 07213046 0135fff7  .@..e....!0F.5..
 0ebf0 77ff0028 cdd0a542 e9b23046 ebd2fff7  w..(...B..0F....
 0ec00 6fff0028 efd10020 f8bdc4f3 07213046  o..(... .....!0F
 0ec10 fff766ff 0028bcd0 0135dce7 2de9f04f  ..f..(...5..-..O
 0ec20 1f4689b0 0b680d46 04901446 c1600261  .F...h.F...F.`.a
 0ec30 0846db69 9847b0f5 801f0090 c0f0d880  .F.i.G..........
 0ec40 00230122 009e0133 5200dbb2 01d09642  .#."...3R......B
 0ec50 f9d81c2b 009640f2 b780a3f1 0b080122  ...+..@........"
 0ec60 48fa02f1 c8f34708 8a400291 07920133  H.....G..@.....3
 0ec70 01225b10 9a400692 04229a40 03920222  ."[..@...".@..."
 0ec80 02fa03f3 0193009a 0021039b 2046029e  .........!.. F..
 0ec90 4ff0010a d31a4ff4 00724af6 552bf340  O.....O..rJ.U+.@
 0eca0 03fa06f9 0593019e 07f020f8 ff2384f8  .......... ..#..
 0ecb0 bfa184f8 c0a1b144 84f8c431 224684f8  .......D...1"F..
 0ecc0 c5310723 00212846 84f8c231 fe23c4f8  .1.#.!(F...1.#..
 0ecd0 c66184f8 c3312b68 c4f8ca91 5b6aa4f8  .a...1+h....[j..
 0ece0 feb19847 002863d0 4ff40072 00212046  ...G.(c.O..r.! F
 0ecf0 06f0fcff 009b84f8 6d804ff0 00086366  ........m.O...cf
 0ed00 f421059b 04f17800 069ae365 20232664  .!....x....e #&d
 0ed10 23726372 a372eb23 a6654646 23707623  #rcr.r.#.eFF#pv#
 0ed20 c4f84890 63709023 84f86ea0 a3704523  ..H.cp.#..n..pE#
 0ed30 e3705823 23714623 63714123 a3715423  .pX##qF#cqA#.qT#
 0ed40 e3710423 23664ff4 8073a4f8 68300923  .q.##fO..s..h0.#
 0ed50 84f86c30 8023c4e9 142284f8 6f304ff4  ..l0.#..."..o0O.
 0ed60 c37206f0 c3ffa4f8 feb1a8f1 6a03012b  .r..........j..+
 0ed70 06d9b8f1 700f03d0 14f80830 03eb7606  ....p......0..v.
 0ed80 08f10108 b8f5007f efd12b68 2246ddf8  ..........+h"F..
 0ed90 04902846 5b6a4946 984748b1 2b684946  ..(F[jIF.GH.+hIF
 0eda0 22462846 5b6a0c31 cdf80490 984740bb  "F(F[j.1.....G@.
 0edb0 2fb13b68 0f22b849 38465b68 98470026  /.;h.".I8F[h.G.&
 0edc0 304609b0 bde8f08f 1a2b4ff0 080800f2  0F.......+O.....
 0edd0 a6814ff4 8043cdf8 08800193 4ff40043  ..O..C......O..C
 0ede0 03934ff4 80730793 4ff40053 06934ae7  ..O..s..O..S..J.
 0edf0 002fe4d0 3b681522 a8493846 5b689847  ./..;h.".I8F[h.G
 0ee00 d7e74246 00212046 09f1010a 06f06eff  ..BF.! F......n.
 0ee10 4af65523 09f10902 04f2ff19 a4f8fe31  J.U#...........1
 0ee20 00239346 a04601e0 18f8013f c14503eb  .#.F.F.....?.E..
 0ee30 7606f9d1 2b682246 51462846 5b6a9847  v...+h"FQF(F[j.G
 0ee40 0028b5d0 2b682246 0af10c01 28465b6a  .(..+h"F....(F[j
 0ee50 98470028 acd00af1 01039b45 02d09a46  .G.(.......E...F
 0ee60 2378dfe7 4ff40072 00212046 9b4606f0  #x..O..r.! F.F..
 0ee70 3dff0022 0af1030a 11462346 01e013f8  =..".....F#F....
 0ee80 011f9845 01eb7606 f9d12b68 22465946  ...E..v...+h"FYF
 0ee90 28465b6a 98470028 8ad02b68 22460bf1  (F[j.G.(..+h"F..
 0eea0 0c012846 5b6a9847 002881d0 0bf10101  ..(F[j.G.(......
 0eeb0 8a456ad1 231f04f5 fe7243f8 046f9a42  .Ej.#....rC..o.B
 0eec0 fbd12b68 22462846 5b6a9847 00283ff4  ..+h"F(F[j.G.(?.
 0eed0 6faf2b68 0bf10d01 22462846 5b6a9847  o.+h...."F(F[j.G
 0eee0 00283ff4 65af2fb1 3b680c22 6c493846  .(?.e./.;h."lI8F
 0eef0 5b689847 069a0021 019b2046 00261344  [h.G...!.. F.&.D
 0ef00 4ff40072 9946059b 4fea8308 06f0eefe  O..r.F..O.......
 0ef10 23464ff0 ff3208f2 0728f821 b7f1000b  #FO..2...(.!....
 0ef20 4fea582a 03f8011b 4fea9838 c4f80120  O.X*....O..8... 
 0ef30 18bf4ff0 010bda60 5a609a60 c3f80f20  ..O....`Z`.`... 
 0ef40 02e00136 b24523d0 b6fbf8f3 08fb1363  ...6.E#........c
 0ef50 43b9bbf1 000f05d0 3b680122 51493846  C.......;h."QI8F
 0ef60 5b689847 2b6809eb 06012246 28465b6a  [h.G+h...."F(F[j
 0ef70 98470028 3ff41caf 002ee2d1 31464ff4  .G.(?.......1FO.
 0ef80 00722046 06f0b2fe dbe78b46 217874e7  .r F.......F!xt.
 0ef90 002f34d0 3b680222 43493846 5b689847  ./4.;h."CI8F[h.G
 0efa0 059e079a 0736f608 06f2ff13 b2eb532f  .....6........S/
 0efb0 4fea5329 fff4fdae 4ff40072 00212046  O.S)....O..r.! F
 0efc0 06f094fe 07232370 b9f1000f 00f08a80  .....##p........
 0efd0 4ff00008 08e0b8f1 000f01d1 84f80080  O...............
 0efe0 08f10108 c1457bd9 039a2846 2b6802eb  .....E{...(F+h..
 0eff0 08012246 5b6a9847 0028ecd1 d8e6059e  .."F[j.G.(......
 0f000 079a0736 f60806f2 ff13b2eb 532f4fea  ...6........S/O.
 0f010 5329fff4 d4ae4ff4 00723946 204606f0  S)....O..r9F F..
 0f020 65fe0723 2370b9f1 000fd1d1 039b079a  e..##p..........
 0f030 04989918 fff79afd 00283ff4 c0ae029a  .........(?.....
 0f040 4ff40073 9340049a 92689a42 3ff6b7ae  O..s.@...h.B?...
 0f050 4ff00208 029b4ff4 00720021 08fa03f9  O.....O..r.!....
 0f060 039b2046 994406f0 41fe8122 03230499  .. F.D..A..".#..
 0f070 09f1ff39 84f82020 82222370 84f84020  ...9..  ."#p..@ 
 0f080 c4e90d86 4a684ff0 01086365 62648b68  ....JhO...cebd.h
 0f090 a3650023 e3650ee0 80090020 30090020  .e.#.e..... 0.. 
 0f0a0 d4080020 a8170020 5c090020 079b9845  ... ... \.. ...E
 0f0b0 3bd208f1 01082b68 09eb0801 22462846  ;.....+h...."F(F
 0f0c0 5b6a9847 06460028 3ff472ae b8f1010f  [j.G.F.(?.r.....
 0f0d0 ecd14ff4 00720021 204606f0 07fee8e7  ..O..r.! F......
 0f0e0 002fa3d0 3b681622 14493846 5b689847  ./..;h.".I8F[h.G
 0f0f0 039b079a 04989918 fff738fd 00283ff4  ..........8..(?.
 0f100 58ae029a 4ff40073 9340049a 92689a42  X...O..s.@...h.B
 0f110 3ff64fae 0a493846 fff7bafc 98e74ff4  ?.O..I8F......O.
 0f120 8072cdf8 08800792 a1e5002f 3ff448ae  .r........./?.H.
 0f130 04493846 fff7acfc 42e600bf 48090020  .I8F....B...H.. 
 0f140 60090020 70090020 2de9f84f 07468a46  `.. p.. -..O.F.F
 0f150 91460029 42d0a1f1 0208d7f8 30344345  .F.)B.......04CE
 0f160 42d908f0 07030125 c8f3c80b 9d40edb2  B......%.....@..
 0f170 46464446 d7f82c14 00223846 01eb1431  FFDF..,.."8F...1
 0f180 f9f740fb e8b10bf1 ff3b8344 00f2ff10  ..@......;.D....
 0f190 1bf8011f 0ae04a45 2bd0a045 10d0d7f8  ......JE+..E....
 0f1a0 3054a542 14d913f0 ff050cd0 01342942  0T.B.........4)B
 0f1b0 4fea4503 a4eb0602 edd0a045 2646eed1  O.E........E&F..
 0f1c0 0120bde8 f88f5845 4ff00105 e0d101e0  . ....XEO.......
 0f1d0 00263446 01254ff0 000bcbe7 d0f82084  .&4F.%O....... .
 0f1e0 d7f83034 4345bcd8 4ff00008 0125c346  ..04CE..O....%.F
 0f1f0 bee7baf1 000f04d1 b9f1010f 08bfc7f8  ................
 0f200 2064b01c bde8f88f 2de9f843 8046881e   d......-..C.F..
 0f210 15461e46 8318d8f8 30249342 37d8cebb  .F.F....0$.B7...
 0f220 d8f82034 834288bf c8f82004 00f00703  .. 4.B.... .....
 0f230 0124d8f8 2c74c0f3 c8099c40 07eb1031  .$..,t.....@...1
 0f240 e4b20122 40468f18 f9f7dcfa f8b109f1  ..."@F..........
 0f250 ff3e8644 00f2ff10 1ef801cf 1cea040f  .>.D............
 0f260 8cea040c 4fea4404 14bf0122 0022b242  ....O.D....".".B
 0f270 0dd0013d 8ef800c0 18d014f0 ff04edd1  ...=............
 0f280 7045a146 4ff00104 e6d13946 d9e70020  pE.FO.....9F... 
 0f290 bde8f883 d8f82014 8b42c7d9 8142c5d3  ...... ..B...B..
 0f2a0 934228bf 0023c8f8 2034bfe7 0120bde8  .B(..#.. 4... ..
 0f2b0 f88300bf f8b5d0f8 30340133 8b4201d2  ........04.3.B..
 0f2c0 0020f8bd 07460c46 00f50476 002505e0  . ...F.F...v.%..
 0f2d0 d7f83034 01350133 a342f1d3 d7f82414  ..04.5.3.B....$.
 0f2e0 00223046 01ebd411 f9f78cfa a4000028  ."0F...........(
 0f2f0 e6d0c4f3 08040459 631ce9d1 681cf8bd  .......Yc...h...
 0f300 38b50c46 0b6890f8 45c400f5 0470d0f8  8..F.h..E....p..
 0f310 2812023b 656803fa 0cf32940 03eb5123  (..;eh....)@..Q#
 0f320 d0f81c12 1944f9f7 6dfa18b1 6368c3f3  .....D..m...ch..
 0f330 08031844 38bd00bf 2de9f843 0c46d0f8  ...D8...-..C.F..
 0f340 38344968 0b401144 61601344 90f84514  84Ih.@.Da`.D..E.
 0f350 01f10902 d2b2d340 2bb38046 5d1e00f5  .......@+..F]...
 0f360 047905e0 2368013d 03f10103 23601ad3  .y..#h.=....#`..
 0f370 267a002e f6d1d8f8 30343246 27684846  &z......042F'hHF
 0f380 01339f42 12d8d8f8 241401eb d711f9f7  .3.B....$.......
 0f390 39fabf00 50b1c7f3 0807c359 5a1c09d0  9...P......YZ...
 0f3a0 013d2360 e4d20120 bde8f883 4ff0ff30  .=#`... ....O..0
 0f3b0 bde8f883 3046bde8 f88300bf 38b5d0f8  ....0F......8...
 0f3c0 30340133 8b4202d2 4ff0ff30 38bd0c46  04.3.B..O..08..F
 0f3d0 d0f82414 154600f5 04700022 01ebd411  ..$..F...p."....
 0f3e0 f9f710fa 0028efd0 a400c4f3 08040359  .....(.........Y
 0f3f0 5a1c02d0 01202b60 38bd0020 38bd00bf  Z.... +`8.. 8...
 0f400 01291bd9 38b5d0f8 30340c46 01338b42  .)..8...04.F.3.B
 0f410 01d20020 38bdd0f8 24141546 00f50470  ... 8...$..F...p
 0f420 012201eb d411f9f7 edf90346 0028f0d0  .".........F.(..
 0f430 a4000120 c4f30804 1d5138bd 00207047  ... .....Q8.. pG
 0f440 d0f83034 01339942 01d90020 70472de9  ..04.3.B... pG-.
 0f450 f04f0026 83b00546 0c4600f5 04790f46  .O.&...F.F...y.F
 0f460 b046d5f8 24140022 48464fea d41b01eb  .F..$.."HFO.....
 0f470 d411f9f7 c7f990b1 a300c3f3 0803c258  ...............X
 0f480 0193531c 16bf1646 4ff0000a 4ff0010a  ..S....FO...O...
 0f490 012c04d9 d5f83024 01329442 03d90020  .,....0$.2.B... 
 0f4a0 03b0bde8 f08fd5f8 24140122 48465944  ........$.."HFYD
 0f4b0 f9f7a8f9 0028f2d0 019b40f8 0380baf1  .....(....@.....
 0f4c0 000f12d0 0134b442 08d00023 e21b3946  .....4.B...#..9F
 0f4d0 2846fff7 99fe0028 e1d03746 d5f83034  (F.....(..7F..04
 0f4e0 01339e42 dbd83446 bbe7621c 53463946  .3.B..4F..b.SF9F
 0f4f0 2846d21b 03b0bde8 f04ffff7 85be00bf  (F.......O......
 0f500 2de9f843 00250646 d0f82c14 00f50478  -..C.%.F..,....x
 0f510 2c460022 40464f1c f9f774f9 a8b100f1  ,F."@FO...t.....
 0f520 ff3e04f5 8059d6f8 300405e0 79b90834  .>...Y..0...y..4
 0f530 844209d2 4c4516d0 1ef8011f ff29f5d1  .B..LE.......)..
 0f540 08340835 8442f5d3 401bbde8 f8830822  .4.5.B..@......"
 0f550 01231942 4fea430c 18bf0135 013a5ffa  .#.BO.C....5.:_.
 0f560 8cf3f6d1 e3e73946 d3e700bf f8b50023  ......9F.......#
 0f570 4ff0ff36 00f50477 1546c0f8 40140446  O..6...w.F..@..F
 0f580 41601a46 c0f81412 194680f8 44340370  A`.F.....F..D4.p
 0f590 c66080f8 1032c0f8 1c623846 f9f732f9  .`...2...b8F..2.
 0f5a0 042d0dd8 064658b1 bdb16b1e 00eb0313  .-...FX...k.....
 0f5b0 93f8be21 12f07f02 02d193f8 c2310bb9  ...!.........1..
 0f5c0 0020f8bd 00eb0516 3846d6f8 b6512946  . ......8F...Q)F
 0f5d0 f9f718f9 06460028 f2d00522 1a49f01c  .....F.(...".I..
 0f5e0 06f0b2f9 0028ebd1 96f86c30 092be7d1  .....(....l0.+..
 0f5f0 336d0146 2b44c4f8 2434736d c4f82834  3m.F+D..$4sm..(4
 0f600 b36d2b44 0125c4f8 2c34f36d c4f83034  .m+D.%..,4.m..04
 0f610 336ec4f8 343496f8 6d20c4f8 20042046  3n..44..m .. . F
 0f620 02f10903 84f84524 05fa03f3 5a1ec4f8  ......E$....Z...
 0f630 3c34c4f8 38242a46 fff786fd 40232846  <4..8$*F....@#(F
 0f640 84f84434 f8bd00bf 90090020 10b50446  ..D4....... ...F
 0f650 d0f83414 fff72efe 94f84534 0933dbb2  ..4.......E4.3..
 0f660 984010bd 90f8a230 90f8a320 9a4202d9  .@.....0... .B..
 0f670 1844807e 70474ff0 ff307047 704700bf  .D.~pGO..0pGpG..
 0f680 0346b0f8 300178b1 93f82f21 882a03d9  .F..0.x.../!.*..
 0f690 01220020 5a607047 02f1010c 01201a44  .". Z`pG..... .D
 0f6a0 83f82fc1 82f8a510 704700bf 38b5b0f8  ../.....pG..8...
 0f6b0 30410cb9 204638bd 90f82f31 0546c3f1  0A.. F8.../1.F..
 0f6c0 8904a242 0dd81446 05f1a500 22461844  ...B...F...."F.D
 0f6d0 06f07ef8 95f82f31 20462344 85f82f31  ..~.../1 F#D../1
 0f6e0 38bd0122 4260efe7 38b50025 13464ff4  8.."B`..8..%.FO.
 0f6f0 7a720446 c0e90152 15488822 21612946  zr.F...R.H."!a)F
 0f700 206004f1 1a006361 25732576 657606f0   `....ca%s%vev..
 0f710 edfa8922 294604f1 a50084f8 a25084f8  ...")F.......P..
 0f720 a35084f8 a45006f0 e1fa2046 84f82e51  .P...P.... F...Q
 0f730 84f82f51 84f83051 84f83151 84f83251  ../Q..0Q..1Q..2Q
 0f740 84f83351 84f83451 c4e94e55 38bd00bf  ..3Q..4Q..NU8...
 0f750 000e0020 2de9f04f d0f814a0 1524017e  ... -..O.....$.~
 0f760 8146437e 83b00aeb 0111384a 0aeb0313  .FC~......8J....
 0f770 374f097a 93f82830 02eb0115 0901e868  7O.z..(0.......h
 0f780 52f80180 02eb0311 d5f804b0 1b01ce68  R..............h
 0f790 d558cbf8 0040c8f8 8400d8f8 04304a68  .X...@.......0Jh
 0f7a0 03432c49 0192c8f8 04301460 c5f88460  .C,I.....0.`...`
 0f7b0 6b683343 6b60284b 4c683a68 a3fb0232  kh3Ck`(KLh:h...2
 0f7c0 920c02eb 82025200 4b681b1b 9a42fbd8  ......R.Kh...B..
 0f7d0 4ff0090c 1f4adff8 80e0d8f8 08300342  O....J.......0.B
 0f7e0 02d0ab68 33422fd1 c5f88860 54683968  ...h3B/....`Th9h
 0f7f0 aefb0131 890c01eb 81015368 1b1b9942  ...1......Sh...B
 0f800 fbd8c5f8 84605468 3968aefb 0131890c  .....`Th9h...1..
 0f810 01eb8101 53681b1b 9942fbd8 bcf1010c  ....Sh...B......
 0f820 dbd16046 99f81830 019a0aeb 0313db68  ..`F...0.......h
 0f830 cbf80030 99f81930 0aeb031a daf82c30  ...0...0......,0
 0f840 136003b0 bde8f08f 0120ebe7 7c110020  .`....... ..|.. 
 0f850 44230020 001000e0 83de1b43 0e4a10b5  D#. .......C.J..
 0f860 11680469 05e0db01 07d41368 5b1a102b  .h.i.......h[..+
 0f870 08d86369 13f0007f f5d14ff4 fe430120  ..ci......O..C. 
 0f880 636110bd fff766ff 0028fad0 4ff4fe43  ca....f..(..O..C
 0f890 01206361 f5e700bf e8420020 2de9f047  . ca.....B. -..G
 0f8a0 90f82fa1 baf1000f 58d08146 8846fff7  ../.....X..F.F..
 0f8b0 d5ff0028 52d0374e 00243768 16e06b69  ...(R.7N.$7h..ki
 0f8c0 1a0544d4 580558d4 99044cd4 3268d21b  ..D.X.X...L.2h..
 0f8d0 322a48d8 544507d9 ea6d5207 04d19b05  2*H.TE...mR.....
 0f8e0 55d4b8f1 000f52d0 02f0d8fa 5445d9f8  U.....R.....TE..
 0f8f0 1050e4d8 ea6d5107 02f00703 dfd413e0  .P...mQ.........
 0f900 99f8a520 01330224 42f48062 042b2a66  ... .3.$B..b.+*f
 0f910 27d08a45 03f10103 09eb0102 0ed992f8  '..E............
 0f920 a520042b 2a66cad0 0121002c e8d02146  . .+*f...!.,..!F
 0f930 01330134 8a4509eb 0102f0d8 b8f1000f  .3.4.E..........
 0f940 bdd04ff4 00732b66 6b691a05 bad52b69  ..O..s+fki....+i
 0f950 042043f4 40732b61 bde8f087 0420bde8  . C.@s+a..... ..
 0f960 f0870124 abe72b69 4ff40072 042043f4  ...$..+iO..r. C.
 0f970 40732b61 2a66bde8 f0872b69 4ff40072  @s+a*f....+iO..r
 0f980 022043f4 40732b61 2a66bde8 f0870020  . C.@s+a*f..... 
 0f990 e5e700bf e8420020 2de9f047 82460c46  .....B. -..G.F.F
 0f9a0 15461f46 fff75aff 002800f0 8f806300  .F.F..Z..(....c.
 0f9b0 0021012d dff81c81 dbb240f2 014638bf  .!.-......@..F8.
 0f9c0 01250c46 1e43d8f8 0090aaf8 a2101ee0  .%.F.C..........
 0f9d0 9af8a330 872b3dd9 51690b05 57d411f4  ...0.+=.Qi..W...
 0f9e0 105f67d1 d8f80030 a3eb0903 322b61d8  ._g....0....2+a.
 0f9f0 9af8a330 ab4208d3 022c06d9 d36d5807  ...0.B...,...mX.
 0fa00 03d18b05 47d4002f 45d002f0 47fa022c  ....G../E...G..,
 0fa10 daf81020 dcd8d36d 590703f0 0700d7d4  ... ...mY.......
 0fa20 21466c1e 084444f4 807441b9 16660131  !Fl..DD..tA..f.1
 0fa30 431a032b 01d80229 f7d90c46 c8e70129  C..+...)...F...)
 0fa40 31d017b1 4ff40073 13669af8 a3300324  1...O..s.f...0.$
 0fa50 872bc1d8 d16d11f4 e02fc1f3 024ebbd0  .+...m.../...N..
 0fa60 591c9e44 1933c9b2 5ffa8efe 5afa83f3  Y..D.3.._...Z...
 0fa70 d2f870c0 481c7145 8af8a310 c1b203f8  ..p.H.qE........
 0fa80 01cfa9d0 8929f3d1 51690b05 a7d51369  .....)..Qi.....i
 0fa90 43f44073 1361d36d 13f4e02f 05d19af8  C.@s.a.m.../....
 0faa0 a300bde8 f0871466 c1e71369 43f40073  .......f...iC..s
 0fab0 1361f4e7 13694ff4 007143f4 40731361  .a...iO..qC.@s.a
 0fac0 1166d36d 13f4e02f e9d0eee7 0420bde8  .f.m.../..... ..
 0fad0 f08700bf e8420020 036970b5 d3f81451  .....B. .ip....Q
 0fae0 044615f4 706201d0 c3f81421 ae070bd5  .F..pb.....!....
 0faf0 d3f87011 08043ed5 00220120 84f8a220  ..p...>..". ... 
 0fb00 224484f8 a3009176 ea0710d5 94f83061  "D.....v......0a
 0fb10 f6b194f8 2e6194f8 2f21b242 27d9721c  .....a../!.B'.r.
 0fb20 264484f8 2e2196f8 a520c3f8 6021ab05  &D...!... ..`!..
 0fb30 0dd594f8 a30018b1 d4f83c31 03b19847  ..........<1...G
 0fb40 0023a4f8 a230a4f8 2e3184f8 303170bd  .#...0...1..01p.
 0fb50 d4f83821 0ab19047 23690022 84f82e21  ..8!...G#i."...!
 0fb60 012284f8 302194f8 2f21b242 d7d80022  ."..0!../!.B..."
 0fb70 c3f86021 dbe794f8 a320872a c4d8501c  ..`!..... .*..P.
 0fb80 c0b2bde7 0148fff7 a7bf00bf 3c350020  .....H......<5. 
 0fb90 0148fff7 a1bf00bf 7c360020 0148fff7  .H......|6. .H..
 0fba0 9bbf00bf bc370020 08b5084a 08490948  .....7. ...J.I.H
 0fbb0 fff79afd 084a0949 0948fff7 95fd094a  .....J.I.H.....J
 0fbc0 09490a48 fff790fd 08bd00bf 00220060  .I.H.........".`
 0fbd0 00003f40 3c350020 b0210060 00803f40  ..?@<5. .!.`..?@
 0fbe0 7c360020 60210060 00c03f40 bc370020  |6. `!.`..?@.7. 
 0fbf0 836bf0b4 1bb15368 43f40043 536072b6  .k....ShC..CS`r.
 0fc00 446b3cb3 1a4b2260 d3f8b041 0c421dd1  Dk<..K"`...A.B..
 0fc10 184e7768 04e07468 e41bb4f5 166f0bd2  .Nwh..th.....o..
 0fc20 d3f84041 44f48044 c3f84041 d3f8b851  ..@AD..D..@A...Q
 0fc30 d3f84041 6404eed5 0d4007d1 0c4cc0e9  ..@Ad....@...L..
 0fc40 0225d4f8 b0310b43 c4f8b031 426362b6  .%...1.C...1Bcb.
 0fc50 f0bc7047 064dc0e9 0224d5f8 b0310b43  ..pG.M...$...1.C
 0fc60 c5f8b031 02634263 62b6f0bc 704700bf  ...1.cBcb...pG..
 0fc70 00002e40 001000e0 70b5056b 9db10646  ...@....p..k...F
 0fc80 2a460024 03e01268 0134012a 0cd05368  *F.$...h.4.*..Sh
 0fc90 13f08003 f7d03263 2cb12846 b36b2d68  ......2c,.(F.k-h
 0fca0 9847013c f9d170bd c6e90c33 f4e700bf  .G.<..p....3....
 0fcb0 30b4d9b9 1f4c204b 0021204a 01254ff0  0....L K.! J.%O.
 0fcc0 01109960 1d60c4e9 02318024 5c60c2f8  ...`.`...1.$\`..
 0fcd0 bc01d2f8 b0311a48 2b43c2f8 b0310160  .....1.H+C...1.`
 0fce0 d2f8b031 002bfbd1 30bc7047 0904154b  ...1.+..0.pG...K
 0fcf0 104c0125 41f08001 9860104a 596000f5  .L.%A....`.JY`..
 0fd00 80511d60 d96000f5 0051a364 196100f5  .Q.`.`...Q.d.a..
 0fd10 405100f5 80405961 00219861 e164d2f8  @Q...@Ya.!.a.d..
 0fd20 b03143f4 8033c2f8 b031d2f8 b031002b  .1C..3...1...1.+
 0fd30 fbd1c0e7 00000020 202b0020 00002e40  .......  +. ...@
 0fd40 143f0020 402b0020 08490122 0b7802fa  .?. @+. .I.".x..
 0fd50 00f023ea 00000870 30b9054a d2f84831  ..#....p0..J..H1
 0fd60 23f08003 c2f84831 704700bf 8e430020  #.....H1pG...C. 
 0fd70 00002e40 2de9f04f 994c83b0 d4f84461  ...@-..O.L....Da
 0fd80 f107c4f8 44616ad5 d4f8ac31 002b61d0  ....Daj....1.+a.
 0fd90 dff87882 934ddff8 6cb208f5 805adff8  ..x..M..l....Z..
 0fda0 7092914f c4f8ac31 d5e90a20 d4f84031  p..O...1... ..@1
 0fdb0 43f40053 c4f84031 d4f84031 9b04f5d5  C..S..@1..@1....
 0fdc0 d4f84031 23f40053 c4f84031 4ff00113  ..@1#..S..@1O...
 0fdd0 c4f8b431 d4f8b431 13f00113 fad191b2  ...1...1........
 0fde0 40f2816c cbf80030 614500f2 d480b1f5  @..l...0aE......
 0fdf0 d06f80f0 6681b1f5 817f00f0 948140f2  .o..f.........@.
 0fe00 a68040f2 023c6145 00f0b781 b1f5a06f  ..@..<aE.......o
 0fe10 40f0bc80 7549eb64 8b600123 a9640b60  @...uI.d.`.#.d.`
 0fe20 80234b60 4ff00113 c4f8bc31 d4f8b031  .#K`O......1...1
 0fe30 43f48033 c4f8b031 d4f8b031 002bfbd1  C..3...1...1.+..
 0fe40 130c5b06 43f08073 c4f85431 d4f8ac31  ..[.C..s..T1...1
 0fe50 002ba7d1 624bd3f8 bc71002f 45d17206  .+..bK...q./E.r.
 0fe60 16d55f4b d3f8ac21 c3f8ac21 d3f8bc21  .._K...!...!...!
 0fe70 c3f8bc21 d3f8b041 002cfbd1 4ff0ff32  ...!...A.,..O..2
 0fe80 c3f8b421 d3f88431 02f022fa 584b1c60  ...!...1..".XK.`
 0fe90 f40103d5 574b1b68 03b19847 b00103d5  ....WK.h...G....
 0fea0 554b1b68 03b19847 710708d5 4c4bd3f8  UK.h...Gq...LK..
 0feb0 843113f4 007315d0 504b0122 1a70484b  .1...s..PK.".pHK
 0fec0 d3f84831 1a060ad5 330608d5 4c4a1378  ..H1....3...LJ.x
 0fed0 2bb1013b dbb21370 002b00f0 5c8203b0  +..;...p.+..\...
 0fee0 bde8f08f 454a1370 e9e74649 c3f8bc71  ....EJ.p..FI...q
 0fef0 08680742 40f07481 3d4b1b68 1f40aed0  .h.B@.t.=K.h.@..
 0ff00 5fea1748 10d0374d 4ff00109 98faa8f4  _..H..7MO.......
 0ff10 b4fa84f4 05ebc410 09fa04f4 4030fff7  ............@0..
 0ff20 abfe38ea 0408f1d1 bfb2002f 97d02d4d  ..8......../..-M
 0ff30 4ff00108 97faa7f4 b4fa84f4 05ebc410  O...............
 0ff40 08fa04f4 fff798fe a743f3d1 87e78029  .........C.....)
 0ff50 00f0b180 822919d1 83b210f0 780015d1  .....)......x...
 0ff60 03f07f02 57f82210 274a1080 180600f1  ....W.".'J......
 0ff70 0282cb07 01d50123 13700221 2248fff7  .......#.p.!"H..
 0ff80 97fe63e7 010c0729 00f05b81 4ff00113  ..c....)..[.O...
 0ff90 c4f8c031 5ae742f2 210c6145 f2d039d9  ...1Z.B.!.aE..9.
 0ffa0 42f22123 99426fd0 42f22133 9942edd1  B.!#.Bo.B.!3.B..
 0ffb0 0e4b0022 9a60ea64 0122ab64 1a608022  .K.".`.d.".d.`."
 0ffc0 5a604ff0 0113c4f8 bc31d4f8 b03143f4  Z`O......1...1C.
 0ffd0 8033c4f8 b031d4f8 b031002b fbd135e7  .3...1...1.+..5.
 0ffe0 00002e40 00000020 c0012e40 202b0020  ...@... ...@ +. 
 0fff0 183f0020 5c430020 60430020 9a430020  .?. \C. `C. .C. 
 10000 9b430020 143f0020 4c400020 0c3f0020  .C. .?. L@. .?. 
 10010 402b0020 b1f5086f 45d0b1f5 106fb5d1  @+. ...oE....o..
 10020 c2f3074c a64aa749 4ff0c810 82f800c0  ...L.J.IO.......
 10030 a54a0093 c4f8c801 c4f8cc11 c4f8d001  .J..............
 10040 c4f8d411 c4f8d821 02f044f9 01f0d2fc  .......!..D.....
 10050 00f026fe 9d4a0121 009baa64 11608021  ..&..J.!...d.`.!
 10060 93605160 4ff00112 eb64c4f8 bc21d4f8  .`Q`O....d...!..
 10070 b02142f4 8032c4f8 b021cbf8 0030d4f8  .!B..2...!...0..
 10080 b031002b fbd1e1e6 80b20028 00f09f80  .1.+.......(....
 10090 02288dd1 8e4bc2f3 07421968 8d4b1960  .(...K...B.h.K.`
 100a0 8d4b1a70 84e7864b 01218c48 1b780370  .K.p...K.!.H.x.p
 100b0 fff7fefd cae68948 02210380 fff7f8fd  .......H.!......
 100c0 c4e6874b 59680029 3ff460af 4fea124e  ...KYh.)?.`.O..N
 100d0 82b204e0 19690c33 00293ff4 57afb3f8  .....i.3.)?.W...
 100e0 00c0f445 f6d1b3f8 02c09445 f2d14fea  ...E.......E..O.
 100f0 1e22032a 00f01081 1a89000c 824228bf  .".*.........B(.
 10100 0246bef5 007f40f0 0c81764b 76491878  .F....@...vKvI.x
 10110 764b0092 002818bf 19467548 05f058fb  vK...(...FuH..X.
 10120 734b009a 12e110f0 780f83b2 7ff42eaf  sK......x.......
 10130 03f07f02 13f0800f 57f82230 14bf23f4  ........W."0..#.
 10140 803323f0 010347f8 22300022 5f4bea64  .3#...G."0."_K.d
 10150 9a600122 ab641a60 80225a60 4ff00113  .`.".d.`."Z`O...
 10160 c4f8bc31 d4f8b031 43f48033 c4f8b031  ...1...1C..3...1
 10170 d4f8b031 002bfbd1 68e610f0 780f83b2  ...1.+..h...x...
 10180 7ff404af 03f07f02 13f0800f 57f82230  ............W."0
 10190 14bf43f4 803343f0 010347f8 22300022  ..C..3C...G."0."
 101a0 4a4bea64 9a600122 ab641a60 80225a60  JK.d.`.".d.`."Z`
 101b0 4ff00113 c4f8bc31 d4f8b031 43f48033  O......1...1C..3
 101c0 c4f8b031 d4f8b031 002bfbd1 3ee6404b  ...1...1.+..>.@K
 101d0 c2f30742 1968474b 1960474b 1a70e7e6  ...B.hGK.`GK.p..
 101e0 00200860 45480488 416842f2 21008442  . .`EH..AhB.!..B
 101f0 7ff482ae 89b20029 00f0ca80 02297ff4  .......).....)..
 10200 7bae3f49 3f4c03c9 a1808628 4fea1141  {.?I?L.....(O..A
 10210 2060a171 7ff470ae 72b63b48 017841f0   `.q..p.r.;H.xA.
 10220 20010170 d3f84811 0d0605d4 80200143   ..p..H...... .C
 10230 c3f84401 c3f84811 62b6344b 50211970  ..D...H.b.4KP!.p
 10240 5ae6eb60 01232d49 c9f80030 304b0a60  Z..`.#-I...00K.`
 10250 c9f80430 2f4b4860 c9f81030 c5f80890  ...0/KH`...0....
 10260 c9e9028a d4f8b021 42f00102 c4f8b021  .......!B......!
 10270 03f58052 03f50053 c9f81420 c9f81830  ...R...S... ...0
 10280 d4f8b031 002bfbd1 104aeb64 93600123  ...1.+...J.d.`.#
 10290 aa641360 48f28003 53604ff0 0113c4f8  .d.`H...S`O.....
 102a0 bc31d4f8 b03143f4 8033c4f8 b0314ff4  .1...1C..3...1O.
 102b0 8033cbf8 0030d4f8 b031002b fbd1c5e5  .3...0...1.+....
 102c0 99430020 0200cc00 cc000200 202b0020  .C. ........ +. 
 102d0 e8420020 4c430020 97430020 4c400020  .B. LC. .C. L@. 
 102e0 6c210020 9a430020 84220060 34230060  l!. .C. .".`4#.`
 102f0 a0bc2020 58430020 98430020 602f0020  ..  XC. .C. `/. 
 10300 0c3f0020 44430020 8e430020 9b430020  .?. DC. .C. .C. 
 10310 80000700 0c5f0020 000c0a78 824228bf  ....._. ...x.B(.
 10320 0246bef5 e06f2ad1 1d4b1e48 93f800c0  .F...o*..K.H....
 10330 1d491e4b bcf1000f 18bf0146 00921846  .I.K.......F...F
 10340 05f046fa 07210346 4170009a 23f01f01  ..F..!.FAp..#...
 10350 1344bff3 4f8f4ff0 e020c0f8 701f2031  .D..O.O.. ..p. 1
 10360 8b42fad8 bff34f8f bff36f8f 0f481146  .B....O...o..H.F
 10370 fff79efc 6ae5c903 3ff5fdad fde50b4b  ....j...?......K
 10380 1846cde9 002305f0 23fadde9 0023dde7  .F...#..#....#..
 10390 0749084c 37e70520 fff7d6fc 05f0f4ff  .I.L7.. ........
 103a0 9a430020 84220060 34230060 a0bc2020  .C. .".`4#.`..  
 103b0 0c3f0020 50430020 2de9f047 1f46831e  .?. PC. -..G.F..
 103c0 042b01d9 bde8f087 dff84c90 15460c46  .+........L..F.F
 103d0 3c2209eb c0180646 4feac01a 002108f1  <".....FO....!..
 103e0 04002404 05f082fc b5fa85f2 01235209  ..$..........#R.
 103f0 44ea4274 49f80a40 c8f83870 c8f80830  D.BtI..@..8p...0
 10400 002fdfd0 034ab340 11680b43 1360bde8  ./...J.@.h.C.`..
 10410 f08700bf 183f0020 00000020 2de9f047  .....?. ... -..G
 10420 0d46811e 042901d9 bde8f087 c701dff8  .F...)..........
 10430 4c909246 04464037 3c220021 1e4609eb  L..F.F@7<".!.F..
 10440 07082d04 08f10400 05f050fc bafa8af2  ..-.......P.....
 10450 520945ea 427249f8 07200122 c8f83860  R.E.BrI.. ."..8`
 10460 c8f80820 002edfd0 034b1034 1968a240  ... .....K.4.h.@
 10470 0a431a60 bde8f087 183f0020 00000020  .C.`.....?. ... 
 10480 12048160 c36101f5 405342f0 800210b4  ...`.a..@SB.....
 10490 01244260 01f50052 046001f5 805401f5  .$B`...R.`...T..
 104a0 8041c460 81615df8 044bc0e9 04237047  .A.`.a]..K...#pG
 104b0 831e0a46 042b00d9 7047064b 00f11001  ...F.+..pG.K....
 104c0 4ff0010c 03ebc010 0cfa01f1 4030fff7  O...........@0..
 104d0 8fbb00bf 00000020 831e0a46 042b00d9  ....... ...F.+..
 104e0 70470121 024b8140 03ebc010 fff780bb  pG.!.K.@........
 104f0 00000020 40687047 a249a34b 88422de9  ... @hpG.I.K.B-.
 10500 f047a24c 5e699a69 d4f80c80 1bd9a04b  .G.L^i.i.......K
 10510 984240f2 0281c31a 9e491b0a a1fb0313  .B@......I......
 10520 40f22761 db0903eb 830303eb 830303f2  @.'a............
 10530 e2438b42 28bf0b46 a3f54877 964ba3fb  .C.B(..F..Hw.K..
 10540 0737ff08 04e0954f b8428cbf 0e270627  .7.....O.B...'.'
 10550 8d4908f0 1f09d1f8 8030b945 43f0c003  .I.......0.EC...
 10560 c1f88030 0cd228f0 1f08a1f5 f82148ea  ...0..(......!H.
 10570 0708c1f8 0c800b68 002bfcda 08f01f09  .......h.+......
 10580 16f00073 24d18649 0c698649 a14300f0  ...s$..I.i.I.C..
 10590 ea8082f4 80513446 4ff48055 14f0605f  .....Q4FO..U..`_
 105a0 04d026f0 60561e43 774b5e61 11f4405f  ..&.`V.CwK^a..@_
 105b0 07d022f4 40527449 2a438a61 8b6c1a07  ..".@RtI*C.a.l..
 105c0 fcd446f0 0076704a 5661936c 9b06fcd4  ..F..vpJVa.l....
 105d0 754ca042 00f2ce80 4ff0010c 01466346  uL.B....O....FcF
 105e0 03fb0112 03f1010e 0cf10105 a24218d8  .............B..
 105f0 bef1080f 4ff00103 40f08d80 bcf1040f  ....O...@.......
 10600 00f29180 0a18a242 00f2a480 05fb00f1  .......B........
 10610 ac4603f1 010e03fb 01120cf1 0105a242  .F.............B
 10620 e6d90cf1 ff318c02 86ea8121 5f481044  .....1.....!_H.D
 10630 5f4a9042 7fd9dff8 a4a16c22 5d48584d  _J.B......l"]HXM
 10640 b0fbfef0 d5f800e0 b0fbfcf0 dff890c1  ................
 10650 0eea0c0c d44509d0 42f40052 4ff4805c  .....E..B..RO..\
 10660 c5f800c0 2a602a68 002afcda 464a1569  ....*`*h.*..FJ.i
 10670 05f00705 9d4203d0 1361936c dd03fcd4  .....B...a.l....
 10680 11f4e05f 09d026f4 e05604f4 e0543e4a  ..._..&..V...T>J
 10690 26435661 936c9907 fcd44749 474a0144  &CVa.l....GIGJ.D
 106a0 91423cd8 464bc909 a3fb0131 090b4b1e  .B<.FK.....1..K.
 106b0 1b0286ea 030212f4 407f06d0 26f44076  ........@...&.@v
 106c0 03f44073 304a3343 53612f4a 536923f0  ..@s0J3CSa/JSi#.
 106d0 00735361 936c9b06 fcd43a4b 4f45a3fb  .sSa.l....:KOE..
 106e0 00234ff0 ff324fea 9343b0fb f1f1b2fb  .#O..2O..C......
 106f0 f3f3354a 1060354a 1160354a 136008d2  ..5J.`5J.`5J.`..
 10700 28f01f08 214a48ea 0707d760 1368002b  (...!JH....`.h.+
 10710 fcdabde8 f0877346 62e71227 18e74ff4  ......sFb..'..O.
 10720 40730421 c5e70cf1 ff312048 07238c02  @s.!.....1 H.#..
 10730 104486ea 8121274a dff8a8a0 a2fb0020  .D...!'J....... 
 10740 020d2548 362a38bf 362202fb 00f042ea  ..%H6*8.6"....B.
 10750 0a0a74e7 4fea8c24 002386ea 8c214ff0  ..t.O..$.#...!O.
 10760 010eac46 62e71d46 86f0c054 11464ff0  ...Fb..F...T.FO.
 10770 c05313e7 00244ff0 010c0246 31462346  .S...$O....F1F#F
 10780 e64653e7 00a4781f 00c00f40 00000840  .FS...x....@...@
 10790 0046c323 23b24c00 1f85eb51 00366e01  .F.##.L....Q.6n.
 107a0 00800d40 40300080 ffb19f26 808d5b00  ...@@0.....&..[.
 107b0 ff7ef64d 00643f4d 7fd1f008 7f17b42c  .~.M.d?M.......,
 107c0 9f10e500 83de1b43 44230020 40230020  .......CD#. @#. 
 107d0 1c410020 819f5e16 001bb700 6c200080  .A. ..^.....l ..
 107e0 7f300180 00200080 362816d8 0201104b  .0... ..6(.....K
 107f0 03eb0010 9b5810b4 c2685c68 144205d0  .....X...h\h.B..
 10800 61b95df8 044bc3f8 88207047 836851b1  a.]..K... pG.hQ.
 10810 084a5df8 044b1a60 70477047 5df8044b  .J]..K.`pGpG]..K
 10820 c3f88420 7047044a 5df8044b 1a607047  ... pG.J]..K.`pG
 10830 7c110020 38f00100 38300100 36280bd8  |.. 8...80..6(..
 10840 064b0201 03eb0010 9a58c368 92681a42  .K.......X.h.h.B
 10850 14bf0120 00207047 00207047 7c110020  ... . pG. pG|.. 
 10860 362829d8 164b0201 012903eb 00109a58  6()..K...).....X
 10870 10b45368 c4680ed0 04290cd0 23ea0403  ..Sh.h...)..#...
 10880 53608368 a9b10229 17d00329 0cbf0d4a  S`.h...)...)...J
 10890 0d4a1a60 07e02343 01295360 836808d0  .J.`..#C.)S`.h..
 108a0 40f63802 1a604368 15225df8 044b1a60  @.8..`Ch."]..K.`
 108b0 70473822 1a60f6e7 7047044a 1a60f2e7  pG8".`..pG.J.`..
 108c0 7c110020 38300100 38000100 38f00100  |.. 80..8...8...
 108d0 2a2849d8 f8b5254f 04463b78 e3b9244b  *(I...%O.F;x..$K
 108e0 1b5dff2b 29d0234a 02eb0412 91680a68  .].+).#J.....h.h
 108f0 02f44050 b0f5805f 30d01c06 1fd41e4c  ..@P..._0......L
 10900 2360236a d80704d4 01f0c8fa 236ad907  #`#j........#j..
 10910 fad5194b 586af8bd 174d184e 01e001f0  ...KXj...M.N....
 10920 bdfaab6c 1b06fad4 b36c13f0 8003f6d1  ...l.....l......
 10930 3b700f4b 1b5dff2b d5d10020 f8bd0f4c  ;p.K.].+... ...L
 10940 03f07f03 2360236a da0704d4 01f0a6fa  ....#`#j........
 10950 236adb07 fad5094b 586af8bd 22f48052  #j.....KXj.."..R
 10960 1c060a60 ebd4cae7 00207047 83430020  ...`..... pG.C. 
 10970 841b0020 7c110020 00400c40 00800c40  ... |.. .@.@...@
 10980 704700bf 704700bf 704700bf 704700bf  pG..pG..pG..pG..
 10990 70b51a4c 1a4d2368 ab4202d0 194ad168  p..L.M#h.B...J.h
 109a0 29bba369 ab4202d0 164ad169 c9b9236b  )..i.B...J.i..#k
 109b0 ab4202d0 134ad16a 69b9a36c ab4209d0  .B...J.ji..l.B..
 109c0 104ad16b 31b10121 1b680f48 d163bde8  .J.k1..!.h.H.c..
 109d0 70401847 70bd0121 1b680c48 d1629847  p@.Gp..!.h.H.b.G
 109e0 ebe70121 1b680a48 d1619847 dfe70121  ...!.h.H.a.G...!
 109f0 1b6804f1 0800d160 9847d2e7 c02a0020  .h.....`.G...*. 
 10a00 640a0020 00410840 102b0020 f82a0020  d.. .A.@.+. .*. 
 10a10 e02a0020 38b5064c a4f16005 54f8083c  .*. 8..L..`.T..<
 10a20 2046183c db689847 ac42f7d1 38bd00bf   F.<.h.G.B..8...
 10a30 102b0020 03682de9 f0410446 88b01746  .+. .h-..A.F...F
 10a40 002b4bd0 00229a60 0122da60 304d04a8  .+K..".`.".`0M..
 10a50 dff8e080 1d4451f8 083b2d11 02935b68  .....DQ..;-...[h
 10a60 05eb4506 9847f600 06f10800 58f80630  ..E..G......X..0
 10a70 4044db68 01909847 264a04a9 dde90103  @D.h...G&J......
 10a80 029248f8 06309b68 9847029b 04a8db68  ..H..0.h.G.....h
 10a90 98472368 03222048 1f609a60 1f4a2379  .G#h." H.`.`.J#y
 10aa0 1f4c5355 13785178 c0f82842 8b4228bf  .LSU.xQx..(B.B(.
 10ab0 0b469178 d2788b42 28bf0b46 934228bf  .F.x.x.B(..F.B(.
 10ac0 1346184c 4ff0e022 4ff08061 012084f8  .F.LO.."O..a. ..
 10ad0 7a30c2f8 0c1108b0 bde8f081 124ad36e  z0...........J.n
 10ae0 43f44053 d3660122 104b1a60 104a1346  C.@S.f.".K.`.J.F
 10af0 02604032 98680028 a8d01033 93422360  .`@2.h.(...3.B#`
 10b00 f8d10023 18462360 08b0bde8 f08100bf  ...#.F#`........
 10b10 00bff7bf 640a0020 00280020 70230020  ....d.. .(. p#. 
 10b20 91090100 00e400e0 00c00f40 00400840  ...........@.@.@
 10b30 00410840 c02a0020 f8b50368 43b3154c  .A.@.*. ...hC..L
 10b40 0746154e 1c442411 04eb4405 ed007359  .F.N.D$...D...sY
 10b50 05f10800 db683044 9847104b 00210122  .....h0D.G.K.!."
 10b60 73513b68 9960da60 ff230d4a 13551378  sQ;h.`.`.#.J.U.x
 10b70 50789478 834228bf 0346d078 094aa342  Px.x.B(..F.x.J.B
 10b80 28bf2346 834228bf 034682f8 7a303960  (.#F.B(..F..z09`
 10b90 f8bd00bf 00bff7bf c02a0020 640a0020  .........*. d.. 
 10ba0 70230020 00e400e0 10b4064b 0020064c  p#. .......K. .L
 10bb0 064a1c60 9c611c63 9c640549 5df8044b  .J.`.a.c.d.I]..K
 10bc0 03f0e2be c02a0020 640a0020 98230020  .....*. d.. .#. 
 10bd0 150a0100 074a506a 936a1946 8446506a  .....JPj.j.F.FPj
 10be0 936a9942 f9d18445 f7d1db0b 43ea4040  .j.B...E....C.@@
 10bf0 704700bf 00400d40 024a0349 034803f0  pG...@.@.J.I.H..
 10c00 c3be00bf 98230020 95220000 68230020  .....#. ."..h#. 
 10c10 0a4a10b4 1378c469 0133042b 06d8d9b2  .J...x.i.3.+....
 10c20 07481170 c4545df8 044b7047 00210448  .H.p.T]..KpG.!.H
 10c30 0b461170 c4545df8 044b7047 88430020  .F.p.T]..KpG.C. 
 10c40 9c400020 c0eb8022 13490346 114470b5  .@. ...".I.F.Dp.
 10c50 21f01f02 01f2ff3c bff34f8f 4ff0e024  !......<..O.O..$
 10c60 c4f85c2f 20329445 fad8bff3 4f8fbff3  ..\/ 2.E....O...
 10c70 6f8f0a4d 4ff40036 40f2ff32 05eb4315  o..MO..6@..2..C.
 10c80 c4f88c61 2846fff7 fbfb2946 0620fff7  ...a(F....)F. ..
 10c90 23fcc4f8 0c6170bd a06c2020 602b0020  #....ap..l  `+. 
 10ca0 00218022 154810b5 0c4605f0 1ff88022  .!.".H...F....."
 10cb0 13482146 05f01af8 1249134a 23461348  .H!F.....I.J#F.H
 10cc0 14702246 0c7040f2 ff310470 0520fff7  .p"F.p@..1.p. ..
 10cd0 a5fb2246 0e4b40f2 ff310620 fff76cfb  .."F.K@..1. ..l.
 10ce0 2046fff7 afff0120 fff7acff 0220fff7   F..... ..... ..
 10cf0 a9ff0320 bde81040 fff7a4bf e02d0020  ... ...@.....-. 
 10d00 602b0020 92430020 88430020 8b430020  `+. .C. .C. .C. 
 10d10 110c0100 eff31082 72b6437f 5bb9017f  ........r.C.[...
 10d20 012930b4 0bd00329 13d00123 437702b9  .)0....)...#Cw..
 10d30 62b630bc 70470ab9 62b67047 7047124c  b.0.pG..b.pGpG.L
 10d40 2168b1b1 11494361 0b680860 83615861  !h...ICa.h.`.aXa
 10d50 ebe70f4d 0f492c68 8cb14361 0b688361  ...M.I,h..Ca.h.a
 10d60 58614ff0 e0234ff0 80540860 c3f8044d  XaO..#O..T.`...M
 10d70 dbe7064b 20601860 c0e90511 d5e7c0e9  ...K `.`........
 10d80 05442860 ede700bf ec3a0020 f83a0020  .D(`.....:. .:. 
 10d90 f43a0020 f03a0020 70b5eff3 108272b6  .:. .:. p.....r.
 10da0 0c4c2068 80b10c4e 00254369 236073b1  .L h...N.%Ci#`s.
 10db0 9d6102b9 62b68368 45779847 eff31082  .a..b..hEw.G....
 10dc0 72b62068 0028f0d1 02b962b6 70bd3360  r. h.(....b.p.3`
 10dd0 efe700bf f43a0020 f03a0020 fff7dcbf  .....:. .:. ....
 10de0 eff31082 72b6437f 63b1017f 012930b4  ....r.C.c....)0.
 10df0 0cd00329 11d00021 417702b9 62b61846  ...)...!Aw..b..F
 10e00 30bc7047 02b962b6 18467047 d0e90541  0.pG..b..FpG...A
 10e10 61b14c61 6cb1a161 ede7d0e9 054159b1  a.Lal..a.....AY.
 10e20 4c61002c f7d1074c 2160e4e7 064d2c60  La.,...L!`...M,`
 10e30 f0e7064c 2160dee7 054d2c60 002cead1  ...L!`...M,`.,..
 10e40 f1e700bf f03a0020 ec3a0020 f83a0020  .....:. .:. .:. 
 10e50 f43a0020 037f012b 0ed0032b 00d07047  .:. ...+...+..pG
 10e60 437f33b1 d0e90523 c3b15a61 62b90e4a  C.3....#..Zab..J
 10e70 13600023 03777047 437f002b f9d0d0e9  .`.#.wpGC..+....
 10e80 05232bb1 5a6132b1 93610023 03777047  .#+.Za2..a.#.wpG
 10e90 06490a60 f7e7064a 1360eae7 05490a60  .I.`...J.`...I.`
 10ea0 002af1d1 e3e700bf f03a0020 ec3a0020  .*.......:. .:. 
 10eb0 f83a0020 f43a0020 0449054a 4968054b  .:. .:. .I.JIh.K
 10ec0 19601368 01331360 704700bf 001000e0  .`.h.3.`pG......
 10ed0 e8420020 e4420020 01f1ff3c 70b56646  .B. .B. ...<p.fF
 10ee0 002400e0 0134b0fb f2f502fb 1503092b  .$...4.........+
 10ef0 03f1370e 03f13003 5ffa8efe 98bf5ffa  ..7...0._....._.
 10f00 83fe9042 284606f8 01efebd2 631c0022  ...B(F......c.."
 10f10 c818ca54 7cb16246 1cf8015f 10f8016d  ...T|.bF..._...m
 10f20 a1eb0c03 02328cf8 0060013b 521a0570  .....2...`.;R..p
 10f30 23449a42 efdb0846 70bd00bf 08b5d0e9  #D.B...Fp.......
 10f40 00325bb1 bab10f4b a3fb0213 db0803eb  .2[....K........
 10f50 4303b2eb 83030ad1 012008bd 094ba3fb  C........ ...K..
 10f60 0213db08 03eb4303 b2eb8303 01d0d21a  ......C.........
 10f70 4260f02a f0d804f0 6bfe1c22 03460020  B`.*....k..".F. 
 10f80 1a6008bd abaaaaaa 70b50446 38b319b1  .`......p..F8...
 10f90 b2fa82f6 7609a2b9 206800b3 6268f2b1  ....v... h..bh..
 10fa0 184b1949 02fb03f3 b1ebb30f 17d3a368  .K.I...........h
 10fb0 e3b90022 01232260 6260a260 e2601846  ...".#"`b`.`.`.F
 10fc0 70bd1d46 049bc0e9 0012c360 fff7b6ff  p..F.......`....
 10fd0 03460028 f3d06db9 01231846 70bd04f0  .F.(..m..#.Fp...
 10fe0 37fe1622 00230260 184670bd 002104f0  7..".#.`.Fp..!..
 10ff0 7dfedee7 62683146 2068a560 04f076fe  }...bh1F h.`..v.
 11000 0123dce7 abaaaaaa 55555515 4ff0010c  .#......UUU.O...
 11010 0cfa01fc 01eb4101 00eb4111 70b5b1f8  ......A...A.p...
 11020 0ee01ffa 8cf5254c 1ffa8efe 24782e01  ......%L....$x..
 11030 0efb0333 06f0f006 e340b0f8 88417345  ...3.....@...AsE
 11040 a4b228bf 73463443 012aa0f8 88410dd0  ..(.sF4C.*...A..
 11050 022a28d0 c2b10cf0 0f02b0f8 88c11ffa  .*(.............
 11060 8cfc4cea 020ca0f8 88c170bd 9bb20cf0  ..L.......p.....
 11070 0f022d02 cb82b0f8 803105f4 70659bb2  ..-......1..pe..
 11080 2b43a0f8 8031e8e7 aeeb030e 0cf00f02  +C...1..........
 11090 1ffa8efe a1f80ae0 b0f88031 9bb21343  ...........1...C
 110a0 a0f88031 d9e79bb2 0cf00f02 cb83b0f8  ...1............
 110b0 80319bb2 1e43a0f8 8061cee7 7d240020  .1...C...a..}$. 
 110c0 01eb4103 f6ee006a 00eb4313 b3f80ec0  ..A....j..C.....
 110d0 314b1ffa 8cfc93ed 007ab8ee 477a70b5  1K.......z..Gzp.
 110e0 c7ee007a 4ff0010e 4e000efa 01fe1ffa  ...zO...N.......
 110f0 8ef577ee a67afcee e77a17ee 903ab3f5  ..w..z...z...:..
 11100 803f46d3 00224ff6 ff745b08 0132a342  .?F.."O..t[..2.B
 11110 01d9062a f9d91201 42f48062 92b2022b  ...*....B..b...+
 11120 4ff6ff74 4fea0515 314438bf 02230ef0  O..tO...1D8..#..
 11130 0f0eedb2 a34200eb 411128bf 2346b0f8  .....B..A.(.#F..
 11140 8841a4b2 2c43a0f8 8841ca80 5a1e92b2  .A..,C...A..Z...
 11150 ca814a89 92b203fb 02f2b2fb fcf292b2  ..J.............
 11160 4a81ca8a 92b203fb 02f2b2fb fcf292b2  J...............
 11170 ca82ca8b 92b202fb 03f3b3fb fcf39bb2  ................
 11180 cb83b0f8 88319bb2 43ea0e03 a0f88831  .....1..C......1
 11190 70bd4ff4 8062c2e7 40230020 214bf6ee  p.O..b..@#. !K..
 111a0 006a4ff6 fe7c93ed 007ab8ee 477ac7ee  .jO..|...z..Gz..
 111b0 007a77ee a67afcee e77a17ee 903a6345  .zw..z...z...:cE
 111c0 2cd90022 5b080132 634501d9 062af9d9  ,.."[..2cE...*..
 111d0 083242f2 260c4cea 422c1ffa 8cfc022b  .2B.&.L.B,.....+
 111e0 00eb4111 4ff6fe70 38bf0223 0a8a8342  ..A.O..p8..#...B
 111f0 92b228bf 0346c888 80b2c0f1 01101044  ..(..F.........D
 11200 03fb02f2 b2fbf0f2 9b1a92b2 c3f10103  ................
 11210 9bb2cb80 0a82a1f8 0cc07047 43f2260c  ..........pGC.&.
 11220 dde700bf 40230020 36284bd8 f8b52a4d  ....@#. 6(K...*M
 11230 044615f8 202005eb 8005012a 2dd0022a  .F..  .....*-..*
 11240 3fd16b78 c3f30110 03283ed0 234a02eb  ?.kx.....(>.#J..
 11250 803203f0 030c2248 89b26346 02eb4c1c  .2...."H..cF..L.
 11260 0678bcf8 06e05801 bcf81030 1ffa8efe  .x....X....0....
 11270 cef1011e 1efa83f3 03f1ff3e 0efb01f1  ...........>....
 11280 f1408e45 23d95b1a c3f10103 9bb289b2  .@.E#.[.........
 11290 0244acf8 06301182 0de06a78 c2f30113  .D...0....jx....
 112a0 032b10d0 0f4800eb 83308bb2 02f00301  .+...H...0......
 112b0 aa78fff7 abfe0c4b ea7803eb 04135b68  .x.....K.x....[h
 112c0 1a60f8bd 70470948 efe7094a c1e7991e  .`..pG.H...J....
 112d0 4ff6ff73 dbe700bf b01b0020 00c01d40  O..s....... ...@
 112e0 7d240020 00c03d40 7c110020 00803e40  }$. ..=@|.. ..>@
 112f0 00801e40 362808d8 154b13f8 202003eb  ...@6(...K..  ..
 11300 8003012a 02d0022a 0dd07047 5978c1f3  ...*...*..pGYx..
 11310 0112032a 13d00f48 01f00301 00eb8230  ...*...H.......0
 11320 9a78fff7 cdbe5978 c1f30113 032b0cd0  .x....Yx.....+..
 11330 094800eb 833001f0 0301fff7 2fbf0748  .H...0....../..H
 11340 01f00301 9a78fff7 bbbe0548 f3e700bf  .....x.....H....
 11350 b01b0020 00c03d40 00c01d40 00803e40  ... ..=@...@..>@
 11360 00801e40 00230f22 48f2b82c 194610b5  ...@.#."H..,.F..
 11370 4ff47044 4ff4806e a0f88c41 4ff46044  O.pDO..n...AO.`D
 11380 a0f88e21 0a46a0f8 9031b0f8 88319bb2  ...!.F...1...1..
 11390 43f0f003 a0f88831 01eb4103 013100eb  C......1..A..1..
 113a0 43130429 9c80a3f8 06e05a84 1a865a80  C..)......Z...Z.
 113b0 5a81a3f8 0ec05a82 da825a83 da83ebd1  Z.....Z...Z.....
 113c0 b0f88831 9bb243f0 0f03a0f8 8831b0f8  ...1..C......1..
 113d0 88319bb2 43f47063 a0f88831 10bd00bf  .1..C.pc...1....
 113e0 374b384a 996f3848 41f47f01 70b59967  7K8J.o8HA...p..g
 113f0 41f20106 d3f88010 45f6c055 43f22604  A.......E..UC.&.
 11400 0a43c3f8 8020fff7 adff00f5 8040fff7  .C... .......@..
 11410 a9ff00f5 8040fff7 a5ff00f5 8040fff7  .....@.......@..
 11420 a1ff0022 a0f50310 4ff00f0e 114600eb  ..."....O....F..
 11430 42134fea 421c0132 9981042a 5981a3f8  B.O.B..2...*Y...
 11440 0ee09e82 dd8020f8 0c101982 9c81eed1  ...... .........
 11450 00221e48 4ff00f0e 41f20106 114645f6  .".HO...A....FE.
 11460 c05543f2 260400eb 42134fea 421c0132  .UC.&...B.O.B..2
 11470 9981042a 5981a3f8 0ee09e82 dd8020f8  ...*Y......... .
 11480 0c101982 9c81eed1 00221148 0f2641f2  .........".H.&A.
 11490 01051146 45f6c054 43f2260e 00eb4213  ...FE..TC.&...B.
 114a0 4fea421c 01329981 042a5981 de819d82  O.B..2...*Y.....
 114b0 dc8020f8 0c101982 a3f80ce0 eed170bd  .. ...........p.
 114c0 00c00f40 000003fc 00c03d40 00001e40  ...@......=@...@
 114d0 00401e40 72b6eff3 0583524c c4f88430  .@.@r.....RL...0
 114e0 1ef0040f 0cbfeff3 0882eff3 09824ff0  ..............O.
 114f0 e0234d4e 4d4dd3f8 280dd3f8 2c1dc4e9  .#MNMM..(...,...
 11500 2201d3f8 341dd3f8 383dc4e9 24139369  "...4...8=..$..i
 11510 c4f89830 d369c4f8 9c3000f0 63fc84ed  ...0.i...0..c...
 11520 280afff7 57fb0b21 4ff0ff32 c4f8a400  (...W..!O..2....
 11530 0b46c4f8 80103e49 301d5a40 202402f0  .F....>I0.Z@ $..
 11540 0103013c 01fb03f3 83ea5202 f7d1a842  ...<......R....B
 11550 02d07368 0646efe7 324bc3f8 a820bff3  ..sh.F..2K... ..
 11560 4f8f4ff0 e0233049 324ac3f8 701fc3f8  O.O..#0I2J..p...
 11570 702fbff3 4f8fbff3 6f8f2f4a 02252f48  p/..O...o./J.%/H
 11580 d36e2f49 43f44053 d3660560 d3692d48  .n/IC.@S.f.`.i-H
 11590 23f07f03 43f04003 d3610b68 83423dd8  #...C.@..a.h.B=.
 115a0 264d0021 4ff0e023 4ff0ff32 29600126  &M.!O..#O..2)`.&
 115b0 c5f80811 2449c5f8 0011c5f8 0861c3f8  ....$I.......a..
 115c0 8021c3f8 8421c3f8 8821c3f8 8c21c3f8  .!...!...!...!..
 115d0 902101e0 fef7cefb d5f80c31 002bf9d0  .!.........1.+..
 115e0 0134c5f8 0c614f2c f4d9184b 02201849  .4...aO,...K. .I
 115f0 4ff00042 c1f84001 5a63d5f8 0c313bb9  O..B..@.Zc...1;.
 11600 14481549 0d4a0163 d2f80c31 002bfad0  .H.I.J.c...1.+..
 11610 4ff0e023 114ac3f8 0c2dfee7 fef76cff  O..#.J...-....l.
 11620 bee700bf 00ff2720 80ff2720 a8ff2720  ......' ..' ..' 
 11630 2083b8ed a0ff2720 00c00f40 00400840   .....' ...@.@.@
 11640 44230020 803dcd0b 009f2400 00900d40  D#. .=....$....@
 11650 00002e40 00800f40 f100ad0b 0400fa05  ...@...@........
 11660 0a490a68 38b108b5 13180948 834204d8  .I.h8......H.B..
 11670 10460b60 08bd1046 704704f0 e9fa0c23  .F.`...FpG.....#
 11680 4ff0ff32 03601046 08bd00bf 94230020  O..2.`.F.....#. 
 11690 00002820 00207047 4ff0ff30 704700bf  ..( . pGO..0pG..
 116a0 4ff40053 00204b60 704700bf 01207047  O..S. K`pG... pG
 116b0 4ff0ff30 704700bf 30bffde7 30bffde7  O..0pG..0...0...
 116c0 f8b5144c 4ff0e025 134e4ff4 003204eb  ...LO..%.NO..2..
 116d0 4024124f 06eb4016 0346c5f8 8c212146  @$.O..@..F...!!F
 116e0 3a883046 fef7ccfe 3b882344 bff34f8f  :.0F....;.#D..O.
 116f0 c5f85c4f 2034a342 fad8bff3 4f8fbff3  ..\O 4.B....O...
 11700 6f8f0420 3146fef7 e7fe4ff4 0033c5f8  o.. 1F....O..3..
 11710 0c31f8bd a08c2020 e02b0020 6a430020  .1....  .+. jC. 
 11720 244b2de9 f0411c88 4368c569 c3f30e43  $K-..A..Ch.i...C
 11730 e41a002c 24dd2049 20480a78 0078d3b2  ...,$. I H.x.x..
 11740 1f4e8242 1f4807d0 10f80380 36f81870  .N.B.H......6..p
 11750 c7f50072 944218d9 01330022 26f81540  ...r.B...3."&..@
 11760 082b194e 88bf1346 26f81520 98bfdab2  .+.N...F&.. ....
 11770 c554164b 0a701a68 14441c60 bde8f081  .T.K.p.h.D.`....
 11780 2846bde8 f041fff7 9bbf07eb 48201049  (F...A......H .I
 11790 22462744 084401eb 452104f0 19f80b4a  "F'D.D..E!.....J
 117a0 284626f8 18701368 2344bde8 f0411360  (F&..p.h#D...A.`
 117b0 fff786bf 6a430020 89430020 8c430020  ....jC. .C. .C. 
 117c0 5c400020 a4400020 7c400020 54400020  \@. .@. |@. T@. 
 117d0 a08c2020 1d4b1a78 002a36d1 02f0ff03  ..  .K.x.*6.....
 117e0 1b4a1278 8ab32de9 f0411a4d 2a8852b3  .J.x..-..A.M*.R.
 117f0 194ec2f5 0068194f 3278194c 07eb4217  .N...h.O2x.L..B.
 11800 04ebc224 42463846 2146fef7 39fe04eb  ...$BF8F!F..9...
 11810 0802bff3 4f8f4ff0 e023c3f8 704f2034  ....O.O..#..pO 4
 11820 a242fad8 bff34f8f bff36f8f 04203946  .B....O...o.. 9F
 11830 fef73efe 33780133 dbb2032b 88bf0023  ..>.3x.3...+...#
 11840 33700023 2b80bde8 f0817047 95430020  3p.#+.....pG.C. 
 11850 99430020 6e430020 93430020 602e0020  .C. nC. .C. `.. 
 11860 a09c2020 2de9f04f 85b08b46 02900029  ..  -..O...F...)
 11870 00f0ad80 0023dff8 7081dff8 70910193  .....#..p...p...
 11880 544eb8f8 0030dff8 68a1534a 1178534a  TN...0..h.SJ.xSJ
 11890 02eb4117 002b40f0 96801d46 1c4614e0  ..A..+@....F.F..
 118a0 99f80030 04b93568 0124002b 7ad13368  ...0..5h.$.+z.3h
 118b0 5b1b782b 7ad89af8 0030002b 72d000f0  [.x+z....0.+r...
 118c0 edfab8f8 0030002b 77d13846 fef712fe  .....0.+w.8F....
 118d0 10f08000 e4d14ff4 00623f4b 89f80000  ......O..b?K....
 118e0 19781346 a8f80020 00ebc120 3c4c9345  .x.F... ... <L.E
 118f0 4feac121 204413d2 5a460299 039303f0  O..! D..ZF......
 11900 67ff039b 0198a3eb 0b03364a 5844a8f8  g.........6JXD..
 11910 00304ff0 4043c2f8 8c3005b0 bde8f08f  .0O.@C...0......
 11920 0c190299 03f054ff 00234ff4 00622146  ......T..#O..b!F
 11930 3846fef7 a5fdbff3 4f8f04f1 200204f5  8F......O... ...
 11940 00639342 34bf0123 40234ff0 e02204eb  .c.B4..#@#O.."..
 11950 4313c2f8 704f2034 a342fad1 bff34f8f  C...pO 4.B....O.
 11960 bff36f8f 04203946 fef7a2fd 1a4a1d49  ..o.. 9F.....J.I
 11970 13780133 dbb2032b 84bf0023 164a1370  .x.3...+...#.J.p
 11980 b8f80020 019bbbeb 020b1344 0193029b  ... .......D....
 11990 13440293 4ff00003 a8f80030 c1f88c30  .D..O......0...0
 119a0 7ff473af 019805b0 bde8f08f 01230198  ..s..........#..
 119b0 89f80030 05b0bde8 f08f074a c3f50060  ...0.......J...`
 119c0 11781a46 90e71a46 c3f50060 8ce70846  .x.F...F...`...F
 119d0 e9e700bf e8420020 93430020 602e0020  .....B. .C. `.. 
 119e0 a09c2020 00002e40 6e430020 90430020  ..  ...@nC. .C. 
 119f0 99430020 2d4b0021 80222d48 70b51b78  .C. -K.!."-Hp..x
 11a00 00242c4d 8b422c4e 0cbf4023 4ff40073  .$,M.B,N..@#O..s
 11a10 2b803380 04f06af9 284a2146 284b1470  +.3...j.(J!F(K.p
 11a20 4ff48072 27481c80 04f060f9 264a1021  O..r'H....`.&J.!
 11a30 264b0320 c2e90044 c2e90244 244ac3e9  &K. ...D...D$J..
 11a40 00441470 234ac3e9 0244234b 1c702346  .D.p#J...D#K.p#F
 11a50 14602246 fef7e2fc 22463188 04201f4b  .`"F...."F1.. .K
 11a60 fef7aafc 23460122 29880420 fef7d6fc  ....#F.").. ....
 11a70 20460134 fff724fe 082cf9d1 184b0021   F.4..$..,...K.!
 11a80 4a221848 184c0460 c3f88c10 c3f88820  J".H.L.`....... 
 11a90 d3f84821 154942f0 0072c3f8 482121b1  ..H!.IB..r..H!!.
 11aa0 134a1378 43f00803 137070bd 9a430020  .J.xC....pp..C. 
 11ab0 602e0020 72430020 6a430020 93430020  `.. rC. jC. .C. 
 11ac0 6e430020 e02b0020 5c400020 7c400020  nC. .+. \@. |@. 
 11ad0 89430020 54400020 8c430020 21170100  .C. T@. .C. !...
 11ae0 00002e40 60430020 d5170100 00000000  ...@`C. ........
 11af0 9c430020 2de9f04f 4ff0e023 4ff40032  .C. -..OO..#O..2
 11b00 dff8c8a0 83b0c3f8 8c218b46 9af80040  .........!.F...@
 11b10 00294fd0 8046e4b2 0027dff8 b490264b  .)O..F...'....&K
 11b20 abeb0702 25491b78 a34204f1 01043fd0  ....%I.x.B....?.
 11b30 092c234b 404628bf 00241e5d 39f816c0  .,#K@F(..$.]9...
 11b40 0ceb4623 19441f4b 33f81650 a5eb0c05  ..F#.D.K3..P....
 11b50 aa421cd2 0ceb462c 18491b4c 61440192  .B....F,.I.LaD..
 11b60 03f036fe 216839f8 16505846 019aa1eb  ..6.!h9..PXF....
 11b70 0b012a44 394429f8 16202160 4ff0e023  ..*D9D).. !`O..#
 11b80 4ff40032 c3f80c21 03b0bde8 f08f2a46  O..2...!......*F
 11b90 2f4403f0 1dfe0c49 e3b23046 0a68a844  /D.....I..0F.h.D
 11ba0 521b0a60 8af80030 fff78afd bb45b6d8  R..`...0.....E..
 11bb0 3846e3e7 0846e1e7 89430020 a08c2020  8F...F...C. ..  
 11bc0 a4400020 5c400020 54400020 8c430020  .@. \@. T@. .C. 
 11bd0 7c400020 0b4b0c4a 12781978 d3b28a42  |@. .K.J.x.x...B
 11be0 0dd00133 09480a4a 092b0a49 28bf0023  ...3.H.J.+.I(..#
 11bf0 c35c31f8 131002eb 4323585c 70474ff0  .\1.....C#X\pGO.
 11c00 ff307047 89430020 8c430020 a4400020  .0pG.C. .C. .@. 
 11c10 a08c2020 7c400020 044b10b5 1c680cb1  ..  |@. .K...h..
 11c20 204610bd 00f03af9 204610bd 54400020   F....:. F..T@. 
 11c30 2de9f84f 144e154d 33782a78 934221d0  -..O.N.M3x*x.B!.
 11c40 dcb2dff8 5090dff8 50b0dff8 5080104f  ....P...P...P..O
 11c50 0134082c 5ffa84fa 01d90024 a24619f8  .4.,_......$.F..
 11c60 0400dbf8 003038f8 102037f8 1010521a  .....08.. 7...R.
 11c70 9b1acbf8 0030fff7 23fd86f8 00a02b78  .....0..#.....+x
 11c80 a342e5d1 bde8f88f 8c430020 89430020  .B.......C. .C. 
 11c90 7c400020 a4400020 54400020 5c400020  |@. .@. T@. \@. 
 11ca0 00b583b0 01210df1 0700fff7 23ff20b1  .....!......#. .
 11cb0 9df80700 03b05df8 04fb4ff0 ff30f9e7  ......]...O..0..
 11cc0 094b00b5 83b01b78 8df80700 3bb10121  .K.....x....;..!
 11cd0 0df10700 fff7c6fd 03b05df8 04fb03f0  ..........].....
 11ce0 ff0003b0 5df804fb 99430020 044b1b78  ....]....C. .K.x
 11cf0 03f0ff02 0bb1fff7 b5bd1046 704700bf  ...........FpG..
 11d00 99430020 2de9f041 0024dff8 40800123  .C. -..A.$..@..#
 11d10 0c4d2746 0c4e88f8 00303378 28462035  .M'F.N...03x(F 5
 11d20 a34204f1 010405d0 fef7e4fb 030658bf  .B............X.
 11d30 07f50067 042cf0d1 00233846 88f80030  ...g.,...#8F...0
 11d40 bde8f081 602e0020 93430020 95430020  ....`.. .C. .C. 
 11d50 2de9f843 1c4b1b78 13b11c4d 2a880ab9  -..C.K.x...M*...
 11d60 bde8f883 1a4ec2f5 00691a49 33784a46  .....N...i.I3xJF
 11d70 194c01eb 4318194f 04ebc324 01234046  .L..C..O...$.#@F
 11d80 3b702146 0023fef7 7bfb04eb 0902bff3  ;p!F.#..{.......
 11d90 4f8f4ff0 e023c3f8 704f2034 a242fad8  O.O..#..pO 4.B..
 11da0 bff34f8f bff36f8f 04204146 fef780fb  ..O...o.. AF....
 11db0 33780133 dbb2032b 88bf0023 33700023  3x.3...+...#3p.#
 11dc0 2b803b70 bde8f883 99430020 6e430020  +.;p.....C. nC. 
 11dd0 93430020 602e0020 a09c2020 95430020  .C. `.. ..  .C. 
 11de0 fff778bb 124ad2f8 80305b07 fbd5d2f8  ..x..J...0[.....
 11df0 80301048 c3f30b23 0f4990ed 007a07ee  .0.H...#.I...z..
 11e00 903a91ed 006ab8ee 477a0c4a f8eee77a  .:...j..Gz.J...z
 11e10 0b4bd2ed 006a77ee c77a93ed 007ab8ee  .K...jw..z...z..
 11e20 477a67ee 867a87ee a60a37ee 400a7047  Gzg..z....7.@.pG
 11e30 00810d40 c0400020 c8400020 d4400020  ...@.@. .@. .@. 
 11e40 c4400020 124a134b d2f82002 20f07f40  .@. .J.K.. . ..@
 11e50 984210b5 84b002d2 00eb8000 40000e4c  .B..........@..L
 11e60 01a90a22 fff738f8 01a90023 204611f8  ..."..8....# F..
 11e70 012b0133 3ab10a2b 20f8022f f7d11623  .+.3:..+ ../...#
 11e80 237004b0 10bd5b00 dbb22370 04b010bd  #p....[...#p....
 11e90 00441f40 80969800 64240020 2de9f843  .D.@....d$. -..C
 11ea0 2d4b1e78 66b12d4f 3b784bb9 0123f107  -K.xf.-O;xK..#..
 11eb0 3b7043d4 b20726d4 00233b70 730701d4  ;pC...&..#;ps...
 11ec0 bde8f883 264b1a68 002af9d0 eff30582  ....&K.h.*......
 11ed0 002af5d1 eff31085 72b61868 002834d0  .*......r..h.(4.
 11ee0 204c2178 002930d1 01222270 42691a60   L!x.)0..""pBi.`
 11ef0 002a2ed0 916105b9 62b60025 83684577  .*...a..b..%.hEw
 11f00 98472570 dce7dff8 648098f8 0030002b  .G%p....d....0.+
 11f10 d2d00025 dff85890 2b4659f8 23400135  ...%..X.+FY.#@.5
 11f20 23682046 1b699847 10b16369 9b689847  #h F.i.G..ci.h.G
 11f30 98f80020 ebb29a42 efd8bde7 00f0dcfa  ... ...B........
 11f40 0028b7d0 aff30080 b4e7002d b8d162b6  .(.........-..b.
 11f50 b6e7054b 1a60cee7 9c430020 7f430020  ...K.`...C. .C. 
 11f60 ec3a0020 7b430020 f83a0020 7c430020  .:. {C. .:. |C. 
 11f70 fc3a0020 f8b5144c 4ff0e025 134e4ff4  .:. ...LO..%.NO.
 11f80 003204eb 4024124f 06eb4016 0346c5f8  .2..@$.O..@..F..
 11f90 8c212146 3a883046 fef772fa 3b882344  .!!F:.0F..r.;.#D
 11fa0 bff34f8f c5f85c4f 2034a342 fad8bff3  ..O...\O 4.B....
 11fb0 4f8fbff3 6f8f0220 3146fef7 8dfa4ff4  O...o.. 1F....O.
 11fc0 0033c5f8 0c31f8bd 60bd2020 e02c0020  .3...1..`.  .,. 
 11fd0 6c430020 244b2de9 f0411c88 4368c569  lC. $K-..A..Ch.i
 11fe0 c3f30e43 e41a002c 24dd2049 20480a78  ...C...,$. I H.x
 11ff0 0078d3b2 1f4e8242 1f4807d0 10f80380  .x...N.B.H......
 12000 36f81870 c7f50072 944218d9 01330022  6..p...r.B...3."
 12010 26f81540 082b194e 88bf1346 26f81520  &..@.+.N...F&.. 
 12020 98bfdab2 c554164b 0a701a68 14441c60  .....T.K.p.h.D.`
 12030 bde8f081 2846bde8 f041fff7 9bbf07eb  ....(F...A......
 12040 48201049 22462744 084401eb 452103f0  H .I"F'D.D..E!..
 12050 bffb0b4a 284626f8 18701368 2344bde8  ...J(F&..p.h#D..
 12060 f0411360 fff786bf 6c430020 8a430020  .A.`....lC. .C. 
 12070 8d430020 6c400020 b0400020 8c400020  .C. l@. .@. .@. 
 12080 58400020 60bd2020 1d4b1a78 002a36d1  X@. `.  .K.x.*6.
 12090 02f0ff03 1b4a1278 8ab32de9 f0411a4d  .....J.x..-..A.M
 120a0 2a8852b3 194ec2f5 0068194f 3278194c  *.R..N...h.O2x.L
 120b0 07eb4217 04ebc224 42463846 2146fef7  ..B....$BF8F!F..
 120c0 dff904eb 0802bff3 4f8f4ff0 e023c3f8  ........O.O..#..
 120d0 704f2034 a242fad8 bff34f8f bff36f8f  pO 4.B....O...o.
 120e0 02203946 fef7e4f9 33780133 dbb2032b  . 9F....3x.3...+
 120f0 88bf0023 33700023 2b80bde8 f0817047  ...#3p.#+.....pG
 12100 96430020 99430020 70430020 94430020  .C. .C. pC. .C. 
 12110 e02e0020 60cd2020 2de9f04f 85b0cde9  ... `.  -..O....
 12120 01100029 00f0bf80 0023604c dff89881  ...).....#`L....
 12130 dff898a1 5e4f0093 01235e4a 23705e4b  ....^O...#^J#p^K
 12140 1978b8f8 003002eb 4119002b 40f0a780  .x...0..A..+@...
 12150 1e461d46 9b464846 fef7ccf9 10f08000  .F.F.FHF........
 12160 00f08c80 bff34f8f 9af80030 84f800b0  ......O....0....
 12170 05b93e68 002b7dd1 3b689b1b 782b00f2  ..>h.+}.;h..x+..
 12180 87804e4b 1b78002b 74d0fff7 87fe0122  ..NK.x.+t......"
 12190 b8f80030 15462270 002bdcd0 464ac3f5  ...0.F"p.+..FJ..
 121a0 00601178 1a4600eb c120454d c9022844  .`.x.F... EM..(D
 121b0 019d9542 17d20393 dde90151 2a4603f0  ...B.......Q*F..
 121c0 07fb039b 4ff04042 5b1ba8f8 00303d4b  ....O.@B[....0=K
 121d0 c3f88420 bff34f8f 00980023 28442370  ... ..O....#(D#p
 121e0 05b0bde8 f08f364b cd180299 03f0f0fa  ......6K........
 121f0 00234ff4 00622946 4846fef7 41f9bff3  .#O..b)FHF..A...
 12200 4f8f05f1 200205f5 00639342 34bf0123  O... ....c.B4..#
 12210 40234ff0 e02205eb 4313c2f8 705f2035  @#O.."..C...p_ 5
 12220 ab42fad1 bff34f8f bff36f8f 02204946  .B....O...o.. IF
 12230 fef73ef9 204a1378 0133dbb2 032b84bf  ..>. J.x.3...+..
 12240 00231d4a 1370b8f8 0030019a d11a009a  .#.J.p...0......
 12250 1a440191 0092029a 1a440023 0292194a  .D.......D.#...J
 12260 a8f80030 c2f88430 bff34f8f 23700029  ...0...0..O.#p.)
 12270 7ff462af 009805b0 bde8f08f 4ff40062  ..b.........O..b
 12280 0d4b8af8 00001978 1346a8f8 00208ae7  .K.....x.F... ..
 12290 01230098 8af80030 05b0bde8 f08f1a46  .#.....0.......F
 122a0 c3f50060 7fe70198 e5e700bf 96430020  ...`.........C. 
 122b0 e8420020 e02e0020 94430020 99430020  .B. ... .C. .C. 
 122c0 60cd2020 00002e40 70430020 91430020  `.  ...@pC. .C. 
 122d0 704700bf 2d4b0021 80222d48 70b51b78  pG..-K.!."-Hp..x
 122e0 00242c4d 8b422c4e 0cbf4023 4ff40073  .$,M.B,N..@#O..s
 122f0 2b803380 03f0fafc 284a2146 284b1470  +.3.....(J!F(K.p
 12300 4ff48072 27481c80 03f0f0fc 264a1021  O..r'H......&J.!
 12310 264b0120 c2e90044 c2e90244 244ac3e9  &K. ...D...D$J..
 12320 00441470 234ac3e9 0244234b 1c702346  .D.p#J...D#K.p#F
 12330 14602246 fef772f8 22463188 02201f4b  .`"F..r."F1.. .K
 12340 fef73af8 23460122 29880220 fef766f8  ..:.#F.").. ..f.
 12350 20460134 fff70efe 082cf9d1 184b0021   F.4.....,...K.!
 12360 4a221848 184c0460 c3f88410 c3f88020  J".H.L.`....... 
 12370 d3f84821 154942f0 8072c3f8 482121b1  ..H!.IB..r..H!!.
 12380 134a1378 43f00103 137070bd 9a430020  .J.xC....pp..C. 
 12390 e02e0020 74430020 6c430020 94430020  ... tC. lC. .C. 
 123a0 70430020 e02c0020 6c400020 8c400020  pC. .,. l@. .@. 
 123b0 8a430020 58400020 8d430020 d51f0100  .C. X@. .C. ....
 123c0 00002e40 5c430020 89200100 00000000  ...@\C. . ......
 123d0 9c430020 2de9f04f 4ff0e023 4ff40032  .C. -..OO..#O..2
 123e0 dff8c8a0 83b0c3f8 8c218b46 9af80040  .........!.F...@
 123f0 00294fd0 8046e4b2 0027dff8 b490264b  .)O..F...'....&K
 12400 abeb0702 25491b78 a34204f1 01043fd0  ....%I.x.B....?.
 12410 092c234b 404628bf 00241e5d 39f816c0  .,#K@F(..$.]9...
 12420 0ceb4623 19441f4b 33f81650 a5eb0c05  ..F#.D.K3..P....
 12430 aa421cd2 0ceb462c 18491b4c 61440192  .B....F,.I.LaD..
 12440 03f0c6f9 216839f8 16505846 019aa1eb  ....!h9..PXF....
 12450 0b012a44 394429f8 16202160 4ff0e023  ..*D9D).. !`O..#
 12460 4ff40032 c3f80c21 03b0bde8 f08f2a46  O..2...!......*F
 12470 2f4403f0 adf90c49 e3b23046 0a68a844  /D.....I..0F.h.D
 12480 521b0a60 8af80030 fff774fd bb45b6d8  R..`...0..t..E..
 12490 3846e3e7 0846e1e7 8a430020 60bd2020  8F...F...C. `.  
 124a0 b0400020 6c400020 58400020 8d430020  .@. l@. X@. .C. 
 124b0 8c400020 0b4b0c4a 12781978 d3b28a42  .@. .K.J.x.x...B
 124c0 0dd00133 09480a4a 092b0a49 28bf0023  ...3.H.J.+.I(..#
 124d0 c35c31f8 131002eb 4323585c 70474ff0  .\1.....C#X\pGO.
 124e0 ff307047 8a430020 8d430020 b0400020  .0pG.C. .C. .@. 
 124f0 60bd2020 8c400020 044b10b5 1c680cb1  `.  .@. .K...h..
 12500 204610bd fff7cafc 204610bd 58400020   F...... F..X@. 
 12510 2de9f84f 144e154d 33782a78 934221d0  -..O.N.M3x*x.B!.
 12520 dcb2dff8 5090dff8 50b0dff8 5080104f  ....P...P...P..O
 12530 0134082c 5ffa84fa 01d90024 a24619f8  .4.,_......$.F..
 12540 0400dbf8 003038f8 102037f8 1010521a  .....08.. 7...R.
 12550 9b1acbf8 0030fff7 0dfd86f8 00a02b78  .....0........+x
 12560 a342e5d1 bde8f88f 8d430020 8a430020  .B.......C. .C. 
 12570 8c400020 b0400020 58400020 6c400020  .@. .@. X@. l@. 
 12580 00b583b0 01210df1 0700fff7 23ff20b1  .....!......#. .
 12590 9df80700 03b05df8 04fb4ff0 ff30f9e7  ......]...O..0..
 125a0 094b00b5 83b01b78 8df80700 3bb10121  .K.....x....;..!
 125b0 0df10700 fff7b0fd 03b05df8 04fb03f0  ..........].....
 125c0 ff0003b0 5df804fb 99430020 044b1b78  ....]....C. .K.x
 125d0 03f0ff02 0bb1fff7 9fbd1046 704700bf  ...........FpG..
 125e0 99430020 2de9f041 0024dff8 44800123  .C. -..A.$..D..#
 125f0 0d4d2746 0d4e88f8 00303378 28462035  .M'F.N...03x(F 5
 12600 a34204f1 010405d0 fdf774ff 030658bf  .B........t...X.
 12610 07f50067 042cf0d1 bff34f8f 00233846  ...g.,....O..#8F
 12620 88f80030 bde8f081 e02e0020 94430020  ...0....... .C. 
 12630 96430020 2de9f843 1d4b1b78 13b11d4d  .C. -..C.K.x...M
 12640 2a880ab9 bde8f883 1b4ec2f5 00691b49  *........N...i.I
 12650 33784a46 1a4c01eb 43181a4f 04ebc324  3xJF.L..C..O...$
 12660 01234046 3b702146 0023fdf7 09ff04eb  .#@F;p!F.#......
 12670 0902bff3 4f8f4ff0 e023c3f8 704f2034  ....O.O..#..pO 4
 12680 a242fad8 bff34f8f bff36f8f 02204146  .B....O...o.. AF
 12690 fdf70eff 33780133 dbb2032b 88bf0023  ....3x.3...+...#
 126a0 33700023 2b80bff3 4f8f3b70 bde8f883  3p.#+...O.;p....
 126b0 99430020 70430020 94430020 e02e0020  .C. pC. .C. ... 
 126c0 60cd2020 96430020 f8b50026 0446c0e9  `.  .C. ...&.F..
 126d0 00668660 29b10846 0d4603f0 87f80746  .f.`)..F.F.....F
 126e0 08b92046 f8bd0130 03f088f8 0028f8d0  .. F...0.....(..
 126f0 29460670 2060c4e9 017702f0 cdfb2046  )F.p `...w.... F
 12700 f8bd00bf 10b50446 006803f0 7ff82046  .......F.h.... F
 12710 10bd00bf f8b50446 154632b9 036803b1  .......F.F2..h..
 12720 1a700023 2046a360 f8bd4368 0e469a42  .p.# F.`..Ch.F.B
 12730 1cd9511c 006803f0 61fa0746 60b1a368  ..Q..h..a..F`..h
 12740 c4e90005 0bb90370 27683146 3846a560  .......p'h1F8F.`
 12750 02f0a2fb 2046f8bd 206810b1 03f056f8  .... F.. h....V.
 12760 27600023 2046c4e9 0133f8bd 07683146  '`.# F...3...h1F
 12770 a5603846 02f090fb ece700bf 38b50546  .`8F........8..F
 12780 0c4649b1 084603f0 31f82146 02462846  .FI..F..1.!F.F(F
 12790 fff7c0ff 284638bd 2846a960 38bd00bf  ....(F8.(F.`8...
 127a0 03f02cb8 03f032b8 03f030b8 f8b50c46  ..,...2...0....F
 127b0 71b182b1 06468f18 00253368 304614f8  q....F...%3h0F..
 127c0 011b1b68 9847bc42 0544f6d1 2846f8bd  ...h.G.B.D..(F..
 127d0 0d462846 f8bd1546 f8e700bf 012a70b5  .F(F...F.....*p.
 127e0 08bf0a22 8ab091b3 4ff0210e 01e05ffa  ..."....O.!..._.
 127f0 86fe0ef1 ff36b1fb f2f502fb 15145ffa  .....6........_.
 12800 84fc092c 0cf13704 0cf1300c 98bf5ffa  ...,..7...0..._.
 12810 8cf40ef1 280c88bf e4b29142 ec442946  ....(......B.D)F
 12820 0cf8244c e3d24bb1 0ef1ff3e 2d225ffa  ..$L..K....>-"_.
 12830 8efe0ef1 28036b44 03f8242c 036801a9  ....(.kD..$,.h..
 12840 cef12202 5b687144 98470ab0 70bd3022  ..".[hqD.G..p.0"
 12850 4ff0210e 8df82520 e5e700bf 00b50368  O.!...% .......h
 12860 83b040f6 0d2c0222 01a95b68 adf804c0  ..@..,."..[h....
 12870 984703b0 5df804fb 054b0228 88bf0346  .G..]....K.(...F
 12880 10b41c68 18466368 5df8044b 184700bf  ...h.Fch]..K.G..
 12890 48230020 0eb430b5 adf5816d 04464ff4  H#. ..0....m.FO.
 128a0 80610df2 144302a8 53f8042b 019300f0  .a...C..S..+....
 128b0 7dfd0546 02a802f0 99ff2368 024602a9  }..F......#h.F..
 128c0 20465b68 98472846 0df5816d bde83040   F[h.G(F...m..0@
 128d0 03b07047 32b90368 c9b200b5 1b685df8  ..pG2..h.....h].
 128e0 04eb1847 fff77abf 70b50446 0d46c61d  ...G..z.p..F.F..
 128f0 00230846 0a2214f8 041ffff7 ebff2b68  .#.F."........+h
 12900 2e212846 1b689847 14f8011f 00230a22  .!(F.h.G.....#."
 12910 2846fff7 dfffb442 f1d10420 70bd00bf  (F.....B... p...
 12920 9a4238bf 88547047 704700bf 2de9f84f  .B8..TpGpG..-..O
 12930 9a460d9b 17460646 9a078b46 ddf82880  .F...F.F...F..(.
 12940 11d1dde9 0b329342 0dd23c46 dde90b23  .....2.B..<F...#
 12950 9d1a3d44 22460134 53465946 2020b047  ..=D"F.4SFYF  .G
 12960 ac42f7d1 00e03d46 0b9b7bb1 0b9b08eb  .B....=F..{.....
 12970 030404eb 0509a9eb 040214f8 010d5346  ..............SF
 12980 5946b047 4445f6d1 0b9b1d44 0d9b9b07  YF.GDE.....D....
 12990 0dd5ef1b 0c9bbb42 09d91c46 01372a46  .......B...F.7*F
 129a0 53465946 20200135 b047a742 f6d32846  SFYF  .5.G.B..(F
 129b0 bde8f88f 2de9f04f 0f9eddf8 24e016f0  ....-..O....$...
 129c0 020f0a9c 9df82c90 0e9ddde9 0c872ed1  ......,.........
 129d0 002d6fd1 1f2c06f0 010a0dd8 bc420bd2  .-o..,.......B..
 129e0 04f1ff3c 4ff0300b f4440134 0cf801bf  ...<O.0..D.4....
 129f0 a74201d9 1f2cf8d9 baf1000f 17d01f2c  .B...,.........,
 12a00 8cbf4ff0 000c4ff0 010ca542 0fd9bcf1  ..O...O....B....
 12a10 000f0cd0 04f1ff3c 4ff0300a f44401e0  .......<O.0..D..
 12a20 1f2c04d8 01340cf8 01afac42 f8d316f0  .,...4.....B....
 12a30 100f2ed0 16f4806f 18d0b8f1 100f73d0  .......o......s.
 12a40 b8f1020f 08d11f2c 06d80eeb 04074ff0  .......,......O.
 12a50 620c0134 87f800c0 202c13d1 cde90b56  b..4.... ,.....V
 12a60 cde909e4 bde8f04f fff760bf 002c51d1  .......O..`..,Q.
 12a70 b8f1100f 79d0b8f1 020f7dd1 62248ef8  ....y.....}.b$..
 12a80 00400124 0eeb0407 4ff0300c 013487f8  .@.$....O.0..4..
 12a90 00c0202c e2d0b9f1 000f20d0 2d270ef8  .. ,...... .-'..
 12aa0 04700134 cde90b56 cde909e4 bde8f04f  .p.4...V.......O
 12ab0 fff73cbf 16f0010a 26d0b9f1 000f48d1  ..<.....&.....H.
 12ac0 16f00c0f 45d11f2c 8cbf4ff0 000c4ff0  ....E..,..O...O.
 12ad0 010cbc42 99d2bcf1 000f81d1 95e77707  ...B..........w.
 12ae0 06d43707 bad52027 0ef80470 0134b5e7  ..7... '...p.4..
 12af0 2b270ef8 04700134 cde90b56 cde909e4  +'...p.4...V....
 12b00 bde8f04f fff712bf 1f2c90d8 bc42fff4  ...O.....,...B..
 12b10 67af8ce7 bc4201d0 ac428ed1 671e22d0  g....B...B..g.".
 12b20 b8f1100f 1fd1023c 1f2c8cbf 00270127  .......<.,...'.'
 12b30 16f0200c 00d177b9 bcf1000f 8cd0002f  .. ...w......../
 12b40 8ad00eeb 04074ff0 580c0134 87f800c0  ......O.X..4....
 12b50 82e7013d b7e70eeb 04074ff0 780c0134  ...=......O.x..4
 12b60 87f800c0 78e73c46 67e7b406 0cd47824  ....x.<Fg.....x$
 12b70 8ef80040 012485e7 30248ef8 00400124  ...@.$..0$...@.$
 12b80 b9f1000f abd089e7 58248ef8 00400124  ........X$...@.$
 12b90 78e700bf 2de9f04f 93b09df8 74501c9c  x...-..O....tP..
 12ba0 0995ddf8 84a01e9d ccb92af0 10061af4  ..........*.....
 12bb0 806fb246 13d02646 0df1280b 209ccdf8  .o.F..&F..(. ...
 12bc0 18a00594 1f9ccdf8 00b0cde9 0354099c  .............T..
 12bd0 cde90164 fff7eefe 13b0bde8 f08f1af0  ...d............
 12be0 200f0df1 280b4ff0 000614bf 4ff04109   ...(.O.....O.A.
 12bf0 4ff06109 d846a9f1 0a090136 b4fbf5fe  O.a..F.....6....
 12c00 05fb1e4c 5ffa8cf7 bcf1090f 07eb090c  ...L_...........
 12c10 07f13007 8cbf5ffa 8cf7ffb2 ac427446  ..0..._......BtF
 12c20 08f8017b cad31f2e e7d9c7e7 2de9f04f  ...{........-..O
 12c30 2ded048b 93b09b46 08ee100a 08ee901a  -......F........
 12c40 9df88830 09ee102a 209d219c 089355ea  ...0...* .!...U.
 12c50 0403dde9 247823d1 289b289a 23f01003  ....$x#.(.(.#...
 12c60 28935305 1cd50aab 00260993 289b19ee  (.S......&..(...
 12c70 102a099c 18ee901a 069318ee 100a279b  .*............'.
 12c80 00940593 269bcde9 0373089b cde90163  ....&....s.....c
 12c90 5b46fff7 8ffe13b0 bdec048b bde8f08f  [F..............
 12ca0 289b0026 13f0200f 0aab14bf 4ff0410a  (..&.. .....O.A.
 12cb0 4ff0610a 99460993 aaf10a0a 21462846  O.a..F......!F(F
 12cc0 3a464346 01f03cff 0136d2b2 092a02eb  :FCF..<..6...*..
 12cd0 0a0302f1 3002dbb2 98bfd3b2 bd420546  ....0........B.F
 12ce0 74eb0804 09f8013b 0c46bfd3 1f2ee5d9  t......;.F......
 12cf0 bce700bf 00000000 b4ee400b 2de9f04f  ..........@.-..O
 12d00 f1ee10fa 05461446 2ded028b 8bb0dde9  .....F.F-.......
 12d10 167a189e 40f0bf80 9fedb17b b4eec70b  .z..@......{....
 12d20 f1ee10fa 00f3b780 9fedaf7b b4eec70b  ...........{....
 12d30 f1ee10fa 00f1af80 b5eec00b f1ee10fa  ................
 12d40 00f13581 b0ee404b 14ee900a 14ee108a  ..5...@K........
 12d50 b7ee085b 16f48062 c0f30a5c c0f31300  ...[...b...\....
 12d60 b6ee006b 08bf0627 acf2ff3c 40f07f59  ...k...'...<@..Y
 12d70 07ee90ca 49f44019 9fed9d8b b8eee77b  ....I.@........{
 12d80 9fed9d3b 9fed9e1b 9fed9f2b a7ee083b  ...;.......+...;
 12d90 49ec188b 38ee455b 4ff00008 9fed9c7b  I...8.E[O......{
 12da0 a5ee013b 9fed9c1b fdeec35b b2ee0c3b  ...;.......[...;
 12db0 15ee90ba b8eee55b a5ee026b bdeec66b  .......[...k...k
 12dc0 b8eec62b 16ee100a b1ee086b 00f2ff30  ...+.......k...0
 12dd0 27ee427b 4fea0059 b2ee042b a5ee017b  '.B{O..Y...+...{
 12de0 27ee078b 37ee071b 88ee035b 35ee025b  '...7......[5..[
 12df0 88ee053b b0ee005b 35ee477b b7ee005b  ...;...[5.G{...[
 12e00 33ee063b 88ee036b 36ee076b 81ee067b  3..;...k6..k...{
 12e10 49ec168b 37ee057b 27ee067b b4eec47b  I...7..{'..{...{
 12e20 f1ee10fa 43dcb0ee 476b0bf1 6300c728  ....C...Gk..c..(
 12e30 34bf4ff0 04084ff0 05083005 3fd59fed  4.O...O...0.?...
 12e40 787bb4ee c74bf1ee 10fa35db 9fed767b  x{...K....5...v{
 12e50 b4eec74b f1ee10fa 2ed55f45 40f3b580  ...K......_E@...
 12e60 a7eb0b07 013f46f4 8062baf1 000f40f0  .....?F..b....@.
 12e70 a380b5ee c00bf1ee 10fa00f1 a88026f4  ..............&.
 12e80 0066b0ee 440b2246 284646f4 8066cde9  .f..D."F(FF..f..
 12e90 167a1896 04e02246 28461697 cde917a6  .z...."F(F......
 12ea0 0bb0bdec 028bbde8 f04f00f0 c1b887ee  .........O......
 12eb0 026b0bf1 ff3bb8e7 0fb1002a 7ad1d045  .k...;.....*z..E
 12ec0 60d3c6f3 40090022 b9f1000f 18bf0022  `...@.."......."
 12ed0 bbf1000f 61d084ee 064b0120 0790b5ee  ....a....K. ....
 12ee0 c00bf1ee 10fa5fd4 b0ee440b 28460993  ......_...D.(F..
 12ef0 0891cde9 007226f4 00620292 224600f0  .....r&..b.."F..
 12f00 97f8079b 0746002b 36d016f0 200f0899  .....F.+6... ...
 12f10 0246099b 14bf4520 65200791 0137a847  .F....E e ...7.G
 12f20 05200021 08f1ff32 05900a20 099b0492  . .!...2... ....
 12f30 3a460893 cde90201 4feadb70 07990190  :F......O..p....
 12f40 8beaeb70 a0ebeb70 00902846 fff722fe  ...p...p..(F..".
 12f50 0746b9f1 000f0fd0 041ba245 0cd90799  .F.........E....
 12f60 089b0e46 98460134 3a464346 31462020  ...F.F.4:FCF1F  
 12f70 0137a847 a245f6d8 38460bb0 bdec028b  .7.G.E..8F......
 12f80 bde8f08f c6f34009 aaeb0802 b9f1000f  ......@.........
 12f90 18bf0022 bbf1000f 9dd1b5ee c00b0120  ..."........... 
 12fa0 0790f1ee 10fa9fd5 b1ee444b 9ce7b1ee  ..........DK....
 12fb0 404bc9e6 013f82e7 4ff0000b 16465246  @K...?..O....FRF
 12fc0 d846d946 cdf81cb0 89e70027 4be71646  .F.F.......'K..F
 12fd0 d0465246 d146d346 cdf81ca0 e4e700bf  .FRF.F.F........
 12fe0 ffffffff ffffef7f ffffffff ffffefff  ................
 12ff0 fb799f50 1344d33f b3c8608b 288ac63f  .y.P.D.?..`.(..?
 13000 61436f63 a787d23f 71a37909 4f930a40  aCoc...?q.y.O..@
 13010 ef39fafe 422ee63f 1655b5bb b16b0240  .9..B..?.U...k.@
 13020 2d431ceb e2361a3f 00000000 80842e41  -C...6.?.......A
 13030 b4ee400b 2de9f04f f1ee10fa 91b0dde9  ..@.-..O........
 13040 1a4a1c9e 059040f0 c8809fed bf7bb4ee  .J....@......{..
 13050 c70bf1ee 10fa00f1 e2809fed bd7bb4ee  .............{..
 13060 c70bf1ee 10fa00f3 a5800f46 90469946  ...........F.F.F
 13070 9fedb97b b4eec70b f1ee10fa 00f3c380  ...{............
 13080 9fedb77b b4eec70b f1ee10fa 00f1bb80  ...{............
 13090 9fedb57b b4eec70b f1ee10fa 00f1a880  ...{............
 130a0 00230793 16f48060 00f0ec80 092c40f2  .#.....`.....,@.
 130b0 6f8108ab 00203022 06930130 013c03f8  o.... 0"...0.<..
 130c0 012b1f28 01d8092c f7d89fed a36bfdee  .+.(...,.....k..
 130d0 c07bb6ee 005b17ee 90cab8ee e77b30ee  .{...[.......{0.
 130e0 477b27ee 067bfcee c74b14ee 903ab8ee  G{'..{...K...:..
 130f0 644b37ee 447bb4ee c57bf1ee 10fa40f3  dK7.D{...{....@.
 13100 bb800133 07ee903a b8ee677b b4eec67b  ...3...:..g{...{
 13110 f1ee10fa 02db0cf1 010c0023 002c40f0  ...........#.,@.
 13120 898007ee 90cab6ee 006bb8ee e77b30ee  .........k...{0.
 13130 470bb4ee c60bf1ee 10fa5ed5 5ddc421e  G.........^.].B.
 13140 069b8d49 1a4481fb 0c342028 4feaec73  ...I.D...4 (O..s
 13150 00f10100 c3eba403 00f08880 03eb8304  ................
 13160 aceb4404 9c4604f1 300302f8 013fbcf1  ..D..F..0....?..
 13170 000fe8d1 06f00303 012b00f0 dc802028  .........+.... (
 13180 0ad0079b 002b00f0 838000f1 40032d22  .....+......@.-"
 13190 01306b44 03f8202c 01904b46 42463946  .0kD.. ,..KFBF9F
 131a0 dde90504 cde902a6 0094fff7 bffb11b0  ................
 131b0 bde8f08f cde902a6 06f00406 6f4d704c  ............oMpL
 131c0 002e08bf 2c460094 14bf0424 03240194  ....,F.....$.$..
 131d0 fff7acfb 11b0bde8 f08f0324 0194694c  ...........$..iL
 131e0 cde902a6 0094fff7 a1fb11b0 bde8f08f  ................
 131f0 012337ee 400b0793 54e71cf0 010f9ed0  .#7.@...T.......
 13200 0cf1010c 9be74b46 42463946 05981a94  ......KFBF9F....
 13210 cde91ba6 11b0bde8 f04ffff7 6dbd0424  .........O..m..$
 13220 0194594c cde902a6 0094fff7 7ffb11b0  ..YL............
 13230 bde8f08f 411e069a 114411e0 534d092b  ....A....D..SM.+
 13240 a5fb03e5 4fead505 05eb850e a3eb4e0e  ....O.........N.
 13250 2b460ef1 300e01f8 01ef26d9 5c461046  +F..0.....&.\F.F
 13260 202804f1 ff3b00f1 0102e7d1 06f00303   (...;..........
 13270 012b41d0 20208fe7 3ff550af 002b37d1  .+A.  ..?.P..+7.
 13280 01334be7 08ab0624 9fed396b 06931ee7  .3K....$..9k....
 13290 720725d4 33077ff5 7faf00f1 40032022  r.%.3.......@. "
 132a0 01306b44 03f8202c 76e7202a ded0bbf1  .0kD.. ,v. *....
 132b0 000f76d0 069b3025 19181046 013001f8  ..v...0%...F.0..
 132c0 015f231a 202803f1 ff33cfd0 da42f5d1  ._#. (...3...B..
 132d0 00f14003 2e220130 6b4403f8 202c2ee7  ..@..".0kD.. ,..
 132e0 00f14003 2b220130 6b4403f8 202c53e7  ..@.+".0kD.. ,S.
 132f0 d9077ff5 13afc3e7 baf1000f bad00023  ...............#
 13300 2020079a 12b916f0 0c0f01d0 0af1ff3a    .............:
 13310 5045bff4 34af002b 3ff431af 069a431e  PE..4..+?.1...C.
 13320 13443022 013003f8 012f5045 bff427af  .D0".0.../PE..'.
 13330 1f28f7d9 23e7baf1 000f3ff4 20af1f28  .(..#.....?. ..(
 13340 8cbf0023 0123dce7 ffffffff ffffefff  ...#.#..........
 13350 ffffffff ffffef7f 00000000 65cdcd41  ............e..A
 13360 00000000 65cdcdc1 00000000 00000000  ....e...........
 13370 00000000 80842e41 67666666 e80f0020  .......Agfff... 
 13380 e00f0020 ec0f0020 f00f0020 cdcccccc  ... ... ... ....
 13390 054b0020 03ebc403 93ed006b 08ab0693  .K. .......k....
 133a0 95e61046 94e700bf 80030020 2de9f04f  ...F....... -..O
 133b0 1446b0f1 000a9c4a 91b09846 20789b4b  .F.....J...F x.K
 133c0 18bf1346 8b460b93 002800f0 62820025  ...F.F...(..b..%
 133d0 99460ae0 6e1c2a46 5b465146 01343546  .F..n.*F[FQF.45F
 133e0 c8472078 002800f0 bb802528 f2d1631c  .G x.(....%(..c.
 133f0 4ff0000c 1c4613f8 010ba0f1 2002102a  O....F...... ..*
 13400 0ad8dfe8 02f08c09 09890909 09090909  ................
 13410 09860983 09098000 a0f13003 092b40f2  ..........0..+@.
 13420 bc802a28 00f0c680 00262e28 00f0a780  ..*(.....&.(....
 13430 0027a0f1 6803122b 18d8dfe8 13f0f900  .'..h..+........
 13440 1700ef00 1700e700 17001700 17001700  ................
 13450 17001700 17001300 17001700 17001700  ................
 13460 17001300 60784cf4 807c0134 672859d8  ....`xL..|.4g(Y.
 13470 24286ad9 a0f12503 422b66d8 dfe813f0  $(j...%.B+f.....
 13480 f6006500 65006500 65006500 65006500  ..e.e.e.e.e.e.e.
 13490 65006500 65006500 65006500 65006500  e.e.e.e.e.e.e.e.
 134a0 65006500 65006500 65006500 65006500  e.e.e.e.e.e.e.e.
 134b0 65006500 65006500 65006500 65006500  e.e.e.e.e.e.e.e.
 134c0 a100e000 a1006500 65006500 65006500  ......e.e.e.e.e.
 134d0 65006500 65006500 65006500 65006500  e.e.e.e.e.e.e.e.
 134e0 65006500 6500f101 65006500 65006500  e.e.e...e.e.e.e.
 134f0 65006500 65006500 6500f101 ff00f101  e.e.e.e.e.......
 13500 a100e000 a1004cf0 010c73e7 4cf0020c  ......L...s.L...
 13510 70e74cf0 040c6de7 4cf0100c 6ae74cf0  p.L...m.L...j.L.
 13520 080c67e7 a0f16903 dbb20f2b 0dd80122  ..g...i....+..."
 13530 49f24101 9a400a40 0a9240f0 15810a2b  I.A..@.@..@....+
 13540 00f0cd80 072b00f0 b4806b1c 01342a46  .....+....k..4*F
 13550 51461d46 5b46c847 20780028 7ff445af  QF.F[F.G x.(..E.
 13560 2c46ab45 01d80bf1 ff352a46 5b465146  ,F.E.....5*F[FQF
 13570 00200b9d a8472046 11b0bde8 f08f6078  . ...G F......`x
 13580 4cf4806c 621ca0f1 3003092b 40f22f81  L..lb...0..+@./.
 13590 2a2800f0 3b811446 4ae70026 06eb8606  *(..;..FJ..&....
 135a0 00eb4606 14f8010f a0f13003 303e092b  ..F.......0.0>.+
 135b0 f4d93ae7 58f8046b 002e21db 60780134  ..:.X..k..!.`x.4
 135c0 33e700f0 df0300f0 fd0008f1 07082a46  3.............*F
 135d0 472b5146 28f00708 5b4608bf 4cf4006c  G+QF(...[F..L..l
 135e0 45284846 04f10104 08bf4cf0 200cb8ec  E(HF......L. ...
 135f0 020bcde9 016c0097 fff77efb 0546f0e6  .....l....~..F..
 13600 60784cf0 020c7642 01340ee7 60786c28  `xL...vB.4..`xl(
 13610 00f03a81 4cf4807c 013427e7 60784cf4  ..:.L..|.4'.`xL.
 13620 007c0134 22e700bf 21290100 29290100  .|.4"...!)..))..
 13630 60786828 00f02381 4cf0800c 013415e7  `xh(..#.L....4..
 13640 462808f1 07082a46 5b4608bf 4cf0200c  F(....*F[F..L. .
 13650 28f00708 51464846 0134b8ec 020bcde9  (...QFHF.4......
 13660 016c0097 fff7e4fc 0546bae6 6b1c2a46  .l.......F..k.*F
 13670 51462520 1d465b46 0134c847 b1e61cf0  QF% .F[F.4.G....
 13680 020f00f0 098158f8 040b5b46 2a465146  ......X...[F*FQF
 13690 c0b26f1c c847012e 40f24981 35443a46  ..o..G..@.I.5D:F
 136a0 01375b46 51462020 c847af42 f7d10134  .7[FQF  .G.B...4
 136b0 97e60a9b 2a460397 51460193 4cf02103  ....*F..QF..L.!.
 136c0 48460134 05930823 04931023 029358f8  HF.4...#...#..X.
 136d0 043b0093 5b46fff7 5dfa0546 81e64346  .;..[F..]..F..CF
 136e0 53f8048b 98f80000 0c93002f 40f09580  S........../@...
 136f0 70b16ff0 01010131 43464144 01e08b42  p.o....1CFAD...B
 13700 03d013f8 012f002a f9d1a3eb 08030a93  ...../.*........
 13710 1cf48063 0d9304d0 0a9bbb42 28bf3b46  ...c.......B(.;F
 13720 0a931cf0 02030e93 00f0dc80 002800f0  .............(..
 13730 c9800f96 2a460d9e 00e02a46 5b465146  ....*F....*F[FQF
 13740 1eb107f1 ff3c37b1 6746c847 18f8010f  .....<7.gF.G....
 13750 01350028 f1d1dde9 0e36002b 40f0b280  .5.(.....6.+@...
 13760 0134ddf8 30803ce6 00f0df03 582b00f0  .4..0.<.....X+..
 13770 18816f28 00f0d180 622800f0 25812cf0  ..o(....b(..%.,.
 13780 100c4ff0 0a0e6928 01d06428 74d11cf4  ..O...i(..d(t...
 13790 806f18bf 2cf0010c 692843d0 a0f16400  .o..,...i(C...d.
 137a0 b0fa80f0 40090028 3cd11cf4 007340f0  ....@..(<....s@.
 137b0 e1801cf4 807f40f0 f7801cf0 400f58f8  ......@.....@.X.
 137c0 043b40f0 b2801cf0 800f18bf 9bb20093  .;@.............
 137d0 2a460023 cde9046c cde902e7 01935b46  *F.#...l......[F
 137e0 51464846 0134fff7 d5f90546 f9e50027  QFHF.4.....F...'
 137f0 07eb8707 00eb4700 a0f13007 12f8010f  ......G...0.....
 13800 a0f13003 092bf3d9 144612e6 58f8047b  ..0..+...F..X..{
 13810 02342078 27eae777 0be60028 3ff478af  .4 x'..w...(?.x.
 13820 791e68e7 1cf4007f 40f08380 1cf4807f  y.h.....@.......
 13830 40f0cd80 1cf0400f 72d11cf0 800f00f0  @.....@.r.......
 13840 db8038f9 043b83ea e372a2eb e37292b2  ..8..;...r...r..
 13850 db0f0092 2a460193 cde9046c cde902e7  ....*F.....l....
 13860 bde700f0 df03582b 86d15828 40f09980  ......X+..X(@...
 13870 4cf0200c 4ff0100e 2cf00c0c 87e7a078  L. .O...,......x
 13880 4cf0c00c 0234f1e5 a0784cf4 407c0234  L....4...xL.@|.4
 13890 ece50446 054664e6 012e40f2 b4806b1e  ...F.Fd...@...k.
 138a0 1e442a46 01355b46 51462020 c847b542  .D*F.5[FQF  .G.B
 138b0 f7d158f8 040b5b46 32465146 c0b2751c  ..X...[F2FQF..u.
 138c0 c847f4e6 0a9b2f46 9e427ff6 49af3544  .G..../F.B..I.5D
 138d0 ed1a3a46 01375b46 51462020 c847af42  ..:F.7[FQF  .G.B
 138e0 f7d13de7 0a9a9642 02f10103 40f28d80  ..=....B....@...
 138f0 73190a94 9b1a1c46 2a460135 5b465146  s......F*F.5[FQF
 13900 2020c847 a542f7d1 731c98f8 00000a9c    .G.B..s.......
 13910 0a930028 7ff40daf 22e74ff0 080eabe7  ...(....".O.....
 13920 58f8043b dbb21a46 92e7dbb2 4fe73d46  X..;...F....O.=F
 13930 bde608f1 070828f0 0708d8f8 043058f8  ......(......0X.
 13940 082bd90f 002b0697 02914ff0 0001cdf8  .+...+....O.....
 13950 10e00591 cde9076c 02da5242 63eb4303  .......l..RBc.C.
 13960 51464846 cde90023 2a465b46 fff75ef9  QFHF...#*F[F..^.
 13970 05469ce6 08f10708 05900290 2a4628f0  .F..........*F(.
 13980 07080697 cdf810e0 5b465146 4846cde9  ........[FQFHF..
 13990 076cf8e8 0267cde9 0067fff7 47f90546  .l...g...g..G..F
 139a0 85e64ff0 100eeee6 01932a46 5b464846  ..O.......*F[FHF
 139b0 cde9046c cde902e7 58f8041b 00915146  ...l....X.....QF
 139c0 fff7e8f8 054672e6 4ff0020e 54e758f8  .....Fr.O...T.X.
 139d0 040b2a46 5b465146 00284fea d075b8bf  ..*F[FQF.(O..u..
 139e0 40420195 00904846 cde9046c cde902e7  @B....HF...l....
 139f0 fff7d0f8 05465ae6 58f8043b 83eae372  .....FZ.X..;...r
 13a00 a2ebe372 24e72e46 53e70a93 00287ff4  ...r$..FS....(..
 13a10 90aea5e6 fef77cbd fef74cbd fef7b0bd  ......|...L.....
 13a20 fef76abd fef706be fef7dcbd 08461146  ..j..........F.F
 13a30 fef7ccbd 0846fef7 b3bd00bf fef7f8b8  .....F..........
 13a40 fef7c8b8 fef72cb9 fef7e6b8 fef780b9  ......,.........
 13a50 fef758b9 08461146 fef748b9 0846fef7  ..X..F.F..H..F..
 13a60 2fb900bf 00b97047 2de9f84f 01218146  /.....pG-..O.!.F
 13a70 214c224d 224e54e8 003f2a68 306844e8  !L"M"NT..?*h0hD.
 13a80 0013002b f7d11f49 4b684ff4 7a7bdff8  ...+...IKhO.z{..
 13a90 78a01b1a 01270bfb 02f8daf8 0020a3fb  x....'....... ..
 13aa0 02325a45 94bf9044 d84454e8 003f2a68  .2ZE...D.DT..?*h
 13ab0 306844e8 0073002b f7d14b68 daf800c0  0hD..s.+..Kh....
 13ac0 1b1a0bfb 02f2a3fb 0c3cbcf5 7a7f94bf  .........<..z...
 13ad0 624402f5 7a72a2eb 0802b2f5 7a7f06d3  bD..zr......z...
 13ae0 b9f10109 08f57a78 dfd1bde8 f88ffef7  ......zx........
 13af0 d5f90449 d9e700bf ec420020 e8420020  ...I.....B. .B. 
 13b00 e4420020 001000e0 1c410020 30b40f4b  .B. .....A. 0..K
 13b10 4ff0010c 0e4d0f4c 53e8002f 28682168  O....M.LS../(h!h
 13b20 43e800c2 002af7d1 0b4b5b68 0b4a5b1a  C....*...K[h.J[.
 13b30 4ff47a71 126801fb 00f0a3fb 023230bc  O.zq.h.......20.
 13b40 8a4294bf 80184018 704700bf ec420020  .B....@.pG...B. 
 13b50 e8420020 e4420020 001000e0 1c410020  .B. .B. .....A. 
 13b60 10b44ff4 7a744ff4 fa620160 c0e90142  ..O.ztO..b.`...B
 13b70 5df8044b 704700bf 10b50446 01210078  ]..KpG.....F.!.x
 13b80 fcf76efe 20789fed 030abde8 1040fdf7  ..n. x.......@..
 13b90 b1bb00bf 00004842 ffee007a b4eee70a  ......HB...z....
 13ba0 f1ee10fa 27d4f7ee 007ab4ee e70af1ee  ....'....z......
 13bb0 10fa03dd 19210078 fdf736bb dfed107a  .....!.x..6....z
 13bc0 dfed106a e0ee277a 9fed0f6a 0f4b0078  ...j..'z...j.K.x
 13bd0 27eea67a c7ee067a 77eea67a fdeee77a  '..z...zw..z...z
 13be0 17ee901a c1eb0121 83fb0123 c917c1eb  .......!...#....
 13bf0 6331fdf7 19bb0c21 0078fdf7 15bb00bf  c1.....!.x......
 13c00 0000c842 00007a44 00004843 ad8bdb68  ...B..zD..HC...h
 13c10 1a4a1368 591c10b5 1160d3b1 184a1949  .J.hY....`...J.I
 13c20 194800f0 b1fe194a 1368591c 1160f3b1  .H.....J.hY..`..
 13c30 134a1749 174800f0 a7fe174a 1368591c  .J.I.H.....J.hY.
 13c40 11606bb1 0e4a1549 1548bde8 104000f0  .`k..J.I.H...@..
 13c50 9bbe144c 204602f0 9bfb134b 1c60dde7  ...L F.....K.`..
 13c60 124c2046 02f08cfb 114b1c60 eae7114c  .L F.....K.`...L
 13c70 204602f0 95fb104b 1c60d9e7 2c3a0020   F.....K.`..,:. 
 13c80 98230020 353a0000 5c3b0020 d43a0020  .#. 5:..\;. .:. 
 13c90 213d0000 7c3b0020 d0390020 813d0000  !=..|;. .9. .=..
 13ca0 403b0020 343a0020 303a0020 d8390020  @;. 4:. 0:. .9. 
 13cb0 d4390020 dc3a0020 d83a0020 f0b500f1  .9. .:. .:. ....
 13cc0 080783b0 076029b3 04460846 0e4601f0  .....`)..F.F.F..
 13cd0 8dfd0f28 05460190 0dd80128 08d13378  ...(.F.....(..3x
 13ce0 2372019b 00212268 6360d154 03b0f0bd  #r...!"hc`.T....
 13cf0 0028f6d0 08e00022 01a92046 00f0f6fe  .(.....".. F....
 13d00 019b0746 2060a360 2a463146 384601f0  ...F `.`*F1F8F..
 13d10 5ffde6e7 014800f0 e2fe00bf c40b0020  _....H......... 
 13d20 2de9f04f 83b00090 002800f0 c680009b  -..O.....(......
 13d30 d3f80c90 b9f1000f 00f0c280 d9f80ca0  ................
 13d40 baf1000f 00f0a580 daf80cb0 bbf1000f  ................
 13d50 00f08b80 dbf80c40 002c5ed0 e568002d  .......@.,^..h.-
 13d60 38d0ee68 002e46d0 f768002f 69d0d7f8  8..h..F..h./i...
 13d70 0c80b8f1 000f19d0 d8f80c00 cdf80480  ................
 13d80 fff7ceff 019ad8f8 08801069 02f11801  ...........i....
 13d90 884204d0 91690131 fef706fd 019a2c21  .B...i.1......,!
 13da0 1046fef7 01fdb8f1 000fe5d1 386907f1  .F..........8i..
 13db0 1802d7f8 08809042 03d0b969 0131fef7  .......B...i.1..
 13dc0 f3fc2c21 3846fef7 effcb8f1 000f38d0  ..,!8F........8.
 13dd0 4746cce7 206904f1 1803a568 984203d0  GF.. i.....h.B..
 13de0 a1690131 fef7e0fc 2c212046 fef7dcfc  .i.1....,! F....
 13df0 9db12c46 b2e72869 05f11803 ae689842  ..,F..(i.....h.B
 13e00 03d0a969 0131fef7 cffc2c21 2846fef7  ...i.1....,!(F..
 13e10 cbfc002e ded03546 a3e7dbf8 10000bf1  ......5F........
 13e20 1803dbf8 08409842 04d0dbf8 18100131  .....@.B.......1
 13e30 fef7bafc 2c215846 fef7b6fc acb1a346  ....,!XF.......F
 13e40 88e73069 06f11803 d6f80880 984203d0  ..0i.........B..
 13e50 b1690131 fef7a8fc 2c213046 fef7a4fc  .i.1....,!0F....
 13e60 b8f1000f c7d04646 7ee7daf8 10000af1  ......FF~.......
 13e70 1803daf8 08409842 04d0daf8 18100131  .....@.B.......1
 13e80 fef792fc 2c215046 fef78efc 0cb1a246  ....,!PF.......F
 13e90 5ae7d9f8 100009f1 1803d9f8 08409842  Z............@.B
 13ea0 04d0d9f8 18100131 fef77efc 2c214846  .......1..~.,!HF
 13eb0 fef77afc 24b1a146 40e703b0 bde8f08f  ..z.$..F@.......
 13ec0 009a1069 02f11803 94689842 03d09169  ...i.....h.B...i
 13ed0 0131fef7 69fc2c21 0098fef7 65fc002c  .1..i.,!....e..,
 13ee0 ebd00094 23e700bf 70b58468 06469cb1  ....#...p..h.F..
 13ef0 2546e068 fff714ff a4682869 05f11803  %F.h.....h(i....
 13f00 984203d0 a9690131 fef74efc 2c212846  .B...i.1..N.,!(F
 13f10 fef74afc 002cebd1 304670bd 2de9f04f  ..J..,..0Fp.-..O
 13f20 8c6883b0 8b468146 0192a4b3 019bd3e9  .h...F.F........
 13f30 00a800e0 14466669 45462769 5046b045  .....FfiEF'iPF.E
 13f40 394628bf 35462a46 15b101f0 a5fe08b9  9F(.5F*F........
 13f50 a8eb0600 0028d4e9 0212aebf 00210a46  .....(.......!.F
 13f60 0121002a e6d1b9b9 a3468db1 2a465146  .!.*.....F..*FQF
 13f70 384601f0 91fe58b1 00284ff0 00034846  8F....X..(O...HF
 13f80 b4bfc9e9 003bc9e9 004303b0 bde8f08f  .....;...C......
 13f90 a6eb0800 f0e70c1d dbf80c30 a3420ed0  ...........0.B..
 13fa0 2046a346 00f036fd 019b0446 d0e90476   F.F..6....F...v
 13fb0 d3e900a8 35464645 28bf4546 d5e70023  ....5FFE(.EF...#
 13fc0 4846c9e9 003403b0 bde8f08f 914200f0  HF...4.......B..
 13fd0 8b802de9 f04f9246 87b08046 00f1040b  ..-..O.F...F....
 13fe0 01f11c04 d8f81430 a4f11c05 83b1d8f8  .......0........
 13ff0 109054e9 0716d9e9 0407b742 3a4628bf  ..T........B:F(.
 14000 324612b1 01f048fe 00b9b81b 002869db  2F....H......(i.
 14010 2a464146 04a8fff7 81ffdde9 0469b9f1  *FAF.........i..
 14020 000f2ed0 003e18bf 0126cb45 08bf46f0  .....>...&.E..F.
 14030 0106002e 40d02c20 fef7b2fb 05461830  ....@., .....F.0
 14040 54e90737 2861fb42 01d0002b 4dd00f2f  T..7(a.B...+M../
 14050 03971fd8 012f1ad1 1b782b76 4ff00003  ...../...x+vO...
 14060 6f614a46 c3555b46 14f8041c 304685f8  oaJF.U[F....0F..
 14070 28102946 00f0d0fc d8f81430 0133c8f8  (.)F.......0.3..
 14080 1430a245 04f11c03 29d01c46 aae7002f  .0.E....)..F.../
 14090 e4d00ae0 002203a9 05f11000 019300f0  ....."..........
 140a0 25fd039a 019b2861 aa613a46 194601f0  %.....(a.a:F.F..
 140b0 8ffb039f 2869d1e7 54f8186c d9f81450  ....(i..T..l...P
 140c0 3246ae42 28bf2a46 32b1d9f8 101054f8  2F.B(.*F2.....T.
 140d0 1c0c01f0 e1fd00b9 701bc60f abe707b0  ........p.......
 140e0 bde8f08f 0026a0e7 70470148 00f0f7fc  .....&..pG.H....
 140f0 c40b0020 30b5c1b0 00242c49 01ad2846  ... 0....$,I..(F
 14100 fff7dcfd 2a4908a8 8df81c40 fff7d6fd  ....*I.....@....
 14110 01232849 0fa88df8 3830fff7 cffd0223  .#(I....80.....#
 14120 254916a8 8df85430 fff7c8fd 03232349  %I....T0.....##I
 14130 1da88df8 7030fff7 c1fd0423 204924a8  ....p0.....# I$.
 14140 8df88c30 fff7bafd 05231e49 2ba88df8  ...0.....#.I+...
 14150 a830fff7 b3fd0623 1b4932a8 8df8c430  .0.....#.I2....0
 14160 fff7acfd 07231949 39a88df8 e030fff7  .....#.I9....0..
 14170 a5fd1748 082140aa 031d0471 44618df8  ...H.!@....qDa..
 14180 fc102946 0361c0e9 024340ac fff71eff  ..)F.a...C@.....
 14190 1c3c2046 00f0ccfc ac42f9d1 0d4a0e49  .< F.....B...J.I
 141a0 0b4841b0 bde83040 00f0eebb e4090020  .HA...0@....... 
 141b0 540a0020 340a0020 0c0a0020 f4090020  T.. 4.. ... ... 
 141c0 140a0020 000a0020 200a0020 440a0020  ... ...  .. D.. 
 141d0 24390020 98230020 e93e0100 fff78abf  $9. .#. .>......
 141e0 f0b500f1 080783b0 076031b3 04460846  .........`1..F.F
 141f0 0e4601f0 fbfa0f28 05460190 0cd80128  .F.....(.F.....(
 14200 07d13378 23720023 20466560 7b5503b0  ..3x#r.# Fe`{U..
 14210 f0bd0028 f7d008e0 002201a9 204600f0  ...(.....".. F..
 14220 65fc019b 07462060 a3602a46 38463146  e....F `.`*F8F1F
 14230 01f0cefa 019d2768 e5e70148 00f04ffc  ......'h...H..O.
 14240 c40b0020 30b5c1b0 00243149 01ad6a46  ... 0....$1I..jF
 14250 2846fff7 c5ff6a46 2e4908a8 8df81c40  (F....jF.I.....@
 14260 fff7beff 01236a46 2b490fa8 8df83830  .....#jF+I....80
 14270 fff7b6ff 02236a46 284916a8 8df85430  .....#jF(I....T0
 14280 fff7aeff 03236a46 25491da8 8df87030  .....#jF%I....p0
 14290 fff7a6ff 04236a46 224924a8 8df88c30  .....#jF"I$....0
 142a0 fff79eff 05236a46 1f492ba8 8df8a830  .....#jF.I+....0
 142b0 fff796ff 06236a46 1c4932a8 8df8c430  .....#jF.I2....0
 142c0 fff78eff 07236a46 194939a8 8df8e030  .....#jF.I9....0
 142d0 fff786ff 17480821 40aa031d 04714461  .....H.!@....qDa
 142e0 8df8fc10 29460361 c0e90243 40acfff7  ....)F.a...C@...
 142f0 6dfe1c3c 204600f0 1bfcac42 f9d10e4a  m..< F.....B...J
 14300 0e490c48 41b0bde8 304000f0 3dbb00bf  .I.HA...0@..=...
 14310 e4090020 540a0020 340a0020 0c0a0020  ... T.. 4.. ... 
 14320 f4090020 140a0020 000a0020 200a0020  ... ... ...  .. 
 14330 440a0020 3c390020 98230020 e93e0100  D.. <9. .#. .>..
 14340 fff780bf 30b5c1b0 00243149 01ad6a46  ....0....$1I..jF
 14350 2846fff7 45ff6a46 2e4908a8 8df81c40  (F..E.jF.I.....@
 14360 fff73eff 01236a46 2b490fa8 8df83830  ..>..#jF+I....80
 14370 fff736ff 02236a46 284916a8 8df85430  ..6..#jF(I....T0
 14380 fff72eff 03236a46 25491da8 8df87030  .....#jF%I....p0
 14390 fff726ff 04236a46 224924a8 8df88c30  ..&..#jF"I$....0
 143a0 fff71eff 05236a46 1f492ba8 8df8a830  .....#jF.I+....0
 143b0 fff716ff 06236a46 1c4932a8 8df8c430  .....#jF.I2....0
 143c0 fff70eff 07236a46 194939a8 8df8e030  .....#jF.I9....0
 143d0 fff706ff 17480821 40aa031d 04714461  .....H.!@....qDa
 143e0 8df8fc10 29460361 c0e90243 40acfff7  ....)F.a...C@...
 143f0 edfd1c3c 204600f0 9bfbac42 f9d10e4a  ...< F.....B...J
 14400 0e490c48 41b0bde8 304000f0 bdba00bf  .I.HA...0@......
 14410 e4090020 540a0020 340a0020 0c0a0020  ... T.. 4.. ... 
 14420 f4090020 140a0020 000a0020 200a0020  ... ... ...  .. 
 14430 440a0020 54390020 98230020 e93e0100  D.. T9. .#. .>..
 14440 fff780bf 30b5c1b0 00243149 01ad6a46  ....0....$1I..jF
 14450 2846fff7 c5fe6a46 2e4908a8 8df81c40  (F....jF.I.....@
 14460 fff7befe 01236a46 2b490fa8 8df83830  .....#jF+I....80
 14470 fff7b6fe 02236a46 284916a8 8df85430  .....#jF(I....T0
 14480 fff7aefe 03236a46 25491da8 8df87030  .....#jF%I....p0
 14490 fff7a6fe 04236a46 224924a8 8df88c30  .....#jF"I$....0
 144a0 fff79efe 05236a46 1f492ba8 8df8a830  .....#jF.I+....0
 144b0 fff796fe 06236a46 1c4932a8 8df8c430  .....#jF.I2....0
 144c0 fff78efe 07236a46 194939a8 8df8e030  .....#jF.I9....0
 144d0 fff786fe 17480821 40aa031d 04714461  .....H.!@....qDa
 144e0 8df8fc10 29460361 c0e90243 40acfff7  ....)F.a...C@...
 144f0 6dfd1c3c 204600f0 1bfbac42 f9d10e4a  m..< F.....B...J
 14500 0e490c48 41b0bde8 304000f0 3dba00bf  .I.HA...0@..=...
 14510 e4090020 540a0020 340a0020 0c0a0020  ... T.. 4.. ... 
 14520 f4090020 140a0020 000a0020 200a0020  ... ... ...  .. 
 14530 440a0020 6c390020 98230020 e93e0100  D.. l9. .#. .>..
 14540 fff780bf 4ff0000c c0e90012 80f809c0  ....O...........
 14550 704700bf 41727047 10b50446 0068fff7  pG..ArpG...F.h..
 14560 0bfb6068 fff708fb 04f10800 00f0e4f8  ..`h............
 14570 4ff47a70 bde81040 fff774ba 10b50446  O.zp...@..t....F
 14580 083000f0 f9f8f3ee 047ab4ee e70af1ee  .0.......z......
 14590 10fa06d5 f1ee047a b4eee70a f1ee10fa  .......z........
 145a0 1edcf1ee 047ab4ee e70af1ee 10fa0bd5  .....z..........
 145b0 20689fed 130afff7 effa6068 9fed100a   h........`h....
 145c0 bde81040 fff7e8ba 20689fed 0e0afff7  ...@.... h......
 145d0 e3fa6068 9fed0b0a bde81040 fff7dcba  ..`h.......@....
 145e0 20689fed 090afff7 d7fa2068 9fed070a   h........ h....
 145f0 fff7d2fa 4ff4fa60 bde81040 fff732ba  ....O..`...@..2.
 14600 00000000 cdcc4c3e cdccccbd cdcccc3d  ......L>.......=
 14610 437a03b1 7047fff7 b1bf00bf 024b0349  Cz..pG.......K.I
 14620 034ac3e9 00127047 e03a0020 40420f00  .J....pG.:. @B..
 14630 070000c0 30b5c1b0 00243149 01ad6a46  ....0....$1I..jF
 14640 2846fff7 cdfd6a46 2e4908a8 8df81c40  (F....jF.I.....@
 14650 fff7c6fd 01236a46 2b490fa8 8df83830  .....#jF+I....80
 14660 fff7befd 02236a46 284916a8 8df85430  .....#jF(I....T0
 14670 fff7b6fd 03236a46 25491da8 8df87030  .....#jF%I....p0
 14680 fff7aefd 04236a46 224924a8 8df88c30  .....#jF"I$....0
 14690 fff7a6fd 05236a46 1f492ba8 8df8a830  .....#jF.I+....0
 146a0 fff79efd 06236a46 1c4932a8 8df8c430  .....#jF.I2....0
 146b0 fff796fd 07236a46 194939a8 8df8e030  .....#jF.I9....0
 146c0 fff78efd 17480821 40aa031d 04714461  .....H.!@....qDa
 146d0 8df8fc10 29460361 c0e90243 40acfff7  ....)F.a...C@...
 146e0 75fc1c3c 204600f0 23faac42 f9d10e4a  u..< F..#..B...J
 146f0 0e490c48 41b0bde8 304000f0 45b900bf  .I.HA...0@..E...
 14700 e4090020 540a0020 340a0020 0c0a0020  ... T.. 4.. ... 
 14710 f4090020 140a0020 000a0020 200a0020  ... ... ...  .. 
 14720 440a0020 84390020 98230020 e93e0100  D.. .9. .#. .>..
 14730 fff780bf 704700bf c82008b5 fff792f9  ....pG... ......
 14740 01210a48 f3f788fa 40b14ff4 fa730748  .!.H....@.O..s.H
 14750 3221c383 bde80840 f3f766bb 20210448  2!.....@..f. !.H
 14760 fdf734ff 0348fef7 79f8eee7 14430020  ..4..H..y....C. 
 14770 98090020 48230020 01210448 08b5f3f7  ... H#. .!.H....
 14780 29fe07ee 900ab8ee 670a08bd 14430020  ).......g....C. 
 14790 0148f2f7 dbbf00bf 14430020 38b50446  .H.......C. 8..F
 147a0 49b10846 0d4601f0 21f82368 02462946  I..F.F..!.#h.F)F
 147b0 5b682046 98472046 bde83840 fef74eb8  [h F.G F..8@..N.
 147c0 08b5fdf7 6bfb1f4b 1b78002b 39d01e4b  ....k..K.x.+9..K
 147d0 1b78db07 35d51d4b 1d4a1b68 12689b1a  .x..5..K.J.h.h..
 147e0 0e2b2ed9 04211b48 fdf7f0fe 15211a48  .+...!.H.....!.H
 147f0 fdf7ecfe 1948fef7 31f8194b 194a1a49  .....H..1..K.J.I
 14800 1648fef7 47f8194a 19491448 fef742f8  .H..G..J.I.H..B.
 14810 184a1949 1148fef7 3df8184a 18490f48  .J.I.H..=..J.I.H
 14820 fef738f8 174b1849 5a680c48 fef732f8  ..8..K.IZh.H..2.
 14830 05211648 fdf7cafe 0848bde8 0840fef7  .!.H.....H...@..
 14840 0db808bd 99430020 98430020 e8420020  .....C. .C. .B. 
 14850 58430020 e8050020 f0050020 48230020  XC. ... ... H#. 
 14860 08060020 14060020 20060020 38060020  ... ...  .. 8.. 
 14870 64060020 74060020 7c060020 8c060020  d.. t.. |.. ... 
 14880 a8060020 001000e0 bc060020 cc060020  ... ....... ... 
 14890 224d40f2 ee28224c dff8a890 2e6880b5  "M@..("L.....h..
 148a0 204ffdf7 fbfa2378 53b33b78 db0727d5   O....#xS.;x..'.
 148b0 2b68d9f8 00209b1a 0e2b21d9 1a491b48  +h... ...+!..I.H
 148c0 fff76cff 1a4c1b49 1b48edf7 57fcfff7  ..l..L.I.H..W...
 148d0 77ff1a49 1548fff7 61ff2046 fff73cfe  w..I.H..a. F..<.
 148e0 00212046 fff736fe 10481549 fff756ff  .! F..6..H.I..V.
 148f0 4ff47a70 fff7b6f8 2046fff7 89fefbe7  O.zp.... F......
 14900 2b682278 9b1b2ab1 b3f5fa6f d6d8fdf7  +h"x..*....o....
 14910 c5fac6e7 4345fad9 d0e700bf e8420020  ....CE.......B. 
 14920 99430020 98430020 78170020 48230020  .C. .C. x.. H#. 
 14930 443f0020 58230020 d43d0020 88170020  D?. X#. .=. ... 
 14940 ac170020 58430020 70b50b4c 08210b4d  ... XC. p..L.!.M
 14950 0b4e2046 fff704f9 0b212846 fff700f9  .N F.....!(F....
 14960 3046fff7 e7fe3346 2a462146 0548bde8  0F....3F*F!F.H..
 14970 7040fff7 e7bd00bf 0c400020 18400020  p@.......@. .@. 
 14980 10430020 443f0020 0b460146 184600f0  .C. D?. .F.F.F..
 14990 edbfc368 9a68c260 10b502b1 50604268  ...h.h.`....P`Bh
 149a0 5a600c68 844203d1 0b609860 436010bd  Z`.h.B...`.`C`..
 149b0 91688142 0cbf9360 d360f6e7 8368da68  .h.B...`.`...h.h
 149c0 826010b5 02b15060 42685a60 0c688442  .`....P`BhZ`.h.B
 149d0 03d10b60 d8604360 10bdd168 81420cbf  ...`.`C`...h.B..
 149e0 d3609360 f6e70378 33b94368 5b688342  .`.`...x3.Ch[h.B
 149f0 02d1db68 18467047 826822b1 1346d268  ...h.FpG.h"..F.h
 14a00 002afbd1 f6e74368 9a688242 f2d11846  .*....Ch.h.B...F
 14a10 5b68f9e7 fff7e7bf 2de9f843 1d4603f1  [h......-..C.F..
 14a20 04080023 c1e90233 0c464a60 0b7098b1  ...#...3.FJ`.p..
 14a30 95429160 02d16960 ec6003e0 ab689342  .B.`..i`.`...h.B
 14a40 08bfa960 01274ff0 00096b68 a34230d1  ...`.'O...kh.B0.
 14a50 01221a70 bde8f883 d160eb68 9342f1d1  .".p.....`.h.B..
 14a60 eae7c368 a34203d1 4146fff7 92ff0446  ...h.B..AF.....F
 14a70 63684146 1f703046 86f80090 fff79eff  chAF.p0F........
 14a80 264627e0 2bb11a78 1ab90770 1f703270  &F'.+..x...p.p2p
 14a90 20e08368 a34203d1 4146fff7 8fff0446   ..h.B..AF.....F
 14aa0 63684146 1f703046 86f80090 fff771ff  chAF.p0F......q.
 14ab0 e6e76068 0278002a cad14668 b3688342  ..`h.x.*..Fh.h.B
 14ac0 e0d1f268 002accd0 11780029 c9d11f70  ...h.*...x.)...p
 14ad0 17703170 3446b8e7 08b5fcf7 effd08b5  .p1p4F..........
 14ae0 fcf7ecfd 08b5fcf7 e9fd0000 08b50b68  ...............h
 14af0 b3f1804f 02d30d48 fff7f4ff 93420bd9  ...O...H.....B..
 14b00 b3eb420f 4fea4200 06d2b0f1 804f2abf  ..B.O.B......O*.
 14b10 6ff04043 08600b60 08680130 01d5fff7  o.@C.`.`.h.0....
 14b20 dbffbde8 0840fdf7 3bbe00bf f4210020  .....@..;....!. 
 14b30 50f8083b 834202d0 1846fdf7 33be7047  P..;.B...F..3.pG
 14b40 53b94ab9 002908bf 00281cbf 4ff0ff31  S.J..)...(..O..1
 14b50 4ff0ff30 00f070b9 adf1080c 6de904ce  O..0..p.....m...
 14b60 00f006f8 ddf804e0 dde90223 04b07047  ...........#..pG
 14b70 2de9f047 089e0d46 04460f46 002b4ad1  -..G...F.F.F.+J.
 14b80 8a429446 65d9b2fa 82f343b1 02fa03fc  .B.Fe.....C.....
 14b90 c3f12002 9f4020fa 02f21743 9c404fea  .. ..@ ....C.@O.
 14ba0 1c4e1ffa 8cf5b7fb fef1220c 0efb1177  .N........"....w
 14bb0 42ea0742 01fb05f0 90420ad9 1ceb0202  B..B.....B......
 14bc0 01f1ff37 80f01c81 904240f2 19810239  ...7.....B@....9
 14bd0 6244121a a4b2b2fb fef00efb 102244ea  bD..........."D.
 14be0 024400fb 05f5a542 0ad91ceb 040400f1  .D.....B........
 14bf0 ff3280f0 0781a542 40f20481 64440238  .2.....B@...dD.8
 14c00 40ea0140 641b0021 1eb1dc40 0023c6e9  @..@d..!...@.#..
 14c10 0043bde8 f0878b42 08d9002e 00f0ed80  .C.....B........
 14c20 0021c6e9 00050846 bde8f087 b3fa83f1  .!.....F........
 14c30 002949d1 ab4202d3 824200f2 f880841a  .)I..B...B......
 14c40 65eb0302 01201746 002ee2d0 c6e90047  e.... .F.......G
 14c50 dfe702b9 ffdeb2fa 82f3002b 40f09080  ...........+@...
 14c60 8a1a4fea 1c471ffa 8cfe0121 b2fbf7f5  ..O..G.....!....
 14c70 07fb1520 220c42ea 00420efb 05f09042  ... ".B..B.....B
 14c80 08d91ceb 020205f1 ff3802d2 904200f2  .........8...B..
 14c90 cb804546 121aa4b2 b2fbf7f0 07fb1022  ..EF..........."
 14ca0 44ea0244 0efb00fe a64508d9 1ceb0404  D..D.....E......
 14cb0 00f1ff32 02d2a645 00f2bb80 1046a4eb  ...2...E.....F..
 14cc0 0e0440ea 05409fe7 c1f12007 8b4022fa  ..@..@.... ..@".
 14cd0 07fc4cea 030c05fa 01f420fa 07f3fd40  ..L....... ....@
 14ce0 4fea1c49 2343b5fb f9f81ffa 8cfe09fb  O..I#C..........
 14cf0 18551c0c 44ea0544 08fb0ef5 a54202fa  .U..D..D.....B..
 14d00 01f200fa 01f00bd9 1ceb0404 08f1ff3a  ...............:
 14d10 80f08880 a54240f2 8580a8f1 02086444  .....B@.......dD
 14d20 641b9db2 b4fbf9f3 09fb1344 45ea0444  d..........DE..D
 14d30 03fb0efe a64508d9 1ceb0404 03f1ff35  .....E.........5
 14d40 6cd2a645 6ad9023b 644443ea 0843a3fb  l..Ej..;dDC..C..
 14d50 0295a4eb 0e04ac42 c846ae46 56d353d0  .......B.F.FV.S.
 14d60 56b1b0eb 080264eb 0e0404fa 07f7ca40  V.....d........@
 14d70 cc401743 c6e90074 18460021 bde8f087  .@.C...t.F.!....
 14d80 c3f12001 02fa03fc 20fa01f2 25fa01f1  .. ..... ...%...
 14d90 9d402a43 4fea1c47 1ffa8cfe b1fbf7f0  .@*CO..G........
 14da0 07fb1015 110c41ea 054100fb 0ef58d42  ......A..A.....B
 14db0 04fa03f4 08d91ceb 010100f1 ff382fd2  .............8/.
 14dc0 8d422dd9 02386144 491b92b2 b1fbf7f5  .B-..8aDI.......
 14dd0 07fb1511 42ea0142 05fb0ef1 914208d9  ....B..B.....B..
 14de0 1ceb0202 05f1ff38 16d29142 14d9023d  .......8...B...=
 14df0 6244521a 45ea0041 38e73146 304608e7  bDR.E..A8.1F0F..
 14e00 3946e6e6 1046fbe6 4845a9d2 b9eb0208  9F...F..HE......
 14e10 65eb0c0e 013ba3e7 4546eae7 2b4694e7  e....;..EF..+F..
 14e20 4046d1e7 d0467be7 023d6244 32e70846  @F...F{..=bD2..F
 14e30 0ae76444 023842e7 704700bf 70b50d4d  ..dD.8B.pG..p..M
 14e40 0d4c641b a4100026 a64209d1 0b4d0c4c  .Ld....&.B...M.L
 14e50 01f0aafa 641ba410 0026a642 05d170bd  ....d....&.B..p.
 14e60 55f8043b 98470136 eee755f8 043b9847  U..;.G.6..U..;.G
 14e70 0136f2e7 f8200060 f8200060 f8200060  .6... .`. .`. .`
 14e80 60210060 10f8012b 11f8013b 012a28bf  `!.`...+...;.*(.
 14e90 9a42f7d0 d01a7047 034611f8 012b03f8  .B....pG.F...+..
 14ea0 012b002a f9d17047 0fb407b5 064904ab  .+.*..pG.....I..
 14eb0 086853f8 042b8168 019300f0 31f803b0  .hS..+.h....1...
 14ec0 5df804eb 04b07047 f4230020 9368013b  ].....pG.#. .h.;
 14ed0 002b10b4 936008da 9469a342 01db0a29  .+...`...i.B...)
 14ee0 03d15df8 044b00f0 35b91368 581c1060  ..]..K..5..hX..`
 14ef0 19700846 5df8044b 7047f8b5 06460f46  .p.F]..KpG...F.F
 14f00 1446d518 ac4201d1 002007e0 14f8011b  .F...B... ......
 14f10 3a463046 fff7daff 431cf3d1 f8bd0000  :F0F....C.......
 14f20 2de9f04f 0d469db0 14469846 064618b1  -..O.F...F.F.F..
 14f30 036a0bb9 00f0a2fd 6b6ed907 05d4ab89  .j......kn......
 14f40 9a0502d4 a86d00f0 fbffab89 1b0701d5  .....m..........
 14f50 2b699bb9 29463046 00f03af9 70b16b6e  +i..)F0F..:.p.kn
 14f60 dc0704d5 4ff0ff30 1db0bde8 f08fab89  ....O..0........
 14f70 9805f7d4 a86d00f0 e4fff3e7 00230993  .....m.......#..
 14f80 20238df8 2930cdf8 0c803023 dff8b081   #..)0....0#....
 14f90 8df82a30 4ff00109 23469a46 13f8012b  ..*0O...#F.F...+
 14fa0 0ab1252a f9d1baeb 040b0bd0 5b462246  ..%*........[F"F
 14fb0 29463046 fff7a1ff 013000f0 a980099a  )F0F.....0......
 14fc0 5a440992 9af80030 002b00f0 a1800023  ZD.....0.+.....#
 14fd0 4ff0ff32 cde90523 0af1010a 04930793  O..2...#........
 14fe0 8df85330 1a935446 052214f8 011b5448  ..S0..TF."....TH
 14ff0 00f09efb 049ad8b9 d10644bf 20238df8  ..........D. #..
 15000 53301307 44bf2b23 8df85330 9af80030  S0..D.+#..S0...0
 15010 2a2b15d0 079a5446 00204ff0 0a0c2146  *+....TF. O...!F
 15020 11f8013b 303b092b 4dd9b0b1 079214e0  ...;0;.+M.......
 15030 a0eb0803 09fa03f3 13430493 a246d2e7  .........C...F..
 15040 039b191d 1b680391 002bbbbf 5b4242f0  .....h...+..[BB.
 15050 02020793 0793b8bf 04922378 2e2b0cd1  ..........#x.+..
 15060 63782a2b 34d1039b 1a1d1b68 0392002b  cx*+4......h...+
 15070 b8bf4ff0 ff330234 0593dff8 d4a02178  ..O..3.4......!x
 15080 03225046 00f054fb 38b1049b a0eb0a00  ."PF..T.8.......
 15090 40228240 13430134 049314f8 011b2948  @".@.C.4......)H
 150a0 8df82810 062200f0 43fb0028 3fd0264b  ..(.."..C..(?.&K
 150b0 1bbb039b 073323f0 07030833 0393099b  .....3#....3....
 150c0 3b440993 68e70cfb 02320c46 0120a6e7  ;D..h....2.F. ..
 150d0 00230134 05931946 4ff00a0c 204610f8  .#.4...FO... F..
 150e0 012b303a 092a03d9 002bc6d0 0591c4e7  .+0:.*...+......
 150f0 0cfb0121 04460123 f0e703ab 00932a46  ...!.F.#......*F
 15100 124b04a9 3046aff3 00800746 781cd6d1  .K..0F.....Fx...
 15110 6b6ed907 05d4ab89 9a0502d4 a86d00f0  kn...........m..
 15120 10ffab89 5b063ff5 1daf0998 1ce703ab  ....[.?.........
 15130 00932a46 054b04a9 304600f0 0ff9e4e7  ..*F.K..0F......
 15140 2f230020 39230020 00000000 fb4e0100  /#. 9#. .....N..
 15150 35230020 f8b50e46 14460546 18b1036a  5#. ...F.F.F...j
 15160 0bb900f0 8bfca369 a360a389 1a0725d5  .......i.`....%.
 15170 23691bb3 23682269 981a6369 f6b28342  #i..#h"i..ci...B
 15180 374604dc 21462846 00f090fa e0b9a368  7F..!F(F.......h
 15190 013ba360 23685a1c 22601e70 6269431c  .;.`#hZ."`.pbiC.
 151a0 9a4204d0 a389db07 06d50a2e 04d12146  .B............!F
 151b0 284600f0 7bfa38b9 3846f8bd 21462846  (F..{.8.8F..!F(F
 151c0 00f006f8 0028d5d0 4ff0ff37 f4e70000  .....(..O..7....
 151d0 38b52a4b 05461868 0c4618b1 036a0bb9  8.*K.F.h.F...j..
 151e0 00f04cfc a389b4f9 0c201807 22d4d906  ..L...... .."...
 151f0 07d40923 2b6042f0 4003a381 4ff0ff30  ...#+`B.@...O..0
 15200 34e05807 12d5616b 41b104f1 44039942  4.X...akA...D..B
 15210 02d02846 00f0bcfd 00236363 a38923f0  ..(F.....#cc..#.
 15220 2403a381 00236360 23692360 a38943f0  $....#c`#i#`..C.
 15230 0803a381 23694bb9 a38903f4 2073b3f5  ....#iK..... s..
 15240 007f03d0 21462846 00f0a2fe a089b4f9  ....!F(F........
 15250 0c2010f0 01030ad0 0023a360 63695b42  . .......#.`ci[B
 15260 a3612369 43b910f0 8000c4d1 38bd8107  .a#iC.......8...
 15270 58bf6369 a360f4e7 0020f7e7 f4230020  X.ci.`... ...#. 
 15280 2de9f047 16469946 8a680b69 ddf82080  -..G.F.F.h.i.. .
 15290 9342b8bf 13463360 91f84320 07460c46  .B...F3`..C .F.F
 152a0 0ab10133 33602368 990642bf 33680233  ...33`#h..B.3h.3
 152b0 33602568 15f00605 06d104f1 190ae368  3`%h...........h
 152c0 32689b1a ab4226dc 94f84320 131e2268  2h...B&...C .."h
 152d0 18bf0123 92062bd4 04f14302 49463846  ...#..+...C.IF8F
 152e0 c0470130 1ed02368 226903f0 0603042b  .G.0..#h"i.....+
 152f0 02bfe568 3368ed1a a3680cbf 25eae575  ...h3h...h..%..u
 15300 00259342 c4bf9b1a ed180026 1a34b542  .%.B.......&.4.B
 15310 1ad10020 08e00123 52464946 3846c047  ... ...#RFIF8F.G
 15320 013003d1 4ff0ff30 bde8f087 0135c6e7  .0..O..0.....5..
 15330 e1185a1c 302081f8 43002244 94f84510  ..Z.0 ..C."D..E.
 15340 82f84310 0233c7e7 01232246 49463846  ..C..3...#"FIF8F
 15350 c0470130 e6d00136 d9e70000 2de9ff47  .G.0...6....-..G
 15360 0f7e0c9d 782f9146 80460c46 9a4601f1  .~..x/.F.F.F.F..
 15370 430207d8 622f0ad8 002f00f0 d480582f  C...b/.../....X/
 15380 00f0c080 04f14205 84f84270 3ae0a7f1  ......B...Bp:...
 15390 6303152b f6d801a1 51f823f0 f5530100  c..+....Q.#..S..
 153a0 09540100 85530100 85530100 85530100  .T...S...S...S..
 153b0 85530100 09540100 85530100 85530100  .S...T...S...S..
 153c0 85530100 85530100 0d550100 35540100  .S...S...U..5T..
 153d0 c7540100 85530100 85530100 2f550100  .T...S...S../U..
 153e0 85530100 35540100 85530100 85530100  .S..5T...S...S..
 153f0 cf540100 2b681a1d 1b682a60 04f14205  .T..+h...h*`..B.
 15400 84f84230 01239fe0 20682b68 070603f1  ..B0.#.. h+h....
 15410 04012960 01d51e68 03e04606 fbd5b3f9  ..)`...h..F.....
 15420 0060002e 03da2d23 764284f8 43305a48  .`....-#vB..C0ZH
 15430 0a2312e0 2b682068 191d2960 050601d5  .#..+h h..)`....
 15440 1e6802e0 4106fbd5 1e885348 6f2f0cbf  .h..A.....SHo/..
 15450 08230a23 002184f8 43106568 a560002d  .#.#.!..C.eh.`.-
 15460 a2bf2168 21f00401 21600eb9 002d4bd0  ..!h!...!`...-K.
 15470 1546b6fb f3f103fb 1167c75d 05f8017d  .F.......g.]...}
 15480 3746bb42 0e46f4d9 082b0bd1 2368de07  7F.B.F...+..#h..
 15490 08d52369 61689942 debf3023 05f8013c  ..#iah.B..0#...<
 154a0 05f1ff35 521b2261 cdf800a0 4b4603aa  ...5R."a....KF..
 154b0 21464046 fff7e4fe 01304ad1 4ff0ff30  !F@F.....0J.O..0
 154c0 04b0bde8 f0872368 43f02003 23603348  ......#hC. .#`3H
 154d0 782784f8 45702368 29681f06 51f8046b  x'..Ep#h)h..Q..k
 154e0 02d45f06 48bfb6b2 df0748bf 43f02003  .._.H.....H.C. .
 154f0 296048bf 23601eb9 236823f0 20032360  )`H.#`..#h#. .#`
 15500 1023a7e7 2448e4e7 1546bde7 2b682668  .#..$H...F..+h&h
 15510 6169181d 28603506 1b6801d5 196002e0  ai..(`5..h...`..
 15520 7006fbd5 19800023 23611546 bce72b68  p......##a.F..+h
 15530 1a1d2a60 1d686268 00212846 00f0f8f8  ..*`.hbh.!(F....
 15540 08b1401b 60606368 23610023 84f84330  ..@.``ch#a.#..C0
 15550 aae72369 2a464946 4046d047 0130add0  ..#i*FIF@F.G.0..
 15560 23689b07 13d4e068 039b9842 b8bf1846  #h.....h...B...F
 15570 a6e70123 32464946 4046d047 01309dd0  ...#2FIF@F.G.0..
 15580 0135e368 03995b1a ab42f2dc ebe70025  .5.h..[..B.....%
 15590 04f11906 f5e700bf 0d230020 1e230020  .........#. .#. 
 155a0 8a892de9 f0410546 10070c46 58d44b68  ..-..A.F...FX.Kh
 155b0 002b05dc 0b6c002b 02dc0020 bde8f081  .+...l.+... ....
 155c0 e66a002e f9d00023 12f48052 2f68216a  .j.....#...R/h!j
 155d0 2b6032d0 606da389 5a0705d5 6368c01a  +`2.`m..Z...ch..
 155e0 636b0bb1 236cc01a 00230246 e66a216a  ck..#l...#.F.j!j
 155f0 2846b047 431ca389 06d12968 1d292bd8  (F.GC.....)h.)+.
 15600 294a0a41 d60727d4 00226260 d9042269  )J.A..'.."b`.."i
 15610 226004d5 421c01d1 2b6803b9 6065616b  "`..B...+h..`eak
 15620 2f600029 c9d004f1 44039942 02d02846  /`.)....D..B..(F
 15630 00f0aefb 00206063 c0e70123 2846b047  ..... `c...#(F.G
 15640 411cc8d1 2b68002b c5d01d2b 01d0162b  A...+h.+...+...+
 15650 01d12f60 b1e7a389 43f04003 a381ade7  ../`....C.@.....
 15660 0f69002f a9d09307 0e6808bf 4b690f60  .i./.....h..Ki.`
 15670 18bf0023 a6eb0708 8b60b8f1 000f9cdd  ...#.....`......
 15680 216aa66a 43463a46 2846b047 002806dc  !j.jCF:F(F.G.(..
 15690 a38943f0 4003a381 4ff0ff30 8ee70744  ..C.@...O..0...D
 156a0 a8eb0008 e9e700bf feffbfdf 38b50b69  ............8..i
 156b0 05460c46 13b90025 284638bd 18b1036a  .F.F...%(F8....j
 156c0 0bb900f0 dbf9b4f9 0c30002b f3d0626e  .........0.+..bn
 156d0 d00704d4 990502d4 a06d00f0 31fc2846  .........m..1.(F
 156e0 2146fff7 5dff636e da070546 e4d4a389  !F..].cn...F....
 156f0 9b05e1d4 a06d00f0 24fcdde7 014620b9  .....m..$....F .
 15700 044a0549 054800f0 a9ba054b 1868fff7  .J.I.H.....K.h..
 15710 cdbf00bf 9c230020 ad560100 a8230020  .....#. .V...#. 
 15720 f4230020 00000000 00000000 00000000  .#. ............
 15730 01f0ff01 102a2bdb 10f0070f 08d010f8  .....*+.........
 15740 013b013a 8b422dd0 10f0070f 42b3f6d1  .;.:.B-.....B...
 15750 f0b441ea 012141ea 014122f0 07047ff0  ..A..!A..A".....
 15760 00070023 f0e80256 083c85ea 010586ea  ...#...V.<......
 15770 010685fa 47f5a3fa 87f586fa 47f6a5fa  ....G.......G...
 15780 87f68eb9 eed1f0bc 01f0ff01 02f00702  ................
 15790 32b110f8 013b013a 83ea0103 13b1f8d1  2....;.:........
 157a0 00207047 01387047 002d06bf 35460338  . pG.8pG.-..5F.8
 157b0 073815f0 010f07d1 013015f4 807f02bf  .8.......0......
 157c0 013015f4 c03f0130 f0bc0138 704700bf  .0...?.0...8pG..
 157d0 0a449142 00f1ff33 00d17047 10b511f8  .D.B...3..pG....
 157e0 014b03f8 014f9142 f9d110bd 034613f8  .K...O.B.....F..
 157f0 012b002a fbd1181a 01387047 024b0146  .+.*.....8pG.K.F
 15800 186800f0 2bb800bf f4230020 024b0146  .h..+....#. .K.F
 15810 186800f0 bdba00bf f4230020 70b50e4e  .h.......#. p..N
 15820 0c463168 054611b9 00f0f0f9 30602146  .F1h.F......0`!F
 15830 284600f0 ebf9431c 0ad0c41c 24f00304  (F....C.....$...
 15840 a04207d0 211a2846 00f0e0f9 013001d1  .B..!.(F.....0..
 15850 4ff0ff34 204670bd 843b0020 2de9f041  O..4 Fp..;. -..A
 15860 cd1c25f0 03050835 0c2d38bf 0c25002d  ..%....5.-8..%.-
 15870 074601db a94205d9 0c233b60 00263046  .F...B...#;`.&0F
 15880 bde8f081 2f4e00f0 a9f93368 1c4644bb  ..../N....3h.FD.
 15890 29463846 fff7c2ff 431c0446 4fd13468  )F8F....C..FO.4h
 158a0 2646002e 42d1002c 43d02368 31463846  &F..B..,C.#h1F8F
 158b0 04eb0308 00f0aaf9 80453ad1 23680335  .........E:.#h.5
 158c0 ed1a25f0 03050835 0c2d38bf 0c252946  ..%....5.-8..%)F
 158d0 3846fff7 a3ff0130 2bd02368 2b442360  8F.....0+.#h+D#`
 158e0 0ee02268 521b1ed4 0b2a16d9 6119a342  .."hR....*..a..B
 158f0 256018bf 59606368 08bf3160 62514b60  %`..Y`ch..1`bQK`
 15900 384604f1 0b0600f0 6ff926f0 0706231d  8F......o.&...#.
 15910 f21ab4d0 9b1ba350 b1e76268 a3420cbf  .......P..bh.B..
 15920 32605a60 ece72346 6468b0e7 34467668  2`Z`..#Fdh..4Fvh
 15930 b7e70c23 3b603846 00f056f9 9fe72560  ...#;`8F..V...%`
 15940 dee700bf 803b0020 10b56ab1 01398418  .....;. ..j..9..
 15950 10f8012b 11f8013f 9a4203d1 a04201d0  ...+...?.B...B..
 15960 002af5d1 d01a10bd 1046fce7 10b5054c  .*.......F.....L
 15970 13462cb1 0a460146 0220aff3 008010bd  .F,..F.F. ......
 15980 2046fce7 00000000 002310b5 0446c0e9   F.......#...F..
 15990 0033c0e9 04338360 81814366 c2818361  .3...3.`..Cf...a
 159a0 19460822 5c3000f0 a1f9054b 6362054b  .F."\0.....Kcb.K
 159b0 a362054b e362054b 24622363 10bd00bf  .b.K.b.K$b#c....
 159c0 555b0100 775b0100 af5b0100 d35b0100  U[..w[...[...[..
 159d0 024a0349 034800f0 41b900bf 9c230020  .J.I.H..A....#. 
 159e0 ad560100 a8230020 41680c4b 994210b5  .V...#. Ah.K.B..
 159f0 044601d0 fff75afe a168094b 994202d0  .F....Z..h.K.B..
 15a00 2046fff7 53fee168 064b9942 04d02046   F..S..h.K.B.. F
 15a10 bde81040 fff74abe 10bd00bf 883b0020  ...@..J......;. 
 15a20 f03b0020 583c0020 10b50b4b 0b4c0c4a  .;. X<. ...K.L.J
 15a30 1a602046 00220421 fff7a6ff 04f16800  .` F.".!......h.
 15a40 01220921 fff7a0ff 04f1d000 0222bde8  .".!........."..
 15a50 10401221 fff798bf c03c0020 883b0020  .@.!.....<. .;. 
 15a60 d1590100 014800f0 6bba00bf 82430020  .Y...H..k....C. 
 15a70 014800f0 66ba00bf 82430020 10b50446  .H..f....C. ...F
 15a80 fff7f0ff 236a1bb1 bde81040 fff7f0bf  ....#j.....@....
 15a90 044b2362 044b1b68 002bf5d1 fff7c4ff  .K#b.K.h.+......
 15aa0 f2e700bf e9590100 c03c0020 0cb430b5  .....Y...<. ..0.
 15ab0 174b0c1e 1d689db0 08da8b23 2b604ff0  .K...h.....#+`O.
 15ac0 ff301db0 bde83040 02b07047 4ff40273  .0....0@..pGO..s
 15ad0 adf81430 14bf04f1 ff332346 04930793  ...0.....3#F....
 15ae0 4ff6ff73 02900690 adf81630 209a21ab  O..s.......0 .!.
 15af0 02a92846 019300f0 e1fa431c bcbf8b23  ..(F......C....#
 15b00 2b60002c ddd0029b 00221a70 d9e700bf  +`.,.....".p....
 15b10 f4230020 0eb400b5 9cb01dab 02900690  .#. ............
 15b20 6ff00041 09480791 04910949 53f8042b  o..A.H.....IS..+
 15b30 05910068 019302a9 00f0c0fa 029b0022  ...h..........."
 15b40 1a701cb0 5df804eb 03b07047 f4230020  .p..].....pG.#. 
 15b50 0802ffff 10b50c46 b1f90e10 00f0f0fb  .......F........
 15b60 0028abbf 636da389 1b1823f4 8053acbf  .(..cm....#..S..
 15b70 6365a381 10bd2de9 f0411f46 8b89db05  ce....-..A.F....
 15b80 05460c46 164605d5 b1f90e10 02230022  .F.F.F.......#."
 15b90 00f0c4fb a389b4f9 0e1023f4 8053a381  ..........#..S..
 15ba0 32463b46 2846bde8 f04100f0 3fb810b5  2F;F(F...A..?...
 15bb0 0c46b1f9 0e1000f0 b1fb431c a38915bf  .F........C.....
 15bc0 606523f4 805343f4 8053a381 18bfa381  `e#..SC..S......
 15bd0 10bdb1f9 0e1000f0 6fbb0000 014800f0  ........o....H..
 15be0 afb900bf 81430020 014800f0 aab900bf  .....C. .H......
 15bf0 81430020 0a220021 00f098b9 024b0a46  .C. .".!.....K.F
 15c00 01461868 00f094b8 f4230020 38b5064d  .F.h.....#. 8..M
 15c10 00230446 08462b60 fbf722fd 431c02d1  .#.F.F+`..".C...
 15c20 2b6803b1 236038bd 1c3f0020 38b5074d  +h..#`8..?. 8..M
 15c30 04460846 11460022 2a601a46 fcf71cfe  .F.F.F."*`.F....
 15c40 431c02d1 2b6803b1 236038bd 1c3f0020  C...+h..#`8..?. 
 15c50 014b1868 704700bf f4230020 2de9f843  .K.hpG...#. -..C
 15c60 07468846 14460026 d4e90195 b9f10109  .F.F.F.&........
 15c70 05d52468 002cf7d1 3046bde8 f883ab89  ..$h.,..0F......
 15c80 012b07d9 b5f90e30 013303d0 29463846  .+.....0.3..)F8F
 15c90 c0470643 6835e9e7 10b50139 02449042  .G.Ch5.....9.D.B
 15ca0 01d10020 05e00378 11f8014f a34201d0  ... ...x...O.B..
 15cb0 181b10bd 0130f2e7 884210b5 01eb0204  .....0...B......
 15cc0 02d98442 234607d8 431ea142 08d011f8  ...B#F..C..B....
 15cd0 012b03f8 012ff8e7 02440146 8a4200d1  .+.../...D.F.B..
 15ce0 10bd13f8 014d02f8 014df7e7 02440346  .....M...M...D.F
 15cf0 934200d1 704703f8 011bf9e7 30b50b4d  .B..pG......0..M
 15d00 044614f8 013bea5c 02f00302 012a11f8  .F...;.\.....*..
 15d10 012ba85c 00f00300 08bf2033 012808bf  .+.\...... 3.(..
 15d20 2032981a 01d1002a ebd130bd 0d220020   2.....*..0..". 
 15d30 2de9f041 80461446 0e4621b9 bde8f041  -..A.F.F.F!....A
 15d40 1146fff7 8bbd2ab9 00f022f8 25462846  .F....*...".%F(F
 15d50 bde8f081 00f006fb 84420746 02d8b4eb  .........B.F....
 15d60 500f12d8 21464046 fff778fd 05460028  P...!F@F..x..F.(
 15d70 edd0bc42 22463146 28bf3a46 fff728fd  ...B"F1F(.:F..(.
 15d80 31464046 00f004f8 e1e73546 dfe70000  1F@F......5F....
 15d90 37b50029 44d051f8 043c0190 002ba1f1  7..)D.Q..<...+..
 15da0 0404b8bf e418fff7 19ff1e4a 01981368  ...........J...h
 15db0 33b96360 146003b0 bde83040 fff714bf  3.c`.`....0@....
 15dc0 a34208d9 25686119 8b4201bf 19685b68  .B..%ha..B...h[h
 15dd0 49192160 ede71a46 5b680bb1 a342fad9  I.!`...F[h...B..
 15de0 11685518 a5420bd1 24682144 5418a342  .hU..B..$h!DT..B
 15df0 1160e0d1 1c685b68 53600c44 1460dae7  .`...h[hS`.D.`..
 15e00 02d90c23 0360d6e7 25686119 8b4204bf  ...#.`..%ha..B..
 15e10 19685b68 636004bf 49192160 5460cae7  .h[hc`..I.!`T`..
 15e20 03b030bd 803b0020 012b2de9 f04701d0  ..0..;. .+-..G..
 15e30 242b06d9 fff70cff 16230360 0020bde8  $+.......#.`. ..
 15e40 f087dff8 e4c00d46 2e4615f8 014b1cf8  .......F.F...K..
 15e50 047017f0 0807f7d1 2d2c32d1 2c780127  .p......-,2.,x.'
 15e60 b51c002b 5bd0102b 09d1302c 07d12c78  ...+[..+..0,..,x
 15e70 04f0df04 582c4dd1 6c781023 023507f1  ....X,M.lx.#.5..
 15e80 004808f1 ff384ff0 000eb8fb f3f97646  .H...8O.......vF
 15e90 03fb198a a4f1300c bcf1090f 16d86446  ......0.......dF
 15ea0 a34224dd bef1ff3f 08d0b145 1cd301d1  .B$....?...E....
 15eb0 a24519db 06fb0346 4ff0010e 15f8014b  .E.....FO......K
 15ec0 e8e72b2c 04bf2c78 b51ccae7 a4f1410c  ..+,..,x......A.
 15ed0 bcf1190f 01d8373c e2e7a4f1 610cbcf1  ......7<....a...
 15ee0 190f04d8 573cdbe7 4ff0ff3e e6e7bef1  ....W<..O..>....
 15ef0 ff3f05d1 22230360 464642b9 30469ee7  .?.."#.`FFB.0F..
 15f00 07b17642 002af9d0 bef1000f 00d0691e  ..vB.*........i.
 15f10 1160f3e7 3024002b b1d10823 afe7302c  .`..0$.+...#..0,
 15f20 a5d00a23 abe700bf 0d220020 13460a46  ...#.....". .F.F
 15f30 01460248 0068fff7 77bf00bf f4230020  .F.H.h..w....#. 
 15f40 70477047 70b50c46 b1f90e10 002996b0  pGpGp..F.....)..
 15f50 15461e46 0ddaa389 13f0800f 4ff00001  .F.F........O...
 15f60 0cbf4ff4 80634023 00203160 2b6016b0  ..O..c@#. 1`+`..
 15f70 70bd6a46 00f0b0f9 0028ecdb 019901f4  p.jF.....(......
 15f80 7041a1f5 00535942 59414ff4 8063ebe7  pA...SYBYAO..c..
 15f90 8b8973b5 9d070646 0c4607d5 04f14703  ..s....F.F....G.
 15fa0 23602361 01236361 02b070bd 01ab6a46  #`#a.#ca..p...jF
 15fb0 fff7c8ff 00990546 3046fff7 4ffc48b9  .......F0F..O.H.
 15fc0 b4f90c30 9a05efd4 23f00303 43f00203  ...0....#...C...
 15fd0 a381e3e7 a3892060 43f08003 a381009b  ...... `C.......
 15fe0 6361019b 20615bb1 b4f90e10 304600f0  ca.. a[.....0F..
 15ff0 85f928b1 a38923f0 030343f0 0103a381  ..(...#...C.....
 16000 a3891d43 a581cfe7 2de9f047 8e681f46  ...C....-..G.h.F
 16010 be420b68 82460c46 90462cd8 8a8912f4  .B.h.F.F.F,.....
 16020 906f26d0 65690969 05eb4505 a3eb0109  .o&.ei.i..E.....
 16030 05ebd575 7b1c4b44 6d109d42 38bf1d46  ...u{.KDm..B8..F
 16040 530527d5 2946fff7 09fc0646 60b32169  S.'.)F.....F`.!i
 16050 4a46fff7 bdfba389 23f49063 43f08003  JF......#..cC...
 16060 a3812661 65614e44 a5eb0905 2660a560  ..&aeaND....&`.`
 16070 3e46be42 00d93e46 20683246 4146fff7  >F.B..>F h2FAF..
 16080 1bfea368 9b1ba360 23683344 23600020  ...h...`#h3D#`. 
 16090 bde8f087 2a46fff7 4bfe0646 0028e0d1  ....*F..K..F.(..
 160a0 21695046 fff774fe 0c23caf8 0030a389  !iPF..t..#...0..
 160b0 43f04003 a3814ff0 ff30e9e7 2de9f04f  C.@...O..0..-..O
 160c0 98468b89 1b069db0 07460d46 14460ed5  .F.......F.F.F..
 160d0 0b6963b9 4021fff7 c1fb2860 286120b9  .ic.@!....(`(a .
 160e0 0c233b60 4ff0ff30 d0e04023 6b610023  .#;`O..0..@#ka.#
 160f0 09932023 8df82930 cdf80c80 3023dff8  .. #..)0....0#..
 16100 a4818df8 2a304ff0 01092346 9a4613f8  ....*0O...#F.F..
 16110 012b0ab1 252af9d1 baeb040b 0bd05b46  .+..%*........[F
 16120 22462946 3846fff7 6fff0130 00f0a980  "F)F8F..o..0....
 16130 099a5a44 09929af8 0030002b 00f0a180  ..ZD.....0.+....
 16140 00234ff0 ff32cde9 05230af1 010a0493  .#O..2...#......
 16150 07938df8 53301a93 54460522 14f8011b  ....S0..TF."....
 16160 5048fff7 e5fa049a d8b9d006 44bf2023  PH..........D. #
 16170 8df85330 110744bf 2b238df8 53309af8  ..S0..D.+#..S0..
 16180 00302a2b 15d0079a 54460020 4ff00a0c  .0*+....TF. O...
 16190 214611f8 013b303b 092b4dd9 b0b10792  !F...;0;.+M.....
 161a0 14e0a0eb 080309fa 03f31343 0493a246  ...........C...F
 161b0 d2e7039b 191d1b68 0391002b bbbf5b42  .......h...+..[B
 161c0 42f00202 07930793 b8bf0492 23782e2b  B...........#x.+
 161d0 0cd16378 2a2b34d1 039b1a1d 1b680392  ..cx*+4......h..
 161e0 002bb8bf 4ff0ff33 02340593 dff8c4a0  .+..O..3.4......
 161f0 21780322 5046fff7 9bfa38b1 049ba0eb  !x."PF....8.....
 16200 0a004022 82401343 01340493 14f8011b  ..@".@.C.4......
 16210 25488df8 28100622 fff78afa 002838d0  %H..(..".....(8.
 16220 224b1bbb 039b0733 23f00703 08330393  "K.....3#....3..
 16230 099b3344 099368e7 0cfb0232 0c460120  ..3D..h....2.F. 
 16240 a6e70023 01340593 19464ff0 0a0c2046  ...#.4...FO... F
 16250 10f8012b 303a092a 03d9002b c6d00591  ...+0:.*...+....
 16260 c4e70cfb 01210446 0123f0e7 03ab0093  .....!.F.#......
 16270 2a460f4b 04a93846 aff30080 421c0646  *F.K..8F....B..F
 16280 d6d1ab89 5b063ff5 2daf0998 1db0bde8  ....[.?.-.......
 16290 f08f03ab 00932a46 054b04a9 3846fff7  ......*F.K..8F..
 162a0 5df8ebe7 2f230020 39230020 00000000  ].../#. 9#. ....
 162b0 09600100 35230020 38b5064d 00230446  .`..5#. 8..M.#.F
 162c0 08462b60 fbf7e8f9 431c02d1 2b6803b1  .F+`....C...+h..
 162d0 236038bd 1c3f0020 38b5074d 00230446  #`8..?. 8..M.#.F
 162e0 08461146 2b60fbf7 dbf9431c 02d12b68  .F.F+`....C...+h
 162f0 03b12360 38bd00bf 1c3f0020 38b5064d  ..#`8....?. 8..M
 16300 00230446 08462b60 fbf7d0f9 431c02d1  .#.F.F+`....C...
 16310 2b6803b1 236038bd 1c3f0020 38b5074d  +h..#`8..?. 8..M
 16320 04460846 11460022 2a601a46 fbf7c0f9  .F.F.F."*`.F....
 16330 431c02d1 2b6803b1 236038bd 1c3f0020  C...+h..#`8..?. 
 16340 38b5074d 04460846 11460022 2a601a46  8..M.F.F.F."*`.F
 16350 fbf7a0f9 431c02d1 2b6803b1 236038bd  ....C...+h..#`8.
 16360 1c3f0020 51f8043c 181f002b bcbf0b58  .?. Q..<...+...X
 16370 c0187047 00000000 5ff800f0 6d180060  ..pG...._...m..`
 16380 5ff800f0 29180060 5ff800f0 95190060  _...)..`_......`
 16390 5ff800f0 75160060 5ff800f0 29170060  _...u..`_...)..`
 163a0 5ff800f0 15180060 5ff800f0 6d200060  _......`_...m .`
Contents of section .fini:
 163b0 f8b500bf                             ....            
Contents of section .ARM.exidx:
 163b4 bce7ff7f 01000000                    ........        
Contents of section .data:
 20000000 00000000 00000000 00000000 00000000  ................
 20000010 00000000 00000000 00000000 00000000  ................
 20000020 00000000 00000000 00000000 00000000  ................
 20000030 00000000 00000000 00000000 00000000  ................
 20000040 00000000 00000000 00000000 00000000  ................
 20000050 00000000 00000000 00000000 00000000  ................
 20000060 00000000 00000000 00000000 00000000  ................
 20000070 00000000 00000000 00000000 00000000  ................
 20000080 00000000 00000000 00000000 00000000  ................
 20000090 00000000 00000000 00000000 00000000  ................
 200000a0 00000000 00000000 00000000 00000000  ................
 200000b0 00000000 00000000 00000000 00000000  ................
 200000c0 00000000 00000000 00000000 00000000  ................
 200000d0 00000000 00000000 00000000 00000000  ................
 200000e0 00000000 00000000 00000000 00000000  ................
 200000f0 00000000 00000000 00000000 00000000  ................
 20000100 00000000 00000000 00000000 00000000  ................
 20000110 00000000 00000000 00000000 00000000  ................
 20000120 00000000 00000000 00000000 00000000  ................
 20000130 00000000 00000000 00000000 00000000  ................
 20000140 00000000 00000000 00000000 00000000  ................
 20000150 00000000 00000000 00000000 00000000  ................
 20000160 00000000 00000000 00000000 00000000  ................
 20000170 00000000 00000000 00000000 00000000  ................
 20000180 00000000 00000000 00000000 00000000  ................
 20000190 00000000 00000000 00000000 00000000  ................
 200001a0 00000000 00000000 00000000 00000000  ................
 200001b0 00000000 00000000 00000000 00000000  ................
 200001c0 00000000 00000000 00000000 00000000  ................
 200001d0 00000000 00000000 00000000 00000000  ................
 200001e0 00000000 00000000 00000000 00000000  ................
 200001f0 00000000 00000000 00000000 00000000  ................
 20000200 00000000 00000000 00000000 00000000  ................
 20000210 00000000 00000000 00000000 00000000  ................
 20000220 00000000 00000000 00000000 00000000  ................
 20000230 00000000 00000000 00000000 00000000  ................
 20000240 00000000 00000000 00000000 00000000  ................
 20000250 00000000 00000000 00000000 00000000  ................
 20000260 00000000 00000000 00000000 00000000  ................
 20000270 00000000 00000000 00000000 00000000  ................
 20000280 00000000 00000000 00000000 00000000  ................
 20000290 00000000 00000000 00000000 00000000  ................
 200002a0 00000000 00000000 00000000 00000000  ................
 200002b0 00000000 00000000 00000000 00000000  ................
 200002c0 00000000 00000000 00000000 00000000  ................
 200002d0 00000000 00000000 00000000 00000000  ................
 200002e0 00000000 00000000 00000000 00000000  ................
 200002f0 00000000 00000000 00000000 00000000  ................
 20000300 00000000 00000000 00000000 00000000  ................
 20000310 00000000 00000000 00000000 00000000  ................
 20000320 00000000 00000000 00000000 00000000  ................
 20000330 00000000 00000000 00000000 00000000  ................
 20000340 00000000 00000000 00000000 00000000  ................
 20000350 00000000 00000000 00000000 00000000  ................
 20000360 00000000 00000000 00000000 00000000  ................
 20000370 00000000 00000000 00000000 00000000  ................
 20000380 00000000 0000f03f 00000000 00002440  .......?......$@
 20000390 00000000 00005940 00000000 00408f40  ......Y@.....@.@
 200003a0 00000000 0088c340 00000000 006af840  .......@.....j.@
 200003b0 00000000 80842e41 00000000 d0126341  .......A......cA
 200003c0 00000000 84d79741 00000000 65cdcd41  .......A....e..A
 200003d0 72303d00 72313d00 72323d00 72333d00  r0=.r1=.r2=.r3=.
 200003e0 7231323d 00000000 6c723d30 78000000  r12=....lr=0x...
 200003f0 70633d30 78000000 72343d00 72353d00  pc=0x...r4=.r5=.
 20000400 72363d00 72373d00 72383d00 72393d00  r6=.r7=.r8=.r9=.
 20000410 7231303d 00000000 7231313d 00000000  r10=....r11=....
 20000420 73703d30 78000000 2a2a2a2a 44454255  sp=0x...****DEBU
 20000430 47000000 2a2a2a2a 00000000 63707372  G...****....cpsr
 20000440 00000000 2a2a2a2a 4641554c 54200000  ....****FAULT ..
 20000450 2a2a2a2a 2a2a2a2a 2a2a2a2a 2a2a2a2a  ****************
 20000460 00000000 3d000000 3a000000 64656275  ....=...:...debu
 20000470 67000000 62726561 6b000000 6e6d6900  g...break...nmi.
 20000480 68617264 00000000 6d656d00 62757300  hard....mem.bus.
 20000490 75736167 65000000 70630000 73700000  usage...pc..sp..
 200004a0 72300000 72310000 72320000 72330000  r0..r1..r2..r3..
 200004b0 72340000 72350000 72360000 72370000  r4..r5..r6..r7..
 200004c0 72380000 72390000 72313000 72313100  r8..r9..r10.r11.
 200004d0 72313200 6c720000 63707372 00000000  r12.lr..cpsr....
 200004e0 63737072 00000000 4f4b0000 45303100  cspr....OK..E01.
 200004f0 45313000 64696769 74616c57 72697465  E10.digitalWrite
 20000500 00000000 68696768 00000000 64696769  ....high....digi
 20000510 74616c52 65616400 25640a00 616e616c  talRead.%d..anal
 20000520 6f675772 69746500 616e616c 6f675265  ogWrite.analogRe
 20000530 61640000 73796d62 6f6c0000 7153796d  ad..symbol..qSym
 20000540 626f6c3a 25730000 63616c6c 00000000  bol:%s..call....
 20000550 4520496e 76616c69 64206164 64726573  E Invalid addres
 20000560 730a0000 4520546f 6f206d61 6e792070  s...E Too many p
 20000570 6172616d 65746572 7320286d 61783d33  arameters (max=3
 20000580 290a0000 72657374 61727400 71537570  )...restart.qSup
 20000590 706f7274 65640000 5061636b 65745369  ported..PacketSi
 200005a0 7a653d31 30323400 7152636d 64000000  ze=1024.qRcmd...
 200005b0 71417474 61636865 64000000 31000000  qAttached...1...
 200005c0 764b696c 6c000000 76417474 61636800  vKill...vAttach.
 200005d0 53303500 53303200 53303600 53304200  S05.S02.S06.S0B.
 200005e0 53303700 53303400 1b5b306d 00000000  S07.S04..[0m....
 200005f0 0a1b5b31 3b39326d 46572056 65722e20  ..[1;92mFW Ver. 
 20000600 322e312e 30000000 31323a31 333a3431  2.1.0...12:13:41
 20000610 00000000 4d617220 32312032 30323500  ....Mar 21 2025.
 20000620 0a4c6173 74204275 696c743a 20257320  .Last Built: %s 
 20000630 61742025 73000000 36643465 38643137  at %s...6d4e8d17
 20000640 64363536 30306138 31393632 61343566  d65600a81962a45f
 20000650 34376337 63303730 38313732 62313865  47c7c0708172b18e
 20000660 00000000 0a476974 20486173 683a2025  .....Git Hash: %
 20000670 73000000 6d61696e 00000000 0a476974  s...main.....Git
 20000680 20427261 6e63683a 20257300 666c6967   Branch: %s.flig
 20000690 68742063 6f6e7472 6f6c6c20 73746172  ht controll star
 200006a0 74656420 00000000 0a436f6d 6d697420  ted .....Commit 
 200006b0 4d657373 6167653a 20257300 0a52616e  Message: %s..Ran
 200006c0 646f6d20 4e756d3a 20257800 1b5b306d  dom Num: %x..[0m
 200006d0 0a000000 ff007801 80014302 88018701  ......x...C.....
 200006e0 8c018b01 92019101 9501f601 99019801  ................
 200006f0 9a013d02 9e012002 a801a701 ad01ac01  ..=... .........
 20000700 b001af01 b901b801 bd01bc01 bf01f701  ................
 20000710 c601c401 c901c701 cc01ca01 dd018e01  ................
 20000720 f301f101 f501f401 3a02652c 3c023b02  ........:.e,<.;.
 20000730 3e02662c 42024102 53028101 54028601  >.f,B.A.S...T...
 20000740 56028901 57028a01 59028f01 5b029001  V...W...Y...[...
 20000750 60029301 63029401 68029701 69029601  `...c...h...i...
 20000760 6b02622c 6f029c01 72029d01 75029f01  k.b,o...r...u...
 20000770 7d02642c 8002a601 8302a901 8802ae01  }.d,............
 20000780 89024402 8a02b101 8b02b201 8c024502  ..D...........E.
 20000790 9202b701 7b03fd03 7c03fe03 7d03ff03  ....{...|...}...
 200007a0 ac038603 c203a303 cc038c03 cd038e03  ................
 200007b0 ce038f03 f203f903 f803f703 fb03fa03  ................
 200007c0 cf04c004 7d1d632c 511f591f 531f5b1f  ....}.c,Q.Y.S.[.
 200007d0 551f5d1f 571f5f1f 781ff81f 791ff91f  U.].W._.x...y...
 200007e0 b31fbc1f cc1fc31f e51fec1f fc1ff31f  ................
 200007f0 4e213221 84218321 612c602c 762c752c  N!2!.!.!a,`,v,u,
 20000800 6100e01a e000e017 f800e007 00010130  a..............0
 20000810 32010106 39010110 4a01012e 79010106  2...9...J...y...
 20000820 82010104 a0010106 b3010104 cd010110  ................
 20000830 de010112 f8010128 22020112 4602010a  .......("...F...
 20000840 ad03db03 b103e011 c303e009 d8030118  ................
 20000850 3004e020 5004b010 60040122 8a040136  0.. P...`.."...6
 20000860 c104010e d0040144 6105d026 001e0196  .......Da..&....
 20000870 a01e015a 001f0808 101f0806 201f0808  ...Z........ ...
 20000880 301f0808 401f0806 601f0808 701f4a02  0...@...`...p.J.
 20000890 721f5604 761f6402 7a1f7002 7c1f7e02  r.V.v.d.z.p.|.~.
 200008a0 801f0808 901f0808 a01f0808 b01f0802  ................
 200008b0 d01f0802 e01f0802 7021f010 d024e61a  ........p!...$..
 200008c0 302cd02f 672c0106 802c0164 002d0026  0,./g,...,.d.-.&
 200008d0 41ffe01a 57726974 696e6720 46415420  A...Writing FAT 
 200008e0 00000000 43617264 20697320 746f6f20  ....Card is too 
 200008f0 736d616c 6c2e0d0a 00000000 466f726d  small.......Form
 20000900 61742044 6f6e650d 0a000000 466f726d  at Done.....Form
 20000910 61742046 61696c65 640d0a00 42616420  at Failed...Bad 
 20000920 636c7573 74657220 636f756e 740d0a00  cluster count...
 20000930 44657669 63652069 7320746f 6f20736d  Device is too sm
 20000940 616c6c0d 0a000000 57726974 696e6720  all.....Writing 
 20000950 75706361 73652074 61626c65 0d0a0000  upcase table....
 20000960 57726974 696e6720 726f6f74 0d0a0000  Writing root....
 20000970 466f726d 61742064 6f6e650d 0a000000  Format done.....
 20000980 466f726d 61742066 61696c65 640d0a00  Format failed...
 20000990 45584641 54000000 4661696c 65642074  EXFAT...Failed t
 200009a0 6f206465 74656374 20564c35 334c3158  o detect VL53L1X
 200009b0 2073656e 736f7221 00000000 69643a20   sensor!....id: 
 200009c0 25642c20 73756273 65635f69 643a2025  %d, subsec_id: %
 200009d0 642c2073 75625f73 697a653a 2025640a  d, sub_size: %d.
 200009e0 00000000 726f626f 74000000 6d61703a  ....robot...map:
 200009f0 3a617400 6d6f746f 725f696e 666f0000  :at.motor_info..
 20000a00 73656e73 6f725f69 6e666f00 6761696e  sensor_info.gain
 20000a10 73000000 67656172 5f726174 696f7300  s...gear_ratios.
 20000a20 72656665 72656e63 655f6c69 6d697473  reference_limits
 20000a30 00000000 636f6e74 726f6c6c 65725f69  ....controller_i
 20000a40 6e666f00 676f7665 726e6f72 5f747970  nfo.governor_typ
 20000a50 65730000 65737469 6d61746f 725f696e  es..estimator_in
 20000a60 666f0000 81090100 85090100 89090100  fo..............
 20000a70 8d090100 6cc00f40 03000000 0e0d0000  ....l..@........
 20000a80 e1000000 2a360000 14000000 13000000  ....*6..........
 20000a90 01000000 f4841f40 2b320000 14000000  .......@+2......
 20000aa0 13000000 01000000 f8841f40 2d310000  ...........@-1..
 20000ab0 14000000 13000000 01000000 f0841f40  ...............@
 20000ac0 2cffff00 14000000 00000000 00000000  ,...............
 20000ad0 01000000 00000000 ec841f40 00000000  ...........@....
 20000ae0 00000000 6cc00f40 30000000 100f0000  ....l..@0.......
 20000af0 e1000000 01270000 17000000 12000000  .....'..........
 20000b00 00010000 14851f40 1aff0000 12000000  .......@........
 20000b10 00000000 01000000 18851f40 1bff0000  ...........@....
 20000b20 12000000 00000000 01000000 10851f40  ...............@
 20000b30 0026ff00 17000000 12000000 00000000  .&..............
 20000b40 01010000 01000000 0c851f40 0c851f40  ...........@...@
 20000b50 00000000 6cc00f40 c0000000 504f0000  ....l..@....PO..
 20000b60 bd010000 0cff0000 13000000 00000000  ................
 20000b70 00000000 24851f40 0bff0000 13000000  ....$..@........
 20000b80 00000000 00000000 28851f40 0dff0000  ........(..@....
 20000b90 13000000 00000000 00000000 20851f40  ............ ..@
 20000ba0 0a252400 13000000 12000000 12000000  .%$.............
 20000bb0 01020300 00000000 1c851f40 00000000  ...........@....
 20000bc0 00000000 62617369 635f7374 72696e67  ....basic_string
 20000bd0 3a3a5f4d 5f636f6e 73747275 6374206e  ::_M_construct n
 20000be0 756c6c20 6e6f7420 76616c69 64000000  ull not valid...
 20000bf0 00000000 00000000 9d0f0000 890f0000  ................
 20000c00 bd050000 610f0000 25100000 390e0000  ....a...%...9...
 20000c10 a50d0000 00000000 00000000 69000000  ............i...
 20000c20 00000000 00000000 8dc80000 99c80000  ................
 20000c30 91c80000 99c90000 09d10000 39d00000  ............9...
 20000c40 95d00000 35cf0000 15cb0000 49d50000  ....5.......I...
 20000c50 a9c80000 1dc80000 d9d10000 09c80000  ................
 20000c60 0dc80000 15c80000 19c80000 2dcb0000  ............-...
 20000c70 69d30000 f1d20000 49ce0000 01c80000  i.......I.......
 20000c80 11c80000 49d40000 71d10000 0dc90000  ....I...q.......
 20000c90 00000000 00000000 353a0100 2d3a0100  ........5:..-:..
 20000ca0 293a0100 253a0100 213a0100 1d3a0100  ):..%:..!:...:..
 20000cb0 193a0100 153a0100 00000000 00000000  .:...:..........
 20000cc0 5d3a0100 553a0100 513a0100 4d3a0100  ]:..U:..Q:..M:..
 20000cd0 493a0100 453a0100 413a0100 3d3a0100  I:..E:..A:..=:..
 20000ce0 00000000 00000000 090b0000 bd100000  ................
 20000cf0 bd050000 e10a0000 550a0000 5d0b0000  ........U...]...
 20000d00 b50a0000 c9120000 89110000 00000000  ................
 20000d10 00000000 11150000 09150000 01150000  ................
 20000d20 05150000 00000000 00000000 9d0f0000  ................
 20000d30 890f0000 bd050000 610f0000 25100000  ........a...%...
 20000d40 390e0000 a50d0000 00000000 00000000  9...............
 20000d50 01110000 41110000 210e0000 750f0000  ....A...!...u...
 20000d60 71100000 8d0d0000 4d0f0000 1d070000  q.......M.......
 20000d70 39120000 b50b0000 d10b0000 dd050000  9...............
 20000d80 c5050000 cd060000 bd0d0000 ed0b0000  ................
 20000d90 ad070000 65080000 f5070000 59070000  ....e.......Y...
 20000da0 d10f0000 00000000 00000000 b9160100  ................
 20000db0 ad270100 bd050000 c1050000 b9160100  .'..............
 20000dc0 b9160100 b9160100 00000000 00000000  ................
 20000dd0 05060000 1d0a0000 e1090000 29090000  ............)...
 20000de0 8d090000 d5080000 9d0c0000 e50d0000  ................
 20000df0 710e0000 71130000 00000000 00000000  q...q...........
 20000e00 81f60000 adf60000 bd050000 7df60000  ............}...
 20000e10 91050000 9d050000 65f60000 00000000  ........e.......
 20000e20 00000000 e1b50000 e5b50000 51b40000  ............Q...
 20000e30 adb80000 fdc50000 75be0000 7d930000  ........u...}...
 20000e40 11b60000 cdc50000 0dc70000 fdbe0000  ................
 20000e50 a98d0000 1dbc0000 71b50000 7db50000  ........q...}...
 20000e60 45b40000 49b40000 4db40000 89b50000  E...I...M.......
 20000e70 adb50000 d1b50000 29b90000 f5b50000  ........).......
 20000e80 01b70000 75b90000 49ba0000 00000000  ....u...I.......
 20000e90 00000000 e9280100 7d220000 81220000  .....(..}"..."..
 20000ea0 89220000 91220000 d8399d27 0054ea2a  ."..."...9.'.T.*
 20000eb0 00a4781f 007b9a17 7463705f 6f757470  ..x..{..tcp_outp
 20000ec0 75740000 69676d70 5f6c6561 76656772  ut..igmp_leavegr
 20000ed0 6f75705f 6e657469 66000000 64686370  oup_netif...dhcp
 20000ee0 5f72656c 65617365 5f616e64 5f73746f  _release_and_sto
 20000ef0 70000000 6970345f 6f757470 75745f69  p...ip4_output_i
 20000f00 665f6f70 745f7372 63000000 6175746f  f_opt_src...auto
 20000f10 69705f73 746f7000 6d646e73 5f726573  ip_stop.mdns_res
 20000f20 705f616e 6e6f756e 63650000 6e657469  p_announce..neti
 20000f30 665f7365 745f6164 64720000 7463705f  f_set_addr..tcp_
 20000f40 6162616e 646f6e00 7564705f 72656d6f  abandon.udp_remo
 20000f50 76650000 7379735f 756e7469 6d656f75  ve..sys_untimeou
 20000f60 74000000 6e657469 665f6765 745f6279  t...netif_get_by
 20000f70 5f696e64 65780000 7379735f 74696d65  _index..sys_time
 20000f80 6f757400 6e657469 665f7365 745f6c69  out.netif_set_li
 20000f90 6e6b5f64 6f776e00 6d646e73 5f726573  nk_down.mdns_res
 20000fa0 705f7265 6d6f7665 5f6e6574 69660000  p_remove_netif..
 20000fb0 7564705f 62696e64 00000000 6e657469  udp_bind....neti
 20000fc0 665f7365 745f646f 776e0000 7564705f  f_set_down..udp_
 20000fd0 73656e64 746f5f69 665f7372 63000000  sendto_if_src...
 20000fe0 666e692b 00000000 666e6900 6e616e00  fni+....fni.nan.
 20000ff0 666e692d 00000000 6c696272 61726965  fni-....librarie
 20001000 732f514e 45746865 726e6574 2f737263  s/QNEthernet/src
 20001010 2f6c7769 702f6970 76342f61 75746f69  /lwip/ipv4/autoi
 20001020 702e6300 6e657469 6620213d 204e554c  p.c.netif != NUL
 20001030 4c000000 6175746f 69702021 3d204e55  L...autoip != NU
 20001040 4c4c0000 6e657469 6620616c 72656164  LL..netif alread
 20001050 79206861 73206120 73747275 63742061  y has a struct a
 20001060 75746f69 70207365 74000000 6c696272  utoip set...libr
 20001070 61726965 732f514e 45746865 726e6574  aries/QNEthernet
 20001080 2f737263 2f6c7769 702f6970 76342f64  /src/lwip/ipv4/d
 20001090 6863702e 63000000 64686370 5f637265  hcp.c...dhcp_cre
 200010a0 6174655f 6d73673a 20636865 636b2074  ate_msg: check t
 200010b0 68617420 66697273 74207062 75662063  hat first pbuf c
 200010c0 616e2068 6f6c6420 73747275 63742064  an hold struct d
 200010d0 6863705f 6d736700 64686370 5f706362  hcp_msg.dhcp_pcb
 200010e0 5f726566 636f756e 7428293a 20726566  _refcount(): ref
 200010f0 636f756e 74206572 726f7200 64686370  count error.dhcp
 20001100 5f6f7074 696f6e3a 206f7074 696f6e73  _option: options
 20001110 5f6f7574 5f6c656e 202b2032 202b206f  _out_len + 2 + o
 20001120 7074696f 6e5f6c65 6e203c3d 20444843  ption_len <= DHC
 20001130 505f4f50 54494f4e 535f4c45 4e000000  P_OPTIONS_LEN...
 20001140 64686370 5f6f7074 696f6e5f 6c6f6e67  dhcp_option_long
 20001150 3a206f70 74696f6e 735f6f75 745f6c65  : options_out_le
 20001160 6e202b20 34203c3d 20444843 505f4f50  n + 4 <= DHCP_OP
 20001170 54494f4e 535f4c45 4e000000 00000042  TIONS_LEN......B
 20001180 c8801f40 b8821f40 08000000 00000042  ...@...@.......B
 20001190 c4801f40 b4821f40 04000000 00c00042  ...@...@.......B
 200011a0 24801f40 14821f40 10000000 00c00042  $..@...@.......B
 200011b0 28801f40 18821f40 20000000 00c00042  (..@...@ ......B
 200011c0 2c801f40 1c821f40 40000000 00c00042  ,..@...@@......B
 200011d0 34801f40 24821f40 00010000 00400042  4..@$..@.....@.B
 200011e0 64811f40 54831f40 00040000 00400042  d..@T..@.....@.B
 200011f0 80811f40 70831f40 00000200 00400042  ...@p..@.....@.B
 20001200 7c811f40 6c831f40 00000100 00400042  |..@l..@.....@.B
 20001210 68811f40 58831f40 00080000 00400042  h..@X..@.....@.B
 20001220 3c811f40 2c831f40 01000000 00400042  <..@,..@.....@.B
 20001230 44811f40 34831f40 04000000 00400042  D..@4..@.....@.B
 20001240 40811f40 30831f40 02000000 00400042  @..@0..@.....@.B
 20001250 48811f40 38831f40 08000000 00000042  H..@8..@.......B
 20001260 04811f40 f4821f40 00000400 00000042  ...@...@.......B
 20001270 08811f40 f8821f40 00000800 00000042  ...@...@.......B
 20001280 18811f40 08831f40 00008000 00000042  ...@...@.......B
 20001290 14811f40 04831f40 00004000 00000042  ...@...@..@....B
 200012a0 00811f40 f0821f40 00000200 00000042  ...@...@.......B
 200012b0 fc801f40 ec821f40 00000100 00000042  ...@...@.......B
 200012c0 24811f40 14831f40 00000004 00000042  $..@...@.......B
 200012d0 28811f40 18831f40 00000008 00000042  (..@...@.......B
 200012e0 1c811f40 0c831f40 00000001 00000042  ...@...@.......B
 200012f0 20811f40 10831f40 00000002 00000042   ..@...@.......B
 20001300 ec801f40 dc821f40 00100000 00000042  ...@...@.......B
 20001310 f0801f40 e0821f40 00200000 00000042  ...@...@. .....B
 20001320 34811f40 24831f40 00000040 00000042  4..@$..@...@...B
 20001330 38811f40 28831f40 00000080 00800042  8..@(..@.......B
 20001340 94801f40 84821f40 00000400 00c00042  ...@...@.......B
 20001350 90801f40 80821f40 00000080 00800042  ...@...@.......B
 20001360 a8801f40 98821f40 00008000 00800042  ...@...@.......B
 20001370 a4801f40 94821f40 00004000 00400042  ...@...@..@..@.B
 20001380 6c811f40 5c831f40 00100000 00c00042  l..@\..@.......B
 20001390 30801f40 20821f40 80000000 00400042  0..@ ..@.....@.B
 200013a0 b0811f40 a0831f40 00000020 00400042  ...@...@... .@.B
 200013b0 ac811f40 9c831f40 00000010 00400042  ...@...@.....@.B
 200013c0 84811f40 74831f40 00000400 00400042  ...@t..@.....@.B
 200013d0 88811f40 78831f40 00000800 00000042  ...@x..@.......B
 200013e0 2c811f40 1c831f40 00000010 00000042  ,..@...@.......B
 200013f0 30811f40 20831f40 00000020 00000042  0..@ ..@... ...B
 20001400 0c811f40 fc821f40 00001000 00000042  ...@...@.......B
 20001410 10811f40 00831f40 00002000 00800042  ...@...@.. ....B
 20001420 c8811f40 b8831f40 00800000 00800042  ...@...@.......B
 20001430 c4811f40 b4831f40 00400000 00800042  ...@...@.@.....B
 20001440 c0811f40 b0831f40 00200000 00800042  ...@...@. .....B
 20001450 bc811f40 ac831f40 00100000 00800042  ...@...@.......B
 20001460 d0811f40 c0831f40 00000200 00800042  ...@...@.......B
 20001470 cc811f40 bc831f40 00000100 00c00042  ...@...@.......B
 20001480 74801f40 64821f40 00000001 00c00042  t..@d..@.......B
 20001490 80801f40 70821f40 00000008 00c00042  ...@p..@.......B
 200014a0 84801f40 74821f40 00000010 00c00042  ...@t..@.......B
 200014b0 6c801f40 5c821f40 00004000 00c00042  l..@\..@..@....B
 200014c0 7c801f40 6c821f40 00000004 00c00042  |..@l..@.......B
 200014d0 78801f40 68821f40 00000002 00c00042  x..@h..@.......B
 200014e0 88801f40 78821f40 00000020 d8170020  ...@x..@... ... 
 200014f0 181d0020 6d656d70 5f667265 653a206d  ... memp_free: m
 20001500 656d2070 726f7065 726c7920 616c6967  em properly alig
 20001510 6e656400 6c696272 61726965 732f514e  ned.libraries/QN
 20001520 45746865 726e6574 2f737263 2f6c7769  Ethernet/src/lwi
 20001530 702f6d65 6d702e63 00000000 6d656d70  p/memp.c....memp
 20001540 5f6d616c 6c6f633a 206d656d 70207072  _malloc: memp pr
 20001550 6f706572 6c792061 6c69676e 65640000  operly aligned..
 20001560 00000000 0c000000 69000000 0b000000  ........i.......
 20001570 76000000 77000000 16000000 0b000000  v...w...........
 20001580 70000000 78000000 7f000000 80000000  p...x...........
 20001590 ffffffff 71000000 68000000 80000000  ....q...h.......
 200015a0 05000000 6c696272 61726965 732f514e  ....libraries/QN
 200015b0 45746865 726e6574 2f737263 2f6c7769  Ethernet/src/lwi
 200015c0 702f6970 76342f69 676d702e 63000000  p/ipv4/igmp.c...
 200015d0 69676d70 5f6c6f6f 6b75705f 67726f75  igmp_lookup_grou
 200015e0 703a2066 69727374 2067726f 7570206d  p: first group m
 200015f0 75737420 62652061 6c6c7379 7374656d  ust be allsystem
 20001600 73000000 69676d70 5f6c6f6f 6b75705f  s...igmp_lookup_
 20001610 67726f75 703a2061 6c6c2065 78636570  group: all excep
 20001620 74206669 72737420 67726f75 70206d75  t first group mu
 20001630 7374206e 6f742062 6520616c 6c737973  st not be allsys
 20001640 74656d73 00000000 69676d70 5f73656e  tems....igmp_sen
 20001650 643a2063 6865636b 20746861 74206669  d: check that fi
 20001660 72737420 70627566 2063616e 20686f6c  rst pbuf can hol
 20001670 64207374 72756374 2069676d 705f6d73  d struct igmp_ms
 20001680 67000000 74686973 206e6565 64732061  g...this needs a
 20001690 20706275 6620696e 206f6e65 20706965   pbuf in one pie
 200016a0 63652100 702d3e6c 656e203e 3d20706f  ce!.p->len >= po
 200016b0 66660000 6c696272 61726965 732f514e  ff..libraries/QN
 200016c0 45746865 726e6574 2f737263 2f6c7769  Ethernet/src/lwi
 200016d0 702f6970 76342f69 70342e63 00000000  p/ipv4/ip4.c....
 200016e0 702d3e72 6566203d 3d203100 63686563  p->ref == 1.chec
 200016f0 6b207468 61742066 69727374 20706275  k that first pbu
 20001700 66206361 6e20686f 6c642073 74727563  f can hold struc
 20001710 74206970 5f686472 00000000 00000000  t ip_hdr........
 20001720 6c696272 61726965 732f514e 45746865  libraries/QNEthe
 20001730 726e6574 2f737263 2f6c7769 702f6970  rnet/src/lwip/ip
 20001740 76342f69 70345f66 7261672e 63000000  v4/ip4_frag.c...
 20001750 73616e69 74792063 6865636b 206c696e  sanity check lin
 20001760 6b656420 6c697374 00000000 70637220  ked list....pcr 
 20001770 213d204e 554c4c00 53657269 616c2053  != NULL.Serial S
 20001780 74617274 65640000 496e6974 69616c69  tarted..Initiali
 20001790 7a696e67 20466c69 67687420 436f6e74  zing Flight Cont
 200017a0 726f6c6c 65722e2e 2e000000 456e7465  roller......Ente
 200017b0 72696e67 206d6169 6e206c6f 6f702e2e  ring main loop..
 200017c0 2e0a0000 5f736572 76696365 73000000  ...._services...
 200017d0 5f646e73 2d736400 5f756470 00000000  _dns-sd._udp....
 200017e0 6c6f6361 6c000000 25640000 696e2d61  local...%d..in-a
 200017f0 64647200 61727061 00000000 6c696272  ddr.arpa....libr
 20001800 61726965 732f514e 45746865 726e6574  aries/QNEthernet
 20001810 2f737263 2f6c7769 702f6170 70732f6d  /src/lwip/apps/m
 20001820 646e732f 6d646e73 2e630000 6d646e73  dns/mdns.c..mdns
 20001830 5f726573 705f7265 6d6f7665 5f6e6574  _resp_remove_net
 20001840 69663a20 4e756c6c 20706f69 6e746572  if: Null pointer
 20001850 00000000 726d656d 20213d20 4e554c4c  ....rmem != NULL
 20001860 00000000 726d656d 203d3d20 4d454d5f  ....rmem == MEM_
 20001870 414c4947 4e28726d 656d2900 6c696272  ALIGN(rmem).libr
 20001880 61726965 732f514e 45746865 726e6574  aries/QNEthernet
 20001890 2f737263 2f6c7769 702f6d65 6d2e6300  /src/lwip/mem.c.
 200018a0 6d616c6c 6f632829 206d7573 74207265  malloc() must re
 200018b0 7475726e 20616c69 676e6564 206d656d  turn aligned mem
 200018c0 6f727900 18000f00 d0632020 e43f0020  ory......c  .?. 
 200018d0 10000900 40632020 e83f0020 10001000  ....@c  .?. ....
 200018e0 40612020 ec3f0020 fc051000 80012020  @a  .?. ......  
 200018f0 f03f0020 20000500 38652020 f43f0020  .?.  ...8e  .?. 
 20001900 10001000 40622020 f83f0020 9c000800  ....@b  .?. ....
 20001910 b8672020 fc3f0020 1c000800 d8662020  .g  .?. .....f  
 20001920 00400020 10001000 d8652020 04400020  .@. .....e  .@. 
 20001930 28000800 40002020 08400020 30190020  (...@.  .@. 0.. 
 20001940 0c190020 18190020 24190020 f4180020  ... ... $.. ... 
 20001950 c4180020 d0180020 00190020 dc180020  ... ... ... ... 
 20001960 e8180020 696e7661 6c696420 706f696e  ... invalid poin
 20001970 74657200 6e657469 66206d75 73742062  ter.netif must b
 20001980 6520213d 204e554c 4c000000 6c696272  e != NULL...libr
 20001990 61726965 732f514e 45746865 726e6574  aries/QNEthernet
 200019a0 2f737263 2f6c7769 702f6e65 7469662e  /src/lwip/netif.
 200019b0 63000000 6e657469 665f6973 7375655f  c...netif_issue_
 200019c0 7265706f 7274733a 20696e76 616c6964  reports: invalid
 200019d0 206e6574 69660000 7020213d 204e554c   netif..p != NUL
 200019e0 4c000000 70627566 5f616c6c 6f633a20  L...pbuf_alloc: 
 200019f0 6572726f 6e656f75 73207479 70650000  erroneous type..
 20001a00 696e7661 6c696420 70627566 5f747970  invalid pbuf_typ
 20001a10 65000000 43726561 74696e67 20616e20  e...Creating an 
 20001a20 696e6669 6e697465 206c6f6f 70000000  infinite loop...
 20001a30 702d3e74 6f745f6c 656e203d 3d20702d  p->tot_len == p-
 20001a40 3e6c656e 20286f66 206c6173 74207062  >len (of last pb
 20001a50 75662069 6e206368 61696e29 00000000  uf in chain)....
 20001a60 70627566 5f667265 653a2070 2d3e7265  pbuf_free: p->re
 20001a70 66203e20 30000000 70632d3e 63757374  f > 0...pc->cust
 20001a80 6f6d5f66 7265655f 66756e63 74696f6e  om_free_function
 20001a90 20213d20 4e554c4c 00000000 696e7661   != NULL....inva
 20001aa0 6c696420 70627566 20747970 65000000  lid pbuf type...
 20001ab0 70627566 5f726561 6c6c6f63 3a207020  pbuf_realloc: p 
 20001ac0 213d204e 554c4c00 70627566 5f726561  != NULL.pbuf_rea
 20001ad0 6c6c6f63 3a207120 213d204e 554c4c00  lloc: q != NULL.
 20001ae0 6d656d5f 7472696d 20726574 75726e65  mem_trim returne
 20001af0 64207220 3d3d204e 554c4c00 6d656d5f  d r == NULL.mem_
 20001b00 7472696d 20726574 75726e65 64207220  trim returned r 
 20001b10 213d2071 00000000 6c696272 61726965  != q....librarie
 20001b20 732f514e 45746865 726e6574 2f737263  s/QNEthernet/src
 20001b30 2f6c7769 702f7062 75662e63 00000000  /lwip/pbuf.c....
 20001b40 70627566 20726566 206f7665 72666c6f  pbuf ref overflo
 20001b50 77000000 70627566 5f74616b 653a2069  w...pbuf_take: i
 20001b60 6e76616c 69642070 62756600 64696420  nvalid pbuf.did 
 20001b70 6e6f7420 636f7079 20616c6c 20646174  not copy all dat
 20001b80 61000000 07080c0b 06050f00 0d0e0102  a...............
 20001b90 83840708 0c0b0605 0f000d0e 01028384  ................
 20001ba0 ffffffff ffffffff ffff8182 090a0000  ................
 20001bb0 01010004 01000004 01320101 01320201  .........2...2..
 20001bc0 01100101 01110101 01120102 01030206  ................
 20001bd0 01030106 01120202 02000001 02020001  ................
 20001be0 02010001 02100001 02220001 02230001  ........."...#..
 20001bf0 00000000 00000000 02210001 02200001  .........!... ..
 20001c00 00000000 00000000 01300101 01310101  .........0...1..
 20001c10 01020004 01030004 00000000 00000000  ................
 20001c20 01210201 01210101 00000000 00000000  .!...!..........
 20001c30 00000000 01100201 00000000 00000000  ................
 20001c40 01130106 01130206 00000000 00000000  ................
 20001c50 00000000 00000000 01010201 01010101  ................
 20001c60 01000201 01000101 01020201 01020101  ................
 20001c70 00000000 00000000 00000000 01230201  .............#..
 20001c80 00000000 00000000 01200101 25733a25  ......... ..%s:%
 20001c90 643a2573 28290d0a 00000000 6c696272  d:%s()......libr
 20001ca0 61726965 732f514e 45746865 726e6574  aries/QNEthernet
 20001cb0 2f737263 2f716e65 74686572 6e65745f  /src/qnethernet_
 20001cc0 68616c2e 63707000 46756e63 74696f6e  hal.cpp.Function
 20001cd0 2063616c 6c656420 66726f6d 20696e74   called from int
 20001ce0 65727275 70742063 6f6e7465 78740000  errupt context..
 20001cf0 41737365 7274696f 6e202225 73222066  Assertion "%s" f
 20001d00 61696c65 64206174 206c696e 65202564  ailed at line %d
 20001d10 20696e20 25730a00 5f746370 00000000   in %s.._tcp....
 20001d20 716e6574 6865726e 65742d6c 77697000  qnethernet-lwip.
 20001d30 6c696272 61726965 732f514e 45746865  libraries/QNEthe
 20001d40 726e6574 2f737263 2f6c7769 702f7469  rnet/src/lwip/ti
 20001d50 6d656f75 74732e63 00000000 7379735f  meouts.c....sys_
 20001d60 74696d65 6f75743a 2074696d 656f7574  timeout: timeout
 20001d70 20213d20 4e554c4c 2c20706f 6f6c204d   != NULL, pool M
 20001d80 454d505f 5359535f 54494d45 4f555420  EMP_SYS_TIMEOUT 
 20001d90 69732065 6d707479 00000000 54696d65  is empty....Time
 20001da0 6f757420 74696d65 20746f6f 206c6f6e  out time too lon
 20001db0 672c206d 61782069 73204c57 49505f55  g, max is LWIP_U
 20001dc0 494e5433 325f4d41 582f3420 6d736563  INT32_MAX/4 msec
 20001dd0 73000000 646f6e27 74206361 6c6c2074  s...don't call t
 20001de0 63705f61 626f7274 2f746370 5f616261  cp_abort/tcp_aba
 20001df0 6e646f6e 20666f72 206c6973 74656e2d  ndon for listen-
 20001e00 70636273 00000000 6c696272 61726965  pcbs....librarie
 20001e10 732f514e 45746865 726e6574 2f737263  s/QNEthernet/src
 20001e20 2f6c7769 702f7463 702e6300 70636220  /lwip/tcp.c.pcb 
 20001e30 213d204e 554c4c00 7463705f 6566665f  != NULL.tcp_eff_
 20001e40 73656e64 5f6d7373 5f6e6574 69663a20  send_mss_netif: 
 20001e50 696e7661 6c696420 6473745f 69700000  invalid dst_ip..
 20001e60 7463705f 66726565 3a204c49 5354454e  tcp_free: LISTEN
 20001e70 00000000 7463705f 6f757470 75743a20  ....tcp_output: 
 20001e80 696e7661 6c696420 70636200 646f6e27  invalid pcb.don'
 20001e90 74206361 6c6c2074 63705f6f 75747075  t call tcp_outpu
 20001ea0 7420666f 72206c69 7374656e 2d706362  t for listen-pcb
 20001eb0 73000000 52535420 6e6f7420 65787065  s...RST not expe
 20001ec0 63746564 20686572 65210000 6f707469  cted here!..opti
 20001ed0 6f6e7320 6e6f7420 66696c6c 65640000  ons not filled..
 20001ee0 7463705f 6f757470 75745f61 6c6c6f63  tcp_output_alloc
 20001ef0 5f686561 6465723a 20696e76 616c6964  _header: invalid
 20001f00 20706362 00000000 63686563 6b207468   pcb....check th
 20001f10 61742066 69727374 20706275 66206361  at first pbuf ca
 20001f20 6e20686f 6c642073 74727563 74207463  n hold struct tc
 20001f30 705f6864 72000000 7463705f 6f757470  p_hdr...tcp_outp
 20001f40 75745f63 6f6e7472 6f6c5f73 65676d65  ut_control_segme
 20001f50 6e743a20 696e7661 6c696420 70627566  nt: invalid pbuf
 20001f60 00000000 7463705f 6f757470 75745f66  ....tcp_output_f
 20001f70 696c6c5f 6f707469 6f6e733a 20696e76  ill_options: inv
 20001f80 616c6964 20706275 66000000 6c696272  alid pbuf...libr
 20001f90 61726965 732f514e 45746865 726e6574  aries/QNEthernet
 20001fa0 2f737263 2f6c7769 702f7463 705f6f75  /src/lwip/tcp_ou
 20001fb0 742e6300 7463705f 70627566 5f707265  t.c.tcp_pbuf_pre
 20001fc0 616c6c6f 633a2069 6e76616c 69642070  alloc: invalid p
 20001fd0 63620000 6e656564 20756e63 6861696e  cb..need unchain
 20001fe0 65642070 62756600 7463705f 7063625f  ed pbuf.tcp_pcb_
 20001ff0 72656d6f 76653a20 696e7661 6c696420  remove: invalid 
 20002000 70636200 7463705f 7063625f 72656d6f  pcb.tcp_pcb_remo
 20002010 76653a20 696e7661 6c696420 7063626c  ve: invalid pcbl
 20002020 69737400 756e7365 6e742073 65676d65  ist.unsent segme
 20002030 6e747320 6c65616b 696e6700 756e6163  nts leaking.unac
 20002040 6b656420 7365676d 656e7473 206c6561  ked segments lea
 20002050 6b696e67 00000000 6f6f7365 71207365  king....ooseq se
 20002060 676d656e 7473206c 65616b69 6e670000  gments leaking..
 20002070 7463705f 7273743a 20696e76 616c6964  tcp_rst: invalid
 20002080 206c6f63 616c5f69 70000000 7463705f   local_ip...tcp_
 20002090 7273743a 20696e76 616c6964 2072656d  rst: invalid rem
 200020a0 6f74655f 69700000 7463705f 73656e64  ote_ip..tcp_send
 200020b0 5f656d70 74795f61 636b3a20 696e7661  _empty_ack: inva
 200020c0 6c696420 70636200 6c696272 61726965  lid pcb.librarie
 200020d0 732f514e 45746865 726e6574 2f737263  s/QNEthernet/src
 200020e0 2f6c7769 702f7564 702e6300 7564705f  /lwip/udp.c.udp_
 200020f0 696e7075 743a2069 6e76616c 69642070  input: invalid p
 20002100 62756600 7564705f 696e7075 743a2069  buf.udp_input: i
 20002110 6e76616c 6964206e 65746966 00000000  nvalid netif....
 20002120 70627566 5f72656d 6f76655f 68656164  pbuf_remove_head
 20002130 65722066 61696c65 64000000 63686563  er failed...chec
 20002140 6b207468 61742066 69727374 20706275  k that first pbu
 20002150 66206361 6e20686f 6c642073 74727563  f can hold struc
 20002160 74207564 705f6864 72000000 00010000  t udp_hdr.......
 20002170 fc230020 12000000 00060000 e4230060  .#. .........#.`
 20002180 0a000000 00020000 34230060 ad000000  ........4#.`....
 20002190 00070000 84220060 ad000000 00220400  .....".`....."..
 200021a0 28240020 1e000000 00210400 ca230060  ($. .....!...#.`
 200021b0 09000000 00030000 80220060 00000000  .........".`....
 200021c0 01030904 68220060 00000000 02030904  ....h".`........
 200021d0 50220060 00000000 03030904 64240020  P".`........d$. 
 200021e0 00000000 00000000 00000000 00000000  ................
 200021f0 e00000fb 62617369 635f7374 72696e67  ....basic_string
 20002200 3a3a5f4d 5f637265 61746500 00202020  ::_M_create..   
 20002210 20202020 20202828 28282820 20202020        (((((     
 20002220 20202020 20202020 20202020 20881010               ...
 20002230 10101010 10101010 10101010 10040404  ................
 20002240 04040404 04040410 10101010 10104141  ..............AA
 20002250 41414141 01010101 01010101 01010101  AAAA............
 20002260 01010101 01010101 10101010 10104242  ..............BB
 20002270 42424242 02020202 02020202 02020202  BBBB............
 20002280 02020202 02020202 10101010 20000000  ............ ...
 20002290 00000000 00000000 00000000 00000000  ................
 200022a0 00000000 00000000 00000000 00000000  ................
 200022b0 00000000 00000000 00000000 00000000  ................
 200022c0 00000000 00000000 00000000 00000000  ................
 200022d0 00000000 00000000 00000000 00000000  ................
 200022e0 00000000 00000000 00000000 00000000  ................
 200022f0 00000000 00000000 00000000 00000000  ................
 20002300 00000000 00000000 00000000 00303132  .............012
 20002310 33343536 37383941 42434445 46003031  3456789ABCDEF.01
 20002320 32333435 36373839 61626364 65660023  23456789abcdef.#
 20002330 2d302b20 00686c4c 00656667 45464700  -0+ .hlL.efgEFG.
 20002340 0029de07 007b9a17 980c0020 00000000  .)...{..... ....
 20002350 e8030000 00000000 c00c0020 00000000  ........... ....
 20002360 e8030000 00000000 00000000 80000000  ................
 20002370 ffffffff 1c0c0020 00000000 00000000  ....... ........
 20002380 00000000 00000000 00000000 00000000  ................
 20002390 00000000 60ed2020 00000000 00000000  ....`.  ........
 200023a0 03000000 883b0020 00000000 883b0020  .....;. .....;. 
 200023b0 f03b0020 583c0020 00000000 00000000  .;. X<. ........
 200023c0 00000000 00000000 00000000 00000000  ................
 200023d0 00000000 00000000 00000000 00000000  ................
 200023e0 00000000 00000000 00000000 00000000  ................
 200023f0 00000000 a8230020 01000000 12010002  .....#. ........
 20002400 ef020140 c0168b04 80020102 03010000  ...@............
 20002410 00000000 80000000 30313233 34353637  ........01234567
