
build/./libraries/QNEthernet/src/drivers/driver_teensy41.c.o:     file format elf32-littlearm

SYMBOL TABLE:
00000000 l    df *ABS*	00000000 driver_teensy41.c
00000000 l    d  .text	00000000 .text
00000000 l    d  .data	00000000 .data
00000000 l    d  .bss	00000000 .bss
00000000 l    d  .text.enet_isr	00000000 .text.enet_isr
00000000 l     F .text.enet_isr	00000028 enet_isr
00000000 l    d  .text.init_phy.part.0	00000000 .text.init_phy.part.0
00000000 l     F .text.init_phy.part.0	000001d0 init_phy.part.0
00000000 l    d  .text.mdio_read	00000000 .text.mdio_read
00000000 l    d  .text.mdio_write	00000000 .text.mdio_write
00000000 l    d  .text.driver_is_unknown	00000000 .text.driver_is_unknown
00000000 l    d  .text.driver_is_link_state_detectable	00000000 .text.driver_is_link_state_detectable
00000000 l    d  .text.driver_get_system_mac	00000000 .text.driver_get_system_mac
00000000 l    d  .text.driver_is_mac_settable	00000000 .text.driver_is_mac_settable
00000000 l    d  .text.driver_set_mac	00000000 .text.driver_set_mac
00000000 l    d  .text.driver_has_hardware	00000000 .text.driver_has_hardware
00000000 l    d  .text.driver_set_chip_select_pin	00000000 .text.driver_set_chip_select_pin
00000000 l    d  .text.driver_init	00000000 .text.driver_init
00001e00 l     O .dmabuffers	00001e00 s_rxBufs
00000000 l     O .dmabuffers	00001e00 s_txBufs
00000000 l    d  .text.driver_deinit	00000000 .text.driver_deinit
00000000 l    d  .text.driver_proc_input	00000000 .text.driver_proc_input
00000000 l    d  .text.driver_poll	00000000 .text.driver_poll
00000000 l    d  .text.driver_link_speed	00000000 .text.driver_link_speed
00000000 l    d  .text.driver_link_is_full_duplex	00000000 .text.driver_link_is_full_duplex
00000000 l    d  .text.driver_link_is_crossover	00000000 .text.driver_link_is_crossover
00000000 l    d  .text.driver_output	00000000 .text.driver_output
00000000 l    d  .text.driver_set_incoming_mac_address_allowed	00000000 .text.driver_set_incoming_mac_address_allowed
00000000 l    d  .bss.collisionGALR.3	00000000 .bss.collisionGALR.3
00000000 l     O .bss.collisionGALR.3	00000004 collisionGALR.3
00000000 l    d  .bss.collisionGAUR.2	00000000 .bss.collisionGAUR.2
00000000 l     O .bss.collisionGAUR.2	00000004 collisionGAUR.2
00000000 l    d  .bss.collisionIALR.1	00000000 .bss.collisionIALR.1
00000000 l     O .bss.collisionIALR.1	00000004 collisionIALR.1
00000000 l    d  .bss.collisionIAUR.0	00000000 .bss.collisionIAUR.0
00000000 l     O .bss.collisionIAUR.0	00000004 collisionIAUR.0
00000000 l    d  .bss.is_link_up.5	00000000 .bss.is_link_up.5
00000000 l     O .bss.is_link_up.5	00000001 is_link_up.5
00000000 l    d  .bss.physts.4	00000000 .bss.physts.4
00000000 l     O .bss.physts.4	00000002 physts.4
00000000 l    d  .bss.s_checkLinkStatusState	00000000 .bss.s_checkLinkStatusState
00000000 l     O .bss.s_checkLinkStatusState	00000004 s_checkLinkStatusState
00000000 l    d  .bss.s_initState	00000000 .bss.s_initState
00000000 l     O .bss.s_initState	00000001 s_initState
00000000 l    d  .bss.s_linkIsCrossover	00000000 .bss.s_linkIsCrossover
00000000 l     O .bss.s_linkIsCrossover	00000001 s_linkIsCrossover
00000000 l    d  .bss.s_linkIsFullDuplex	00000000 .bss.s_linkIsFullDuplex
00000000 l     O .bss.s_linkIsFullDuplex	00000001 s_linkIsFullDuplex
00000000 l    d  .bss.s_linkSpeed10Not100	00000000 .bss.s_linkSpeed10Not100
00000000 l     O .bss.s_linkSpeed10Not100	00000001 s_linkSpeed10Not100
00000000 l    d  .bss.s_rxNotAvail	00000000 .bss.s_rxNotAvail
00000000 l     O .bss.s_rxNotAvail	00000001 s_rxNotAvail
00000000 l    d  .bss.s_rxRing	00000000 .bss.s_rxRing
00000000 l     O .bss.s_rxRing	000000a0 s_rxRing
00000000 l    d  .bss.s_txRing	00000000 .bss.s_txRing
00000000 l     O .bss.s_txRing	000000a0 s_txRing
00000000 l    d  .data.s_pRxBD	00000000 .data.s_pRxBD
00000000 l     O .data.s_pRxBD	00000004 s_pRxBD
00000000 l    d  .data.s_pTxBD	00000000 .data.s_pTxBD
00000000 l     O .data.s_pTxBD	00000004 s_pTxBD
00000000 l    d  .dmabuffers	00000000 .dmabuffers
00000000 l    d  .comment	00000000 .comment
00000000 l    d  .ARM.attributes	00000000 .ARM.attributes
00000000         *UND*	00000000 delay
00000000         *UND*	00000000 F_CPU_ACTUAL
00000000 g     F .text.mdio_read	00000030 mdio_read
00000000 g     F .text.mdio_write	00000034 mdio_write
00000000 g     F .text.driver_is_unknown	00000010 driver_is_unknown
00000000 g     F .text.driver_is_link_state_detectable	00000004 driver_is_link_state_detectable
00000000 g     F .text.driver_get_system_mac	00000004 driver_get_system_mac
00000000         *UND*	00000000 qnethernet_hal_get_system_mac_address
00000000 g     F .text.driver_is_mac_settable	00000004 driver_is_mac_settable
00000000 g     F .text.driver_set_mac	00000038 driver_set_mac
00000000 g     F .text.driver_has_hardware	00000034 driver_has_hardware
00000000 g     F .text.driver_set_chip_select_pin	00000002 driver_set_chip_select_pin
00000000 g     F .text.driver_init	000001f0 driver_init
00000000         *UND*	00000000 memset
00000000         *UND*	00000000 _VectorsRam
00000000 g     F .text.driver_deinit	00000002 driver_deinit
00000000 g     F .text.driver_proc_input	000001d8 driver_proc_input
00000000         *UND*	00000000 pbuf_alloc
00000000         *UND*	00000000 pbuf_take
00000000         *UND*	00000000 pbuf_free
00000000         *UND*	00000000 netif_set_link_up
00000000         *UND*	00000000 netif_set_link_down
00000000 g     F .text.driver_poll	000000e0 driver_poll
00000000 g     F .text.driver_link_speed	00000014 driver_link_speed
00000000 g     F .text.driver_link_is_full_duplex	0000000c driver_link_is_full_duplex
00000000 g     F .text.driver_link_is_crossover	0000000c driver_link_is_crossover
00000000 g     F .text.driver_output	00000088 driver_output
00000000         *UND*	00000000 pbuf_copy_partial
00000000 g     F .text.driver_set_incoming_mac_address_allowed	00000110 driver_set_incoming_mac_address_allowed


Contents of section .text.enet_isr:
 0000 074b5a68 920100d4 70474ff0 0070054a  .KZh....pGO..p.J
 0010 00215860 bff35b8f 1170bff3 5b8f7047  .!X`..[..p..[.pG
 0020 00802d40 00000000                    ..-@....        
Contents of section .text.init_phy.part.0:
 0000 62494cf2 0f00624a 38b5cb6e 4ff48034  bIL...bJ8..nO..4
 0010 43f44063 cb664ff4 80535e49 c2f8e440  C.@c.fO..S^I...@
 0020 c2f8e800 c2f8e410 c2f8e830 d2f8e030  ...........0...0
 0030 002bfbda 58484ff4 80345849 4ff22805  .+..XHO..4XIO.(.
 0040 c2f8e840 4268564b 1140564c 43f2e902  ...@BhVK.@VLC...
 0050 41f40031 41603820 0521c3f8 7c23c3f8  A..1A`8 .!..|#..
 0060 8423c3f8 80534ff4 8045c3f8 9823c3f8  .#...SO..E...#..
 0070 6803c3f8 64034ff6 2900c3f8 7811c3f8  h...d.O.)...x...
 0080 74114ff4 00416268 42f44042 62600022  t.O..AbhB.@Bb`."
 0090 c4f88810 c4f88450 c3f8a803 4bf2e900  .......P....K...
 00a0 c3f8a403 0220c3f8 b821c3f8 b4213e4a  ..... ...!...!>J
 00b0 10633122 3220c3f8 94231622 c3f8a421  .c1"2 ...#."...!
 00c0 03f56023 12225a64 c4f88410 fff7feff  ..`#."Zd........
 00d0 3649374a c4f88850 364b4868 1268a3fb  6I7J...P6KHh.h..
 00e0 0232920c 02eb8202 02eb8202 4b681b1a  .2..........Kh..
 00f0 9a42fbd8 2b4b4ff4 80420220 c3f88420  .B..+KO..B. ... 
 0100 fff7feff 2c4a4ff4 00012c4b 51601364  ....,JO...,KQ`.d
 0110 53681902 fcd54ff4 00012948 264b5160  Sh....O...)H&KQ`
 0120 51601064 5a681202 fcd51a6c 4ff40001  Q`.dZh.....lO...
 0130 92b25960 b2f5207f 1ad01a4c 16496368  ..Y`.. ....L.Ich
 0140 134823f4 4043114a 63604ff4 80344b68  .H#.@C.Jc`O..4Kh
 0150 23f40033 4b600121 1a4bc0f8 e440c0f8  #..3K`.!.K...@..
 0160 e030d36e 23f44063 d366174b 197038bd  .0.n#.@c.f.K.p8.
 0170 1648114a 59601864 53681b02 fcd54ff4  .H.JY`.dSh....O.
 0180 00030321 5360104b 197038bd 00c00f40  ...!S`.K.p8....@
 0190 00800d40 01202000 00c00a40 ffdf7dff  ...@.  ....@..}.
 01a0 00801f40 00400042 00841f40 001000e0  ...@.@.B...@....
 01b0 00000000 83de1b43 00802d40 80026250  .......C..-@..bP
 01c0 00006260 01100100 00000000 81005e50  ..b`..........^P
Contents of section .text.mdio_read:
 0000 8004094a 094b4ff4 000100f4 f8005960  ...J.KO.......Y`
 0010 02431a64 5a681202 fcd5186c 4ff40002  .C.dZh.....lO...
 0020 80b25a60 704700bf 00000260 00802d40  ..Z`pG.....`..-@
Contents of section .text.mdio_write:
 0000 80040a4b 0a4a00f4 f8000143 10b40b43  ...K.J.....C...C
 0010 4ff40004 54601364 53681b02 fcd54ff4  O...T`.dSh....O.
 0020 00035df8 044b5360 704700bf 00000250  ..]..KS`pG.....P
 0030 00802d40                             ..-@            
Contents of section .text.driver_is_unknown:
 0000 024b1878 b0fa80f0 40097047 00000000  .K.x....@.pG....
Contents of section .text.driver_is_link_state_detectable:
 0000 01207047                             . pG            
Contents of section .text.driver_get_system_mac:
 0000 fff7febf                             ....            
Contents of section .text.driver_is_mac_settable:
 0000 01207047                             . pG            
Contents of section .text.driver_set_mac:
 0000 0b4bdb6e 13f4406f 10d072b6 036848f6  .K.n..@o..r..hH.
 0010 08020849 1bbac1f8 e4304379 00791b04  ...I.....0Cy.y..
 0020 43ea0063 1a43c1f8 e82062b6 704700bf  C..c.C... b.pG..
 0030 00c00f40 00802d40                    ...@..-@        
Contents of section .text.driver_has_hardware:
 0000 10b50b4c 20780128 04d0831e 022b03d8  ...L x.(.....+..
 0010 012010bd 002010bd 18b10138 18bf0120  . ... .....8... 
 0020 10bdfff7 feff2078 013818bf 0120f7e7  ...... x.8... ..
 0030 00000000                             ....            
Contents of section .text.driver_set_chip_select_pin:
 0000 704700bf                             pG..            
Contents of section .text.driver_init:
 0000 f8b56c4d 2b78042b 00f0d280 13f0fd0f  ..lM+x.+........
 0010 044603d0 032b06d0 0020f8bd fff7feff  .F...+... ......
 0020 2b78032b f8d1644a 4bf2e901 634ec2f8  +x.+..dJK...cN..
 0030 7c13c2f8 80133046 c2f88413 c2f89813  |.....0F........
 0040 c2f88813 c2f88c13 c2f89013 c2f88c31  ...............1
 0050 5b49c2f8 9031c2f8 a831c2f8 9431c2f8  [I...1...1...1..
 0060 a031c2f8 9831c2f8 9c310123 a022cb62  .1...1...1.#.".b
 0070 4b638b63 cb630b64 0021fff7 feffa022  Kc.c.c.d.!....."
 0080 00215048 fff7feff 4f4a06f1 a00c3346  .!PH....OJ....3F
 0090 4ff40040 80215a60 203323f8 1e0c02f5  O..@.!Z` 3#.....
 00a0 c06223f8 161c6345 f5d1b6f8 82304ff4  .b#...cE.....0O.
 00b0 8060444f 4ff4b041 43f40053 434a07f1  .`DOO..AC..SCJ..
 00c0 a00ca6f8 82303b46 5a602033 23f81e0c  .....0;FZ` 3#...
 00d0 02f5c062 23f8161c 6345f5d1 b7f88230  ...b#...cE.....0
 00e0 00223b49 43f40053 a7f88230 394b9a60  .";IC..S...09K.`
 00f0 c3f88410 4ff48271 c3f8c410 1921c3f8  ....O..q.....!..
 0100 c011c721 c3f8c411 4ff48071 c3f84411  ...!....O..q..D.
 0110 4ff4c061 c3f89021 c3f88061 c3f88471  O..a...!...a...q
 0120 c3f88811 c3f80021 c3f8f020 216809ba  .......!... !h..
 0130 c3f8e410 61792079 090441ea 006148f6  ....ay y..A..aH.
 0140 08000843 2449c3f8 e8004ff0 0070c3f8  ...C$I....O..p..
 0150 ec10c3f8 94212149 5a66c3f8 1821c3f8  .....!!IZf...!..
 0160 1c21c3f8 2021c3f8 24211d4a 9860c1f8  .!.. !..$!.J.`..
 0170 08224ff0 e0224ff4 80211a48 c2f80c11  ."O.."O..!.H....
 0180 4ff00101 184a5860 bff35b8f d2e84f0f  O....JX`..[...O.
 0190 c2e8441f 002cf9d1 4ff08072 13480421  ..D..,..O..r.H.!
 01a0 bff35b8f 58620120 1a615a61 2970f8bd  ..[.Xb. .aZa)p..
 01b0 0120f8bd 00000000 00801f40 00000000  . .........@....
 01c0 00841f40 00000000 001e0000 00000000  ...@............
 01d0 24d1f245 00802d40 14000100 00000000  $..E..-@........
 01e0 00000000 0080ff7f 00000000 12010070  ...............p
Contents of section .text.driver_deinit:
 0000 704700bf                             pG..            
Contents of section .text.driver_proc_input:
 0000 2de9f047 684d0746 2c68002c 73d1674a  -..GhM.F,h.,s.gJ
 0010 4ff00101 bff35b8f d2e84f3f c2e8401f  O.....[...O?..@.
 0020 0028f9d1 dbb2bff3 5b8f002b 50d10a25  .(......[..+P..%
 0030 5f4edff8 8091dff8 98813268 144606e0  _N........2h.F..
 0040 63882034 980448bf 5a4ca242 40d06388  c. 4..H.ZL.B@.c.
 0050 1904f5d4 53889b04 47d42032 60883260  ....S...G. 2`.2`
 0060 10f03700 36d12188 4ff4c172 89b2fff7  ..7.6.!.O..r....
 0070 feff8246 002864d0 02896168 1f3221f0  ...F.(d...ah.2!.
 0080 1f0322f0 1f020a44 bff34f8f 4ff0e021  .."....D..O.O..!
 0090 c1f85c3f 20339a42 fad8bff3 4f8fbff3  ..\? 3.B....O...
 00a0 6f8f6168 5046baf8 0820fff7 feff6388  o.ahPF... ....c.
 00b0 4ff08070 fa6803f4 00533946 43f40043  O..p.h...S9FC..C
 00c0 6380c8f8 10005046 904780b9 013db4d1  c.....PF.G...=..
 00d0 bde8f087 63884ff0 807203f4 005343f4  ....c.O..r...SC.
 00e0 00436380 c8f81020 f0e74a46 b6e75046  .Cc.... ..JF..PF
 00f0 fff7feff eae7304a 1278042a 1ed1012c  ......0J.x.*...,
 0100 2ad0022c 3cd02d4b 1c7897f8 3d30c3f3  *..,<.-K.x..=0..
 0110 8003a342 12d0002c 3fd0294b 3846294a  ...B...,?.)K8F)J
 0120 1b88c3f3 40011170 c3f38001 264ac3f3  ....@..p....&J..
 0130 80331170 254a1370 fff7feff 00242c60  .3.p%J.p.....$,`
 0140 65e76388 03f40053 43f40043 63804ff0  e.c....SC..Cc.O.
 0150 8073c8f8 1030b9e7 1d4a5168 0e02eed5  .s...0...JQh....
 0160 136c4ff4 000103f0 04035160 002b134b  .lO.......Q`.+.K
 0170 14bf0124 00241c70 c7d0164b 51601364  ...$.$.p...KQ`.d
 0180 134b5a68 14020cd5 196c0d4a 11804ff4  .KZh.....l.J..O.
 0190 00010a4a 59601478 b7e73846 fff7feff  ...JY`.x..8F....
 01a0 cde70224 cbe700bf 00000000 00000000  ...$............
 01b0 00000000 00000000 00000000 00000000  ................
 01c0 00000000 00000000 00000000 00000000  ................
 01d0 00802d40 00004260                    ..-@..B`        
Contents of section .text.driver_poll:
 0000 38b52d4b 2d4d1a78 2b68042a 26d1012b  8.-K-M.x+h.*&..+
 0010 27dd022b 27d12a4b 5a681202 2ad5196c  '..+'.*KZh..*..l
 0020 284a1180 4ff40001 274a5960 147890f8  (J..O...'JY`.x..
 0030 3d30c3f3 8003a342 10d0bcb1 214b234a  =0.....B....!K#J
 0040 1b88c3f3 40011170 c3f38001 204ac3f3  ....@..p.... J..
 0050 80331170 1f4a1370 fff7feff 00242c60  .3.p.J.p.....$,`
 0060 38bd002b 08da184b 1c78e0e7 fff7feff  8..+...K.x......
 0070 2c6038bd 0224f2e7 012b05d0 104b4ff4  ,`8..$...+...KO.
 0080 0001154a 59601a64 0d4b5a68 110210d5  ...JY`.d.KZh....
 0090 1a6c4ff4 000102f0 04025960 002a0a4a  .lO.......Y`.*.J
 00a0 14bf0124 00241470 c1d00c4a 59601a64  ...$.$.p...JY`.d
 00b0 b1e70124 d3e700bf 00000000 00000000  ...$............
 00c0 00802d40 00000000 00000000 00000000  ..-@............
 00d0 00000000 00000000 00000660 00004260  ...........`..B`
Contents of section .text.driver_link_speed:
 0000 034b1b78 002b14bf 0a206420 704700bf  .K.x.+... d pG..
 0010 00000000                             ....            
Contents of section .text.driver_link_is_full_duplex:
 0000 014b1878 704700bf 00000000           .K.xpG......    
Contents of section .text.driver_link_is_crossover:
 0000 014b1878 704700bf 00000000           .K.xpG......    
Contents of section .text.driver_output:
 0000 38b51e4d 2c686288 130431d4 61680023  8..M,hb...1.ah.#
 0010 0289fff7 feff70b3 00f11f02 616822f0  ......p.....ah".
 0020 1f0221f0 1f030a44 bff34f8f 4ff0e021  ..!....D..O.O..!
 0030 c1f8703f 20339a42 fad8bff3 4f8fbff3  ..p? 3.B....O...
 0040 6f8f2080 4ff08071 63880d4a 03f40053  o. .O..qc..J...S
 0050 43f40c43 63805161 608810f4 005003d0  C..Cc.Qa`....P..
 0060 084b0020 2b6038bd 2b682033 2b6038bd  .K. +`8.+h 3+`8.
 0070 6ff00600 38bd6ff0 010038bd 00000000  o...8.o...8.....
 0080 00802d40 00000000                    ..-@....        
Contents of section .text.driver_set_incoming_mac_address_allowed:
 0000 002858d0 3a4a2de9 f0410378 8646394f  .(X.:J-..A.x.F9O
 0010 03f00100 384d394e 00283948 394c18bf  ....8M9N.(9H9L..
 0020 1746394a 08bf8046 0ef10500 18bf9046  .F9J...F.......F
 0030 364a18bf 154602f1 040218bf 16464ff0  6J...F.......FO.
 0040 ff325a40 4ff0080c 42f30003 bcf1010c  .2Z@O...B.......
 0050 03ea0403 83ea5202 f6d17045 02d01ef8  ......R...pE....
 0060 013feee7 c2f38460 0123002a 03fa00f3  .?.....`.#.*....
 0070 09db09b3 32681a42 0fd13268 08461343  ....2h.B..2h.F.C
 0080 3360bde8 f08131b3 2a681a42 0dd03a68  3`....1.*h.B..:h
 0090 08461a43 3a60bde8 f081d8f8 00200846  .F.C:`....... .F
 00a0 1a43c8f8 0020bde8 f0812a68 08461343  .C... ....*h.F.C
 00b0 2b60bde8 f0817047 d8f80020 316862ea  +`....pG... 1hb.
 00c0 03020a40 3260d8f8 00201342 0cbf0120  ...@2`... .B... 
 00d0 0020bde8 f0813a68 296862ea 03020a40  . ....:h)hb....@
 00e0 2a603a68 13420cbf 01200020 bde8f081  *`:h.B... . ....
 00f0 00000000 00000000 18812d40 1c812d40  ..........-@..-@
 0100 00000000 2083b8ed 00000000 20812d40  .... ....... .-@
Contents of section .data.s_pRxBD:
 0000 00000000                             ....            
Contents of section .data.s_pTxBD:
 0000 00000000                             ....            
Contents of section .dmabuffers:
 0000 00000000 00000000 00000000 00000000  ................
 0010 00000000 00000000 00000000 00000000  ................
 0020 00000000 00000000 00000000 00000000  ................
 0030 00000000 00000000 00000000 00000000  ................
 0040 00000000 00000000 00000000 00000000  ................
 0050 00000000 00000000 00000000 00000000  ................
 0060 00000000 00000000 00000000 00000000  ................
 0070 00000000 00000000 00000000 00000000  ................
 0080 00000000 00000000 00000000 00000000  ................
 0090 00000000 00000000 00000000 00000000  ................
 00a0 00000000 00000000 00000000 00000000  ................
 00b0 00000000 00000000 00000000 00000000  ................
 00c0 00000000 00000000 00000000 00000000  ................
 00d0 00000000 00000000 00000000 00000000  ................
 00e0 00000000 00000000 00000000 00000000  ................
 00f0 00000000 00000000 00000000 00000000  ................
 0100 00000000 00000000 00000000 00000000  ................
 0110 00000000 00000000 00000000 00000000  ................
 0120 00000000 00000000 00000000 00000000  ................
 0130 00000000 00000000 00000000 00000000  ................
 0140 00000000 00000000 00000000 00000000  ................
 0150 00000000 00000000 00000000 00000000  ................
 0160 00000000 00000000 00000000 00000000  ................
 0170 00000000 00000000 00000000 00000000  ................
 0180 00000000 00000000 00000000 00000000  ................
 0190 00000000 00000000 00000000 00000000  ................
 01a0 00000000 00000000 00000000 00000000  ................
 01b0 00000000 00000000 00000000 00000000  ................
 01c0 00000000 00000000 00000000 00000000  ................
 01d0 00000000 00000000 00000000 00000000  ................
 01e0 00000000 00000000 00000000 00000000  ................
 01f0 00000000 00000000 00000000 00000000  ................
 0200 00000000 00000000 00000000 00000000  ................
 0210 00000000 00000000 00000000 00000000  ................
 0220 00000000 00000000 00000000 00000000  ................
 0230 00000000 00000000 00000000 00000000  ................
 0240 00000000 00000000 00000000 00000000  ................
 0250 00000000 00000000 00000000 00000000  ................
 0260 00000000 00000000 00000000 00000000  ................
 0270 00000000 00000000 00000000 00000000  ................
 0280 00000000 00000000 00000000 00000000  ................
 0290 00000000 00000000 00000000 00000000  ................
 02a0 00000000 00000000 00000000 00000000  ................
 02b0 00000000 00000000 00000000 00000000  ................
 02c0 00000000 00000000 00000000 00000000  ................
 02d0 00000000 00000000 00000000 00000000  ................
 02e0 00000000 00000000 00000000 00000000  ................
 02f0 00000000 00000000 00000000 00000000  ................
 0300 00000000 00000000 00000000 00000000  ................
 0310 00000000 00000000 00000000 00000000  ................
 0320 00000000 00000000 00000000 00000000  ................
 0330 00000000 00000000 00000000 00000000  ................
 0340 00000000 00000000 00000000 00000000  ................
 0350 00000000 00000000 00000000 00000000  ................
 0360 00000000 00000000 00000000 00000000  ................
 0370 00000000 00000000 00000000 00000000  ................
 0380 00000000 00000000 00000000 00000000  ................
 0390 00000000 00000000 00000000 00000000  ................
 03a0 00000000 00000000 00000000 00000000  ................
 03b0 00000000 00000000 00000000 00000000  ................
 03c0 00000000 00000000 00000000 00000000  ................
 03d0 00000000 00000000 00000000 00000000  ................
 03e0 00000000 00000000 00000000 00000000  ................
 03f0 00000000 00000000 00000000 00000000  ................
 0400 00000000 00000000 00000000 00000000  ................
 0410 00000000 00000000 00000000 00000000  ................
 0420 00000000 00000000 00000000 00000000  ................
 0430 00000000 00000000 00000000 00000000  ................
 0440 00000000 00000000 00000000 00000000  ................
 0450 00000000 00000000 00000000 00000000  ................
 0460 00000000 00000000 00000000 00000000  ................
 0470 00000000 00000000 00000000 00000000  ................
 0480 00000000 00000000 00000000 00000000  ................
 0490 00000000 00000000 00000000 00000000  ................
 04a0 00000000 00000000 00000000 00000000  ................
 04b0 00000000 00000000 00000000 00000000  ................
 04c0 00000000 00000000 00000000 00000000  ................
 04d0 00000000 00000000 00000000 00000000  ................
 04e0 00000000 00000000 00000000 00000000  ................
 04f0 00000000 00000000 00000000 00000000  ................
 0500 00000000 00000000 00000000 00000000  ................
 0510 00000000 00000000 00000000 00000000  ................
 0520 00000000 00000000 00000000 00000000  ................
 0530 00000000 00000000 00000000 00000000  ................
 0540 00000000 00000000 00000000 00000000  ................
 0550 00000000 00000000 00000000 00000000  ................
 0560 00000000 00000000 00000000 00000000  ................
 0570 00000000 00000000 00000000 00000000  ................
 0580 00000000 00000000 00000000 00000000  ................
 0590 00000000 00000000 00000000 00000000  ................
 05a0 00000000 00000000 00000000 00000000  ................
 05b0 00000000 00000000 00000000 00000000  ................
 05c0 00000000 00000000 00000000 00000000  ................
 05d0 00000000 00000000 00000000 00000000  ................
 05e0 00000000 00000000 00000000 00000000  ................
 05f0 00000000 00000000 00000000 00000000  ................
 0600 00000000 00000000 00000000 00000000  ................
 0610 00000000 00000000 00000000 00000000  ................
 0620 00000000 00000000 00000000 00000000  ................
 0630 00000000 00000000 00000000 00000000  ................
 0640 00000000 00000000 00000000 00000000  ................
 0650 00000000 00000000 00000000 00000000  ................
 0660 00000000 00000000 00000000 00000000  ................
 0670 00000000 00000000 00000000 00000000  ................
 0680 00000000 00000000 00000000 00000000  ................
 0690 00000000 00000000 00000000 00000000  ................
 06a0 00000000 00000000 00000000 00000000  ................
 06b0 00000000 00000000 00000000 00000000  ................
 06c0 00000000 00000000 00000000 00000000  ................
 06d0 00000000 00000000 00000000 00000000  ................
 06e0 00000000 00000000 00000000 00000000  ................
 06f0 00000000 00000000 00000000 00000000  ................
 0700 00000000 00000000 00000000 00000000  ................
 0710 00000000 00000000 00000000 00000000  ................
 0720 00000000 00000000 00000000 00000000  ................
 0730 00000000 00000000 00000000 00000000  ................
 0740 00000000 00000000 00000000 00000000  ................
 0750 00000000 00000000 00000000 00000000  ................
 0760 00000000 00000000 00000000 00000000  ................
 0770 00000000 00000000 00000000 00000000  ................
 0780 00000000 00000000 00000000 00000000  ................
 0790 00000000 00000000 00000000 00000000  ................
 07a0 00000000 00000000 00000000 00000000  ................
 07b0 00000000 00000000 00000000 00000000  ................
 07c0 00000000 00000000 00000000 00000000  ................
 07d0 00000000 00000000 00000000 00000000  ................
 07e0 00000000 00000000 00000000 00000000  ................
 07f0 00000000 00000000 00000000 00000000  ................
 0800 00000000 00000000 00000000 00000000  ................
 0810 00000000 00000000 00000000 00000000  ................
 0820 00000000 00000000 00000000 00000000  ................
 0830 00000000 00000000 00000000 00000000  ................
 0840 00000000 00000000 00000000 00000000  ................
 0850 00000000 00000000 00000000 00000000  ................
 0860 00000000 00000000 00000000 00000000  ................
 0870 00000000 00000000 00000000 00000000  ................
 0880 00000000 00000000 00000000 00000000  ................
 0890 00000000 00000000 00000000 00000000  ................
 08a0 00000000 00000000 00000000 00000000  ................
 08b0 00000000 00000000 00000000 00000000  ................
 08c0 00000000 00000000 00000000 00000000  ................
 08d0 00000000 00000000 00000000 00000000  ................
 08e0 00000000 00000000 00000000 00000000  ................
 08f0 00000000 00000000 00000000 00000000  ................
 0900 00000000 00000000 00000000 00000000  ................
 0910 00000000 00000000 00000000 00000000  ................
 0920 00000000 00000000 00000000 00000000  ................
 0930 00000000 00000000 00000000 00000000  ................
 0940 00000000 00000000 00000000 00000000  ................
 0950 00000000 00000000 00000000 00000000  ................
 0960 00000000 00000000 00000000 00000000  ................
 0970 00000000 00000000 00000000 00000000  ................
 0980 00000000 00000000 00000000 00000000  ................
 0990 00000000 00000000 00000000 00000000  ................
 09a0 00000000 00000000 00000000 00000000  ................
 09b0 00000000 00000000 00000000 00000000  ................
 09c0 00000000 00000000 00000000 00000000  ................
 09d0 00000000 00000000 00000000 00000000  ................
 09e0 00000000 00000000 00000000 00000000  ................
 09f0 00000000 00000000 00000000 00000000  ................
 0a00 00000000 00000000 00000000 00000000  ................
 0a10 00000000 00000000 00000000 00000000  ................
 0a20 00000000 00000000 00000000 00000000  ................
 0a30 00000000 00000000 00000000 00000000  ................
 0a40 00000000 00000000 00000000 00000000  ................
 0a50 00000000 00000000 00000000 00000000  ................
 0a60 00000000 00000000 00000000 00000000  ................
 0a70 00000000 00000000 00000000 00000000  ................
 0a80 00000000 00000000 00000000 00000000  ................
 0a90 00000000 00000000 00000000 00000000  ................
 0aa0 00000000 00000000 00000000 00000000  ................
 0ab0 00000000 00000000 00000000 00000000  ................
 0ac0 00000000 00000000 00000000 00000000  ................
 0ad0 00000000 00000000 00000000 00000000  ................
 0ae0 00000000 00000000 00000000 00000000  ................
 0af0 00000000 00000000 00000000 00000000  ................
 0b00 00000000 00000000 00000000 00000000  ................
 0b10 00000000 00000000 00000000 00000000  ................
 0b20 00000000 00000000 00000000 00000000  ................
 0b30 00000000 00000000 00000000 00000000  ................
 0b40 00000000 00000000 00000000 00000000  ................
 0b50 00000000 00000000 00000000 00000000  ................
 0b60 00000000 00000000 00000000 00000000  ................
 0b70 00000000 00000000 00000000 00000000  ................
 0b80 00000000 00000000 00000000 00000000  ................
 0b90 00000000 00000000 00000000 00000000  ................
 0ba0 00000000 00000000 00000000 00000000  ................
 0bb0 00000000 00000000 00000000 00000000  ................
 0bc0 00000000 00000000 00000000 00000000  ................
 0bd0 00000000 00000000 00000000 00000000  ................
 0be0 00000000 00000000 00000000 00000000  ................
 0bf0 00000000 00000000 00000000 00000000  ................
 0c00 00000000 00000000 00000000 00000000  ................
 0c10 00000000 00000000 00000000 00000000  ................
 0c20 00000000 00000000 00000000 00000000  ................
 0c30 00000000 00000000 00000000 00000000  ................
 0c40 00000000 00000000 00000000 00000000  ................
 0c50 00000000 00000000 00000000 00000000  ................
 0c60 00000000 00000000 00000000 00000000  ................
 0c70 00000000 00000000 00000000 00000000  ................
 0c80 00000000 00000000 00000000 00000000  ................
 0c90 00000000 00000000 00000000 00000000  ................
 0ca0 00000000 00000000 00000000 00000000  ................
 0cb0 00000000 00000000 00000000 00000000  ................
 0cc0 00000000 00000000 00000000 00000000  ................
 0cd0 00000000 00000000 00000000 00000000  ................
 0ce0 00000000 00000000 00000000 00000000  ................
 0cf0 00000000 00000000 00000000 00000000  ................
 0d00 00000000 00000000 00000000 00000000  ................
 0d10 00000000 00000000 00000000 00000000  ................
 0d20 00000000 00000000 00000000 00000000  ................
 0d30 00000000 00000000 00000000 00000000  ................
 0d40 00000000 00000000 00000000 00000000  ................
 0d50 00000000 00000000 00000000 00000000  ................
 0d60 00000000 00000000 00000000 00000000  ................
 0d70 00000000 00000000 00000000 00000000  ................
 0d80 00000000 00000000 00000000 00000000  ................
 0d90 00000000 00000000 00000000 00000000  ................
 0da0 00000000 00000000 00000000 00000000  ................
 0db0 00000000 00000000 00000000 00000000  ................
 0dc0 00000000 00000000 00000000 00000000  ................
 0dd0 00000000 00000000 00000000 00000000  ................
 0de0 00000000 00000000 00000000 00000000  ................
 0df0 00000000 00000000 00000000 00000000  ................
 0e00 00000000 00000000 00000000 00000000  ................
 0e10 00000000 00000000 00000000 00000000  ................
 0e20 00000000 00000000 00000000 00000000  ................
 0e30 00000000 00000000 00000000 00000000  ................
 0e40 00000000 00000000 00000000 00000000  ................
 0e50 00000000 00000000 00000000 00000000  ................
 0e60 00000000 00000000 00000000 00000000  ................
 0e70 00000000 00000000 00000000 00000000  ................
 0e80 00000000 00000000 00000000 00000000  ................
 0e90 00000000 00000000 00000000 00000000  ................
 0ea0 00000000 00000000 00000000 00000000  ................
 0eb0 00000000 00000000 00000000 00000000  ................
 0ec0 00000000 00000000 00000000 00000000  ................
 0ed0 00000000 00000000 00000000 00000000  ................
 0ee0 00000000 00000000 00000000 00000000  ................
 0ef0 00000000 00000000 00000000 00000000  ................
 0f00 00000000 00000000 00000000 00000000  ................
 0f10 00000000 00000000 00000000 00000000  ................
 0f20 00000000 00000000 00000000 00000000  ................
 0f30 00000000 00000000 00000000 00000000  ................
 0f40 00000000 00000000 00000000 00000000  ................
 0f50 00000000 00000000 00000000 00000000  ................
 0f60 00000000 00000000 00000000 00000000  ................
 0f70 00000000 00000000 00000000 00000000  ................
 0f80 00000000 00000000 00000000 00000000  ................
 0f90 00000000 00000000 00000000 00000000  ................
 0fa0 00000000 00000000 00000000 00000000  ................
 0fb0 00000000 00000000 00000000 00000000  ................
 0fc0 00000000 00000000 00000000 00000000  ................
 0fd0 00000000 00000000 00000000 00000000  ................
 0fe0 00000000 00000000 00000000 00000000  ................
 0ff0 00000000 00000000 00000000 00000000  ................
 1000 00000000 00000000 00000000 00000000  ................
 1010 00000000 00000000 00000000 00000000  ................
 1020 00000000 00000000 00000000 00000000  ................
 1030 00000000 00000000 00000000 00000000  ................
 1040 00000000 00000000 00000000 00000000  ................
 1050 00000000 00000000 00000000 00000000  ................
 1060 00000000 00000000 00000000 00000000  ................
 1070 00000000 00000000 00000000 00000000  ................
 1080 00000000 00000000 00000000 00000000  ................
 1090 00000000 00000000 00000000 00000000  ................
 10a0 00000000 00000000 00000000 00000000  ................
 10b0 00000000 00000000 00000000 00000000  ................
 10c0 00000000 00000000 00000000 00000000  ................
 10d0 00000000 00000000 00000000 00000000  ................
 10e0 00000000 00000000 00000000 00000000  ................
 10f0 00000000 00000000 00000000 00000000  ................
 1100 00000000 00000000 00000000 00000000  ................
 1110 00000000 00000000 00000000 00000000  ................
 1120 00000000 00000000 00000000 00000000  ................
 1130 00000000 00000000 00000000 00000000  ................
 1140 00000000 00000000 00000000 00000000  ................
 1150 00000000 00000000 00000000 00000000  ................
 1160 00000000 00000000 00000000 00000000  ................
 1170 00000000 00000000 00000000 00000000  ................
 1180 00000000 00000000 00000000 00000000  ................
 1190 00000000 00000000 00000000 00000000  ................
 11a0 00000000 00000000 00000000 00000000  ................
 11b0 00000000 00000000 00000000 00000000  ................
 11c0 00000000 00000000 00000000 00000000  ................
 11d0 00000000 00000000 00000000 00000000  ................
 11e0 00000000 00000000 00000000 00000000  ................
 11f0 00000000 00000000 00000000 00000000  ................
 1200 00000000 00000000 00000000 00000000  ................
 1210 00000000 00000000 00000000 00000000  ................
 1220 00000000 00000000 00000000 00000000  ................
 1230 00000000 00000000 00000000 00000000  ................
 1240 00000000 00000000 00000000 00000000  ................
 1250 00000000 00000000 00000000 00000000  ................
 1260 00000000 00000000 00000000 00000000  ................
 1270 00000000 00000000 00000000 00000000  ................
 1280 00000000 00000000 00000000 00000000  ................
 1290 00000000 00000000 00000000 00000000  ................
 12a0 00000000 00000000 00000000 00000000  ................
 12b0 00000000 00000000 00000000 00000000  ................
 12c0 00000000 00000000 00000000 00000000  ................
 12d0 00000000 00000000 00000000 00000000  ................
 12e0 00000000 00000000 00000000 00000000  ................
 12f0 00000000 00000000 00000000 00000000  ................
 1300 00000000 00000000 00000000 00000000  ................
 1310 00000000 00000000 00000000 00000000  ................
 1320 00000000 00000000 00000000 00000000  ................
 1330 00000000 00000000 00000000 00000000  ................
 1340 00000000 00000000 00000000 00000000  ................
 1350 00000000 00000000 00000000 00000000  ................
 1360 00000000 00000000 00000000 00000000  ................
 1370 00000000 00000000 00000000 00000000  ................
 1380 00000000 00000000 00000000 00000000  ................
 1390 00000000 00000000 00000000 00000000  ................
 13a0 00000000 00000000 00000000 00000000  ................
 13b0 00000000 00000000 00000000 00000000  ................
 13c0 00000000 00000000 00000000 00000000  ................
 13d0 00000000 00000000 00000000 00000000  ................
 13e0 00000000 00000000 00000000 00000000  ................
 13f0 00000000 00000000 00000000 00000000  ................
 1400 00000000 00000000 00000000 00000000  ................
 1410 00000000 00000000 00000000 00000000  ................
 1420 00000000 00000000 00000000 00000000  ................
 1430 00000000 00000000 00000000 00000000  ................
 1440 00000000 00000000 00000000 00000000  ................
 1450 00000000 00000000 00000000 00000000  ................
 1460 00000000 00000000 00000000 00000000  ................
 1470 00000000 00000000 00000000 00000000  ................
 1480 00000000 00000000 00000000 00000000  ................
 1490 00000000 00000000 00000000 00000000  ................
 14a0 00000000 00000000 00000000 00000000  ................
 14b0 00000000 00000000 00000000 00000000  ................
 14c0 00000000 00000000 00000000 00000000  ................
 14d0 00000000 00000000 00000000 00000000  ................
 14e0 00000000 00000000 00000000 00000000  ................
 14f0 00000000 00000000 00000000 00000000  ................
 1500 00000000 00000000 00000000 00000000  ................
 1510 00000000 00000000 00000000 00000000  ................
 1520 00000000 00000000 00000000 00000000  ................
 1530 00000000 00000000 00000000 00000000  ................
 1540 00000000 00000000 00000000 00000000  ................
 1550 00000000 00000000 00000000 00000000  ................
 1560 00000000 00000000 00000000 00000000  ................
 1570 00000000 00000000 00000000 00000000  ................
 1580 00000000 00000000 00000000 00000000  ................
 1590 00000000 00000000 00000000 00000000  ................
 15a0 00000000 00000000 00000000 00000000  ................
 15b0 00000000 00000000 00000000 00000000  ................
 15c0 00000000 00000000 00000000 00000000  ................
 15d0 00000000 00000000 00000000 00000000  ................
 15e0 00000000 00000000 00000000 00000000  ................
 15f0 00000000 00000000 00000000 00000000  ................
 1600 00000000 00000000 00000000 00000000  ................
 1610 00000000 00000000 00000000 00000000  ................
 1620 00000000 00000000 00000000 00000000  ................
 1630 00000000 00000000 00000000 00000000  ................
 1640 00000000 00000000 00000000 00000000  ................
 1650 00000000 00000000 00000000 00000000  ................
 1660 00000000 00000000 00000000 00000000  ................
 1670 00000000 00000000 00000000 00000000  ................
 1680 00000000 00000000 00000000 00000000  ................
 1690 00000000 00000000 00000000 00000000  ................
 16a0 00000000 00000000 00000000 00000000  ................
 16b0 00000000 00000000 00000000 00000000  ................
 16c0 00000000 00000000 00000000 00000000  ................
 16d0 00000000 00000000 00000000 00000000  ................
 16e0 00000000 00000000 00000000 00000000  ................
 16f0 00000000 00000000 00000000 00000000  ................
 1700 00000000 00000000 00000000 00000000  ................
 1710 00000000 00000000 00000000 00000000  ................
 1720 00000000 00000000 00000000 00000000  ................
 1730 00000000 00000000 00000000 00000000  ................
 1740 00000000 00000000 00000000 00000000  ................
 1750 00000000 00000000 00000000 00000000  ................
 1760 00000000 00000000 00000000 00000000  ................
 1770 00000000 00000000 00000000 00000000  ................
 1780 00000000 00000000 00000000 00000000  ................
 1790 00000000 00000000 00000000 00000000  ................
 17a0 00000000 00000000 00000000 00000000  ................
 17b0 00000000 00000000 00000000 00000000  ................
 17c0 00000000 00000000 00000000 00000000  ................
 17d0 00000000 00000000 00000000 00000000  ................
 17e0 00000000 00000000 00000000 00000000  ................
 17f0 00000000 00000000 00000000 00000000  ................
 1800 00000000 00000000 00000000 00000000  ................
 1810 00000000 00000000 00000000 00000000  ................
 1820 00000000 00000000 00000000 00000000  ................
 1830 00000000 00000000 00000000 00000000  ................
 1840 00000000 00000000 00000000 00000000  ................
 1850 00000000 00000000 00000000 00000000  ................
 1860 00000000 00000000 00000000 00000000  ................
 1870 00000000 00000000 00000000 00000000  ................
 1880 00000000 00000000 00000000 00000000  ................
 1890 00000000 00000000 00000000 00000000  ................
 18a0 00000000 00000000 00000000 00000000  ................
 18b0 00000000 00000000 00000000 00000000  ................
 18c0 00000000 00000000 00000000 00000000  ................
 18d0 00000000 00000000 00000000 00000000  ................
 18e0 00000000 00000000 00000000 00000000  ................
 18f0 00000000 00000000 00000000 00000000  ................
 1900 00000000 00000000 00000000 00000000  ................
 1910 00000000 00000000 00000000 00000000  ................
 1920 00000000 00000000 00000000 00000000  ................
 1930 00000000 00000000 00000000 00000000  ................
 1940 00000000 00000000 00000000 00000000  ................
 1950 00000000 00000000 00000000 00000000  ................
 1960 00000000 00000000 00000000 00000000  ................
 1970 00000000 00000000 00000000 00000000  ................
 1980 00000000 00000000 00000000 00000000  ................
 1990 00000000 00000000 00000000 00000000  ................
 19a0 00000000 00000000 00000000 00000000  ................
 19b0 00000000 00000000 00000000 00000000  ................
 19c0 00000000 00000000 00000000 00000000  ................
 19d0 00000000 00000000 00000000 00000000  ................
 19e0 00000000 00000000 00000000 00000000  ................
 19f0 00000000 00000000 00000000 00000000  ................
 1a00 00000000 00000000 00000000 00000000  ................
 1a10 00000000 00000000 00000000 00000000  ................
 1a20 00000000 00000000 00000000 00000000  ................
 1a30 00000000 00000000 00000000 00000000  ................
 1a40 00000000 00000000 00000000 00000000  ................
 1a50 00000000 00000000 00000000 00000000  ................
 1a60 00000000 00000000 00000000 00000000  ................
 1a70 00000000 00000000 00000000 00000000  ................
 1a80 00000000 00000000 00000000 00000000  ................
 1a90 00000000 00000000 00000000 00000000  ................
 1aa0 00000000 00000000 00000000 00000000  ................
 1ab0 00000000 00000000 00000000 00000000  ................
 1ac0 00000000 00000000 00000000 00000000  ................
 1ad0 00000000 00000000 00000000 00000000  ................
 1ae0 00000000 00000000 00000000 00000000  ................
 1af0 00000000 00000000 00000000 00000000  ................
 1b00 00000000 00000000 00000000 00000000  ................
 1b10 00000000 00000000 00000000 00000000  ................
 1b20 00000000 00000000 00000000 00000000  ................
 1b30 00000000 00000000 00000000 00000000  ................
 1b40 00000000 00000000 00000000 00000000  ................
 1b50 00000000 00000000 00000000 00000000  ................
 1b60 00000000 00000000 00000000 00000000  ................
 1b70 00000000 00000000 00000000 00000000  ................
 1b80 00000000 00000000 00000000 00000000  ................
 1b90 00000000 00000000 00000000 00000000  ................
 1ba0 00000000 00000000 00000000 00000000  ................
 1bb0 00000000 00000000 00000000 00000000  ................
 1bc0 00000000 00000000 00000000 00000000  ................
 1bd0 00000000 00000000 00000000 00000000  ................
 1be0 00000000 00000000 00000000 00000000  ................
 1bf0 00000000 00000000 00000000 00000000  ................
 1c00 00000000 00000000 00000000 00000000  ................
 1c10 00000000 00000000 00000000 00000000  ................
 1c20 00000000 00000000 00000000 00000000  ................
 1c30 00000000 00000000 00000000 00000000  ................
 1c40 00000000 00000000 00000000 00000000  ................
 1c50 00000000 00000000 00000000 00000000  ................
 1c60 00000000 00000000 00000000 00000000  ................
 1c70 00000000 00000000 00000000 00000000  ................
 1c80 00000000 00000000 00000000 00000000  ................
 1c90 00000000 00000000 00000000 00000000  ................
 1ca0 00000000 00000000 00000000 00000000  ................
 1cb0 00000000 00000000 00000000 00000000  ................
 1cc0 00000000 00000000 00000000 00000000  ................
 1cd0 00000000 00000000 00000000 00000000  ................
 1ce0 00000000 00000000 00000000 00000000  ................
 1cf0 00000000 00000000 00000000 00000000  ................
 1d00 00000000 00000000 00000000 00000000  ................
 1d10 00000000 00000000 00000000 00000000  ................
 1d20 00000000 00000000 00000000 00000000  ................
 1d30 00000000 00000000 00000000 00000000  ................
 1d40 00000000 00000000 00000000 00000000  ................
 1d50 00000000 00000000 00000000 00000000  ................
 1d60 00000000 00000000 00000000 00000000  ................
 1d70 00000000 00000000 00000000 00000000  ................
 1d80 00000000 00000000 00000000 00000000  ................
 1d90 00000000 00000000 00000000 00000000  ................
 1da0 00000000 00000000 00000000 00000000  ................
 1db0 00000000 00000000 00000000 00000000  ................
 1dc0 00000000 00000000 00000000 00000000  ................
 1dd0 00000000 00000000 00000000 00000000  ................
 1de0 00000000 00000000 00000000 00000000  ................
 1df0 00000000 00000000 00000000 00000000  ................
 1e00 00000000 00000000 00000000 00000000  ................
 1e10 00000000 00000000 00000000 00000000  ................
 1e20 00000000 00000000 00000000 00000000  ................
 1e30 00000000 00000000 00000000 00000000  ................
 1e40 00000000 00000000 00000000 00000000  ................
 1e50 00000000 00000000 00000000 00000000  ................
 1e60 00000000 00000000 00000000 00000000  ................
 1e70 00000000 00000000 00000000 00000000  ................
 1e80 00000000 00000000 00000000 00000000  ................
 1e90 00000000 00000000 00000000 00000000  ................
 1ea0 00000000 00000000 00000000 00000000  ................
 1eb0 00000000 00000000 00000000 00000000  ................
 1ec0 00000000 00000000 00000000 00000000  ................
 1ed0 00000000 00000000 00000000 00000000  ................
 1ee0 00000000 00000000 00000000 00000000  ................
 1ef0 00000000 00000000 00000000 00000000  ................
 1f00 00000000 00000000 00000000 00000000  ................
 1f10 00000000 00000000 00000000 00000000  ................
 1f20 00000000 00000000 00000000 00000000  ................
 1f30 00000000 00000000 00000000 00000000  ................
 1f40 00000000 00000000 00000000 00000000  ................
 1f50 00000000 00000000 00000000 00000000  ................
 1f60 00000000 00000000 00000000 00000000  ................
 1f70 00000000 00000000 00000000 00000000  ................
 1f80 00000000 00000000 00000000 00000000  ................
 1f90 00000000 00000000 00000000 00000000  ................
 1fa0 00000000 00000000 00000000 00000000  ................
 1fb0 00000000 00000000 00000000 00000000  ................
 1fc0 00000000 00000000 00000000 00000000  ................
 1fd0 00000000 00000000 00000000 00000000  ................
 1fe0 00000000 00000000 00000000 00000000  ................
 1ff0 00000000 00000000 00000000 00000000  ................
 2000 00000000 00000000 00000000 00000000  ................
 2010 00000000 00000000 00000000 00000000  ................
 2020 00000000 00000000 00000000 00000000  ................
 2030 00000000 00000000 00000000 00000000  ................
 2040 00000000 00000000 00000000 00000000  ................
 2050 00000000 00000000 00000000 00000000  ................
 2060 00000000 00000000 00000000 00000000  ................
 2070 00000000 00000000 00000000 00000000  ................
 2080 00000000 00000000 00000000 00000000  ................
 2090 00000000 00000000 00000000 00000000  ................
 20a0 00000000 00000000 00000000 00000000  ................
 20b0 00000000 00000000 00000000 00000000  ................
 20c0 00000000 00000000 00000000 00000000  ................
 20d0 00000000 00000000 00000000 00000000  ................
 20e0 00000000 00000000 00000000 00000000  ................
 20f0 00000000 00000000 00000000 00000000  ................
 2100 00000000 00000000 00000000 00000000  ................
 2110 00000000 00000000 00000000 00000000  ................
 2120 00000000 00000000 00000000 00000000  ................
 2130 00000000 00000000 00000000 00000000  ................
 2140 00000000 00000000 00000000 00000000  ................
 2150 00000000 00000000 00000000 00000000  ................
 2160 00000000 00000000 00000000 00000000  ................
 2170 00000000 00000000 00000000 00000000  ................
 2180 00000000 00000000 00000000 00000000  ................
 2190 00000000 00000000 00000000 00000000  ................
 21a0 00000000 00000000 00000000 00000000  ................
 21b0 00000000 00000000 00000000 00000000  ................
 21c0 00000000 00000000 00000000 00000000  ................
 21d0 00000000 00000000 00000000 00000000  ................
 21e0 00000000 00000000 00000000 00000000  ................
 21f0 00000000 00000000 00000000 00000000  ................
 2200 00000000 00000000 00000000 00000000  ................
 2210 00000000 00000000 00000000 00000000  ................
 2220 00000000 00000000 00000000 00000000  ................
 2230 00000000 00000000 00000000 00000000  ................
 2240 00000000 00000000 00000000 00000000  ................
 2250 00000000 00000000 00000000 00000000  ................
 2260 00000000 00000000 00000000 00000000  ................
 2270 00000000 00000000 00000000 00000000  ................
 2280 00000000 00000000 00000000 00000000  ................
 2290 00000000 00000000 00000000 00000000  ................
 22a0 00000000 00000000 00000000 00000000  ................
 22b0 00000000 00000000 00000000 00000000  ................
 22c0 00000000 00000000 00000000 00000000  ................
 22d0 00000000 00000000 00000000 00000000  ................
 22e0 00000000 00000000 00000000 00000000  ................
 22f0 00000000 00000000 00000000 00000000  ................
 2300 00000000 00000000 00000000 00000000  ................
 2310 00000000 00000000 00000000 00000000  ................
 2320 00000000 00000000 00000000 00000000  ................
 2330 00000000 00000000 00000000 00000000  ................
 2340 00000000 00000000 00000000 00000000  ................
 2350 00000000 00000000 00000000 00000000  ................
 2360 00000000 00000000 00000000 00000000  ................
 2370 00000000 00000000 00000000 00000000  ................
 2380 00000000 00000000 00000000 00000000  ................
 2390 00000000 00000000 00000000 00000000  ................
 23a0 00000000 00000000 00000000 00000000  ................
 23b0 00000000 00000000 00000000 00000000  ................
 23c0 00000000 00000000 00000000 00000000  ................
 23d0 00000000 00000000 00000000 00000000  ................
 23e0 00000000 00000000 00000000 00000000  ................
 23f0 00000000 00000000 00000000 00000000  ................
 2400 00000000 00000000 00000000 00000000  ................
 2410 00000000 00000000 00000000 00000000  ................
 2420 00000000 00000000 00000000 00000000  ................
 2430 00000000 00000000 00000000 00000000  ................
 2440 00000000 00000000 00000000 00000000  ................
 2450 00000000 00000000 00000000 00000000  ................
 2460 00000000 00000000 00000000 00000000  ................
 2470 00000000 00000000 00000000 00000000  ................
 2480 00000000 00000000 00000000 00000000  ................
 2490 00000000 00000000 00000000 00000000  ................
 24a0 00000000 00000000 00000000 00000000  ................
 24b0 00000000 00000000 00000000 00000000  ................
 24c0 00000000 00000000 00000000 00000000  ................
 24d0 00000000 00000000 00000000 00000000  ................
 24e0 00000000 00000000 00000000 00000000  ................
 24f0 00000000 00000000 00000000 00000000  ................
 2500 00000000 00000000 00000000 00000000  ................
 2510 00000000 00000000 00000000 00000000  ................
 2520 00000000 00000000 00000000 00000000  ................
 2530 00000000 00000000 00000000 00000000  ................
 2540 00000000 00000000 00000000 00000000  ................
 2550 00000000 00000000 00000000 00000000  ................
 2560 00000000 00000000 00000000 00000000  ................
 2570 00000000 00000000 00000000 00000000  ................
 2580 00000000 00000000 00000000 00000000  ................
 2590 00000000 00000000 00000000 00000000  ................
 25a0 00000000 00000000 00000000 00000000  ................
 25b0 00000000 00000000 00000000 00000000  ................
 25c0 00000000 00000000 00000000 00000000  ................
 25d0 00000000 00000000 00000000 00000000  ................
 25e0 00000000 00000000 00000000 00000000  ................
 25f0 00000000 00000000 00000000 00000000  ................
 2600 00000000 00000000 00000000 00000000  ................
 2610 00000000 00000000 00000000 00000000  ................
 2620 00000000 00000000 00000000 00000000  ................
 2630 00000000 00000000 00000000 00000000  ................
 2640 00000000 00000000 00000000 00000000  ................
 2650 00000000 00000000 00000000 00000000  ................
 2660 00000000 00000000 00000000 00000000  ................
 2670 00000000 00000000 00000000 00000000  ................
 2680 00000000 00000000 00000000 00000000  ................
 2690 00000000 00000000 00000000 00000000  ................
 26a0 00000000 00000000 00000000 00000000  ................
 26b0 00000000 00000000 00000000 00000000  ................
 26c0 00000000 00000000 00000000 00000000  ................
 26d0 00000000 00000000 00000000 00000000  ................
 26e0 00000000 00000000 00000000 00000000  ................
 26f0 00000000 00000000 00000000 00000000  ................
 2700 00000000 00000000 00000000 00000000  ................
 2710 00000000 00000000 00000000 00000000  ................
 2720 00000000 00000000 00000000 00000000  ................
 2730 00000000 00000000 00000000 00000000  ................
 2740 00000000 00000000 00000000 00000000  ................
 2750 00000000 00000000 00000000 00000000  ................
 2760 00000000 00000000 00000000 00000000  ................
 2770 00000000 00000000 00000000 00000000  ................
 2780 00000000 00000000 00000000 00000000  ................
 2790 00000000 00000000 00000000 00000000  ................
 27a0 00000000 00000000 00000000 00000000  ................
 27b0 00000000 00000000 00000000 00000000  ................
 27c0 00000000 00000000 00000000 00000000  ................
 27d0 00000000 00000000 00000000 00000000  ................
 27e0 00000000 00000000 00000000 00000000  ................
 27f0 00000000 00000000 00000000 00000000  ................
 2800 00000000 00000000 00000000 00000000  ................
 2810 00000000 00000000 00000000 00000000  ................
 2820 00000000 00000000 00000000 00000000  ................
 2830 00000000 00000000 00000000 00000000  ................
 2840 00000000 00000000 00000000 00000000  ................
 2850 00000000 00000000 00000000 00000000  ................
 2860 00000000 00000000 00000000 00000000  ................
 2870 00000000 00000000 00000000 00000000  ................
 2880 00000000 00000000 00000000 00000000  ................
 2890 00000000 00000000 00000000 00000000  ................
 28a0 00000000 00000000 00000000 00000000  ................
 28b0 00000000 00000000 00000000 00000000  ................
 28c0 00000000 00000000 00000000 00000000  ................
 28d0 00000000 00000000 00000000 00000000  ................
 28e0 00000000 00000000 00000000 00000000  ................
 28f0 00000000 00000000 00000000 00000000  ................
 2900 00000000 00000000 00000000 00000000  ................
 2910 00000000 00000000 00000000 00000000  ................
 2920 00000000 00000000 00000000 00000000  ................
 2930 00000000 00000000 00000000 00000000  ................
 2940 00000000 00000000 00000000 00000000  ................
 2950 00000000 00000000 00000000 00000000  ................
 2960 00000000 00000000 00000000 00000000  ................
 2970 00000000 00000000 00000000 00000000  ................
 2980 00000000 00000000 00000000 00000000  ................
 2990 00000000 00000000 00000000 00000000  ................
 29a0 00000000 00000000 00000000 00000000  ................
 29b0 00000000 00000000 00000000 00000000  ................
 29c0 00000000 00000000 00000000 00000000  ................
 29d0 00000000 00000000 00000000 00000000  ................
 29e0 00000000 00000000 00000000 00000000  ................
 29f0 00000000 00000000 00000000 00000000  ................
 2a00 00000000 00000000 00000000 00000000  ................
 2a10 00000000 00000000 00000000 00000000  ................
 2a20 00000000 00000000 00000000 00000000  ................
 2a30 00000000 00000000 00000000 00000000  ................
 2a40 00000000 00000000 00000000 00000000  ................
 2a50 00000000 00000000 00000000 00000000  ................
 2a60 00000000 00000000 00000000 00000000  ................
 2a70 00000000 00000000 00000000 00000000  ................
 2a80 00000000 00000000 00000000 00000000  ................
 2a90 00000000 00000000 00000000 00000000  ................
 2aa0 00000000 00000000 00000000 00000000  ................
 2ab0 00000000 00000000 00000000 00000000  ................
 2ac0 00000000 00000000 00000000 00000000  ................
 2ad0 00000000 00000000 00000000 00000000  ................
 2ae0 00000000 00000000 00000000 00000000  ................
 2af0 00000000 00000000 00000000 00000000  ................
 2b00 00000000 00000000 00000000 00000000  ................
 2b10 00000000 00000000 00000000 00000000  ................
 2b20 00000000 00000000 00000000 00000000  ................
 2b30 00000000 00000000 00000000 00000000  ................
 2b40 00000000 00000000 00000000 00000000  ................
 2b50 00000000 00000000 00000000 00000000  ................
 2b60 00000000 00000000 00000000 00000000  ................
 2b70 00000000 00000000 00000000 00000000  ................
 2b80 00000000 00000000 00000000 00000000  ................
 2b90 00000000 00000000 00000000 00000000  ................
 2ba0 00000000 00000000 00000000 00000000  ................
 2bb0 00000000 00000000 00000000 00000000  ................
 2bc0 00000000 00000000 00000000 00000000  ................
 2bd0 00000000 00000000 00000000 00000000  ................
 2be0 00000000 00000000 00000000 00000000  ................
 2bf0 00000000 00000000 00000000 00000000  ................
 2c00 00000000 00000000 00000000 00000000  ................
 2c10 00000000 00000000 00000000 00000000  ................
 2c20 00000000 00000000 00000000 00000000  ................
 2c30 00000000 00000000 00000000 00000000  ................
 2c40 00000000 00000000 00000000 00000000  ................
 2c50 00000000 00000000 00000000 00000000  ................
 2c60 00000000 00000000 00000000 00000000  ................
 2c70 00000000 00000000 00000000 00000000  ................
 2c80 00000000 00000000 00000000 00000000  ................
 2c90 00000000 00000000 00000000 00000000  ................
 2ca0 00000000 00000000 00000000 00000000  ................
 2cb0 00000000 00000000 00000000 00000000  ................
 2cc0 00000000 00000000 00000000 00000000  ................
 2cd0 00000000 00000000 00000000 00000000  ................
 2ce0 00000000 00000000 00000000 00000000  ................
 2cf0 00000000 00000000 00000000 00000000  ................
 2d00 00000000 00000000 00000000 00000000  ................
 2d10 00000000 00000000 00000000 00000000  ................
 2d20 00000000 00000000 00000000 00000000  ................
 2d30 00000000 00000000 00000000 00000000  ................
 2d40 00000000 00000000 00000000 00000000  ................
 2d50 00000000 00000000 00000000 00000000  ................
 2d60 00000000 00000000 00000000 00000000  ................
 2d70 00000000 00000000 00000000 00000000  ................
 2d80 00000000 00000000 00000000 00000000  ................
 2d90 00000000 00000000 00000000 00000000  ................
 2da0 00000000 00000000 00000000 00000000  ................
 2db0 00000000 00000000 00000000 00000000  ................
 2dc0 00000000 00000000 00000000 00000000  ................
 2dd0 00000000 00000000 00000000 00000000  ................
 2de0 00000000 00000000 00000000 00000000  ................
 2df0 00000000 00000000 00000000 00000000  ................
 2e00 00000000 00000000 00000000 00000000  ................
 2e10 00000000 00000000 00000000 00000000  ................
 2e20 00000000 00000000 00000000 00000000  ................
 2e30 00000000 00000000 00000000 00000000  ................
 2e40 00000000 00000000 00000000 00000000  ................
 2e50 00000000 00000000 00000000 00000000  ................
 2e60 00000000 00000000 00000000 00000000  ................
 2e70 00000000 00000000 00000000 00000000  ................
 2e80 00000000 00000000 00000000 00000000  ................
 2e90 00000000 00000000 00000000 00000000  ................
 2ea0 00000000 00000000 00000000 00000000  ................
 2eb0 00000000 00000000 00000000 00000000  ................
 2ec0 00000000 00000000 00000000 00000000  ................
 2ed0 00000000 00000000 00000000 00000000  ................
 2ee0 00000000 00000000 00000000 00000000  ................
 2ef0 00000000 00000000 00000000 00000000  ................
 2f00 00000000 00000000 00000000 00000000  ................
 2f10 00000000 00000000 00000000 00000000  ................
 2f20 00000000 00000000 00000000 00000000  ................
 2f30 00000000 00000000 00000000 00000000  ................
 2f40 00000000 00000000 00000000 00000000  ................
 2f50 00000000 00000000 00000000 00000000  ................
 2f60 00000000 00000000 00000000 00000000  ................
 2f70 00000000 00000000 00000000 00000000  ................
 2f80 00000000 00000000 00000000 00000000  ................
 2f90 00000000 00000000 00000000 00000000  ................
 2fa0 00000000 00000000 00000000 00000000  ................
 2fb0 00000000 00000000 00000000 00000000  ................
 2fc0 00000000 00000000 00000000 00000000  ................
 2fd0 00000000 00000000 00000000 00000000  ................
 2fe0 00000000 00000000 00000000 00000000  ................
 2ff0 00000000 00000000 00000000 00000000  ................
 3000 00000000 00000000 00000000 00000000  ................
 3010 00000000 00000000 00000000 00000000  ................
 3020 00000000 00000000 00000000 00000000  ................
 3030 00000000 00000000 00000000 00000000  ................
 3040 00000000 00000000 00000000 00000000  ................
 3050 00000000 00000000 00000000 00000000  ................
 3060 00000000 00000000 00000000 00000000  ................
 3070 00000000 00000000 00000000 00000000  ................
 3080 00000000 00000000 00000000 00000000  ................
 3090 00000000 00000000 00000000 00000000  ................
 30a0 00000000 00000000 00000000 00000000  ................
 30b0 00000000 00000000 00000000 00000000  ................
 30c0 00000000 00000000 00000000 00000000  ................
 30d0 00000000 00000000 00000000 00000000  ................
 30e0 00000000 00000000 00000000 00000000  ................
 30f0 00000000 00000000 00000000 00000000  ................
 3100 00000000 00000000 00000000 00000000  ................
 3110 00000000 00000000 00000000 00000000  ................
 3120 00000000 00000000 00000000 00000000  ................
 3130 00000000 00000000 00000000 00000000  ................
 3140 00000000 00000000 00000000 00000000  ................
 3150 00000000 00000000 00000000 00000000  ................
 3160 00000000 00000000 00000000 00000000  ................
 3170 00000000 00000000 00000000 00000000  ................
 3180 00000000 00000000 00000000 00000000  ................
 3190 00000000 00000000 00000000 00000000  ................
 31a0 00000000 00000000 00000000 00000000  ................
 31b0 00000000 00000000 00000000 00000000  ................
 31c0 00000000 00000000 00000000 00000000  ................
 31d0 00000000 00000000 00000000 00000000  ................
 31e0 00000000 00000000 00000000 00000000  ................
 31f0 00000000 00000000 00000000 00000000  ................
 3200 00000000 00000000 00000000 00000000  ................
 3210 00000000 00000000 00000000 00000000  ................
 3220 00000000 00000000 00000000 00000000  ................
 3230 00000000 00000000 00000000 00000000  ................
 3240 00000000 00000000 00000000 00000000  ................
 3250 00000000 00000000 00000000 00000000  ................
 3260 00000000 00000000 00000000 00000000  ................
 3270 00000000 00000000 00000000 00000000  ................
 3280 00000000 00000000 00000000 00000000  ................
 3290 00000000 00000000 00000000 00000000  ................
 32a0 00000000 00000000 00000000 00000000  ................
 32b0 00000000 00000000 00000000 00000000  ................
 32c0 00000000 00000000 00000000 00000000  ................
 32d0 00000000 00000000 00000000 00000000  ................
 32e0 00000000 00000000 00000000 00000000  ................
 32f0 00000000 00000000 00000000 00000000  ................
 3300 00000000 00000000 00000000 00000000  ................
 3310 00000000 00000000 00000000 00000000  ................
 3320 00000000 00000000 00000000 00000000  ................
 3330 00000000 00000000 00000000 00000000  ................
 3340 00000000 00000000 00000000 00000000  ................
 3350 00000000 00000000 00000000 00000000  ................
 3360 00000000 00000000 00000000 00000000  ................
 3370 00000000 00000000 00000000 00000000  ................
 3380 00000000 00000000 00000000 00000000  ................
 3390 00000000 00000000 00000000 00000000  ................
 33a0 00000000 00000000 00000000 00000000  ................
 33b0 00000000 00000000 00000000 00000000  ................
 33c0 00000000 00000000 00000000 00000000  ................
 33d0 00000000 00000000 00000000 00000000  ................
 33e0 00000000 00000000 00000000 00000000  ................
 33f0 00000000 00000000 00000000 00000000  ................
 3400 00000000 00000000 00000000 00000000  ................
 3410 00000000 00000000 00000000 00000000  ................
 3420 00000000 00000000 00000000 00000000  ................
 3430 00000000 00000000 00000000 00000000  ................
 3440 00000000 00000000 00000000 00000000  ................
 3450 00000000 00000000 00000000 00000000  ................
 3460 00000000 00000000 00000000 00000000  ................
 3470 00000000 00000000 00000000 00000000  ................
 3480 00000000 00000000 00000000 00000000  ................
 3490 00000000 00000000 00000000 00000000  ................
 34a0 00000000 00000000 00000000 00000000  ................
 34b0 00000000 00000000 00000000 00000000  ................
 34c0 00000000 00000000 00000000 00000000  ................
 34d0 00000000 00000000 00000000 00000000  ................
 34e0 00000000 00000000 00000000 00000000  ................
 34f0 00000000 00000000 00000000 00000000  ................
 3500 00000000 00000000 00000000 00000000  ................
 3510 00000000 00000000 00000000 00000000  ................
 3520 00000000 00000000 00000000 00000000  ................
 3530 00000000 00000000 00000000 00000000  ................
 3540 00000000 00000000 00000000 00000000  ................
 3550 00000000 00000000 00000000 00000000  ................
 3560 00000000 00000000 00000000 00000000  ................
 3570 00000000 00000000 00000000 00000000  ................
 3580 00000000 00000000 00000000 00000000  ................
 3590 00000000 00000000 00000000 00000000  ................
 35a0 00000000 00000000 00000000 00000000  ................
 35b0 00000000 00000000 00000000 00000000  ................
 35c0 00000000 00000000 00000000 00000000  ................
 35d0 00000000 00000000 00000000 00000000  ................
 35e0 00000000 00000000 00000000 00000000  ................
 35f0 00000000 00000000 00000000 00000000  ................
 3600 00000000 00000000 00000000 00000000  ................
 3610 00000000 00000000 00000000 00000000  ................
 3620 00000000 00000000 00000000 00000000  ................
 3630 00000000 00000000 00000000 00000000  ................
 3640 00000000 00000000 00000000 00000000  ................
 3650 00000000 00000000 00000000 00000000  ................
 3660 00000000 00000000 00000000 00000000  ................
 3670 00000000 00000000 00000000 00000000  ................
 3680 00000000 00000000 00000000 00000000  ................
 3690 00000000 00000000 00000000 00000000  ................
 36a0 00000000 00000000 00000000 00000000  ................
 36b0 00000000 00000000 00000000 00000000  ................
 36c0 00000000 00000000 00000000 00000000  ................
 36d0 00000000 00000000 00000000 00000000  ................
 36e0 00000000 00000000 00000000 00000000  ................
 36f0 00000000 00000000 00000000 00000000  ................
 3700 00000000 00000000 00000000 00000000  ................
 3710 00000000 00000000 00000000 00000000  ................
 3720 00000000 00000000 00000000 00000000  ................
 3730 00000000 00000000 00000000 00000000  ................
 3740 00000000 00000000 00000000 00000000  ................
 3750 00000000 00000000 00000000 00000000  ................
 3760 00000000 00000000 00000000 00000000  ................
 3770 00000000 00000000 00000000 00000000  ................
 3780 00000000 00000000 00000000 00000000  ................
 3790 00000000 00000000 00000000 00000000  ................
 37a0 00000000 00000000 00000000 00000000  ................
 37b0 00000000 00000000 00000000 00000000  ................
 37c0 00000000 00000000 00000000 00000000  ................
 37d0 00000000 00000000 00000000 00000000  ................
 37e0 00000000 00000000 00000000 00000000  ................
 37f0 00000000 00000000 00000000 00000000  ................
 3800 00000000 00000000 00000000 00000000  ................
 3810 00000000 00000000 00000000 00000000  ................
 3820 00000000 00000000 00000000 00000000  ................
 3830 00000000 00000000 00000000 00000000  ................
 3840 00000000 00000000 00000000 00000000  ................
 3850 00000000 00000000 00000000 00000000  ................
 3860 00000000 00000000 00000000 00000000  ................
 3870 00000000 00000000 00000000 00000000  ................
 3880 00000000 00000000 00000000 00000000  ................
 3890 00000000 00000000 00000000 00000000  ................
 38a0 00000000 00000000 00000000 00000000  ................
 38b0 00000000 00000000 00000000 00000000  ................
 38c0 00000000 00000000 00000000 00000000  ................
 38d0 00000000 00000000 00000000 00000000  ................
 38e0 00000000 00000000 00000000 00000000  ................
 38f0 00000000 00000000 00000000 00000000  ................
 3900 00000000 00000000 00000000 00000000  ................
 3910 00000000 00000000 00000000 00000000  ................
 3920 00000000 00000000 00000000 00000000  ................
 3930 00000000 00000000 00000000 00000000  ................
 3940 00000000 00000000 00000000 00000000  ................
 3950 00000000 00000000 00000000 00000000  ................
 3960 00000000 00000000 00000000 00000000  ................
 3970 00000000 00000000 00000000 00000000  ................
 3980 00000000 00000000 00000000 00000000  ................
 3990 00000000 00000000 00000000 00000000  ................
 39a0 00000000 00000000 00000000 00000000  ................
 39b0 00000000 00000000 00000000 00000000  ................
 39c0 00000000 00000000 00000000 00000000  ................
 39d0 00000000 00000000 00000000 00000000  ................
 39e0 00000000 00000000 00000000 00000000  ................
 39f0 00000000 00000000 00000000 00000000  ................
 3a00 00000000 00000000 00000000 00000000  ................
 3a10 00000000 00000000 00000000 00000000  ................
 3a20 00000000 00000000 00000000 00000000  ................
 3a30 00000000 00000000 00000000 00000000  ................
 3a40 00000000 00000000 00000000 00000000  ................
 3a50 00000000 00000000 00000000 00000000  ................
 3a60 00000000 00000000 00000000 00000000  ................
 3a70 00000000 00000000 00000000 00000000  ................
 3a80 00000000 00000000 00000000 00000000  ................
 3a90 00000000 00000000 00000000 00000000  ................
 3aa0 00000000 00000000 00000000 00000000  ................
 3ab0 00000000 00000000 00000000 00000000  ................
 3ac0 00000000 00000000 00000000 00000000  ................
 3ad0 00000000 00000000 00000000 00000000  ................
 3ae0 00000000 00000000 00000000 00000000  ................
 3af0 00000000 00000000 00000000 00000000  ................
 3b00 00000000 00000000 00000000 00000000  ................
 3b10 00000000 00000000 00000000 00000000  ................
 3b20 00000000 00000000 00000000 00000000  ................
 3b30 00000000 00000000 00000000 00000000  ................
 3b40 00000000 00000000 00000000 00000000  ................
 3b50 00000000 00000000 00000000 00000000  ................
 3b60 00000000 00000000 00000000 00000000  ................
 3b70 00000000 00000000 00000000 00000000  ................
 3b80 00000000 00000000 00000000 00000000  ................
 3b90 00000000 00000000 00000000 00000000  ................
 3ba0 00000000 00000000 00000000 00000000  ................
 3bb0 00000000 00000000 00000000 00000000  ................
 3bc0 00000000 00000000 00000000 00000000  ................
 3bd0 00000000 00000000 00000000 00000000  ................
 3be0 00000000 00000000 00000000 00000000  ................
 3bf0 00000000 00000000 00000000 00000000  ................
Contents of section .comment:
 0000 00474343 3a202841 726d2047 4e552054  .GCC: (Arm GNU T
 0010 6f6f6c63 6861696e 2031312e 332e5265  oolchain 11.3.Re
 0020 6c312920 31312e33 2e312032 30323230  l1) 11.3.1 20220
 0030 37313200                             712.            
Contents of section .ARM.attributes:
 0000 41310000 00616561 62690001 27000000  A1...aeabi..'...
 0010 0537452d 4d00060d 074d0902 0a081204  .7E-M....M......
 0020 14011501 17031801 19011a01 1c011e02  ................
 0030 2201                                 ".              

Disassembly of section .text.enet_isr:

00000000 <enet_isr>:
   0:	4b07      	ldr	r3, [pc, #28]	; (20 <enet_isr+0x20>)
   2:	685a      	ldr	r2, [r3, #4]
   4:	0192      	lsls	r2, r2, #6
   6:	d400      	bmi.n	a <enet_isr+0xa>
   8:	4770      	bx	lr
   a:	f04f 7000 	mov.w	r0, #33554432	; 0x2000000
   e:	4a05      	ldr	r2, [pc, #20]	; (24 <enet_isr+0x24>)
  10:	2100      	movs	r1, #0
  12:	6058      	str	r0, [r3, #4]
  14:	f3bf 8f5b 	dmb	ish
  18:	7011      	strb	r1, [r2, #0]
  1a:	f3bf 8f5b 	dmb	ish
  1e:	4770      	bx	lr
  20:	402d8000 	.word	0x402d8000
  24:	00000000 	.word	0x00000000

Disassembly of section .text.init_phy.part.0:

00000000 <init_phy.part.0>:
   0:	4962      	ldr	r1, [pc, #392]	; (18c <init_phy.part.0+0x18c>)
   2:	f24c 000f 	movw	r0, #49167	; 0xc00f
   6:	4a62      	ldr	r2, [pc, #392]	; (190 <init_phy.part.0+0x190>)
   8:	b538      	push	{r3, r4, r5, lr}
   a:	6ecb      	ldr	r3, [r1, #108]	; 0x6c
   c:	f44f 3480 	mov.w	r4, #65536	; 0x10000
  10:	f443 6340 	orr.w	r3, r3, #3072	; 0xc00
  14:	66cb      	str	r3, [r1, #108]	; 0x6c
  16:	f44f 5380 	mov.w	r3, #4096	; 0x1000
  1a:	495e      	ldr	r1, [pc, #376]	; (194 <init_phy.part.0+0x194>)
  1c:	f8c2 40e4 	str.w	r4, [r2, #228]	; 0xe4
  20:	f8c2 00e8 	str.w	r0, [r2, #232]	; 0xe8
  24:	f8c2 10e4 	str.w	r1, [r2, #228]	; 0xe4
  28:	f8c2 30e8 	str.w	r3, [r2, #232]	; 0xe8
  2c:	f8d2 30e0 	ldr.w	r3, [r2, #224]	; 0xe0
  30:	2b00      	cmp	r3, #0
  32:	dafb      	bge.n	2c <init_phy.part.0+0x2c>
  34:	4858      	ldr	r0, [pc, #352]	; (198 <init_phy.part.0+0x198>)
  36:	f44f 3480 	mov.w	r4, #65536	; 0x10000
  3a:	4958      	ldr	r1, [pc, #352]	; (19c <init_phy.part.0+0x19c>)
  3c:	f24f 0528 	movw	r5, #61480	; 0xf028
  40:	f8c2 40e8 	str.w	r4, [r2, #232]	; 0xe8
  44:	6842      	ldr	r2, [r0, #4]
  46:	4b56      	ldr	r3, [pc, #344]	; (1a0 <init_phy.part.0+0x1a0>)
  48:	4011      	ands	r1, r2
  4a:	4c56      	ldr	r4, [pc, #344]	; (1a4 <init_phy.part.0+0x1a4>)
  4c:	f243 02e9 	movw	r2, #12521	; 0x30e9
  50:	f441 3100 	orr.w	r1, r1, #131072	; 0x20000
  54:	6041      	str	r1, [r0, #4]
  56:	2038      	movs	r0, #56	; 0x38
  58:	2105      	movs	r1, #5
  5a:	f8c3 237c 	str.w	r2, [r3, #892]	; 0x37c
  5e:	f8c3 2384 	str.w	r2, [r3, #900]	; 0x384
  62:	f8c3 5380 	str.w	r5, [r3, #896]	; 0x380
  66:	f44f 4580 	mov.w	r5, #16384	; 0x4000
  6a:	f8c3 2398 	str.w	r2, [r3, #920]	; 0x398
  6e:	f8c3 0368 	str.w	r0, [r3, #872]	; 0x368
  72:	f8c3 0364 	str.w	r0, [r3, #868]	; 0x364
  76:	f64f 0029 	movw	r0, #63529	; 0xf829
  7a:	f8c3 1178 	str.w	r1, [r3, #376]	; 0x178
  7e:	f8c3 1174 	str.w	r1, [r3, #372]	; 0x174
  82:	f44f 4100 	mov.w	r1, #32768	; 0x8000
  86:	6862      	ldr	r2, [r4, #4]
  88:	f442 4240 	orr.w	r2, r2, #49152	; 0xc000
  8c:	6062      	str	r2, [r4, #4]
  8e:	2200      	movs	r2, #0
  90:	f8c4 1088 	str.w	r1, [r4, #136]	; 0x88
  94:	f8c4 5084 	str.w	r5, [r4, #132]	; 0x84
  98:	f8c3 03a8 	str.w	r0, [r3, #936]	; 0x3a8
  9c:	f24b 00e9 	movw	r0, #45289	; 0xb0e9
  a0:	f8c3 03a4 	str.w	r0, [r3, #932]	; 0x3a4
  a4:	2002      	movs	r0, #2
  a6:	f8c3 21b8 	str.w	r2, [r3, #440]	; 0x1b8
  aa:	f8c3 21b4 	str.w	r2, [r3, #436]	; 0x1b4
  ae:	4a3e      	ldr	r2, [pc, #248]	; (1a8 <init_phy.part.0+0x1a8>)
  b0:	6310      	str	r0, [r2, #48]	; 0x30
  b2:	2231      	movs	r2, #49	; 0x31
  b4:	2032      	movs	r0, #50	; 0x32
  b6:	f8c3 2394 	str.w	r2, [r3, #916]	; 0x394
  ba:	2216      	movs	r2, #22
  bc:	f8c3 21a4 	str.w	r2, [r3, #420]	; 0x1a4
  c0:	f503 2360 	add.w	r3, r3, #917504	; 0xe0000
  c4:	2212      	movs	r2, #18
  c6:	645a      	str	r2, [r3, #68]	; 0x44
  c8:	f8c4 1084 	str.w	r1, [r4, #132]	; 0x84
  cc:	f7ff fffe 	bl	0 <delay>
  d0:	4936      	ldr	r1, [pc, #216]	; (1ac <init_phy.part.0+0x1ac>)
  d2:	4a37      	ldr	r2, [pc, #220]	; (1b0 <init_phy.part.0+0x1b0>)
  d4:	f8c4 5088 	str.w	r5, [r4, #136]	; 0x88
  d8:	4b36      	ldr	r3, [pc, #216]	; (1b4 <init_phy.part.0+0x1b4>)
  da:	6848      	ldr	r0, [r1, #4]
  dc:	6812      	ldr	r2, [r2, #0]
  de:	fba3 3202 	umull	r3, r2, r3, r2
  e2:	0c92      	lsrs	r2, r2, #18
  e4:	eb02 0282 	add.w	r2, r2, r2, lsl #2
  e8:	eb02 0282 	add.w	r2, r2, r2, lsl #2
  ec:	684b      	ldr	r3, [r1, #4]
  ee:	1a1b      	subs	r3, r3, r0
  f0:	429a      	cmp	r2, r3
  f2:	d8fb      	bhi.n	ec <init_phy.part.0+0xec>
  f4:	4b2b      	ldr	r3, [pc, #172]	; (1a4 <init_phy.part.0+0x1a4>)
  f6:	f44f 4280 	mov.w	r2, #16384	; 0x4000
  fa:	2002      	movs	r0, #2
  fc:	f8c3 2084 	str.w	r2, [r3, #132]	; 0x84
 100:	f7ff fffe 	bl	0 <delay>
 104:	4a2c      	ldr	r2, [pc, #176]	; (1b8 <init_phy.part.0+0x1b8>)
 106:	f44f 0100 	mov.w	r1, #8388608	; 0x800000
 10a:	4b2c      	ldr	r3, [pc, #176]	; (1bc <init_phy.part.0+0x1bc>)
 10c:	6051      	str	r1, [r2, #4]
 10e:	6413      	str	r3, [r2, #64]	; 0x40
 110:	6853      	ldr	r3, [r2, #4]
 112:	0219      	lsls	r1, r3, #8
 114:	d5fc      	bpl.n	110 <init_phy.part.0+0x110>
 116:	f44f 0100 	mov.w	r1, #8388608	; 0x800000
 11a:	4829      	ldr	r0, [pc, #164]	; (1c0 <init_phy.part.0+0x1c0>)
 11c:	4b26      	ldr	r3, [pc, #152]	; (1b8 <init_phy.part.0+0x1b8>)
 11e:	6051      	str	r1, [r2, #4]
 120:	6051      	str	r1, [r2, #4]
 122:	6410      	str	r0, [r2, #64]	; 0x40
 124:	685a      	ldr	r2, [r3, #4]
 126:	0212      	lsls	r2, r2, #8
 128:	d5fc      	bpl.n	124 <init_phy.part.0+0x124>
 12a:	6c1a      	ldr	r2, [r3, #64]	; 0x40
 12c:	f44f 0100 	mov.w	r1, #8388608	; 0x800000
 130:	b292      	uxth	r2, r2
 132:	6059      	str	r1, [r3, #4]
 134:	f5b2 7f20 	cmp.w	r2, #640	; 0x280
 138:	d01a      	beq.n	170 <init_phy.part.0+0x170>
 13a:	4c1a      	ldr	r4, [pc, #104]	; (1a4 <init_phy.part.0+0x1a4>)
 13c:	4916      	ldr	r1, [pc, #88]	; (198 <init_phy.part.0+0x198>)
 13e:	6863      	ldr	r3, [r4, #4]
 140:	4813      	ldr	r0, [pc, #76]	; (190 <init_phy.part.0+0x190>)
 142:	f423 4340 	bic.w	r3, r3, #49152	; 0xc000
 146:	4a11      	ldr	r2, [pc, #68]	; (18c <init_phy.part.0+0x18c>)
 148:	6063      	str	r3, [r4, #4]
 14a:	f44f 3480 	mov.w	r4, #65536	; 0x10000
 14e:	684b      	ldr	r3, [r1, #4]
 150:	f423 3300 	bic.w	r3, r3, #131072	; 0x20000
 154:	604b      	str	r3, [r1, #4]
 156:	2101      	movs	r1, #1
 158:	4b1a      	ldr	r3, [pc, #104]	; (1c4 <init_phy.part.0+0x1c4>)
 15a:	f8c0 40e4 	str.w	r4, [r0, #228]	; 0xe4
 15e:	f8c0 30e0 	str.w	r3, [r0, #224]	; 0xe0
 162:	6ed3      	ldr	r3, [r2, #108]	; 0x6c
 164:	f423 6340 	bic.w	r3, r3, #3072	; 0xc00
 168:	66d3      	str	r3, [r2, #108]	; 0x6c
 16a:	4b17      	ldr	r3, [pc, #92]	; (1c8 <init_phy.part.0+0x1c8>)
 16c:	7019      	strb	r1, [r3, #0]
 16e:	bd38      	pop	{r3, r4, r5, pc}
 170:	4816      	ldr	r0, [pc, #88]	; (1cc <init_phy.part.0+0x1cc>)
 172:	4a11      	ldr	r2, [pc, #68]	; (1b8 <init_phy.part.0+0x1b8>)
 174:	6059      	str	r1, [r3, #4]
 176:	6418      	str	r0, [r3, #64]	; 0x40
 178:	6853      	ldr	r3, [r2, #4]
 17a:	021b      	lsls	r3, r3, #8
 17c:	d5fc      	bpl.n	178 <init_phy.part.0+0x178>
 17e:	f44f 0300 	mov.w	r3, #8388608	; 0x800000
 182:	2103      	movs	r1, #3
 184:	6053      	str	r3, [r2, #4]
 186:	4b10      	ldr	r3, [pc, #64]	; (1c8 <init_phy.part.0+0x1c8>)
 188:	7019      	strb	r1, [r3, #0]
 18a:	bd38      	pop	{r3, r4, r5, pc}
 18c:	400fc000 	.word	0x400fc000
 190:	400d8000 	.word	0x400d8000
 194:	00202001 	.word	0x00202001
 198:	400ac000 	.word	0x400ac000
 19c:	ff7ddfff 	.word	0xff7ddfff
 1a0:	401f8000 	.word	0x401f8000
 1a4:	42004000 	.word	0x42004000
 1a8:	401f8400 	.word	0x401f8400
 1ac:	e0001000 	.word	0xe0001000
 1b0:	00000000 	.word	0x00000000
 1b4:	431bde83 	.word	0x431bde83
 1b8:	402d8000 	.word	0x402d8000
 1bc:	50620280 	.word	0x50620280
 1c0:	60620000 	.word	0x60620000
 1c4:	00011001 	.word	0x00011001
 1c8:	00000000 	.word	0x00000000
 1cc:	505e0081 	.word	0x505e0081

Disassembly of section .text.mdio_read:

00000000 <mdio_read>:
   0:	0480      	lsls	r0, r0, #18
   2:	4a09      	ldr	r2, [pc, #36]	; (28 <mdio_read+0x28>)
   4:	4b09      	ldr	r3, [pc, #36]	; (2c <mdio_read+0x2c>)
   6:	f44f 0100 	mov.w	r1, #8388608	; 0x800000
   a:	f400 00f8 	and.w	r0, r0, #8126464	; 0x7c0000
   e:	6059      	str	r1, [r3, #4]
  10:	4302      	orrs	r2, r0
  12:	641a      	str	r2, [r3, #64]	; 0x40
  14:	685a      	ldr	r2, [r3, #4]
  16:	0212      	lsls	r2, r2, #8
  18:	d5fc      	bpl.n	14 <mdio_read+0x14>
  1a:	6c18      	ldr	r0, [r3, #64]	; 0x40
  1c:	f44f 0200 	mov.w	r2, #8388608	; 0x800000
  20:	b280      	uxth	r0, r0
  22:	605a      	str	r2, [r3, #4]
  24:	4770      	bx	lr
  26:	bf00      	nop
  28:	60020000 	.word	0x60020000
  2c:	402d8000 	.word	0x402d8000

Disassembly of section .text.mdio_write:

00000000 <mdio_write>:
   0:	0480      	lsls	r0, r0, #18
   2:	4b0a      	ldr	r3, [pc, #40]	; (2c <mdio_write+0x2c>)
   4:	4a0a      	ldr	r2, [pc, #40]	; (30 <mdio_write+0x30>)
   6:	f400 00f8 	and.w	r0, r0, #8126464	; 0x7c0000
   a:	4301      	orrs	r1, r0
   c:	b410      	push	{r4}
   e:	430b      	orrs	r3, r1
  10:	f44f 0400 	mov.w	r4, #8388608	; 0x800000
  14:	6054      	str	r4, [r2, #4]
  16:	6413      	str	r3, [r2, #64]	; 0x40
  18:	6853      	ldr	r3, [r2, #4]
  1a:	021b      	lsls	r3, r3, #8
  1c:	d5fc      	bpl.n	18 <mdio_write+0x18>
  1e:	f44f 0300 	mov.w	r3, #8388608	; 0x800000
  22:	f85d 4b04 	ldr.w	r4, [sp], #4
  26:	6053      	str	r3, [r2, #4]
  28:	4770      	bx	lr
  2a:	bf00      	nop
  2c:	50020000 	.word	0x50020000
  30:	402d8000 	.word	0x402d8000

Disassembly of section .text.driver_is_unknown:

00000000 <driver_is_unknown>:
   0:	4b02      	ldr	r3, [pc, #8]	; (c <driver_is_unknown+0xc>)
   2:	7818      	ldrb	r0, [r3, #0]
   4:	fab0 f080 	clz	r0, r0
   8:	0940      	lsrs	r0, r0, #5
   a:	4770      	bx	lr
   c:	00000000 	.word	0x00000000

Disassembly of section .text.driver_is_link_state_detectable:

00000000 <driver_is_link_state_detectable>:
   0:	2001      	movs	r0, #1
   2:	4770      	bx	lr

Disassembly of section .text.driver_get_system_mac:

00000000 <driver_get_system_mac>:
   0:	f7ff bffe 	b.w	0 <qnethernet_hal_get_system_mac_address>

Disassembly of section .text.driver_is_mac_settable:

00000000 <driver_is_mac_settable>:
   0:	2001      	movs	r0, #1
   2:	4770      	bx	lr

Disassembly of section .text.driver_set_mac:

00000000 <driver_set_mac>:
   0:	4b0b      	ldr	r3, [pc, #44]	; (30 <driver_set_mac+0x30>)
   2:	6edb      	ldr	r3, [r3, #108]	; 0x6c
   4:	f413 6f40 	tst.w	r3, #3072	; 0xc00
   8:	d010      	beq.n	2c <driver_set_mac+0x2c>
   a:	b672      	cpsid	i
   c:	6803      	ldr	r3, [r0, #0]
   e:	f648 0208 	movw	r2, #34824	; 0x8808
  12:	4908      	ldr	r1, [pc, #32]	; (34 <driver_set_mac+0x34>)
  14:	ba1b      	rev	r3, r3
  16:	f8c1 30e4 	str.w	r3, [r1, #228]	; 0xe4
  1a:	7943      	ldrb	r3, [r0, #5]
  1c:	7900      	ldrb	r0, [r0, #4]
  1e:	041b      	lsls	r3, r3, #16
  20:	ea43 6300 	orr.w	r3, r3, r0, lsl #24
  24:	431a      	orrs	r2, r3
  26:	f8c1 20e8 	str.w	r2, [r1, #232]	; 0xe8
  2a:	b662      	cpsie	i
  2c:	4770      	bx	lr
  2e:	bf00      	nop
  30:	400fc000 	.word	0x400fc000
  34:	402d8000 	.word	0x402d8000

Disassembly of section .text.driver_has_hardware:

00000000 <driver_has_hardware>:
   0:	b510      	push	{r4, lr}
   2:	4c0b      	ldr	r4, [pc, #44]	; (30 <driver_has_hardware+0x30>)
   4:	7820      	ldrb	r0, [r4, #0]
   6:	2801      	cmp	r0, #1
   8:	d004      	beq.n	14 <driver_has_hardware+0x14>
   a:	1e83      	subs	r3, r0, #2
   c:	2b02      	cmp	r3, #2
   e:	d803      	bhi.n	18 <driver_has_hardware+0x18>
  10:	2001      	movs	r0, #1
  12:	bd10      	pop	{r4, pc}
  14:	2000      	movs	r0, #0
  16:	bd10      	pop	{r4, pc}
  18:	b118      	cbz	r0, 22 <driver_has_hardware+0x22>
  1a:	3801      	subs	r0, #1
  1c:	bf18      	it	ne
  1e:	2001      	movne	r0, #1
  20:	bd10      	pop	{r4, pc}
  22:	f7ff fffe 	bl	0 <driver_has_hardware>
  26:	7820      	ldrb	r0, [r4, #0]
  28:	3801      	subs	r0, #1
  2a:	bf18      	it	ne
  2c:	2001      	movne	r0, #1
  2e:	e7f7      	b.n	20 <driver_has_hardware+0x20>
  30:	00000000 	.word	0x00000000

Disassembly of section .text.driver_set_chip_select_pin:

00000000 <driver_set_chip_select_pin>:
   0:	4770      	bx	lr
   2:	bf00      	nop

Disassembly of section .text.driver_init:

00000000 <driver_init>:
   0:	b5f8      	push	{r3, r4, r5, r6, r7, lr}
   2:	4d6c      	ldr	r5, [pc, #432]	; (1b4 <driver_init+0x1b4>)
   4:	782b      	ldrb	r3, [r5, #0]
   6:	2b04      	cmp	r3, #4
   8:	f000 80d2 	beq.w	1b0 <driver_init+0x1b0>
   c:	f013 0ffd 	tst.w	r3, #253	; 0xfd
  10:	4604      	mov	r4, r0
  12:	d003      	beq.n	1c <driver_init+0x1c>
  14:	2b03      	cmp	r3, #3
  16:	d006      	beq.n	26 <driver_init+0x26>
  18:	2000      	movs	r0, #0
  1a:	bdf8      	pop	{r3, r4, r5, r6, r7, pc}
  1c:	f7ff fffe 	bl	0 <driver_init>
  20:	782b      	ldrb	r3, [r5, #0]
  22:	2b03      	cmp	r3, #3
  24:	d1f8      	bne.n	18 <driver_init+0x18>
  26:	4a64      	ldr	r2, [pc, #400]	; (1b8 <driver_init+0x1b8>)
  28:	f24b 01e9 	movw	r1, #45289	; 0xb0e9
  2c:	4e63      	ldr	r6, [pc, #396]	; (1bc <driver_init+0x1bc>)
  2e:	f8c2 137c 	str.w	r1, [r2, #892]	; 0x37c
  32:	f8c2 1380 	str.w	r1, [r2, #896]	; 0x380
  36:	4630      	mov	r0, r6
  38:	f8c2 1384 	str.w	r1, [r2, #900]	; 0x384
  3c:	f8c2 1398 	str.w	r1, [r2, #920]	; 0x398
  40:	f8c2 1388 	str.w	r1, [r2, #904]	; 0x388
  44:	f8c2 138c 	str.w	r1, [r2, #908]	; 0x38c
  48:	f8c2 1390 	str.w	r1, [r2, #912]	; 0x390
  4c:	f8c2 318c 	str.w	r3, [r2, #396]	; 0x18c
  50:	495b      	ldr	r1, [pc, #364]	; (1c0 <driver_init+0x1c0>)
  52:	f8c2 3190 	str.w	r3, [r2, #400]	; 0x190
  56:	f8c2 31a8 	str.w	r3, [r2, #424]	; 0x1a8
  5a:	f8c2 3194 	str.w	r3, [r2, #404]	; 0x194
  5e:	f8c2 31a0 	str.w	r3, [r2, #416]	; 0x1a0
  62:	f8c2 3198 	str.w	r3, [r2, #408]	; 0x198
  66:	f8c2 319c 	str.w	r3, [r2, #412]	; 0x19c
  6a:	2301      	movs	r3, #1
  6c:	22a0      	movs	r2, #160	; 0xa0
  6e:	62cb      	str	r3, [r1, #44]	; 0x2c
  70:	634b      	str	r3, [r1, #52]	; 0x34
  72:	638b      	str	r3, [r1, #56]	; 0x38
  74:	63cb      	str	r3, [r1, #60]	; 0x3c
  76:	640b      	str	r3, [r1, #64]	; 0x40
  78:	2100      	movs	r1, #0
  7a:	f7ff fffe 	bl	0 <memset>
  7e:	22a0      	movs	r2, #160	; 0xa0
  80:	2100      	movs	r1, #0
  82:	4850      	ldr	r0, [pc, #320]	; (1c4 <driver_init+0x1c4>)
  84:	f7ff fffe 	bl	0 <memset>
  88:	4a4f      	ldr	r2, [pc, #316]	; (1c8 <driver_init+0x1c8>)
  8a:	f106 0ca0 	add.w	ip, r6, #160	; 0xa0
  8e:	4633      	mov	r3, r6
  90:	f44f 4000 	mov.w	r0, #32768	; 0x8000
  94:	2180      	movs	r1, #128	; 0x80
  96:	605a      	str	r2, [r3, #4]
  98:	3320      	adds	r3, #32
  9a:	f823 0c1e 	strh.w	r0, [r3, #-30]
  9e:	f502 62c0 	add.w	r2, r2, #1536	; 0x600
  a2:	f823 1c16 	strh.w	r1, [r3, #-22]
  a6:	4563      	cmp	r3, ip
  a8:	d1f5      	bne.n	96 <driver_init+0x96>
  aa:	f8b6 3082 	ldrh.w	r3, [r6, #130]	; 0x82
  ae:	f44f 6080 	mov.w	r0, #1024	; 0x400
  b2:	4f44      	ldr	r7, [pc, #272]	; (1c4 <driver_init+0x1c4>)
  b4:	f44f 41b0 	mov.w	r1, #22528	; 0x5800
  b8:	f443 5300 	orr.w	r3, r3, #8192	; 0x2000
  bc:	4a43      	ldr	r2, [pc, #268]	; (1cc <driver_init+0x1cc>)
  be:	f107 0ca0 	add.w	ip, r7, #160	; 0xa0
  c2:	f8a6 3082 	strh.w	r3, [r6, #130]	; 0x82
  c6:	463b      	mov	r3, r7
  c8:	605a      	str	r2, [r3, #4]
  ca:	3320      	adds	r3, #32
  cc:	f823 0c1e 	strh.w	r0, [r3, #-30]
  d0:	f502 62c0 	add.w	r2, r2, #1536	; 0x600
  d4:	f823 1c16 	strh.w	r1, [r3, #-22]
  d8:	4563      	cmp	r3, ip
  da:	d1f5      	bne.n	c8 <driver_init+0xc8>
  dc:	f8b7 3082 	ldrh.w	r3, [r7, #130]	; 0x82
  e0:	2200      	movs	r2, #0
  e2:	493b      	ldr	r1, [pc, #236]	; (1d0 <driver_init+0x1d0>)
  e4:	f443 5300 	orr.w	r3, r3, #8192	; 0x2000
  e8:	f8a7 3082 	strh.w	r3, [r7, #130]	; 0x82
  ec:	4b39      	ldr	r3, [pc, #228]	; (1d4 <driver_init+0x1d4>)
  ee:	609a      	str	r2, [r3, #8]
  f0:	f8c3 1084 	str.w	r1, [r3, #132]	; 0x84
  f4:	f44f 7182 	mov.w	r1, #260	; 0x104
  f8:	f8c3 10c4 	str.w	r1, [r3, #196]	; 0xc4
  fc:	2119      	movs	r1, #25
  fe:	f8c3 11c0 	str.w	r1, [r3, #448]	; 0x1c0
 102:	21c7      	movs	r1, #199	; 0xc7
 104:	f8c3 11c4 	str.w	r1, [r3, #452]	; 0x1c4
 108:	f44f 7180 	mov.w	r1, #256	; 0x100
 10c:	f8c3 1144 	str.w	r1, [r3, #324]	; 0x144
 110:	f44f 61c0 	mov.w	r1, #1536	; 0x600
 114:	f8c3 2190 	str.w	r2, [r3, #400]	; 0x190
 118:	f8c3 6180 	str.w	r6, [r3, #384]	; 0x180
 11c:	f8c3 7184 	str.w	r7, [r3, #388]	; 0x184
 120:	f8c3 1188 	str.w	r1, [r3, #392]	; 0x188
 124:	f8c3 2100 	str.w	r2, [r3, #256]	; 0x100
 128:	f8c3 20f0 	str.w	r2, [r3, #240]	; 0xf0
 12c:	6821      	ldr	r1, [r4, #0]
 12e:	ba09      	rev	r1, r1
 130:	f8c3 10e4 	str.w	r1, [r3, #228]	; 0xe4
 134:	7961      	ldrb	r1, [r4, #5]
 136:	7920      	ldrb	r0, [r4, #4]
 138:	0409      	lsls	r1, r1, #16
 13a:	ea41 6100 	orr.w	r1, r1, r0, lsl #24
 13e:	f648 0008 	movw	r0, #34824	; 0x8808
 142:	4308      	orrs	r0, r1
 144:	4924      	ldr	r1, [pc, #144]	; (1d8 <driver_init+0x1d8>)
 146:	f8c3 00e8 	str.w	r0, [r3, #232]	; 0xe8
 14a:	f04f 7000 	mov.w	r0, #33554432	; 0x2000000
 14e:	f8c3 10ec 	str.w	r1, [r3, #236]	; 0xec
 152:	f8c3 2194 	str.w	r2, [r3, #404]	; 0x194
 156:	4921      	ldr	r1, [pc, #132]	; (1dc <driver_init+0x1dc>)
 158:	665a      	str	r2, [r3, #100]	; 0x64
 15a:	f8c3 2118 	str.w	r2, [r3, #280]	; 0x118
 15e:	f8c3 211c 	str.w	r2, [r3, #284]	; 0x11c
 162:	f8c3 2120 	str.w	r2, [r3, #288]	; 0x120
 166:	f8c3 2124 	str.w	r2, [r3, #292]	; 0x124
 16a:	4a1d      	ldr	r2, [pc, #116]	; (1e0 <driver_init+0x1e0>)
 16c:	6098      	str	r0, [r3, #8]
 16e:	f8c1 2208 	str.w	r2, [r1, #520]	; 0x208
 172:	f04f 22e0 	mov.w	r2, #3758153728	; 0xe000e000
 176:	f44f 2180 	mov.w	r1, #262144	; 0x40000
 17a:	481a      	ldr	r0, [pc, #104]	; (1e4 <driver_init+0x1e4>)
 17c:	f8c2 110c 	str.w	r1, [r2, #268]	; 0x10c
 180:	f04f 0101 	mov.w	r1, #1
 184:	4a18      	ldr	r2, [pc, #96]	; (1e8 <driver_init+0x1e8>)
 186:	6058      	str	r0, [r3, #4]
 188:	f3bf 8f5b 	dmb	ish
 18c:	e8d2 0f4f 	ldrexb	r0, [r2]
 190:	e8c2 1f44 	strexb	r4, r1, [r2]
 194:	2c00      	cmp	r4, #0
 196:	d1f9      	bne.n	18c <driver_init+0x18c>
 198:	f04f 7280 	mov.w	r2, #16777216	; 0x1000000
 19c:	4813      	ldr	r0, [pc, #76]	; (1ec <driver_init+0x1ec>)
 19e:	2104      	movs	r1, #4
 1a0:	f3bf 8f5b 	dmb	ish
 1a4:	6258      	str	r0, [r3, #36]	; 0x24
 1a6:	2001      	movs	r0, #1
 1a8:	611a      	str	r2, [r3, #16]
 1aa:	615a      	str	r2, [r3, #20]
 1ac:	7029      	strb	r1, [r5, #0]
 1ae:	bdf8      	pop	{r3, r4, r5, r6, r7, pc}
 1b0:	2001      	movs	r0, #1
 1b2:	bdf8      	pop	{r3, r4, r5, r6, r7, pc}
 1b4:	00000000 	.word	0x00000000
 1b8:	401f8000 	.word	0x401f8000
 1bc:	00000000 	.word	0x00000000
 1c0:	401f8400 	.word	0x401f8400
 1c4:	00000000 	.word	0x00000000
 1c8:	00001e00 	.word	0x00001e00
 1cc:	00000000 	.word	0x00000000
 1d0:	45f2d124 	.word	0x45f2d124
 1d4:	402d8000 	.word	0x402d8000
 1d8:	00010014 	.word	0x00010014
 1dc:	00000000 	.word	0x00000000
 1e0:	00000000 	.word	0x00000000
 1e4:	7fff8000 	.word	0x7fff8000
 1e8:	00000000 	.word	0x00000000
 1ec:	70000112 	.word	0x70000112

Disassembly of section .text.driver_deinit:

00000000 <driver_deinit>:
   0:	4770      	bx	lr
   2:	bf00      	nop

Disassembly of section .text.driver_proc_input:

00000000 <driver_proc_input>:
   0:	e92d 47f0 	stmdb	sp!, {r4, r5, r6, r7, r8, r9, sl, lr}
   4:	4d68      	ldr	r5, [pc, #416]	; (1a8 <driver_proc_input+0x1a8>)
   6:	4607      	mov	r7, r0
   8:	682c      	ldr	r4, [r5, #0]
   a:	2c00      	cmp	r4, #0
   c:	d173      	bne.n	f6 <driver_proc_input+0xf6>
   e:	4a67      	ldr	r2, [pc, #412]	; (1ac <driver_proc_input+0x1ac>)
  10:	f04f 0101 	mov.w	r1, #1
  14:	f3bf 8f5b 	dmb	ish
  18:	e8d2 3f4f 	ldrexb	r3, [r2]
  1c:	e8c2 1f40 	strexb	r0, r1, [r2]
  20:	2800      	cmp	r0, #0
  22:	d1f9      	bne.n	18 <driver_proc_input+0x18>
  24:	b2db      	uxtb	r3, r3
  26:	f3bf 8f5b 	dmb	ish
  2a:	2b00      	cmp	r3, #0
  2c:	d150      	bne.n	d0 <driver_proc_input+0xd0>
  2e:	250a      	movs	r5, #10
  30:	4e5f      	ldr	r6, [pc, #380]	; (1b0 <driver_proc_input+0x1b0>)
  32:	f8df 9180 	ldr.w	r9, [pc, #384]	; 1b4 <driver_proc_input+0x1b4>
  36:	f8df 8198 	ldr.w	r8, [pc, #408]	; 1d0 <driver_proc_input+0x1d0>
  3a:	6832      	ldr	r2, [r6, #0]
  3c:	4614      	mov	r4, r2
  3e:	e006      	b.n	4e <driver_proc_input+0x4e>
  40:	8863      	ldrh	r3, [r4, #2]
  42:	3420      	adds	r4, #32
  44:	0498      	lsls	r0, r3, #18
  46:	bf48      	it	mi
  48:	4c5a      	ldrmi	r4, [pc, #360]	; (1b4 <driver_proc_input+0x1b4>)
  4a:	42a2      	cmp	r2, r4
  4c:	d040      	beq.n	d0 <driver_proc_input+0xd0>
  4e:	8863      	ldrh	r3, [r4, #2]
  50:	0419      	lsls	r1, r3, #16
  52:	d4f5      	bmi.n	40 <driver_proc_input+0x40>
  54:	8853      	ldrh	r3, [r2, #2]
  56:	049b      	lsls	r3, r3, #18
  58:	d447      	bmi.n	ea <driver_proc_input+0xea>
  5a:	3220      	adds	r2, #32
  5c:	8860      	ldrh	r0, [r4, #2]
  5e:	6032      	str	r2, [r6, #0]
  60:	f010 0037 	ands.w	r0, r0, #55	; 0x37
  64:	d136      	bne.n	d4 <driver_proc_input+0xd4>
  66:	8821      	ldrh	r1, [r4, #0]
  68:	f44f 72c1 	mov.w	r2, #386	; 0x182
  6c:	b289      	uxth	r1, r1
  6e:	f7ff fffe 	bl	0 <pbuf_alloc>
  72:	4682      	mov	sl, r0
  74:	2800      	cmp	r0, #0
  76:	d064      	beq.n	142 <driver_proc_input+0x142>
  78:	8902      	ldrh	r2, [r0, #8]
  7a:	6861      	ldr	r1, [r4, #4]
  7c:	321f      	adds	r2, #31
  7e:	f021 031f 	bic.w	r3, r1, #31
  82:	f022 021f 	bic.w	r2, r2, #31
  86:	440a      	add	r2, r1
  88:	f3bf 8f4f 	dsb	sy
  8c:	f04f 21e0 	mov.w	r1, #3758153728	; 0xe000e000
  90:	f8c1 3f5c 	str.w	r3, [r1, #3932]	; 0xf5c
  94:	3320      	adds	r3, #32
  96:	429a      	cmp	r2, r3
  98:	d8fa      	bhi.n	90 <driver_proc_input+0x90>
  9a:	f3bf 8f4f 	dsb	sy
  9e:	f3bf 8f6f 	isb	sy
  a2:	6861      	ldr	r1, [r4, #4]
  a4:	4650      	mov	r0, sl
  a6:	f8ba 2008 	ldrh.w	r2, [sl, #8]
  aa:	f7ff fffe 	bl	0 <pbuf_take>
  ae:	8863      	ldrh	r3, [r4, #2]
  b0:	f04f 7080 	mov.w	r0, #16777216	; 0x1000000
  b4:	68fa      	ldr	r2, [r7, #12]
  b6:	f403 5300 	and.w	r3, r3, #8192	; 0x2000
  ba:	4639      	mov	r1, r7
  bc:	f443 4300 	orr.w	r3, r3, #32768	; 0x8000
  c0:	8063      	strh	r3, [r4, #2]
  c2:	f8c8 0010 	str.w	r0, [r8, #16]
  c6:	4650      	mov	r0, sl
  c8:	4790      	blx	r2
  ca:	b980      	cbnz	r0, ee <driver_proc_input+0xee>
  cc:	3d01      	subs	r5, #1
  ce:	d1b4      	bne.n	3a <driver_proc_input+0x3a>
  d0:	e8bd 87f0 	ldmia.w	sp!, {r4, r5, r6, r7, r8, r9, sl, pc}
  d4:	8863      	ldrh	r3, [r4, #2]
  d6:	f04f 7280 	mov.w	r2, #16777216	; 0x1000000
  da:	f403 5300 	and.w	r3, r3, #8192	; 0x2000
  de:	f443 4300 	orr.w	r3, r3, #32768	; 0x8000
  e2:	8063      	strh	r3, [r4, #2]
  e4:	f8c8 2010 	str.w	r2, [r8, #16]
  e8:	e7f0      	b.n	cc <driver_proc_input+0xcc>
  ea:	464a      	mov	r2, r9
  ec:	e7b6      	b.n	5c <driver_proc_input+0x5c>
  ee:	4650      	mov	r0, sl
  f0:	f7ff fffe 	bl	0 <pbuf_free>
  f4:	e7ea      	b.n	cc <driver_proc_input+0xcc>
  f6:	4a30      	ldr	r2, [pc, #192]	; (1b8 <driver_proc_input+0x1b8>)
  f8:	7812      	ldrb	r2, [r2, #0]
  fa:	2a04      	cmp	r2, #4
  fc:	d11e      	bne.n	13c <driver_proc_input+0x13c>
  fe:	2c01      	cmp	r4, #1
 100:	d02a      	beq.n	158 <driver_proc_input+0x158>
 102:	2c02      	cmp	r4, #2
 104:	d03c      	beq.n	180 <driver_proc_input+0x180>
 106:	4b2d      	ldr	r3, [pc, #180]	; (1bc <driver_proc_input+0x1bc>)
 108:	781c      	ldrb	r4, [r3, #0]
 10a:	f897 303d 	ldrb.w	r3, [r7, #61]	; 0x3d
 10e:	f3c3 0380 	ubfx	r3, r3, #2, #1
 112:	42a3      	cmp	r3, r4
 114:	d012      	beq.n	13c <driver_proc_input+0x13c>
 116:	2c00      	cmp	r4, #0
 118:	d03f      	beq.n	19a <driver_proc_input+0x19a>
 11a:	4b29      	ldr	r3, [pc, #164]	; (1c0 <driver_proc_input+0x1c0>)
 11c:	4638      	mov	r0, r7
 11e:	4a29      	ldr	r2, [pc, #164]	; (1c4 <driver_proc_input+0x1c4>)
 120:	881b      	ldrh	r3, [r3, #0]
 122:	f3c3 0140 	ubfx	r1, r3, #1, #1
 126:	7011      	strb	r1, [r2, #0]
 128:	f3c3 0180 	ubfx	r1, r3, #2, #1
 12c:	4a26      	ldr	r2, [pc, #152]	; (1c8 <driver_proc_input+0x1c8>)
 12e:	f3c3 3380 	ubfx	r3, r3, #14, #1
 132:	7011      	strb	r1, [r2, #0]
 134:	4a25      	ldr	r2, [pc, #148]	; (1cc <driver_proc_input+0x1cc>)
 136:	7013      	strb	r3, [r2, #0]
 138:	f7ff fffe 	bl	0 <netif_set_link_up>
 13c:	2400      	movs	r4, #0
 13e:	602c      	str	r4, [r5, #0]
 140:	e765      	b.n	e <driver_proc_input+0xe>
 142:	8863      	ldrh	r3, [r4, #2]
 144:	f403 5300 	and.w	r3, r3, #8192	; 0x2000
 148:	f443 4300 	orr.w	r3, r3, #32768	; 0x8000
 14c:	8063      	strh	r3, [r4, #2]
 14e:	f04f 7380 	mov.w	r3, #16777216	; 0x1000000
 152:	f8c8 3010 	str.w	r3, [r8, #16]
 156:	e7b9      	b.n	cc <driver_proc_input+0xcc>
 158:	4a1d      	ldr	r2, [pc, #116]	; (1d0 <driver_proc_input+0x1d0>)
 15a:	6851      	ldr	r1, [r2, #4]
 15c:	020e      	lsls	r6, r1, #8
 15e:	d5ee      	bpl.n	13e <driver_proc_input+0x13e>
 160:	6c13      	ldr	r3, [r2, #64]	; 0x40
 162:	f44f 0100 	mov.w	r1, #8388608	; 0x800000
 166:	f003 0304 	and.w	r3, r3, #4
 16a:	6051      	str	r1, [r2, #4]
 16c:	2b00      	cmp	r3, #0
 16e:	4b13      	ldr	r3, [pc, #76]	; (1bc <driver_proc_input+0x1bc>)
 170:	bf14      	ite	ne
 172:	2401      	movne	r4, #1
 174:	2400      	moveq	r4, #0
 176:	701c      	strb	r4, [r3, #0]
 178:	d0c7      	beq.n	10a <driver_proc_input+0x10a>
 17a:	4b16      	ldr	r3, [pc, #88]	; (1d4 <driver_proc_input+0x1d4>)
 17c:	6051      	str	r1, [r2, #4]
 17e:	6413      	str	r3, [r2, #64]	; 0x40
 180:	4b13      	ldr	r3, [pc, #76]	; (1d0 <driver_proc_input+0x1d0>)
 182:	685a      	ldr	r2, [r3, #4]
 184:	0214      	lsls	r4, r2, #8
 186:	d50c      	bpl.n	1a2 <driver_proc_input+0x1a2>
 188:	6c19      	ldr	r1, [r3, #64]	; 0x40
 18a:	4a0d      	ldr	r2, [pc, #52]	; (1c0 <driver_proc_input+0x1c0>)
 18c:	8011      	strh	r1, [r2, #0]
 18e:	f44f 0100 	mov.w	r1, #8388608	; 0x800000
 192:	4a0a      	ldr	r2, [pc, #40]	; (1bc <driver_proc_input+0x1bc>)
 194:	6059      	str	r1, [r3, #4]
 196:	7814      	ldrb	r4, [r2, #0]
 198:	e7b7      	b.n	10a <driver_proc_input+0x10a>
 19a:	4638      	mov	r0, r7
 19c:	f7ff fffe 	bl	0 <netif_set_link_down>
 1a0:	e7cd      	b.n	13e <driver_proc_input+0x13e>
 1a2:	2402      	movs	r4, #2
 1a4:	e7cb      	b.n	13e <driver_proc_input+0x13e>
 1a6:	bf00      	nop
 1a8:	00000000 	.word	0x00000000
 1ac:	00000000 	.word	0x00000000
 1b0:	00000000 	.word	0x00000000
 1b4:	00000000 	.word	0x00000000
 1b8:	00000000 	.word	0x00000000
 1bc:	00000000 	.word	0x00000000
 1c0:	00000000 	.word	0x00000000
 1c4:	00000000 	.word	0x00000000
 1c8:	00000000 	.word	0x00000000
 1cc:	00000000 	.word	0x00000000
 1d0:	402d8000 	.word	0x402d8000
 1d4:	60420000 	.word	0x60420000

Disassembly of section .text.driver_poll:

00000000 <driver_poll>:
   0:	b538      	push	{r3, r4, r5, lr}
   2:	4b2d      	ldr	r3, [pc, #180]	; (b8 <driver_poll+0xb8>)
   4:	4d2d      	ldr	r5, [pc, #180]	; (bc <driver_poll+0xbc>)
   6:	781a      	ldrb	r2, [r3, #0]
   8:	682b      	ldr	r3, [r5, #0]
   a:	2a04      	cmp	r2, #4
   c:	d126      	bne.n	5c <driver_poll+0x5c>
   e:	2b01      	cmp	r3, #1
  10:	dd27      	ble.n	62 <driver_poll+0x62>
  12:	2b02      	cmp	r3, #2
  14:	d127      	bne.n	66 <driver_poll+0x66>
  16:	4b2a      	ldr	r3, [pc, #168]	; (c0 <driver_poll+0xc0>)
  18:	685a      	ldr	r2, [r3, #4]
  1a:	0212      	lsls	r2, r2, #8
  1c:	d52a      	bpl.n	74 <driver_poll+0x74>
  1e:	6c19      	ldr	r1, [r3, #64]	; 0x40
  20:	4a28      	ldr	r2, [pc, #160]	; (c4 <driver_poll+0xc4>)
  22:	8011      	strh	r1, [r2, #0]
  24:	f44f 0100 	mov.w	r1, #8388608	; 0x800000
  28:	4a27      	ldr	r2, [pc, #156]	; (c8 <driver_poll+0xc8>)
  2a:	6059      	str	r1, [r3, #4]
  2c:	7814      	ldrb	r4, [r2, #0]
  2e:	f890 303d 	ldrb.w	r3, [r0, #61]	; 0x3d
  32:	f3c3 0380 	ubfx	r3, r3, #2, #1
  36:	42a3      	cmp	r3, r4
  38:	d010      	beq.n	5c <driver_poll+0x5c>
  3a:	b1bc      	cbz	r4, 6c <driver_poll+0x6c>
  3c:	4b21      	ldr	r3, [pc, #132]	; (c4 <driver_poll+0xc4>)
  3e:	4a23      	ldr	r2, [pc, #140]	; (cc <driver_poll+0xcc>)
  40:	881b      	ldrh	r3, [r3, #0]
  42:	f3c3 0140 	ubfx	r1, r3, #1, #1
  46:	7011      	strb	r1, [r2, #0]
  48:	f3c3 0180 	ubfx	r1, r3, #2, #1
  4c:	4a20      	ldr	r2, [pc, #128]	; (d0 <driver_poll+0xd0>)
  4e:	f3c3 3380 	ubfx	r3, r3, #14, #1
  52:	7011      	strb	r1, [r2, #0]
  54:	4a1f      	ldr	r2, [pc, #124]	; (d4 <driver_poll+0xd4>)
  56:	7013      	strb	r3, [r2, #0]
  58:	f7ff fffe 	bl	0 <netif_set_link_up>
  5c:	2400      	movs	r4, #0
  5e:	602c      	str	r4, [r5, #0]
  60:	bd38      	pop	{r3, r4, r5, pc}
  62:	2b00      	cmp	r3, #0
  64:	da08      	bge.n	78 <driver_poll+0x78>
  66:	4b18      	ldr	r3, [pc, #96]	; (c8 <driver_poll+0xc8>)
  68:	781c      	ldrb	r4, [r3, #0]
  6a:	e7e0      	b.n	2e <driver_poll+0x2e>
  6c:	f7ff fffe 	bl	0 <netif_set_link_down>
  70:	602c      	str	r4, [r5, #0]
  72:	bd38      	pop	{r3, r4, r5, pc}
  74:	2402      	movs	r4, #2
  76:	e7f2      	b.n	5e <driver_poll+0x5e>
  78:	2b01      	cmp	r3, #1
  7a:	d005      	beq.n	88 <driver_poll+0x88>
  7c:	4b10      	ldr	r3, [pc, #64]	; (c0 <driver_poll+0xc0>)
  7e:	f44f 0100 	mov.w	r1, #8388608	; 0x800000
  82:	4a15      	ldr	r2, [pc, #84]	; (d8 <driver_poll+0xd8>)
  84:	6059      	str	r1, [r3, #4]
  86:	641a      	str	r2, [r3, #64]	; 0x40
  88:	4b0d      	ldr	r3, [pc, #52]	; (c0 <driver_poll+0xc0>)
  8a:	685a      	ldr	r2, [r3, #4]
  8c:	0211      	lsls	r1, r2, #8
  8e:	d510      	bpl.n	b2 <driver_poll+0xb2>
  90:	6c1a      	ldr	r2, [r3, #64]	; 0x40
  92:	f44f 0100 	mov.w	r1, #8388608	; 0x800000
  96:	f002 0204 	and.w	r2, r2, #4
  9a:	6059      	str	r1, [r3, #4]
  9c:	2a00      	cmp	r2, #0
  9e:	4a0a      	ldr	r2, [pc, #40]	; (c8 <driver_poll+0xc8>)
  a0:	bf14      	ite	ne
  a2:	2401      	movne	r4, #1
  a4:	2400      	moveq	r4, #0
  a6:	7014      	strb	r4, [r2, #0]
  a8:	d0c1      	beq.n	2e <driver_poll+0x2e>
  aa:	4a0c      	ldr	r2, [pc, #48]	; (dc <driver_poll+0xdc>)
  ac:	6059      	str	r1, [r3, #4]
  ae:	641a      	str	r2, [r3, #64]	; 0x40
  b0:	e7b1      	b.n	16 <driver_poll+0x16>
  b2:	2401      	movs	r4, #1
  b4:	e7d3      	b.n	5e <driver_poll+0x5e>
  b6:	bf00      	nop
  b8:	00000000 	.word	0x00000000
  bc:	00000000 	.word	0x00000000
  c0:	402d8000 	.word	0x402d8000
  c4:	00000000 	.word	0x00000000
  c8:	00000000 	.word	0x00000000
  cc:	00000000 	.word	0x00000000
  d0:	00000000 	.word	0x00000000
  d4:	00000000 	.word	0x00000000
  d8:	60060000 	.word	0x60060000
  dc:	60420000 	.word	0x60420000

Disassembly of section .text.driver_link_speed:

00000000 <driver_link_speed>:
   0:	4b03      	ldr	r3, [pc, #12]	; (10 <driver_link_speed+0x10>)
   2:	781b      	ldrb	r3, [r3, #0]
   4:	2b00      	cmp	r3, #0
   6:	bf14      	ite	ne
   8:	200a      	movne	r0, #10
   a:	2064      	moveq	r0, #100	; 0x64
   c:	4770      	bx	lr
   e:	bf00      	nop
  10:	00000000 	.word	0x00000000

Disassembly of section .text.driver_link_is_full_duplex:

00000000 <driver_link_is_full_duplex>:
   0:	4b01      	ldr	r3, [pc, #4]	; (8 <driver_link_is_full_duplex+0x8>)
   2:	7818      	ldrb	r0, [r3, #0]
   4:	4770      	bx	lr
   6:	bf00      	nop
   8:	00000000 	.word	0x00000000

Disassembly of section .text.driver_link_is_crossover:

00000000 <driver_link_is_crossover>:
   0:	4b01      	ldr	r3, [pc, #4]	; (8 <driver_link_is_crossover+0x8>)
   2:	7818      	ldrb	r0, [r3, #0]
   4:	4770      	bx	lr
   6:	bf00      	nop
   8:	00000000 	.word	0x00000000

Disassembly of section .text.driver_output:

00000000 <driver_output>:
   0:	b538      	push	{r3, r4, r5, lr}
   2:	4d1e      	ldr	r5, [pc, #120]	; (7c <driver_output+0x7c>)
   4:	682c      	ldr	r4, [r5, #0]
   6:	8862      	ldrh	r2, [r4, #2]
   8:	0413      	lsls	r3, r2, #16
   a:	d431      	bmi.n	70 <driver_output+0x70>
   c:	6861      	ldr	r1, [r4, #4]
   e:	2300      	movs	r3, #0
  10:	8902      	ldrh	r2, [r0, #8]
  12:	f7ff fffe 	bl	0 <pbuf_copy_partial>
  16:	b370      	cbz	r0, 76 <driver_output+0x76>
  18:	f100 021f 	add.w	r2, r0, #31
  1c:	6861      	ldr	r1, [r4, #4]
  1e:	f022 021f 	bic.w	r2, r2, #31
  22:	f021 031f 	bic.w	r3, r1, #31
  26:	440a      	add	r2, r1
  28:	f3bf 8f4f 	dsb	sy
  2c:	f04f 21e0 	mov.w	r1, #3758153728	; 0xe000e000
  30:	f8c1 3f70 	str.w	r3, [r1, #3952]	; 0xf70
  34:	3320      	adds	r3, #32
  36:	429a      	cmp	r2, r3
  38:	d8fa      	bhi.n	30 <driver_output+0x30>
  3a:	f3bf 8f4f 	dsb	sy
  3e:	f3bf 8f6f 	isb	sy
  42:	8020      	strh	r0, [r4, #0]
  44:	f04f 7180 	mov.w	r1, #16777216	; 0x1000000
  48:	8863      	ldrh	r3, [r4, #2]
  4a:	4a0d      	ldr	r2, [pc, #52]	; (80 <driver_output+0x80>)
  4c:	f403 5300 	and.w	r3, r3, #8192	; 0x2000
  50:	f443 430c 	orr.w	r3, r3, #35840	; 0x8c00
  54:	8063      	strh	r3, [r4, #2]
  56:	6151      	str	r1, [r2, #20]
  58:	8860      	ldrh	r0, [r4, #2]
  5a:	f410 5000 	ands.w	r0, r0, #8192	; 0x2000
  5e:	d003      	beq.n	68 <driver_output+0x68>
  60:	4b08      	ldr	r3, [pc, #32]	; (84 <driver_output+0x84>)
  62:	2000      	movs	r0, #0
  64:	602b      	str	r3, [r5, #0]
  66:	bd38      	pop	{r3, r4, r5, pc}
  68:	682b      	ldr	r3, [r5, #0]
  6a:	3320      	adds	r3, #32
  6c:	602b      	str	r3, [r5, #0]
  6e:	bd38      	pop	{r3, r4, r5, pc}
  70:	f06f 0006 	mvn.w	r0, #6
  74:	bd38      	pop	{r3, r4, r5, pc}
  76:	f06f 0001 	mvn.w	r0, #1
  7a:	bd38      	pop	{r3, r4, r5, pc}
  7c:	00000000 	.word	0x00000000
  80:	402d8000 	.word	0x402d8000
  84:	00000000 	.word	0x00000000

Disassembly of section .text.driver_set_incoming_mac_address_allowed:

00000000 <driver_set_incoming_mac_address_allowed>:
   0:	2800      	cmp	r0, #0
   2:	d058      	beq.n	b6 <driver_set_incoming_mac_address_allowed+0xb6>
   4:	4a3a      	ldr	r2, [pc, #232]	; (f0 <driver_set_incoming_mac_address_allowed+0xf0>)
   6:	e92d 41f0 	stmdb	sp!, {r4, r5, r6, r7, r8, lr}
   a:	7803      	ldrb	r3, [r0, #0]
   c:	4686      	mov	lr, r0
   e:	4f39      	ldr	r7, [pc, #228]	; (f4 <driver_set_incoming_mac_address_allowed+0xf4>)
  10:	f003 0001 	and.w	r0, r3, #1
  14:	4d38      	ldr	r5, [pc, #224]	; (f8 <driver_set_incoming_mac_address_allowed+0xf8>)
  16:	4e39      	ldr	r6, [pc, #228]	; (fc <driver_set_incoming_mac_address_allowed+0xfc>)
  18:	2800      	cmp	r0, #0
  1a:	4839      	ldr	r0, [pc, #228]	; (100 <driver_set_incoming_mac_address_allowed+0x100>)
  1c:	4c39      	ldr	r4, [pc, #228]	; (104 <driver_set_incoming_mac_address_allowed+0x104>)
  1e:	bf18      	it	ne
  20:	4617      	movne	r7, r2
  22:	4a39      	ldr	r2, [pc, #228]	; (108 <driver_set_incoming_mac_address_allowed+0x108>)
  24:	bf08      	it	eq
  26:	4680      	moveq	r8, r0
  28:	f10e 0005 	add.w	r0, lr, #5
  2c:	bf18      	it	ne
  2e:	4690      	movne	r8, r2
  30:	4a36      	ldr	r2, [pc, #216]	; (10c <driver_set_incoming_mac_address_allowed+0x10c>)
  32:	bf18      	it	ne
  34:	4615      	movne	r5, r2
  36:	f102 0204 	add.w	r2, r2, #4
  3a:	bf18      	it	ne
  3c:	4616      	movne	r6, r2
  3e:	f04f 32ff 	mov.w	r2, #4294967295	; 0xffffffff
  42:	405a      	eors	r2, r3
  44:	f04f 0c08 	mov.w	ip, #8
  48:	f342 0300 	sbfx	r3, r2, #0, #1
  4c:	f1bc 0c01 	subs.w	ip, ip, #1
  50:	ea03 0304 	and.w	r3, r3, r4
  54:	ea83 0252 	eor.w	r2, r3, r2, lsr #1
  58:	d1f6      	bne.n	48 <driver_set_incoming_mac_address_allowed+0x48>
  5a:	4570      	cmp	r0, lr
  5c:	d002      	beq.n	64 <driver_set_incoming_mac_address_allowed+0x64>
  5e:	f81e 3f01 	ldrb.w	r3, [lr, #1]!
  62:	e7ee      	b.n	42 <driver_set_incoming_mac_address_allowed+0x42>
  64:	f3c2 6084 	ubfx	r0, r2, #26, #5
  68:	2301      	movs	r3, #1
  6a:	2a00      	cmp	r2, #0
  6c:	fa03 f300 	lsl.w	r3, r3, r0
  70:	db09      	blt.n	86 <driver_set_incoming_mac_address_allowed+0x86>
  72:	b309      	cbz	r1, b8 <driver_set_incoming_mac_address_allowed+0xb8>
  74:	6832      	ldr	r2, [r6, #0]
  76:	421a      	tst	r2, r3
  78:	d10f      	bne.n	9a <driver_set_incoming_mac_address_allowed+0x9a>
  7a:	6832      	ldr	r2, [r6, #0]
  7c:	4608      	mov	r0, r1
  7e:	4313      	orrs	r3, r2
  80:	6033      	str	r3, [r6, #0]
  82:	e8bd 81f0 	ldmia.w	sp!, {r4, r5, r6, r7, r8, pc}
  86:	b331      	cbz	r1, d6 <driver_set_incoming_mac_address_allowed+0xd6>
  88:	682a      	ldr	r2, [r5, #0]
  8a:	421a      	tst	r2, r3
  8c:	d00d      	beq.n	aa <driver_set_incoming_mac_address_allowed+0xaa>
  8e:	683a      	ldr	r2, [r7, #0]
  90:	4608      	mov	r0, r1
  92:	431a      	orrs	r2, r3
  94:	603a      	str	r2, [r7, #0]
  96:	e8bd 81f0 	ldmia.w	sp!, {r4, r5, r6, r7, r8, pc}
  9a:	f8d8 2000 	ldr.w	r2, [r8]
  9e:	4608      	mov	r0, r1
  a0:	431a      	orrs	r2, r3
  a2:	f8c8 2000 	str.w	r2, [r8]
  a6:	e8bd 81f0 	ldmia.w	sp!, {r4, r5, r6, r7, r8, pc}
  aa:	682a      	ldr	r2, [r5, #0]
  ac:	4608      	mov	r0, r1
  ae:	4313      	orrs	r3, r2
  b0:	602b      	str	r3, [r5, #0]
  b2:	e8bd 81f0 	ldmia.w	sp!, {r4, r5, r6, r7, r8, pc}
  b6:	4770      	bx	lr
  b8:	f8d8 2000 	ldr.w	r2, [r8]
  bc:	6831      	ldr	r1, [r6, #0]
  be:	ea62 0203 	orn	r2, r2, r3
  c2:	400a      	ands	r2, r1
  c4:	6032      	str	r2, [r6, #0]
  c6:	f8d8 2000 	ldr.w	r2, [r8]
  ca:	4213      	tst	r3, r2
  cc:	bf0c      	ite	eq
  ce:	2001      	moveq	r0, #1
  d0:	2000      	movne	r0, #0
  d2:	e8bd 81f0 	ldmia.w	sp!, {r4, r5, r6, r7, r8, pc}
  d6:	683a      	ldr	r2, [r7, #0]
  d8:	6829      	ldr	r1, [r5, #0]
  da:	ea62 0203 	orn	r2, r2, r3
  de:	400a      	ands	r2, r1
  e0:	602a      	str	r2, [r5, #0]
  e2:	683a      	ldr	r2, [r7, #0]
  e4:	4213      	tst	r3, r2
  e6:	bf0c      	ite	eq
  e8:	2001      	moveq	r0, #1
  ea:	2000      	movne	r0, #0
  ec:	e8bd 81f0 	ldmia.w	sp!, {r4, r5, r6, r7, r8, pc}
  f0:	00000000 	.word	0x00000000
  f4:	00000000 	.word	0x00000000
  f8:	402d8118 	.word	0x402d8118
  fc:	402d811c 	.word	0x402d811c
 100:	00000000 	.word	0x00000000
 104:	edb88320 	.word	0xedb88320
 108:	00000000 	.word	0x00000000
 10c:	402d8120 	.word	0x402d8120
