
build/./libraries/SdFat/src/SpiDriver/SdSpiTeensy3.cpp.o:     file format elf32-littlearm

SYMBOL TABLE:
00000000 l    df *ABS*	00000000 SdSpiTeensy3.cpp
00000000 l    d  .text	00000000 .text
00000000 l    d  .data	00000000 .data
00000000 l    d  .bss	00000000 .bss
00000000 l    d  .text._ZN8SPIClass16beginTransactionE11SPISettings	00000000 .text._ZN8SPIClass16beginTransactionE11SPISettings
00000000 l    d  .text._ZN18SdSpiArduinoDriver8activateEv	00000000 .text._ZN18SdSpiArduinoDriver8activateEv
00000000 l    d  .text._ZN18SdSpiArduinoDriver5beginE11SdSpiConfig	00000000 .text._ZN18SdSpiArduinoDriver5beginE11SdSpiConfig
00000000 l    d  .text._ZN18SdSpiArduinoDriver10deactivateEv	00000000 .text._ZN18SdSpiArduinoDriver10deactivateEv
00000000 l    d  .text._ZN18SdSpiArduinoDriver3endEv	00000000 .text._ZN18SdSpiArduinoDriver3endEv
00000000 l    d  .text._ZN18SdSpiArduinoDriver7receiveEv	00000000 .text._ZN18SdSpiArduinoDriver7receiveEv
00000000 l    d  .text._ZN18SdSpiArduinoDriver7receiveEPhj	00000000 .text._ZN18SdSpiArduinoDriver7receiveEPhj
00000000 l    d  .text._ZN18SdSpiArduinoDriver4sendEh	00000000 .text._ZN18SdSpiArduinoDriver4sendEh
00000000 l    d  .text._ZN18SdSpiArduinoDriver4sendEPKhj	00000000 .text._ZN18SdSpiArduinoDriver4sendEPKhj
00000000 l    d  .rodata._ZZN8SPIClass16beginTransactionE11SPISettingsE7clk_sel	00000000 .rodata._ZZN8SPIClass16beginTransactionE11SPISettingsE7clk_sel
00000000 l    d  .comment	00000000 .comment
00000000 l    d  .ARM.attributes	00000000 .ARM.attributes
00000000 l    d  .group	00000000 .group
00000000 l    d  .group	00000000 .group
00000000  w    F .text._ZN8SPIClass16beginTransactionE11SPISettings	00000110 _ZN8SPIClass16beginTransactionE11SPISettings
00000000  w    O .rodata._ZZN8SPIClass16beginTransactionE11SPISettingsE7clk_sel	00000010 _ZZN8SPIClass16beginTransactionE11SPISettingsE7clk_sel
00000000 g     F .text._ZN18SdSpiArduinoDriver8activateEv	00000012 _ZN18SdSpiArduinoDriver8activateEv
00000000 g     F .text._ZN18SdSpiArduinoDriver5beginE11SdSpiConfig	00000028 _ZN18SdSpiArduinoDriver5beginE11SdSpiConfig
00000000         *UND*	00000000 _ZN8SPIClass5beginEv
00000000         *UND*	00000000 SPI
00000000 g     F .text._ZN18SdSpiArduinoDriver10deactivateEv	0000004e _ZN18SdSpiArduinoDriver10deactivateEv
00000000 g     F .text._ZN18SdSpiArduinoDriver3endEv	00000006 _ZN18SdSpiArduinoDriver3endEv
00000000         *UND*	00000000 _ZN8SPIClass3endEv
00000000 g     F .text._ZN18SdSpiArduinoDriver7receiveEv	00000016 _ZN18SdSpiArduinoDriver7receiveEv
00000000 g     F .text._ZN18SdSpiArduinoDriver7receiveEPhj	00000024 _ZN18SdSpiArduinoDriver7receiveEPhj
00000000         *UND*	00000000 memset
00000000         *UND*	00000000 _ZN8SPIClass8transferEPKvPvj
00000000 g     F .text._ZN18SdSpiArduinoDriver4sendEh	00000012 _ZN18SdSpiArduinoDriver4sendEh
00000000 g     F .text._ZN18SdSpiArduinoDriver4sendEPKhj	0000004e _ZN18SdSpiArduinoDriver4sendEPKhj
00000000         *UND*	00000000 memcpy


Contents of section .group:
 0000 01000000 06000000 07000000           ............    
Contents of section .group:
 0000 01000000 15000000                    ........        
Contents of section .text._ZN8SPIClass16beginTransactionE11SPISettings:
 0000 30b482b0 0c4602ab 03e90600 c37c002b  0....F.......|.+
 0010 30d072b6 c37cda07 08d54ff0 e0214569  0.r..|....O..!Ei
 0020 d1f88021 2a408262 c1f88021 9d0708d5  ...!*@.b...!....
 0030 4ff0e021 8569d1f8 84212a40 c262c1f8  O..!.i...!*@.b..
 0040 84215907 08d54ff0 e021c569 d1f88821  .!Y...O..!.i...!
 0050 2a400263 c1f88821 1a0708d5 4ff0e021  *@.c...!....O..!
 0060 056ad1f8 8c212a40 4263c1f8 8c21db06  .j...!*@Bc...!..
 0070 2fd462b6 83689c42 35d0224b 84609b69  /.b..h.B5."K.`.i
 0080 214ac3f3 0111c3f3 826352f8 21100133  !J.......cR.!..3
 0090 b1fbf3f2 ccb19442 27d8b2fb f4f3b2fb  .......B'.......
 00a0 f3f29442 2cd3b3f5 817f20d3 174cc460  ...B,..... ..L.`
 00b0 03680322 00200199 18615a62 01221c64  .h.". ...aZb.".d
 00c0 19661a61 02b030bc 70479942 efd3531c  .f.a..0.pG.B..S.
 00d0 e9e74ff0 e022416a d2f89031 0b408363  ..O.."Aj...1.@.c
 00e0 c2f89031 c5e7c468 e2e70024 dfe7022b  ...1...h...$...+
 00f0 fbd9023b 5a081402 44ea0244 1c43d6e7  ...;Z...D..D.C..
 0100 1a46e4e7 00c00f40 00000000 ff7f7f00  .F.....@........
Contents of section .text._ZN18SdSpiArduinoDriver8activateEv:
 0000 08b50346 53f8040b 93e80600 fff7feff  ...FS...........
 0010 08bd00bf                             ....            
Contents of section .text._ZN18SdSpiArduinoDriver5beginE11SdSpiConfig:
 0000 84b00df1 100c0ce9 0e000246 23b11846  ...........F#..F
 0010 136004b0 fff7febf 024b1846 136004b0  .`.......K.F.`..
 0020 fff7febf 00000000                    ........        
Contents of section .text._ZN18SdSpiArduinoDriver10deactivateEv:
 0000 0268d37c 13b3d807 04d5906a 4ff0e021  .h.|.......jO..!
 0010 c1f80001 990704d5 d06a4ff0 e021c1f8  .........jO..!..
 0020 04015807 04d5106b 4ff0e021 c1f80801  ..X....kO..!....
 0030 190704d5 506b4ff0 e021c1f8 0c01db06  ....PkO..!......
 0040 04d5926b 4ff0e023 c3f81021 704700bf  ...kO..#...!pG..
Contents of section .text._ZN18SdSpiArduinoDriver3endEv:
 0000 0068fff7 febf00bf                    .h......        
Contents of section .text._ZN18SdSpiArduinoDriver7receiveEv:
 0000 0268ff23 12685366 d36d13f4 f81ffbd0  .h.#.hSf.m......
 0010 506fc0b2 704700bf                    Po..pG..        
Contents of section .text._ZN18SdSpiArduinoDriver7receiveEPhj:
 0000 30b50c46 83b00546 ff212046 0192fff7  0..F...F.! F....
 0010 feff2868 019b2246 2146fff7 feff0020  ..(h.."F!F..... 
 0020 03b030bd                             ..0.            
Contents of section .text._ZN18SdSpiArduinoDriver4sendEh:
 0000 03681a68 5166d36d 13f4f81f fbd0536f  .h.hQf.m......So
 0010 704700bf                             pG..            
Contents of section .text._ZN18SdSpiArduinoDriver4sendEPKhj:
 0000 531eb3f5 007f30b5 1446adf5 017d0546  S.....0..F...}.F
 0010 11d36ab1 0368481e 19688218 10f8013f  ..j..hH..h.....?
 0020 4b66cb6d 13f4f81f fbd09042 4b6ff5d1  Kf.m.......BKo..
 0030 0df5017d 30bd6846 fff7feff 6a462346  ...}0.hF....jF#F
 0040 28681146 fff7feff 0df5017d 30bd00bf  (h.F.......}0...
Contents of section .rodata._ZZN8SPIClass16beginTransactionE11SPISettingsE7clk_sel:
 0000 d8399d27 0054ea2a 00a4781f 007b9a17  .9.'.T.*..x..{..
Contents of section .comment:
 0000 00474343 3a202841 726d2047 4e552054  .GCC: (Arm GNU T
 0010 6f6f6c63 6861696e 2031312e 332e5265  oolchain 11.3.Re
 0020 6c312920 31312e33 2e312032 30323230  l1) 11.3.1 20220
 0030 37313200                             712.            
Contents of section .ARM.attributes:
 0000 41310000 00616561 62690001 27000000  A1...aeabi..'...
 0010 0537452d 4d00060d 074d0902 0a081204  .7E-M....M......
 0020 14011501 17031801 19011a01 1c011e02  ................
 0030 2201                                 ".              

Disassembly of section .text._ZN8SPIClass16beginTransactionE11SPISettings:

00000000 <_ZN8SPIClass16beginTransactionE11SPISettings>:
   0:	b430      	push	{r4, r5}
   2:	b082      	sub	sp, #8
   4:	460c      	mov	r4, r1
   6:	ab02      	add	r3, sp, #8
   8:	e903 0006 	stmdb	r3, {r1, r2}
   c:	7cc3      	ldrb	r3, [r0, #19]
   e:	2b00      	cmp	r3, #0
  10:	d030      	beq.n	74 <_ZN8SPIClass16beginTransactionE11SPISettings+0x74>
  12:	b672      	cpsid	i
  14:	7cc3      	ldrb	r3, [r0, #19]
  16:	07da      	lsls	r2, r3, #31
  18:	d508      	bpl.n	2c <_ZN8SPIClass16beginTransactionE11SPISettings+0x2c>
  1a:	f04f 21e0 	mov.w	r1, #3758153728	; 0xe000e000
  1e:	6945      	ldr	r5, [r0, #20]
  20:	f8d1 2180 	ldr.w	r2, [r1, #384]	; 0x180
  24:	402a      	ands	r2, r5
  26:	6282      	str	r2, [r0, #40]	; 0x28
  28:	f8c1 2180 	str.w	r2, [r1, #384]	; 0x180
  2c:	079d      	lsls	r5, r3, #30
  2e:	d508      	bpl.n	42 <_ZN8SPIClass16beginTransactionE11SPISettings+0x42>
  30:	f04f 21e0 	mov.w	r1, #3758153728	; 0xe000e000
  34:	6985      	ldr	r5, [r0, #24]
  36:	f8d1 2184 	ldr.w	r2, [r1, #388]	; 0x184
  3a:	402a      	ands	r2, r5
  3c:	62c2      	str	r2, [r0, #44]	; 0x2c
  3e:	f8c1 2184 	str.w	r2, [r1, #388]	; 0x184
  42:	0759      	lsls	r1, r3, #29
  44:	d508      	bpl.n	58 <_ZN8SPIClass16beginTransactionE11SPISettings+0x58>
  46:	f04f 21e0 	mov.w	r1, #3758153728	; 0xe000e000
  4a:	69c5      	ldr	r5, [r0, #28]
  4c:	f8d1 2188 	ldr.w	r2, [r1, #392]	; 0x188
  50:	402a      	ands	r2, r5
  52:	6302      	str	r2, [r0, #48]	; 0x30
  54:	f8c1 2188 	str.w	r2, [r1, #392]	; 0x188
  58:	071a      	lsls	r2, r3, #28
  5a:	d508      	bpl.n	6e <_ZN8SPIClass16beginTransactionE11SPISettings+0x6e>
  5c:	f04f 21e0 	mov.w	r1, #3758153728	; 0xe000e000
  60:	6a05      	ldr	r5, [r0, #32]
  62:	f8d1 218c 	ldr.w	r2, [r1, #396]	; 0x18c
  66:	402a      	ands	r2, r5
  68:	6342      	str	r2, [r0, #52]	; 0x34
  6a:	f8c1 218c 	str.w	r2, [r1, #396]	; 0x18c
  6e:	06db      	lsls	r3, r3, #27
  70:	d42f      	bmi.n	d2 <_ZN8SPIClass16beginTransactionE11SPISettings+0xd2>
  72:	b662      	cpsie	i
  74:	6883      	ldr	r3, [r0, #8]
  76:	429c      	cmp	r4, r3
  78:	d035      	beq.n	e6 <_ZN8SPIClass16beginTransactionE11SPISettings+0xe6>
  7a:	4b22      	ldr	r3, [pc, #136]	; (104 <_ZN8SPIClass16beginTransactionE11SPISettings+0x104>)
  7c:	6084      	str	r4, [r0, #8]
  7e:	699b      	ldr	r3, [r3, #24]
  80:	4a21      	ldr	r2, [pc, #132]	; (108 <_ZN8SPIClass16beginTransactionE11SPISettings+0x108>)
  82:	f3c3 1101 	ubfx	r1, r3, #4, #2
  86:	f3c3 6382 	ubfx	r3, r3, #26, #3
  8a:	f852 1021 	ldr.w	r1, [r2, r1, lsl #2]
  8e:	3301      	adds	r3, #1
  90:	fbb1 f2f3 	udiv	r2, r1, r3
  94:	b1cc      	cbz	r4, ca <_ZN8SPIClass16beginTransactionE11SPISettings+0xca>
  96:	4294      	cmp	r4, r2
  98:	d827      	bhi.n	ea <_ZN8SPIClass16beginTransactionE11SPISettings+0xea>
  9a:	fbb2 f3f4 	udiv	r3, r2, r4
  9e:	fbb2 f2f3 	udiv	r2, r2, r3
  a2:	4294      	cmp	r4, r2
  a4:	d32c      	bcc.n	100 <_ZN8SPIClass16beginTransactionE11SPISettings+0x100>
  a6:	f5b3 7f81 	cmp.w	r3, #258	; 0x102
  aa:	d320      	bcc.n	ee <_ZN8SPIClass16beginTransactionE11SPISettings+0xee>
  ac:	4c17      	ldr	r4, [pc, #92]	; (10c <_ZN8SPIClass16beginTransactionE11SPISettings+0x10c>)
  ae:	60c4      	str	r4, [r0, #12]
  b0:	6803      	ldr	r3, [r0, #0]
  b2:	2203      	movs	r2, #3
  b4:	2000      	movs	r0, #0
  b6:	9901      	ldr	r1, [sp, #4]
  b8:	6118      	str	r0, [r3, #16]
  ba:	625a      	str	r2, [r3, #36]	; 0x24
  bc:	2201      	movs	r2, #1
  be:	641c      	str	r4, [r3, #64]	; 0x40
  c0:	6619      	str	r1, [r3, #96]	; 0x60
  c2:	611a      	str	r2, [r3, #16]
  c4:	b002      	add	sp, #8
  c6:	bc30      	pop	{r4, r5}
  c8:	4770      	bx	lr
  ca:	4299      	cmp	r1, r3
  cc:	d3ef      	bcc.n	ae <_ZN8SPIClass16beginTransactionE11SPISettings+0xae>
  ce:	1c53      	adds	r3, r2, #1
  d0:	e7e9      	b.n	a6 <_ZN8SPIClass16beginTransactionE11SPISettings+0xa6>
  d2:	f04f 22e0 	mov.w	r2, #3758153728	; 0xe000e000
  d6:	6a41      	ldr	r1, [r0, #36]	; 0x24
  d8:	f8d2 3190 	ldr.w	r3, [r2, #400]	; 0x190
  dc:	400b      	ands	r3, r1
  de:	6383      	str	r3, [r0, #56]	; 0x38
  e0:	f8c2 3190 	str.w	r3, [r2, #400]	; 0x190
  e4:	e7c5      	b.n	72 <_ZN8SPIClass16beginTransactionE11SPISettings+0x72>
  e6:	68c4      	ldr	r4, [r0, #12]
  e8:	e7e2      	b.n	b0 <_ZN8SPIClass16beginTransactionE11SPISettings+0xb0>
  ea:	2400      	movs	r4, #0
  ec:	e7df      	b.n	ae <_ZN8SPIClass16beginTransactionE11SPISettings+0xae>
  ee:	2b02      	cmp	r3, #2
  f0:	d9fb      	bls.n	ea <_ZN8SPIClass16beginTransactionE11SPISettings+0xea>
  f2:	3b02      	subs	r3, #2
  f4:	085a      	lsrs	r2, r3, #1
  f6:	0214      	lsls	r4, r2, #8
  f8:	ea44 4402 	orr.w	r4, r4, r2, lsl #16
  fc:	431c      	orrs	r4, r3
  fe:	e7d6      	b.n	ae <_ZN8SPIClass16beginTransactionE11SPISettings+0xae>
 100:	461a      	mov	r2, r3
 102:	e7e4      	b.n	ce <_ZN8SPIClass16beginTransactionE11SPISettings+0xce>
 104:	400fc000 	.word	0x400fc000
 108:	00000000 	.word	0x00000000
 10c:	007f7fff 	.word	0x007f7fff

Disassembly of section .text._ZN18SdSpiArduinoDriver8activateEv:

00000000 <_ZN18SdSpiArduinoDriver8activateEv>:
   0:	b508      	push	{r3, lr}
   2:	4603      	mov	r3, r0
   4:	f853 0b04 	ldr.w	r0, [r3], #4
   8:	e893 0006 	ldmia.w	r3, {r1, r2}
   c:	f7ff fffe 	bl	0 <_ZN18SdSpiArduinoDriver8activateEv>
  10:	bd08      	pop	{r3, pc}
  12:	bf00      	nop

Disassembly of section .text._ZN18SdSpiArduinoDriver5beginE11SdSpiConfig:

00000000 <_ZN18SdSpiArduinoDriver5beginE11SdSpiConfig>:
   0:	b084      	sub	sp, #16
   2:	f10d 0c10 	add.w	ip, sp, #16
   6:	e90c 000e 	stmdb	ip, {r1, r2, r3}
   a:	4602      	mov	r2, r0
   c:	b123      	cbz	r3, 18 <_ZN18SdSpiArduinoDriver5beginE11SdSpiConfig+0x18>
   e:	4618      	mov	r0, r3
  10:	6013      	str	r3, [r2, #0]
  12:	b004      	add	sp, #16
  14:	f7ff bffe 	b.w	0 <_ZN8SPIClass5beginEv>
  18:	4b02      	ldr	r3, [pc, #8]	; (24 <_ZN18SdSpiArduinoDriver5beginE11SdSpiConfig+0x24>)
  1a:	4618      	mov	r0, r3
  1c:	6013      	str	r3, [r2, #0]
  1e:	b004      	add	sp, #16
  20:	f7ff bffe 	b.w	0 <_ZN8SPIClass5beginEv>
  24:	00000000 	.word	0x00000000

Disassembly of section .text._ZN18SdSpiArduinoDriver10deactivateEv:

00000000 <_ZN18SdSpiArduinoDriver10deactivateEv>:
   0:	6802      	ldr	r2, [r0, #0]
   2:	7cd3      	ldrb	r3, [r2, #19]
   4:	b313      	cbz	r3, 4c <_ZN18SdSpiArduinoDriver10deactivateEv+0x4c>
   6:	07d8      	lsls	r0, r3, #31
   8:	d504      	bpl.n	14 <_ZN18SdSpiArduinoDriver10deactivateEv+0x14>
   a:	6a90      	ldr	r0, [r2, #40]	; 0x28
   c:	f04f 21e0 	mov.w	r1, #3758153728	; 0xe000e000
  10:	f8c1 0100 	str.w	r0, [r1, #256]	; 0x100
  14:	0799      	lsls	r1, r3, #30
  16:	d504      	bpl.n	22 <_ZN18SdSpiArduinoDriver10deactivateEv+0x22>
  18:	6ad0      	ldr	r0, [r2, #44]	; 0x2c
  1a:	f04f 21e0 	mov.w	r1, #3758153728	; 0xe000e000
  1e:	f8c1 0104 	str.w	r0, [r1, #260]	; 0x104
  22:	0758      	lsls	r0, r3, #29
  24:	d504      	bpl.n	30 <_ZN18SdSpiArduinoDriver10deactivateEv+0x30>
  26:	6b10      	ldr	r0, [r2, #48]	; 0x30
  28:	f04f 21e0 	mov.w	r1, #3758153728	; 0xe000e000
  2c:	f8c1 0108 	str.w	r0, [r1, #264]	; 0x108
  30:	0719      	lsls	r1, r3, #28
  32:	d504      	bpl.n	3e <_ZN18SdSpiArduinoDriver10deactivateEv+0x3e>
  34:	6b50      	ldr	r0, [r2, #52]	; 0x34
  36:	f04f 21e0 	mov.w	r1, #3758153728	; 0xe000e000
  3a:	f8c1 010c 	str.w	r0, [r1, #268]	; 0x10c
  3e:	06db      	lsls	r3, r3, #27
  40:	d504      	bpl.n	4c <_ZN18SdSpiArduinoDriver10deactivateEv+0x4c>
  42:	6b92      	ldr	r2, [r2, #56]	; 0x38
  44:	f04f 23e0 	mov.w	r3, #3758153728	; 0xe000e000
  48:	f8c3 2110 	str.w	r2, [r3, #272]	; 0x110
  4c:	4770      	bx	lr
  4e:	bf00      	nop

Disassembly of section .text._ZN18SdSpiArduinoDriver3endEv:

00000000 <_ZN18SdSpiArduinoDriver3endEv>:
   0:	6800      	ldr	r0, [r0, #0]
   2:	f7ff bffe 	b.w	0 <_ZN8SPIClass3endEv>
   6:	bf00      	nop

Disassembly of section .text._ZN18SdSpiArduinoDriver7receiveEv:

00000000 <_ZN18SdSpiArduinoDriver7receiveEv>:
   0:	6802      	ldr	r2, [r0, #0]
   2:	23ff      	movs	r3, #255	; 0xff
   4:	6812      	ldr	r2, [r2, #0]
   6:	6653      	str	r3, [r2, #100]	; 0x64
   8:	6dd3      	ldr	r3, [r2, #92]	; 0x5c
   a:	f413 1ff8 	tst.w	r3, #2031616	; 0x1f0000
   e:	d0fb      	beq.n	8 <_ZN18SdSpiArduinoDriver7receiveEv+0x8>
  10:	6f50      	ldr	r0, [r2, #116]	; 0x74
  12:	b2c0      	uxtb	r0, r0
  14:	4770      	bx	lr
  16:	bf00      	nop

Disassembly of section .text._ZN18SdSpiArduinoDriver7receiveEPhj:

00000000 <_ZN18SdSpiArduinoDriver7receiveEPhj>:
   0:	b530      	push	{r4, r5, lr}
   2:	460c      	mov	r4, r1
   4:	b083      	sub	sp, #12
   6:	4605      	mov	r5, r0
   8:	21ff      	movs	r1, #255	; 0xff
   a:	4620      	mov	r0, r4
   c:	9201      	str	r2, [sp, #4]
   e:	f7ff fffe 	bl	0 <memset>
  12:	6828      	ldr	r0, [r5, #0]
  14:	9b01      	ldr	r3, [sp, #4]
  16:	4622      	mov	r2, r4
  18:	4621      	mov	r1, r4
  1a:	f7ff fffe 	bl	0 <_ZN8SPIClass8transferEPKvPvj>
  1e:	2000      	movs	r0, #0
  20:	b003      	add	sp, #12
  22:	bd30      	pop	{r4, r5, pc}

Disassembly of section .text._ZN18SdSpiArduinoDriver4sendEh:

00000000 <_ZN18SdSpiArduinoDriver4sendEh>:
   0:	6803      	ldr	r3, [r0, #0]
   2:	681a      	ldr	r2, [r3, #0]
   4:	6651      	str	r1, [r2, #100]	; 0x64
   6:	6dd3      	ldr	r3, [r2, #92]	; 0x5c
   8:	f413 1ff8 	tst.w	r3, #2031616	; 0x1f0000
   c:	d0fb      	beq.n	6 <_ZN18SdSpiArduinoDriver4sendEh+0x6>
   e:	6f53      	ldr	r3, [r2, #116]	; 0x74
  10:	4770      	bx	lr
  12:	bf00      	nop

Disassembly of section .text._ZN18SdSpiArduinoDriver4sendEPKhj:

00000000 <_ZN18SdSpiArduinoDriver4sendEPKhj>:
   0:	1e53      	subs	r3, r2, #1
   2:	f5b3 7f00 	cmp.w	r3, #512	; 0x200
   6:	b530      	push	{r4, r5, lr}
   8:	4614      	mov	r4, r2
   a:	f5ad 7d01 	sub.w	sp, sp, #516	; 0x204
   e:	4605      	mov	r5, r0
  10:	d311      	bcc.n	36 <_ZN18SdSpiArduinoDriver4sendEPKhj+0x36>
  12:	b16a      	cbz	r2, 30 <_ZN18SdSpiArduinoDriver4sendEPKhj+0x30>
  14:	6803      	ldr	r3, [r0, #0]
  16:	1e48      	subs	r0, r1, #1
  18:	6819      	ldr	r1, [r3, #0]
  1a:	1882      	adds	r2, r0, r2
  1c:	f810 3f01 	ldrb.w	r3, [r0, #1]!
  20:	664b      	str	r3, [r1, #100]	; 0x64
  22:	6dcb      	ldr	r3, [r1, #92]	; 0x5c
  24:	f413 1ff8 	tst.w	r3, #2031616	; 0x1f0000
  28:	d0fb      	beq.n	22 <_ZN18SdSpiArduinoDriver4sendEPKhj+0x22>
  2a:	4290      	cmp	r0, r2
  2c:	6f4b      	ldr	r3, [r1, #116]	; 0x74
  2e:	d1f5      	bne.n	1c <_ZN18SdSpiArduinoDriver4sendEPKhj+0x1c>
  30:	f50d 7d01 	add.w	sp, sp, #516	; 0x204
  34:	bd30      	pop	{r4, r5, pc}
  36:	4668      	mov	r0, sp
  38:	f7ff fffe 	bl	0 <memcpy>
  3c:	466a      	mov	r2, sp
  3e:	4623      	mov	r3, r4
  40:	6828      	ldr	r0, [r5, #0]
  42:	4611      	mov	r1, r2
  44:	f7ff fffe 	bl	0 <_ZN8SPIClass8transferEPKvPvj>
  48:	f50d 7d01 	add.w	sp, sp, #516	; 0x204
  4c:	bd30      	pop	{r4, r5, pc}
  4e:	bf00      	nop
