
build/./libraries/Adafruit_ICM20X/Adafruit_ICM20X.cpp.o:     file format elf32-littlearm

SYMBOL TABLE:
00000000 l    df *ABS*	00000000 Adafruit_ICM20X.cpp
00000000 l    d  .text	00000000 .text
00000000 l    d  .data	00000000 .data
00000000 l    d  .bss	00000000 .bss
00000000 l    d  .text._ZN15Adafruit_Sensor15enableAutoRangeEb	00000000 .text._ZN15Adafruit_Sensor15enableAutoRangeEb
00000000 l    d  .text._ZN15Adafruit_ICM20X9begin_I2CEhP7TwoWirel	00000000 .text._ZN15Adafruit_ICM20X9begin_I2CEhP7TwoWirel
00000000 l    d  .text._ZN15Adafruit_ICM20X11scaleValuesEv	00000000 .text._ZN15Adafruit_ICM20X11scaleValuesEv
00000000 l    d  .text._ZN20Adafruit_ICM20X_TempD2Ev	00000000 .text._ZN20Adafruit_ICM20X_TempD2Ev
00000000 l    d  .text._ZN28Adafruit_ICM20X_MagnetometerD2Ev	00000000 .text._ZN28Adafruit_ICM20X_MagnetometerD2Ev
00000000 l    d  .text._ZN20Adafruit_ICM20X_GyroD2Ev	00000000 .text._ZN20Adafruit_ICM20X_GyroD2Ev
00000000 l    d  .text._ZN29Adafruit_ICM20X_AccelerometerD2Ev	00000000 .text._ZN29Adafruit_ICM20X_AccelerometerD2Ev
00000000 l    d  .text._ZN29Adafruit_ICM20X_AccelerometerD0Ev	00000000 .text._ZN29Adafruit_ICM20X_AccelerometerD0Ev
00000000 l    d  .text._ZN20Adafruit_ICM20X_GyroD0Ev	00000000 .text._ZN20Adafruit_ICM20X_GyroD0Ev
00000000 l    d  .text._ZN28Adafruit_ICM20X_MagnetometerD0Ev	00000000 .text._ZN28Adafruit_ICM20X_MagnetometerD0Ev
00000000 l    d  .text._ZN20Adafruit_ICM20X_TempD0Ev	00000000 .text._ZN20Adafruit_ICM20X_TempD0Ev
00000000 l    d  .rodata._ZN29Adafruit_ICM20X_Accelerometer9getSensorEP8sensor_t.str1.4	00000000 .rodata._ZN29Adafruit_ICM20X_Accelerometer9getSensorEP8sensor_t.str1.4
00000000 l    d  .text._ZN29Adafruit_ICM20X_Accelerometer9getSensorEP8sensor_t	00000000 .text._ZN29Adafruit_ICM20X_Accelerometer9getSensorEP8sensor_t
00000000 l    d  .rodata._ZN20Adafruit_ICM20X_Gyro9getSensorEP8sensor_t.str1.4	00000000 .rodata._ZN20Adafruit_ICM20X_Gyro9getSensorEP8sensor_t.str1.4
00000000 l    d  .text._ZN20Adafruit_ICM20X_Gyro9getSensorEP8sensor_t	00000000 .text._ZN20Adafruit_ICM20X_Gyro9getSensorEP8sensor_t
00000000 l    d  .rodata._ZN28Adafruit_ICM20X_Magnetometer9getSensorEP8sensor_t.str1.4	00000000 .rodata._ZN28Adafruit_ICM20X_Magnetometer9getSensorEP8sensor_t.str1.4
00000000 l    d  .text._ZN28Adafruit_ICM20X_Magnetometer9getSensorEP8sensor_t	00000000 .text._ZN28Adafruit_ICM20X_Magnetometer9getSensorEP8sensor_t
00000000 l    d  .rodata._ZN20Adafruit_ICM20X_Temp9getSensorEP8sensor_t.str1.4	00000000 .rodata._ZN20Adafruit_ICM20X_Temp9getSensorEP8sensor_t.str1.4
00000000 l    d  .text._ZN20Adafruit_ICM20X_Temp9getSensorEP8sensor_t	00000000 .text._ZN20Adafruit_ICM20X_Temp9getSensorEP8sensor_t
00000000 l    d  .text._ZN15Adafruit_ICM20XC2Ev	00000000 .text._ZN15Adafruit_ICM20XC2Ev
00000000 l    d  .text._ZN15Adafruit_ICM20XD2Ev	00000000 .text._ZN15Adafruit_ICM20XD2Ev
00000000 l    d  .text._ZN15Adafruit_ICM20X5resetEv	00000000 .text._ZN15Adafruit_ICM20X5resetEv
00000000 l    d  .text._ZN15Adafruit_ICM20X14fillAccelEventEP15sensors_event_tm	00000000 .text._ZN15Adafruit_ICM20X14fillAccelEventEP15sensors_event_tm
00000000 l    d  .text._ZN15Adafruit_ICM20X13fillGyroEventEP15sensors_event_tm	00000000 .text._ZN15Adafruit_ICM20X13fillGyroEventEP15sensors_event_tm
00000000 l    d  .text._ZN15Adafruit_ICM20X12fillMagEventEP15sensors_event_tm	00000000 .text._ZN15Adafruit_ICM20X12fillMagEventEP15sensors_event_tm
00000000 l    d  .text._ZN15Adafruit_ICM20X13fillTempEventEP15sensors_event_tm	00000000 .text._ZN15Adafruit_ICM20X13fillTempEventEP15sensors_event_tm
00000000 l    d  .text._ZN15Adafruit_ICM20X5_readEv	00000000 .text._ZN15Adafruit_ICM20X5_readEv
00000000 l    d  .text._ZN15Adafruit_ICM20X8getEventEP15sensors_event_tS1_S1_S1_	00000000 .text._ZN15Adafruit_ICM20X8getEventEP15sensors_event_tS1_S1_S1_
00000000 l    d  .text._ZN29Adafruit_ICM20X_Accelerometer8getEventEP15sensors_event_t	00000000 .text._ZN29Adafruit_ICM20X_Accelerometer8getEventEP15sensors_event_t
00000000 l    d  .text._ZN20Adafruit_ICM20X_Gyro8getEventEP15sensors_event_t	00000000 .text._ZN20Adafruit_ICM20X_Gyro8getEventEP15sensors_event_t
00000000 l    d  .text._ZN28Adafruit_ICM20X_Magnetometer8getEventEP15sensors_event_t	00000000 .text._ZN28Adafruit_ICM20X_Magnetometer8getEventEP15sensors_event_t
00000000 l    d  .text._ZN20Adafruit_ICM20X_Temp8getEventEP15sensors_event_t	00000000 .text._ZN20Adafruit_ICM20X_Temp8getEventEP15sensors_event_t
00000000 l    d  .text._ZN15Adafruit_ICM20X22getAccelerometerSensorEv	00000000 .text._ZN15Adafruit_ICM20X22getAccelerometerSensorEv
00000000 l    d  .text._ZN15Adafruit_ICM20X13getGyroSensorEv	00000000 .text._ZN15Adafruit_ICM20X13getGyroSensorEv
00000000 l    d  .text._ZN15Adafruit_ICM20X21getMagnetometerSensorEv	00000000 .text._ZN15Adafruit_ICM20X21getMagnetometerSensorEv
00000000 l    d  .text._ZN15Adafruit_ICM20X20getTemperatureSensorEv	00000000 .text._ZN15Adafruit_ICM20X20getTemperatureSensorEv
00000000 l    d  .text._ZN15Adafruit_ICM20X8_setBankEh	00000000 .text._ZN15Adafruit_ICM20X8_setBankEh
00000000 l    d  .text._ZN15Adafruit_ICM20X14readAccelRangeEv	00000000 .text._ZN15Adafruit_ICM20X14readAccelRangeEv
00000000 l    d  .text._ZN15Adafruit_ICM20X15writeAccelRangeEh	00000000 .text._ZN15Adafruit_ICM20X15writeAccelRangeEh
00000000 l    d  .text._ZN15Adafruit_ICM20X13readGyroRangeEv	00000000 .text._ZN15Adafruit_ICM20X13readGyroRangeEv
00000000 l    d  .text._ZN15Adafruit_ICM20X14writeGyroRangeEh	00000000 .text._ZN15Adafruit_ICM20X14writeGyroRangeEh
00000000 l    d  .text._ZN15Adafruit_ICM20X19getAccelRateDivisorEv	00000000 .text._ZN15Adafruit_ICM20X19getAccelRateDivisorEv
00000000 l    d  .text._ZN15Adafruit_ICM20X19setAccelRateDivisorEt	00000000 .text._ZN15Adafruit_ICM20X19setAccelRateDivisorEt
00000000 l    d  .text._ZN15Adafruit_ICM20X18getGyroRateDivisorEv	00000000 .text._ZN15Adafruit_ICM20X18getGyroRateDivisorEv
00000000 l    d  .text._ZN15Adafruit_ICM20X18setGyroRateDivisorEh	00000000 .text._ZN15Adafruit_ICM20X18setGyroRateDivisorEh
00000000 l    d  .text._ZN15Adafruit_ICM20X5_initEl	00000000 .text._ZN15Adafruit_ICM20X5_initEl
00000000 l    d  .text._ZN15Adafruit_ICM20X9begin_SPIEhP8SPIClassl	00000000 .text._ZN15Adafruit_ICM20X9begin_SPIEhP8SPIClassl
00000000 l    d  .text._ZN15Adafruit_ICM20X9begin_SPIEaaaal	00000000 .text._ZN15Adafruit_ICM20X9begin_SPIEaaaal
00000000 l    d  .text._ZN15Adafruit_ICM20X15enableAccelDLPFEb21icm20x_accel_cutoff_t	00000000 .text._ZN15Adafruit_ICM20X15enableAccelDLPFEb21icm20x_accel_cutoff_t
00000000 l    d  .text._ZN15Adafruit_ICM20X15enableGyrolDLPFEb20icm20x_gyro_cutoff_t	00000000 .text._ZN15Adafruit_ICM20X15enableGyrolDLPFEb20icm20x_gyro_cutoff_t
00000000 l    d  .text._ZN15Adafruit_ICM20X16setInt1ActiveLowEb	00000000 .text._ZN15Adafruit_ICM20X16setInt1ActiveLowEb
00000000 l    d  .text._ZN15Adafruit_ICM20X16setInt2ActiveLowEb	00000000 .text._ZN15Adafruit_ICM20X16setInt2ActiveLowEb
00000000 l    d  .text._ZN15Adafruit_ICM20X12setI2CBypassEb	00000000 .text._ZN15Adafruit_ICM20X12setI2CBypassEb
00000000 l    d  .text._ZN15Adafruit_ICM20X15enableI2CMasterEb	00000000 .text._ZN15Adafruit_ICM20X15enableI2CMasterEb
00000000 l    d  .text._ZN15Adafruit_ICM20X18configureI2CMasterEv	00000000 .text._ZN15Adafruit_ICM20X18configureI2CMasterEv
00000000 l    d  .text._ZN15Adafruit_ICM20X28auxillaryRegisterTransactionEbhhh	00000000 .text._ZN15Adafruit_ICM20X28auxillaryRegisterTransactionEbhhh
00000000 l    d  .text._ZN15Adafruit_ICM20X20readExternalRegisterEhh	00000000 .text._ZN15Adafruit_ICM20X20readExternalRegisterEhh
00000000 l    d  .text._ZN15Adafruit_ICM20X21writeExternalRegisterEhhh	00000000 .text._ZN15Adafruit_ICM20X21writeExternalRegisterEhhh
00000000 l    d  .text._ZN15Adafruit_ICM20X14resetI2CMasterEv	00000000 .text._ZN15Adafruit_ICM20X14resetI2CMasterEv
00000000 l    d  .rodata._ZTV15Adafruit_ICM20X	00000000 .rodata._ZTV15Adafruit_ICM20X
00000000 l    d  .rodata._ZTV20Adafruit_ICM20X_Gyro	00000000 .rodata._ZTV20Adafruit_ICM20X_Gyro
00000000 l    d  .rodata._ZTV20Adafruit_ICM20X_Temp	00000000 .rodata._ZTV20Adafruit_ICM20X_Temp
00000000 l    d  .rodata._ZTV28Adafruit_ICM20X_Magnetometer	00000000 .rodata._ZTV28Adafruit_ICM20X_Magnetometer
00000000 l    d  .rodata._ZTV29Adafruit_ICM20X_Accelerometer	00000000 .rodata._ZTV29Adafruit_ICM20X_Accelerometer
00000000 l       .group	00000000 _ZN20Adafruit_ICM20X_TempD5Ev
00000000 l       .group	00000000 _ZN28Adafruit_ICM20X_MagnetometerD5Ev
00000000 l       .group	00000000 _ZN20Adafruit_ICM20X_GyroD5Ev
00000000 l       .group	00000000 _ZN29Adafruit_ICM20X_AccelerometerD5Ev
00000000 l    d  .comment	00000000 .comment
00000000 l    d  .ARM.attributes	00000000 .ARM.attributes
00000000 l    d  .group	00000000 .group
00000000 l    d  .group	00000000 .group
00000000 l    d  .group	00000000 .group
00000000 l    d  .group	00000000 .group
00000000 l    d  .group	00000000 .group
00000000  w    F .text._ZN15Adafruit_Sensor15enableAutoRangeEb	00000002 _ZN15Adafruit_Sensor15enableAutoRangeEb
00000000 g     F .text._ZN15Adafruit_ICM20X9begin_I2CEhP7TwoWirel	00000004 _ZN15Adafruit_ICM20X9begin_I2CEhP7TwoWirel
00000000 g     F .text._ZN15Adafruit_ICM20X11scaleValuesEv	00000002 _ZN15Adafruit_ICM20X11scaleValuesEv
00000000  w    F .text._ZN20Adafruit_ICM20X_TempD2Ev	00000002 _ZN20Adafruit_ICM20X_TempD2Ev
00000000  w    F .text._ZN20Adafruit_ICM20X_TempD2Ev	00000002 _ZN20Adafruit_ICM20X_TempD1Ev
00000000  w    F .text._ZN28Adafruit_ICM20X_MagnetometerD2Ev	00000002 _ZN28Adafruit_ICM20X_MagnetometerD2Ev
00000000  w    F .text._ZN28Adafruit_ICM20X_MagnetometerD2Ev	00000002 _ZN28Adafruit_ICM20X_MagnetometerD1Ev
00000000  w    F .text._ZN20Adafruit_ICM20X_GyroD2Ev	00000002 _ZN20Adafruit_ICM20X_GyroD2Ev
00000000  w    F .text._ZN20Adafruit_ICM20X_GyroD2Ev	00000002 _ZN20Adafruit_ICM20X_GyroD1Ev
00000000  w    F .text._ZN29Adafruit_ICM20X_AccelerometerD2Ev	00000002 _ZN29Adafruit_ICM20X_AccelerometerD2Ev
00000000  w    F .text._ZN29Adafruit_ICM20X_AccelerometerD2Ev	00000002 _ZN29Adafruit_ICM20X_AccelerometerD1Ev
00000000  w    F .text._ZN29Adafruit_ICM20X_AccelerometerD0Ev	0000000e _ZN29Adafruit_ICM20X_AccelerometerD0Ev
00000000         *UND*	00000000 _ZdlPvj
00000000  w    F .text._ZN20Adafruit_ICM20X_GyroD0Ev	0000000e _ZN20Adafruit_ICM20X_GyroD0Ev
00000000  w    F .text._ZN28Adafruit_ICM20X_MagnetometerD0Ev	0000000e _ZN28Adafruit_ICM20X_MagnetometerD0Ev
00000000  w    F .text._ZN20Adafruit_ICM20X_TempD0Ev	0000000e _ZN20Adafruit_ICM20X_TempD0Ev
00000000 g     F .text._ZN29Adafruit_ICM20X_Accelerometer9getSensorEP8sensor_t	00000044 _ZN29Adafruit_ICM20X_Accelerometer9getSensorEP8sensor_t
00000000         *UND*	00000000 memset
00000000         *UND*	00000000 strncpy
00000000 g     F .text._ZN20Adafruit_ICM20X_Gyro9getSensorEP8sensor_t	00000048 _ZN20Adafruit_ICM20X_Gyro9getSensorEP8sensor_t
00000000 g     F .text._ZN28Adafruit_ICM20X_Magnetometer9getSensorEP8sensor_t	00000048 _ZN28Adafruit_ICM20X_Magnetometer9getSensorEP8sensor_t
00000000 g     F .text._ZN20Adafruit_ICM20X_Temp9getSensorEP8sensor_t	00000048 _ZN20Adafruit_ICM20X_Temp9getSensorEP8sensor_t
00000000 g     F .text._ZN15Adafruit_ICM20XC2Ev	00000018 _ZN15Adafruit_ICM20XC2Ev
00000000 g     F .text._ZN15Adafruit_ICM20XC2Ev	00000018 _ZN15Adafruit_ICM20XC1Ev
00000000 g     F .text._ZN15Adafruit_ICM20XD2Ev	00000038 _ZN15Adafruit_ICM20XD2Ev
00000000 g     F .text._ZN15Adafruit_ICM20XD2Ev	00000038 _ZN15Adafruit_ICM20XD1Ev
00000000 g     F .text._ZN15Adafruit_ICM20X5resetEv	00000078 _ZN15Adafruit_ICM20X5resetEv
00000000         *UND*	00000000 _ZN23Adafruit_BusIO_RegisterC1EP18Adafruit_I2CDeviceP18Adafruit_SPIDevice26_Adafruit_BusIO_SPIRegTypethhh
00000000         *UND*	00000000 _ZN23Adafruit_BusIO_Register5writeEmh
00000000         *UND*	00000000 _ZN27Adafruit_BusIO_RegisterBitsC1EP23Adafruit_BusIO_Registerhh
00000000         *UND*	00000000 _ZN27Adafruit_BusIO_RegisterBits5writeEm
00000000         *UND*	00000000 delay
00000000         *UND*	00000000 _ZN27Adafruit_BusIO_RegisterBits4readEv
00000000 g     F .text._ZN15Adafruit_ICM20X14fillAccelEventEP15sensors_event_tm	00000050 _ZN15Adafruit_ICM20X14fillAccelEventEP15sensors_event_tm
00000000 g     F .text._ZN15Adafruit_ICM20X13fillGyroEventEP15sensors_event_tm	00000050 _ZN15Adafruit_ICM20X13fillGyroEventEP15sensors_event_tm
00000000 g     F .text._ZN15Adafruit_ICM20X12fillMagEventEP15sensors_event_tm	00000030 _ZN15Adafruit_ICM20X12fillMagEventEP15sensors_event_tm
00000000 g     F .text._ZN15Adafruit_ICM20X13fillTempEventEP15sensors_event_tm	00000050 _ZN15Adafruit_ICM20X13fillTempEventEP15sensors_event_tm
00000000 g     F .text._ZN15Adafruit_ICM20X5_readEv	000000f0 _ZN15Adafruit_ICM20X5_readEv
00000000         *UND*	00000000 _ZN23Adafruit_BusIO_Register4readEPhh
00000000 g     F .text._ZN15Adafruit_ICM20X8getEventEP15sensors_event_tS1_S1_S1_	0000013c _ZN15Adafruit_ICM20X8getEventEP15sensors_event_tS1_S1_S1_
00000000         *UND*	00000000 systick_millis_count
00000000 g     F .text._ZN29Adafruit_ICM20X_Accelerometer8getEventEP15sensors_event_t	0000005c _ZN29Adafruit_ICM20X_Accelerometer8getEventEP15sensors_event_t
00000000 g     F .text._ZN20Adafruit_ICM20X_Gyro8getEventEP15sensors_event_t	00000060 _ZN20Adafruit_ICM20X_Gyro8getEventEP15sensors_event_t
00000000 g     F .text._ZN28Adafruit_ICM20X_Magnetometer8getEventEP15sensors_event_t	00000040 _ZN28Adafruit_ICM20X_Magnetometer8getEventEP15sensors_event_t
00000000 g     F .text._ZN20Adafruit_ICM20X_Temp8getEventEP15sensors_event_t	0000005c _ZN20Adafruit_ICM20X_Temp8getEventEP15sensors_event_t
00000000 g     F .text._ZN15Adafruit_ICM20X22getAccelerometerSensorEv	00000004 _ZN15Adafruit_ICM20X22getAccelerometerSensorEv
00000000 g     F .text._ZN15Adafruit_ICM20X13getGyroSensorEv	00000004 _ZN15Adafruit_ICM20X13getGyroSensorEv
00000000 g     F .text._ZN15Adafruit_ICM20X21getMagnetometerSensorEv	00000004 _ZN15Adafruit_ICM20X21getMagnetometerSensorEv
00000000 g     F .text._ZN15Adafruit_ICM20X20getTemperatureSensorEv	00000004 _ZN15Adafruit_ICM20X20getTemperatureSensorEv
00000000 g     F .text._ZN15Adafruit_ICM20X8_setBankEh	00000032 _ZN15Adafruit_ICM20X8_setBankEh
00000000 g     F .text._ZN15Adafruit_ICM20X14readAccelRangeEv	00000078 _ZN15Adafruit_ICM20X14readAccelRangeEv
00000000 g     F .text._ZN15Adafruit_ICM20X15writeAccelRangeEh	00000086 _ZN15Adafruit_ICM20X15writeAccelRangeEh
00000000 g     F .text._ZN15Adafruit_ICM20X13readGyroRangeEv	00000076 _ZN15Adafruit_ICM20X13readGyroRangeEv
00000000 g     F .text._ZN15Adafruit_ICM20X14writeGyroRangeEh	00000084 _ZN15Adafruit_ICM20X14writeGyroRangeEh
00000000 g     F .text._ZN15Adafruit_ICM20X19getAccelRateDivisorEv	0000006e _ZN15Adafruit_ICM20X19getAccelRateDivisorEv
00000000         *UND*	00000000 _ZN23Adafruit_BusIO_Register4readEv
00000000 g     F .text._ZN15Adafruit_ICM20X19setAccelRateDivisorEt	0000007a _ZN15Adafruit_ICM20X19setAccelRateDivisorEt
00000000 g     F .text._ZN15Adafruit_ICM20X18getGyroRateDivisorEv	0000006a _ZN15Adafruit_ICM20X18getGyroRateDivisorEv
00000000 g     F .text._ZN15Adafruit_ICM20X18setGyroRateDivisorEh	00000076 _ZN15Adafruit_ICM20X18setGyroRateDivisorEh
00000000 g     F .text._ZN15Adafruit_ICM20X5_initEl	00000138 _ZN15Adafruit_ICM20X5_initEl
00000000         *UND*	00000000 _Znwj
00000000 g     F .text._ZN15Adafruit_ICM20X9begin_SPIEhP8SPIClassl	00000064 _ZN15Adafruit_ICM20X9begin_SPIEhP8SPIClassl
00000000         *UND*	00000000 _ZN18Adafruit_SPIDeviceD1Ev
00000000         *UND*	00000000 _ZN18Adafruit_SPIDeviceC1Eam9_BitOrderhP8SPIClass
00000000         *UND*	00000000 _ZN18Adafruit_SPIDevice5beginEv
00000000 g     F .text._ZN15Adafruit_ICM20X9begin_SPIEaaaal	00000078 _ZN15Adafruit_ICM20X9begin_SPIEaaaal
00000000         *UND*	00000000 _ZN18Adafruit_SPIDeviceC1Eaaaam9_BitOrderh
00000000 g     F .text._ZN15Adafruit_ICM20X15enableAccelDLPFEb21icm20x_accel_cutoff_t	0000007a _ZN15Adafruit_ICM20X15enableAccelDLPFEb21icm20x_accel_cutoff_t
00000000 g     F .text._ZN15Adafruit_ICM20X15enableGyrolDLPFEb20icm20x_gyro_cutoff_t	00000004 _ZN15Adafruit_ICM20X15enableGyrolDLPFEb20icm20x_gyro_cutoff_t
00000000 g     F .text._ZN15Adafruit_ICM20X16setInt1ActiveLowEb	0000006e _ZN15Adafruit_ICM20X16setInt1ActiveLowEb
00000000 g     F .text._ZN15Adafruit_ICM20X16setInt2ActiveLowEb	0000006e _ZN15Adafruit_ICM20X16setInt2ActiveLowEb
00000000 g     F .text._ZN15Adafruit_ICM20X12setI2CBypassEb	0000005a _ZN15Adafruit_ICM20X12setI2CBypassEb
00000000 g     F .text._ZN15Adafruit_ICM20X15enableI2CMasterEb	0000005a _ZN15Adafruit_ICM20X15enableI2CMasterEb
00000000 g     F .text._ZN15Adafruit_ICM20X18configureI2CMasterEv	0000004c _ZN15Adafruit_ICM20X18configureI2CMasterEv
00000000 g     F .text._ZN15Adafruit_ICM20X28auxillaryRegisterTransactionEbhhh	00000190 _ZN15Adafruit_ICM20X28auxillaryRegisterTransactionEbhhh
00000000 g     F .text._ZN15Adafruit_ICM20X20readExternalRegisterEhh	00000018 _ZN15Adafruit_ICM20X20readExternalRegisterEhh
00000000 g     F .text._ZN15Adafruit_ICM20X21writeExternalRegisterEhhh	0000001e _ZN15Adafruit_ICM20X21writeExternalRegisterEhhh
00000000 g     F .text._ZN15Adafruit_ICM20X14resetI2CMasterEv	00000072 _ZN15Adafruit_ICM20X14resetI2CMasterEv
00000000 g     O .rodata._ZTV29Adafruit_ICM20X_Accelerometer	0000001c _ZTV29Adafruit_ICM20X_Accelerometer
00000000 g     O .rodata._ZTV20Adafruit_ICM20X_Gyro	0000001c _ZTV20Adafruit_ICM20X_Gyro
00000000 g     O .rodata._ZTV28Adafruit_ICM20X_Magnetometer	0000001c _ZTV28Adafruit_ICM20X_Magnetometer
00000000 g     O .rodata._ZTV20Adafruit_ICM20X_Temp	0000001c _ZTV20Adafruit_ICM20X_Temp
00000000 g     O .rodata._ZTV15Adafruit_ICM20X	00000010 _ZTV15Adafruit_ICM20X


Contents of section .group:
 0000 01000000 09000000                    ........        
Contents of section .group:
 0000 01000000 0c000000 16000000 17000000  ................
Contents of section .group:
 0000 01000000 0d000000 14000000 15000000  ................
Contents of section .group:
 0000 01000000 0e000000 12000000 13000000  ................
Contents of section .group:
 0000 01000000 0f000000 10000000 11000000  ................
Contents of section .text._ZN15Adafruit_Sensor15enableAutoRangeEb:
 0000 704700bf                             pG..            
Contents of section .text._ZN15Adafruit_ICM20X9begin_I2CEhP7TwoWirel:
 0000 00207047                             . pG            
Contents of section .text._ZN15Adafruit_ICM20X11scaleValuesEv:
 0000 704700bf                             pG..            
Contents of section .text._ZN20Adafruit_ICM20X_TempD2Ev:
 0000 704700bf                             pG..            
Contents of section .text._ZN28Adafruit_ICM20X_MagnetometerD2Ev:
 0000 704700bf                             pG..            
Contents of section .text._ZN20Adafruit_ICM20X_GyroD2Ev:
 0000 704700bf                             pG..            
Contents of section .text._ZN29Adafruit_ICM20X_AccelerometerD2Ev:
 0000 704700bf                             pG..            
Contents of section .text._ZN29Adafruit_ICM20X_AccelerometerD0Ev:
 0000 10b50446 1021fff7 feff2046 10bd00bf  ...F.!.... F....
Contents of section .text._ZN20Adafruit_ICM20X_GyroD0Ev:
 0000 10b50446 1021fff7 feff2046 10bd00bf  ...F.!.... F....
Contents of section .text._ZN28Adafruit_ICM20X_MagnetometerD0Ev:
 0000 10b50446 1021fff7 feff2046 10bd00bf  ...F.!.... F....
Contents of section .text._ZN20Adafruit_ICM20X_TempD0Ev:
 0000 10b50446 1021fff7 feff2046 10bd00bf  ...F.!.... F....
Contents of section .rodata._ZN29Adafruit_ICM20X_Accelerometer9getSensorEP8sensor_t.str1.4:
 0000 49434d32 30585f41 00                 ICM20X_A.       
Contents of section .text._ZN29Adafruit_ICM20X_Accelerometer9getSensorEP8sensor_t:
 0000 38b50c46 20220021 054604f1 0800fff7  8..F ".!.F......
 0010 feff0b22 07492046 fff7feff a8680123  ...".I F.....h.#
 0020 0549064a 6361e161 a261c4e9 0330044b  .I.Jca.a.a...0.K
 0030 236238bd 00000000 891993c3 89199343  #b8............C
 0040 23dbf93d                             #..=            
Contents of section .rodata._ZN20Adafruit_ICM20X_Gyro9getSensorEP8sensor_t.str1.4:
 0000 49434d32 30585f47 00                 ICM20X_G.       
Contents of section .text._ZN20Adafruit_ICM20X_Gyro9getSensorEP8sensor_t:
 0000 38b50c46 20220021 054604f1 0800fff7  8..F ".!.F......
 0010 feff0b22 08492046 fff7feff a8680122  ...".I F.....h."
 0020 04230649 6361064b e1612362 c4e90320  .#.Ica.K.a#b... 
 0030 044aa261 38bd00bf 00000000 b89e8bc2  .J.a8...........
 0040 7b138f34 b89e8b42                    {..4...B        
Contents of section .rodata._ZN28Adafruit_ICM20X_Magnetometer9getSensorEP8sensor_t.str1.4:
 0000 49434d32 30585f4d 00                 ICM20X_M.       
Contents of section .text._ZN28Adafruit_ICM20X_Magnetometer9getSensorEP8sensor_t:
 0000 38b50c46 20220021 054604f1 0800fff7  8..F ".!.F......
 0010 feff0b22 08492046 fff7feff a8680122  ...".I F.....h."
 0020 02230649 6361064b e1612362 c4e90320  .#.Ica.K.a#b... 
 0030 044aa261 38bd00bf 00000000 002099c5  .J.a8........ ..
 0040 daac2a3f 00209945                    ..*?. .E        
Contents of section .rodata._ZN20Adafruit_ICM20X_Temp9getSensorEP8sensor_t.str1.4:
 0000 49434d32 30585f54 00                 ICM20X_T.       
Contents of section .text._ZN20Adafruit_ICM20X_Temp9getSensorEP8sensor_t:
 0000 38b50c46 20220021 054604f1 0800fff7  8..F ".!.F......
 0010 feff0b22 08492046 fff7feff a8680122  ...".I F.....h."
 0020 0d230649 6361064b e1612362 c4e90320  .#.Ica.K.a#b... 
 0030 044aa261 38bd00bf 00000000 000020c2  .J.a8......... .
 0040 1e4b443b 0000aa42                    .KD;...B        
Contents of section .text._ZN15Adafruit_ICM20XC2Ev:
 0000 00220449 c0e90b22 0160c0e9 0d22c0e9  .".I...".`..."..
 0010 0f227047 08000000                    ."pG....        
Contents of section .text._ZN15Adafruit_ICM20XD2Ev:
 0000 10b50c4b 0446406b 236010b1 03685b68  ...K.F@k#`...h[h
 0010 9847a06b 10b10368 5b689847 e06b10b1  .G.k...h[h.G.k..
 0020 03685b68 9847206c 10b10368 5b689847  .h[h.G l...h[h.G
 0030 204610bd 08000000                     F......        
Contents of section .text._ZN15Adafruit_ICM20X5resetEv:
 0000 30b50023 8db00124 7f220546 cde90234  0..#...$.".F...4
 0010 cde90024 d0e90b12 06a8fff7 feff0023  ...$...........#
 0020 06a81a46 1946fff7 feff0023 06220394  ...F.F.....#."..
 0030 06a80092 cde90143 d5e90b12 fff7feff  .......C........
 0040 07232246 06a904a8 fff7feff 214604a8  .#"F........!F..
 0050 fff7feff 1420fff7 feff01e0 fff7feff  ..... ..........
 0060 04a8fff7 feff0346 0a20002b f6d13220  .......F. .+..2 
 0070 fff7feff 0db030bd                    ......0.        
Contents of section .text._ZN15Adafruit_ICM20X14fillAccelEventEP15sensors_event_tm:
 0000 70b50c46 05461646 00212022 201dfff7  p..F.F.F.! " ...
 0010 feffd5ed 027a9fed 0d7a0123 b5f84420  .....z...z.#..D 
 0020 67ee877a 2661a360 c4ed057a d5ed037a  g..z&a.`...z...z
 0030 67ee877a c4e90032 c4ed067a d5ed047a  g..z...2...z...z
 0040 67ee877a c4ed077a 70bd00bf 0ae81c41  g..z...zp......A
Contents of section .text._ZN15Adafruit_ICM20X13fillGyroEventEP15sensors_event_tm:
 0000 70b50c46 05461646 00212022 201dfff7  p..F.F.F.! " ...
 0010 feffd5ed 057a9fed 0d7a0122 b5f84630  .....z...z."..F0
 0020 67ee877a 26616360 04232260 c4ed057a  g..z&ac`.#"`...z
 0030 d5ed067a a36067ee 877ac4ed 067ad5ed  ...z.`g..z...z..
 0040 077a67ee 877ac4ed 077a70bd 35fa8e3c  .zg..z...zp.5..<
Contents of section .text._ZN15Adafruit_ICM20X12fillMagEventEP15sensors_event_tm:
 0000 70b50c46 05461646 00212022 201dfff7  p..F.F.F.! " ...
 0010 feff2a6a 0123b5f8 48106261 02222360  ..*j.#..H.ba."#`
 0020 6b6a2661 a361ab6a 6160a260 e36170bd  kj&a.a.ja`.`.ap.
Contents of section .text._ZN15Adafruit_ICM20X13fillTempEventEP15sensors_event_tm:
 0000 70b50c46 05461646 00212022 201dfff7  p..F.F.F.! " ...
 0010 feff95ed 016ab3ee 055bb5f8 4a10b7ee  .....j...[..J...
 0020 c66a2422 0d236160 26612260 a3609fed  .j$".#a`&a"`.`..
 0030 064b86ee 047b37ee 057bb7ee c77b84ed  .K...{7..{...{..
 0040 057a70bd aff30080 52b81e85 ebdd7440  .zp.....R.....t@
Contents of section .text._ZN15Adafruit_ICM20X5_readEv:
 0000 30b50023 97b00125 7f220446 cde90235  0..#...%.".F...5
 0010 cde90025 d0e90b12 10a8fff7 feff0023  ...%...........#
 0020 10a81a46 1946fff7 feff0023 03952d22  ...F.F.....#..-"
 0030 17250aa8 0092cde9 0153d4e9 0b12fff7  .%.......S......
 0040 feff2a46 04a90aa8 fff7feff bdf81c30  ..*F...........0
 0050 bdf81220 5bbabdf8 101052ba bdf81f00  ... [.....R.....
 0060 9bb249ba a4f84e20 bdf81620 07ee903a  ..I...N ... ...:
 0070 a4f84c10 53babdf8 1820bdf8 1410f8ee  ..L.S.... ......
 0080 e77aa4f8 543052ba bdf81a30 49baa4f8  .z..T0R....0I...
 0090 56205bba 154aa4f8 5a00a4f8 58302368  V [..J..Z...X0#h
 00a0 bdf82100 1b68a4f8 50109342 bdf82310  ..!..h..P..B..#.
 00b0 c4ed017a a4f85c00 a4f85e10 13d10025  ...z..\...^....%
 00c0 01237f22 10a8cde9 0253cde9 00232b46  .#.".....S...#+F
 00d0 d4e90b12 fff7feff 2a462946 10a8fff7  ........*F)F....
 00e0 feff17b0 30bd2046 9847e8e7 00000000  ....0. F.G......
Contents of section .text._ZN15Adafruit_ICM20X8getEventEP15sensors_event_tS1_S1_S1_:
 0000 2de9f047 0e461f46 494b0446 1546ddf8  -..G.F.FIK.F.F..
 0010 2080d3f8 00a0fff7 feff2022 0021301d   ......... ".!0.
 0020 4ff00109 fff7feff d4ed027a 9fed417a  O..........z..Az
 0030 2022b4f8 44300021 67ee877a 281d7360   "..D0.!g..z(.s`
 0040 c6f810a0 c6ed057a d4ed037a 67ee877a  .......z...zg..z
 0050 c6ed067a d4ed047a c6f80090 67ee877a  ...z...z....g..z
 0060 c6f80890 c6ed077a fff7feff d4ed057a  .......z.......z
 0070 9fed317a 2022b4f8 46300021 67ee877a  ..1z "..F0.!g..z
 0080 c5f80090 6b600423 c5f810a0 c5ed057a  ....k`.#.......z
 0090 f818d4ed 067a67ee 877ac5ed 067ad4ed  .....zg..z...z..
 00a0 077aab60 67ee877a c5ed077a fff7feff  .z.`g..z...z....
 00b0 94ed016a b3ee055b b4f84a30 b7eec66a  ...j...[..J0...j
 00c0 c7f810a0 7b602423 9fed174b 3b600d23  ....{`$#...K;`.#
 00d0 86ee047b bb6037ee 057bb7ee c77b87ed  ...{.`7..{...{..
 00e0 057ab8f1 000f19d0 20220021 08f10400  .z...... ".!....
 00f0 fff7feff 236ab4f8 4820c8f8 1430636a  ....#j..H ...0cj
 0100 c8f80420 0222c8f8 1830a36a c8f810a0  ... ."...0.j....
 0110 c8f80090 c8f80820 c8f81c30 0120bde8  ....... ...0. ..
 0120 f08700bf aff30080 52b81e85 ebdd7440  ........R.....t@
 0130 00000000 0ae81c41 35fa8e3c           .......A5..<    
Contents of section .text._ZN29Adafruit_ICM20X_Accelerometer8getEventEP15sensors_event_t:
 0000 70b50546 0c46c068 fff7feff ed68114b  p..F.F.h.....h.K
 0010 20220021 201d1e68 fff7feff d5ed027a   ".! ..h.......z
 0020 01209fed 0d7ab5f8 443067ee 877a2661  . ...z..D0g..z&a
 0030 a060c4ed 057ad5ed 037a67ee 877ac4e9  .`...z...zg..z..
 0040 0003c4ed 067ad5ed 047a67ee 877ac4ed  .....z...zg..z..
 0050 077a70bd 00000000 0ae81c41           .zp........A    
Contents of section .text._ZN20Adafruit_ICM20X_Gyro8getEventEP15sensors_event_t:
 0000 70b50546 0c46c068 fff7feff ed68124b  p..F.F.h.....h.K
 0010 20220021 201d1e68 fff7feff d5ed057a   ".! ..h.......z
 0020 01209fed 0e7ab5f8 463067ee 877a2661  . ...z..F0g..z&a
 0030 63600423 2060c4ed 057ad5ed 067aa360  c`.# `...z...z.`
 0040 67ee877a c4ed067a d5ed077a 67ee877a  g..z...z...zg..z
 0050 c4ed077a 70bd00bf 00000000 35fa8e3c  ...zp.......5..<
Contents of section .text._ZN28Adafruit_ICM20X_Magnetometer8getEventEP15sensors_event_t:
 0000 70b50546 0c46c068 fff7feff ed680b4b  p..F.F.h.....h.K
 0010 20220021 201d1e68 fff7feff 2b6a0120   ".! ..h....+j. 
 0020 b5f84820 63616b6a 6260a361 ab6a2661  ..H cakjb`.a.j&a
 0030 e3610223 2060a360 70bd00bf 00000000  .a.# `.`p.......
Contents of section .text._ZN20Adafruit_ICM20X_Temp8getEventEP15sensors_event_t:
 0000 70b50546 0c46c068 fff7feff ed68124b  p..F.F.h.....h.K
 0010 20220021 201d1e68 fff7feff 95ed016a   ".! ..h.......j
 0020 b3ee055b b5f84a10 2422b7ee c66a0d23  ...[..J.$"...j.#
 0030 01206160 26612260 a3609fed 054b86ee  . a`&a"`.`...K..
 0040 047b37ee 057bb7ee c77b84ed 057a70bd  .{7..{...{...zp.
 0050 52b81e85 ebdd7440 00000000           R.....t@....    
Contents of section .text._ZN15Adafruit_ICM20X22getAccelerometerSensorEv:
 0000 406b7047                             @kpG            
Contents of section .text._ZN15Adafruit_ICM20X13getGyroSensorEv:
 0000 806b7047                             .kpG            
Contents of section .text._ZN15Adafruit_ICM20X21getMagnetometerSensorEv:
 0000 c06b7047                             .kpG            
Contents of section .text._ZN15Adafruit_ICM20X20getTemperatureSensorEv:
 0000 006c7047                             .lpG            
Contents of section .text._ZN15Adafruit_ICM20X8_setBankEh:
 0000 30b50123 8bb00025 0c460193 cde90253  0..#...%.F.....S
 0010 7f230093 2b46d0e9 0b1204a8 fff7feff  .#..+F..........
 0020 2a462101 04a801f0 3001fff7 feff0bb0  *F!.....0.......
 0030 30bd00bf                             0...            
Contents of section .text._ZN15Adafruit_ICM20X14readAccelRangeEv:
 0000 f0b50024 93b00126 7f270546 2346cde9  ...$...&.'.F#F..
 0010 0246cde9 0076d0e9 0b120ca8 fff7feff  .F...v..........
 0020 22462021 0ca8fff7 feff1423 019606a8  "F !.......#....
 0030 00932346 cde90246 d5e90b12 fff7feff  ..#F...F........
 0040 06a93346 022204a8 fff7feff 04a8fff7  ..3F."..........
 0050 feff0396 01962346 06460097 02940ca8  ......#F.F......
 0060 d5e90b12 fff7feff 22462146 0ca8fff7  ........"F!F....
 0070 fefff0b2 13b0f0bd                    ........        
Contents of section .text._ZN15Adafruit_ICM20X15writeAccelRangeEh:
 0000 2de9f041 002592b0 01264ff0 7f080446  -..A.%...&O....F
 0010 0f462b46 0196cdf8 0080cde9 0256d0e9  .F+F.........V..
 0020 0b120ca8 fff7feff 2a462021 0ca8fff7  ........*F !....
 0030 feff1423 019606a8 00932b46 cde90256  ...#......+F...V
 0040 d4e90b12 fff7feff 334606a9 022204a8  ........3F..."..
 0050 fff7feff 394604a8 fff7feff 84f86070  ....9F........`p
 0060 2b460196 cdf80080 0ca8cde9 0256d4e9  +F...........V..
 0070 0b12fff7 feff2a46 29460ca8 fff7feff  ......*F)F......
 0080 12b0bde8 f08100bf                    ........        
Contents of section .text._ZN15Adafruit_ICM20X13readGyroRangeEv:
 0000 f0b50024 93b00126 7f270546 2346cde9  ...$...&.'.F#F..
 0010 0246cde9 0076d0e9 0b120ca8 fff7feff  .F...v..........
 0020 22462021 0ca8fff7 feff2346 06a8cde9  "F !......#F....
 0030 0246cde9 0066d5e9 0b12fff7 feff06a9  .F...f..........
 0040 33460222 04a8fff7 feff04a8 fff7feff  3F."............
 0050 03960196 23460646 00970294 0ca8d5e9  ....#F.F........
 0060 0b12fff7 feff2246 21460ca8 fff7feff  ......"F!F......
 0070 f0b213b0 f0bd00bf                    ........        
Contents of section .text._ZN15Adafruit_ICM20X14writeGyroRangeEh:
 0000 2de9f041 002592b0 01264ff0 7f080446  -..A.%...&O....F
 0010 0f462b46 0196cdf8 0080cde9 0256d0e9  .F+F.........V..
 0020 0b120ca8 fff7feff 2a462021 0ca8fff7  ........*F !....
 0030 feff2b46 06a8cde9 0256cde9 0066d4e9  ..+F.....V...f..
 0040 0b12fff7 feff3346 06a90222 04a8fff7  ......3F..."....
 0050 feff3946 04a8fff7 feff84f8 61702b46  ..9F........ap+F
 0060 0196cdf8 00800ca8 cde90256 d4e90b12  ...........V....
 0070 fff7feff 2a462946 0ca8fff7 feff12b0  ....*F)F........
 0080 bde8f081                             ....            
Contents of section .text._ZN15Adafruit_ICM20X19getAccelRateDivisorEv:
 0000 f0b50025 91b00126 7f270446 2b46cde9  ...%...&.'.F+F..
 0010 0256cde9 0076d0e9 0b120aa8 fff7feff  .V...v..........
 0020 2a462021 0aa8fff7 feff1023 022204a8  *F !.......#."..
 0030 cde90266 cde90032 2b46d4e9 0b12fff7  ...f...2+F......
 0040 feff04a8 fff7feff 03960196 2b460646  ............+F.F
 0050 00970295 0aa8d4e9 0b12fff7 feff2a46  ..............*F
 0060 29460aa8 fff7feff b0b211b0 f0bd00bf  )F..............
Contents of section .text._ZN15Adafruit_ICM20X19setAccelRateDivisorEt:
 0000 2de9f041 002490b0 01264ff0 7f080546  -..A.$...&O....F
 0010 23460f46 0196cdf8 0080cde9 0246d0e9  #F.F.........F..
 0020 0b120aa8 fff7feff 22462021 0aa8fff7  ........"F !....
 0030 feff1023 022204a8 cde90032 cde90266  ...#.".....2...f
 0040 2346d5e9 0b12fff7 feff2246 394604a8  #F........"F9F..
 0050 fff7feff 23460196 0aa8cdf8 0080cde9  ....#F..........
 0060 0246d5e9 0b12fff7 feff2246 21460aa8  .F........"F!F..
 0070 fff7feff 10b0bde8 f08100bf           ............    
Contents of section .text._ZN15Adafruit_ICM20X18getGyroRateDivisorEv:
 0000 f0b50024 91b00126 7f270546 2346cde9  ...$...&.'.F#F..
 0010 0246cde9 0076d0e9 0b120aa8 fff7feff  .F...v..........
 0020 22462021 0aa8fff7 feff2346 04a8cde9  "F !......#F....
 0030 0246cde9 0046d5e9 0b12fff7 feff04a8  .F...F..........
 0040 fff7feff 03960196 23460646 00970294  ........#F.F....
 0050 0aa8d5e9 0b12fff7 feff2246 21460aa8  .........."F!F..
 0060 fff7feff f0b211b0 f0bd00bf           ............    
Contents of section .text._ZN15Adafruit_ICM20X18setGyroRateDivisorEh:
 0000 2de9f041 002490b0 01264ff0 7f080546  -..A.$...&O....F
 0010 23460f46 0196cdf8 0080cde9 0246d0e9  #F.F.........F..
 0020 0b120aa8 fff7feff 22462021 0aa8fff7  ........"F !....
 0030 feff2346 04a8cde9 0246cde9 0046d5e9  ..#F.....F...F..
 0040 0b12fff7 feff2246 394604a8 fff7feff  ......"F9F......
 0050 23460196 0aa8cdf8 0080cde9 0246d5e9  #F...........F..
 0060 0b12fff7 feff2246 21460aa8 fff7feff  ......"F!F......
 0070 10b0bde8 f08100bf                    ........        
Contents of section .text._ZN15Adafruit_ICM20X5_initEl:
 0000 f0b50025 93b00127 04462b46 0e46cde9  ...%...'.F+F.F..
 0010 0257cde9 0057d0e9 0b1206a8 fff7feff  .W...W..........
 0020 7f230397 0ca80093 2b460197 0295d4e9  .#......+F......
 0030 0b12fff7 feff2a46 29460ca8 fff7feff  ......*F)F......
 0040 06a8fff7 feffc0b2 e12804d0 ea2802d0  .........(...(..
 0050 284613b0 f0bd0125 b1b20627 00264b19  (F.....%...'.&K.
 0060 a4f84410 2046a4f8 46308b1c 0331a4f8  ..D. F..F0...1..
 0070 4830a4f8 4a10fff7 feff3346 0ca8cde9  H0..J.....3F....
 0080 0265cde9 0075d4e9 0b12fff7 feff3b46  .e...u........;F
 0090 2a460ca9 04a8fff7 feff3146 04a8fff7  *F........1F....
 00a0 feff2046 0321fff7 feff2046 0321fff7  .. F.!.... F.!..
 00b0 feff2046 0a21fff7 feff1421 2046fff7  .. F.!.....! F..
 00c0 feff1020 fff7feff 17490346 40f20d22  ... .....I.F@.."
 00d0 01608260 20641020 dc60fff7 feff1349  .`.` d. .`.....I
 00e0 034640f2 0a220160 82606063 1020dc60  .F@..".`.``c. .`
 00f0 fff7feff 0e490346 40f20b22 01608260  .....I.F@..".`.`
 0100 a0631020 dc60fff7 feff0a49 03464ff4  .c. .`.....I.FO.
 0110 03720160 8260e063 1420dc60 fff7feff  .r.`.`.c. .`....
 0120 284613b0 f0bd00bf 08000000 08000000  (F..............
 0130 08000000 08000000                    ........        
Contents of section .text._ZN15Adafruit_ICM20X9begin_SPIEhP8SPIClassl:
 0000 2de9f041 04460020 82b00d46 d4f83080  -..A.F. ...F..0.
 0010 16461f46 e062b8f1 000f06d0 4046fff7  .F.F.b......@F..
 0020 feff4046 1421fff7 feff1420 fff7feff  ..@F.!..... ....
 0030 002369b2 05460093 0123094a 0196fff7  .#i..F...#.J....
 0040 feff2846 2563fff7 feff10b9 02b0bde8  ..(F%c..........
 0050 f0813946 204602b0 bde8f041 fff7febf  ..9F F.....A....
 0060 40420f00                             @B..            
Contents of section .text._ZN15Adafruit_ICM20X9begin_SPIEaaaal:
 0000 2de9f041 0e4686b0 0021056b 04469df9  -..A.F...!.k.F..
 0010 30800d9f c16255b1 2846cde9 0423fff7  0....bU.(F...#..
 0020 feff2846 1421fff7 feffdde9 04231420  ..(F.!.......#. 
 0030 cde90423 fff7feff 31464ff0 000c0126  ...#....1FO....&
 0040 0546059b 049acdf8 0080cde9 026c094e  .F...........l.N
 0050 0196fff7 feff2846 2563fff7 feff10b9  ......(F%c......
 0060 06b0bde8 f0813946 204606b0 bde8f041  ......9F F.....A
 0070 fff7febf 40420f00                    ....@B..        
Contents of section .text._ZN15Adafruit_ICM20X15enableAccelDLPFEb21icm20x_accel_cutoff_t:
 0000 f0b50023 8fb00125 17467f22 04460e46  ...#...%.F.".F.F
 0010 01950092 cde90235 d0e90b12 08a8fff7  .......5........
 0020 feff0023 20211a46 0deb0100 fff7feff  ...# !.F........
 0030 00231422 039508a8 0092cde9 0153d4e9  .#.".........S..
 0040 0b12fff7 feff08a9 00232a46 04a8fff7  .........#*F....
 0050 feff3146 04a8fff7 feff00b1 0eb90fb0  ..1F............
 0060 f0bd0323 08a906a8 1a46fff7 feff3946  ...#.....F....9F
 0070 06a8fff7 feff0fb0 f0bd00bf           ............    
Contents of section .text._ZN15Adafruit_ICM20X15enableGyrolDLPFEb20icm20x_gyro_cutoff_t:
 0000 fff7febf                             ....            
Contents of section .text._ZN15Adafruit_ICM20X16setInt1ActiveLowEb:
 0000 70b50023 8eb00124 7f220546 0e460194  p..#...$.".F.F..
 0010 0092cde9 0234d0e9 0b1208a8 fff7feff  .....4..........
 0020 002308a8 1a461946 fff7feff 00230f22  .#...F.F.....#."
 0030 039408a8 0092cde9 0143d5e9 0b12fff7  .........C......
 0040 feff2246 08a90723 04a8fff7 feff0623  .."F...#.......#
 0050 224608a9 06a8fff7 feff2146 06a8fff7  "F........!F....
 0060 feff3146 04a8fff7 feff0eb0 70bd00bf  ..1F........p...
Contents of section .text._ZN15Adafruit_ICM20X16setInt2ActiveLowEb:
 0000 70b50023 8eb00124 7f220546 0e460194  p..#...$.".F.F..
 0010 0092cde9 0234d0e9 0b1208a8 fff7feff  .....4..........
 0020 002308a8 1a461946 fff7feff 00231122  .#...F.F.....#."
 0030 039408a8 0092cde9 0143d5e9 0b12fff7  .........C......
 0040 feff2246 08a90723 04a8fff7 feff0623  .."F...#.......#
 0050 224608a9 06a8fff7 feff2146 06a8fff7  "F........!F....
 0060 feff3146 04a8fff7 feff0eb0 70bd00bf  ..1F........p...
Contents of section .text._ZN15Adafruit_ICM20X12setI2CBypassEb:
 0000 70b50023 8cb00125 7f220446 0e460195  p..#...%.".F.F..
 0010 0092cde9 0235d0e9 0b1206a8 fff7feff  .....5..........
 0020 002306a8 1a461946 fff7feff 00230f22  .#...F.F.....#."
 0030 039506a8 0092cde9 0153d4e9 0b12fff7  .........S......
 0040 feff2b46 2a4606a9 04a8fff7 feff3146  ..+F*F........1F
 0050 04a8fff7 feff0cb0 70bd00bf           ........p...    
Contents of section .text._ZN15Adafruit_ICM20X15enableI2CMasterEb:
 0000 70b50023 8cb00125 7f220446 0e460195  p..#...%.".F.F..
 0010 0092cde9 0235d0e9 0b1206a8 fff7feff  .....5..........
 0020 002306a8 1a461946 fff7feff 00230322  .#...F.F.....#."
 0030 039506a8 0092cde9 0153d4e9 0b12fff7  .........S......
 0040 feff0523 2a4606a9 04a8fff7 feff3146  ...#*F........1F
 0050 04a8fff7 feff0cb0 70bd00bf           ........p...    
Contents of section .text._ZN15Adafruit_ICM20X18configureI2CMasterEv:
 0000 70b57f23 8ab00024 01260546 cde90036  p..#...$.&.F...6
 0010 cde90246 2346d0e9 0b1204a8 fff7feff  ...F#F..........
 0020 22463021 04a8fff7 feff2346 04a8cde9  "F0!......#F....
 0030 0246cde9 0066d5e9 0b12fff7 feff2246  .F...f........"F
 0040 172104a8 fff7feff 0ab070bd           .!........p.    
Contents of section .text._ZN15Adafruit_ICM20X28auxillaryRegisterTransactionEbhhh:
 0000 2de9f04f 0125a7b0 00269946 7f230446  -..O.%...&.F.#.F
 0010 0f460395 00939046 33460195 02964ff0  .F.....F3F....O.
 0020 170a9df8 c0b0d0e9 0b1220a8 fff7feff  .......... .....
 0030 32463021 20a8fff7 feff1323 019508a8  2F0! ......#....
 0040 00933346 cde90265 d4e90b12 fff7feff  ..3F...e........
 0050 14230195 0ea80093 3346cde9 0265d4e9  .#......3F...e..
 0060 0b12fff7 feff1523 019514a8 00933346  .......#......3F
 0070 cde90265 d4e90b12 fff7feff 33461aa8  ...e........3F..
 0080 cde90265 cde900a5 d4e90b12 fff7feff  ...e............
 0090 1aa90623 2a4606a8 fff7feff cfb148f0  ...#*F........H.
 00a0 80081820 fff7feff cdf800a0 03953346  ... ..........3F
 00b0 0590cde9 0156d4e9 0b12fff7 feff4146  .....V........AF
 00c0 08a80022 fff7feff f8b90020 27b0bde8  ..."....... '...
 00d0 f08f1820 fff7feff 16230395 01950546  ... .....#.....F
 00e0 00933b46 0297d4e9 0b12fff7 feff3a46  ..;F..........:F
 00f0 59462846 fff7feff 0028e6d0 414608a8  YF(F.....(..AF..
 0100 0022fff7 feff0028 dfd04946 0ea80022  .".....(..IF..."
 0110 fff7feff 0028d8d0 14a80022 8021fff7  .....(.....".!..
 0120 feff0028 d1d00025 012320a8 0193cde9  ...(...%.# .....
 0130 02537f23 00932b46 d4e90b12 fff7feff  .S.#..+F........
 0140 2a462946 20a86425 fff7feff 02e015f0  *F)F .d%........
 0150 ff05bad0 06a8013d fff7feff 0128f6d1  .......=.....(..
 0160 002fb3d0 00257f23 03900190 20a80093  ./...%.#.... ...
 0170 2b460295 d4e90b12 fff7feff 2a463021  +F..........*F0!
 0180 20a8fff7 feff0598 fff7feff c0b29de7   ...............
Contents of section .text._ZN15Adafruit_ICM20X20readExternalRegisterEhh:
 0000 8c461346 01216246 10b5ff24 82b00094  .F.F.!bF...$....
 0010 fff7feff 02b010bd                    ........        
Contents of section .text._ZN15Adafruit_ICM20X21writeExternalRegisterEhhh:
 0000 10b58c46 82b01c46 00211346 62460094  ...F...F.!.FbF..
 0010 fff7feff 003818bf 012002b0 10bd00bf  .....8... ......
Contents of section .text._ZN15Adafruit_ICM20X14resetI2CMasterEv:
 0000 30b50023 8db00124 7f220546 cde90234  0..#...$.".F...4
 0010 cde90024 d0e90b12 06a8fff7 feff0023  ...$...........#
 0020 06a81a46 1946fff7 feff0023 03220394  ...F.F.....#."..
 0030 06a80092 cde90143 d5e90b12 fff7feff  .......C........
 0040 06a92346 224604a8 fff7feff 214604a8  ..#F"F......!F..
 0050 fff7feff 01e0fff7 feff04a8 fff7feff  ................
 0060 03460a20 002bf6d1 6420fff7 feff0db0  .F. .+..d ......
 0070 30bd00bf                             0...            
Contents of section .rodata._ZTV15Adafruit_ICM20X:
 0000 00000000 00000000 00000000 00000000  ................
Contents of section .rodata._ZTV20Adafruit_ICM20X_Gyro:
 0000 00000000 00000000 00000000 00000000  ................
 0010 00000000 00000000 00000000           ............    
Contents of section .rodata._ZTV20Adafruit_ICM20X_Temp:
 0000 00000000 00000000 00000000 00000000  ................
 0010 00000000 00000000 00000000           ............    
Contents of section .rodata._ZTV28Adafruit_ICM20X_Magnetometer:
 0000 00000000 00000000 00000000 00000000  ................
 0010 00000000 00000000 00000000           ............    
Contents of section .rodata._ZTV29Adafruit_ICM20X_Accelerometer:
 0000 00000000 00000000 00000000 00000000  ................
 0010 00000000 00000000 00000000           ............    
Contents of section .comment:
 0000 00474343 3a202841 726d2047 4e552054  .GCC: (Arm GNU T
 0010 6f6f6c63 6861696e 2031312e 332e5265  oolchain 11.3.Re
 0020 6c312920 31312e33 2e312032 30323230  l1) 11.3.1 20220
 0030 37313200                             712.            
Contents of section .ARM.attributes:
 0000 41310000 00616561 62690001 27000000  A1...aeabi..'...
 0010 0537452d 4d00060d 074d0902 0a081204  .7E-M....M......
 0020 14011501 17031801 19011a01 1c011e02  ................
 0030 2201                                 ".              

Disassembly of section .text._ZN15Adafruit_Sensor15enableAutoRangeEb:

00000000 <_ZN15Adafruit_Sensor15enableAutoRangeEb>:
   0:	4770      	bx	lr
   2:	bf00      	nop

Disassembly of section .text._ZN15Adafruit_ICM20X9begin_I2CEhP7TwoWirel:

00000000 <_ZN15Adafruit_ICM20X9begin_I2CEhP7TwoWirel>:
   0:	2000      	movs	r0, #0
   2:	4770      	bx	lr

Disassembly of section .text._ZN15Adafruit_ICM20X11scaleValuesEv:

00000000 <_ZN15Adafruit_ICM20X11scaleValuesEv>:
   0:	4770      	bx	lr
   2:	bf00      	nop

Disassembly of section .text._ZN20Adafruit_ICM20X_TempD2Ev:

00000000 <_ZN20Adafruit_ICM20X_TempD1Ev>:
   0:	4770      	bx	lr
   2:	bf00      	nop

Disassembly of section .text._ZN28Adafruit_ICM20X_MagnetometerD2Ev:

00000000 <_ZN28Adafruit_ICM20X_MagnetometerD1Ev>:
   0:	4770      	bx	lr
   2:	bf00      	nop

Disassembly of section .text._ZN20Adafruit_ICM20X_GyroD2Ev:

00000000 <_ZN20Adafruit_ICM20X_GyroD1Ev>:
   0:	4770      	bx	lr
   2:	bf00      	nop

Disassembly of section .text._ZN29Adafruit_ICM20X_AccelerometerD2Ev:

00000000 <_ZN29Adafruit_ICM20X_AccelerometerD1Ev>:
   0:	4770      	bx	lr
   2:	bf00      	nop

Disassembly of section .text._ZN29Adafruit_ICM20X_AccelerometerD0Ev:

00000000 <_ZN29Adafruit_ICM20X_AccelerometerD0Ev>:
   0:	b510      	push	{r4, lr}
   2:	4604      	mov	r4, r0
   4:	2110      	movs	r1, #16
   6:	f7ff fffe 	bl	0 <_ZdlPvj>
   a:	4620      	mov	r0, r4
   c:	bd10      	pop	{r4, pc}
   e:	bf00      	nop

Disassembly of section .text._ZN20Adafruit_ICM20X_GyroD0Ev:

00000000 <_ZN20Adafruit_ICM20X_GyroD0Ev>:
   0:	b510      	push	{r4, lr}
   2:	4604      	mov	r4, r0
   4:	2110      	movs	r1, #16
   6:	f7ff fffe 	bl	0 <_ZdlPvj>
   a:	4620      	mov	r0, r4
   c:	bd10      	pop	{r4, pc}
   e:	bf00      	nop

Disassembly of section .text._ZN28Adafruit_ICM20X_MagnetometerD0Ev:

00000000 <_ZN28Adafruit_ICM20X_MagnetometerD0Ev>:
   0:	b510      	push	{r4, lr}
   2:	4604      	mov	r4, r0
   4:	2110      	movs	r1, #16
   6:	f7ff fffe 	bl	0 <_ZdlPvj>
   a:	4620      	mov	r0, r4
   c:	bd10      	pop	{r4, pc}
   e:	bf00      	nop

Disassembly of section .text._ZN20Adafruit_ICM20X_TempD0Ev:

00000000 <_ZN20Adafruit_ICM20X_TempD0Ev>:
   0:	b510      	push	{r4, lr}
   2:	4604      	mov	r4, r0
   4:	2110      	movs	r1, #16
   6:	f7ff fffe 	bl	0 <_ZdlPvj>
   a:	4620      	mov	r0, r4
   c:	bd10      	pop	{r4, pc}
   e:	bf00      	nop

Disassembly of section .text._ZN29Adafruit_ICM20X_Accelerometer9getSensorEP8sensor_t:

00000000 <_ZN29Adafruit_ICM20X_Accelerometer9getSensorEP8sensor_t>:
   0:	b538      	push	{r3, r4, r5, lr}
   2:	460c      	mov	r4, r1
   4:	2220      	movs	r2, #32
   6:	2100      	movs	r1, #0
   8:	4605      	mov	r5, r0
   a:	f104 0008 	add.w	r0, r4, #8
   e:	f7ff fffe 	bl	0 <memset>
  12:	220b      	movs	r2, #11
  14:	4907      	ldr	r1, [pc, #28]	; (34 <_ZN29Adafruit_ICM20X_Accelerometer9getSensorEP8sensor_t+0x34>)
  16:	4620      	mov	r0, r4
  18:	f7ff fffe 	bl	0 <strncpy>
  1c:	68a8      	ldr	r0, [r5, #8]
  1e:	2301      	movs	r3, #1
  20:	4905      	ldr	r1, [pc, #20]	; (38 <_ZN29Adafruit_ICM20X_Accelerometer9getSensorEP8sensor_t+0x38>)
  22:	4a06      	ldr	r2, [pc, #24]	; (3c <_ZN29Adafruit_ICM20X_Accelerometer9getSensorEP8sensor_t+0x3c>)
  24:	6163      	str	r3, [r4, #20]
  26:	61e1      	str	r1, [r4, #28]
  28:	61a2      	str	r2, [r4, #24]
  2a:	e9c4 3003 	strd	r3, r0, [r4, #12]
  2e:	4b04      	ldr	r3, [pc, #16]	; (40 <_ZN29Adafruit_ICM20X_Accelerometer9getSensorEP8sensor_t+0x40>)
  30:	6223      	str	r3, [r4, #32]
  32:	bd38      	pop	{r3, r4, r5, pc}
  34:	00000000 	.word	0x00000000
  38:	c3931989 	.word	0xc3931989
  3c:	43931989 	.word	0x43931989
  40:	3df9db23 	.word	0x3df9db23

Disassembly of section .text._ZN20Adafruit_ICM20X_Gyro9getSensorEP8sensor_t:

00000000 <_ZN20Adafruit_ICM20X_Gyro9getSensorEP8sensor_t>:
   0:	b538      	push	{r3, r4, r5, lr}
   2:	460c      	mov	r4, r1
   4:	2220      	movs	r2, #32
   6:	2100      	movs	r1, #0
   8:	4605      	mov	r5, r0
   a:	f104 0008 	add.w	r0, r4, #8
   e:	f7ff fffe 	bl	0 <memset>
  12:	220b      	movs	r2, #11
  14:	4908      	ldr	r1, [pc, #32]	; (38 <_ZN20Adafruit_ICM20X_Gyro9getSensorEP8sensor_t+0x38>)
  16:	4620      	mov	r0, r4
  18:	f7ff fffe 	bl	0 <strncpy>
  1c:	68a8      	ldr	r0, [r5, #8]
  1e:	2201      	movs	r2, #1
  20:	2304      	movs	r3, #4
  22:	4906      	ldr	r1, [pc, #24]	; (3c <_ZN20Adafruit_ICM20X_Gyro9getSensorEP8sensor_t+0x3c>)
  24:	6163      	str	r3, [r4, #20]
  26:	4b06      	ldr	r3, [pc, #24]	; (40 <_ZN20Adafruit_ICM20X_Gyro9getSensorEP8sensor_t+0x40>)
  28:	61e1      	str	r1, [r4, #28]
  2a:	6223      	str	r3, [r4, #32]
  2c:	e9c4 2003 	strd	r2, r0, [r4, #12]
  30:	4a04      	ldr	r2, [pc, #16]	; (44 <_ZN20Adafruit_ICM20X_Gyro9getSensorEP8sensor_t+0x44>)
  32:	61a2      	str	r2, [r4, #24]
  34:	bd38      	pop	{r3, r4, r5, pc}
  36:	bf00      	nop
  38:	00000000 	.word	0x00000000
  3c:	c28b9eb8 	.word	0xc28b9eb8
  40:	348f137b 	.word	0x348f137b
  44:	428b9eb8 	.word	0x428b9eb8

Disassembly of section .text._ZN28Adafruit_ICM20X_Magnetometer9getSensorEP8sensor_t:

00000000 <_ZN28Adafruit_ICM20X_Magnetometer9getSensorEP8sensor_t>:
   0:	b538      	push	{r3, r4, r5, lr}
   2:	460c      	mov	r4, r1
   4:	2220      	movs	r2, #32
   6:	2100      	movs	r1, #0
   8:	4605      	mov	r5, r0
   a:	f104 0008 	add.w	r0, r4, #8
   e:	f7ff fffe 	bl	0 <memset>
  12:	220b      	movs	r2, #11
  14:	4908      	ldr	r1, [pc, #32]	; (38 <_ZN28Adafruit_ICM20X_Magnetometer9getSensorEP8sensor_t+0x38>)
  16:	4620      	mov	r0, r4
  18:	f7ff fffe 	bl	0 <strncpy>
  1c:	68a8      	ldr	r0, [r5, #8]
  1e:	2201      	movs	r2, #1
  20:	2302      	movs	r3, #2
  22:	4906      	ldr	r1, [pc, #24]	; (3c <_ZN28Adafruit_ICM20X_Magnetometer9getSensorEP8sensor_t+0x3c>)
  24:	6163      	str	r3, [r4, #20]
  26:	4b06      	ldr	r3, [pc, #24]	; (40 <_ZN28Adafruit_ICM20X_Magnetometer9getSensorEP8sensor_t+0x40>)
  28:	61e1      	str	r1, [r4, #28]
  2a:	6223      	str	r3, [r4, #32]
  2c:	e9c4 2003 	strd	r2, r0, [r4, #12]
  30:	4a04      	ldr	r2, [pc, #16]	; (44 <_ZN28Adafruit_ICM20X_Magnetometer9getSensorEP8sensor_t+0x44>)
  32:	61a2      	str	r2, [r4, #24]
  34:	bd38      	pop	{r3, r4, r5, pc}
  36:	bf00      	nop
  38:	00000000 	.word	0x00000000
  3c:	c5992000 	.word	0xc5992000
  40:	3f2aacda 	.word	0x3f2aacda
  44:	45992000 	.word	0x45992000

Disassembly of section .text._ZN20Adafruit_ICM20X_Temp9getSensorEP8sensor_t:

00000000 <_ZN20Adafruit_ICM20X_Temp9getSensorEP8sensor_t>:
   0:	b538      	push	{r3, r4, r5, lr}
   2:	460c      	mov	r4, r1
   4:	2220      	movs	r2, #32
   6:	2100      	movs	r1, #0
   8:	4605      	mov	r5, r0
   a:	f104 0008 	add.w	r0, r4, #8
   e:	f7ff fffe 	bl	0 <memset>
  12:	220b      	movs	r2, #11
  14:	4908      	ldr	r1, [pc, #32]	; (38 <_ZN20Adafruit_ICM20X_Temp9getSensorEP8sensor_t+0x38>)
  16:	4620      	mov	r0, r4
  18:	f7ff fffe 	bl	0 <strncpy>
  1c:	68a8      	ldr	r0, [r5, #8]
  1e:	2201      	movs	r2, #1
  20:	230d      	movs	r3, #13
  22:	4906      	ldr	r1, [pc, #24]	; (3c <_ZN20Adafruit_ICM20X_Temp9getSensorEP8sensor_t+0x3c>)
  24:	6163      	str	r3, [r4, #20]
  26:	4b06      	ldr	r3, [pc, #24]	; (40 <_ZN20Adafruit_ICM20X_Temp9getSensorEP8sensor_t+0x40>)
  28:	61e1      	str	r1, [r4, #28]
  2a:	6223      	str	r3, [r4, #32]
  2c:	e9c4 2003 	strd	r2, r0, [r4, #12]
  30:	4a04      	ldr	r2, [pc, #16]	; (44 <_ZN20Adafruit_ICM20X_Temp9getSensorEP8sensor_t+0x44>)
  32:	61a2      	str	r2, [r4, #24]
  34:	bd38      	pop	{r3, r4, r5, pc}
  36:	bf00      	nop
  38:	00000000 	.word	0x00000000
  3c:	c2200000 	.word	0xc2200000
  40:	3b444b1e 	.word	0x3b444b1e
  44:	42aa0000 	.word	0x42aa0000

Disassembly of section .text._ZN15Adafruit_ICM20XC2Ev:

00000000 <_ZN15Adafruit_ICM20XC1Ev>:
   0:	2200      	movs	r2, #0
   2:	4904      	ldr	r1, [pc, #16]	; (14 <_ZN15Adafruit_ICM20XC1Ev+0x14>)
   4:	e9c0 220b 	strd	r2, r2, [r0, #44]	; 0x2c
   8:	6001      	str	r1, [r0, #0]
   a:	e9c0 220d 	strd	r2, r2, [r0, #52]	; 0x34
   e:	e9c0 220f 	strd	r2, r2, [r0, #60]	; 0x3c
  12:	4770      	bx	lr
  14:	00000008 	.word	0x00000008

Disassembly of section .text._ZN15Adafruit_ICM20XD2Ev:

00000000 <_ZN15Adafruit_ICM20XD1Ev>:
   0:	b510      	push	{r4, lr}
   2:	4b0c      	ldr	r3, [pc, #48]	; (34 <_ZN15Adafruit_ICM20XD1Ev+0x34>)
   4:	4604      	mov	r4, r0
   6:	6b40      	ldr	r0, [r0, #52]	; 0x34
   8:	6023      	str	r3, [r4, #0]
   a:	b110      	cbz	r0, 12 <_ZN15Adafruit_ICM20XD1Ev+0x12>
   c:	6803      	ldr	r3, [r0, #0]
   e:	685b      	ldr	r3, [r3, #4]
  10:	4798      	blx	r3
  12:	6ba0      	ldr	r0, [r4, #56]	; 0x38
  14:	b110      	cbz	r0, 1c <_ZN15Adafruit_ICM20XD1Ev+0x1c>
  16:	6803      	ldr	r3, [r0, #0]
  18:	685b      	ldr	r3, [r3, #4]
  1a:	4798      	blx	r3
  1c:	6be0      	ldr	r0, [r4, #60]	; 0x3c
  1e:	b110      	cbz	r0, 26 <_ZN15Adafruit_ICM20XD1Ev+0x26>
  20:	6803      	ldr	r3, [r0, #0]
  22:	685b      	ldr	r3, [r3, #4]
  24:	4798      	blx	r3
  26:	6c20      	ldr	r0, [r4, #64]	; 0x40
  28:	b110      	cbz	r0, 30 <_ZN15Adafruit_ICM20XD1Ev+0x30>
  2a:	6803      	ldr	r3, [r0, #0]
  2c:	685b      	ldr	r3, [r3, #4]
  2e:	4798      	blx	r3
  30:	4620      	mov	r0, r4
  32:	bd10      	pop	{r4, pc}
  34:	00000008 	.word	0x00000008

Disassembly of section .text._ZN15Adafruit_ICM20X5resetEv:

00000000 <_ZN15Adafruit_ICM20X5resetEv>:
   0:	b530      	push	{r4, r5, lr}
   2:	2300      	movs	r3, #0
   4:	b08d      	sub	sp, #52	; 0x34
   6:	2401      	movs	r4, #1
   8:	227f      	movs	r2, #127	; 0x7f
   a:	4605      	mov	r5, r0
   c:	e9cd 3402 	strd	r3, r4, [sp, #8]
  10:	e9cd 2400 	strd	r2, r4, [sp]
  14:	e9d0 120b 	ldrd	r1, r2, [r0, #44]	; 0x2c
  18:	a806      	add	r0, sp, #24
  1a:	f7ff fffe 	bl	0 <_ZN23Adafruit_BusIO_RegisterC1EP18Adafruit_I2CDeviceP18Adafruit_SPIDevice26_Adafruit_BusIO_SPIRegTypethhh>
  1e:	2300      	movs	r3, #0
  20:	a806      	add	r0, sp, #24
  22:	461a      	mov	r2, r3
  24:	4619      	mov	r1, r3
  26:	f7ff fffe 	bl	0 <_ZN23Adafruit_BusIO_Register5writeEmh>
  2a:	2300      	movs	r3, #0
  2c:	2206      	movs	r2, #6
  2e:	9403      	str	r4, [sp, #12]
  30:	a806      	add	r0, sp, #24
  32:	9200      	str	r2, [sp, #0]
  34:	e9cd 4301 	strd	r4, r3, [sp, #4]
  38:	e9d5 120b 	ldrd	r1, r2, [r5, #44]	; 0x2c
  3c:	f7ff fffe 	bl	0 <_ZN23Adafruit_BusIO_RegisterC1EP18Adafruit_I2CDeviceP18Adafruit_SPIDevice26_Adafruit_BusIO_SPIRegTypethhh>
  40:	2307      	movs	r3, #7
  42:	4622      	mov	r2, r4
  44:	a906      	add	r1, sp, #24
  46:	a804      	add	r0, sp, #16
  48:	f7ff fffe 	bl	0 <_ZN27Adafruit_BusIO_RegisterBitsC1EP23Adafruit_BusIO_Registerhh>
  4c:	4621      	mov	r1, r4
  4e:	a804      	add	r0, sp, #16
  50:	f7ff fffe 	bl	0 <_ZN27Adafruit_BusIO_RegisterBits5writeEm>
  54:	2014      	movs	r0, #20
  56:	f7ff fffe 	bl	0 <delay>
  5a:	e001      	b.n	60 <_ZN15Adafruit_ICM20X5resetEv+0x60>
  5c:	f7ff fffe 	bl	0 <delay>
  60:	a804      	add	r0, sp, #16
  62:	f7ff fffe 	bl	0 <_ZN27Adafruit_BusIO_RegisterBits4readEv>
  66:	4603      	mov	r3, r0
  68:	200a      	movs	r0, #10
  6a:	2b00      	cmp	r3, #0
  6c:	d1f6      	bne.n	5c <_ZN15Adafruit_ICM20X5resetEv+0x5c>
  6e:	2032      	movs	r0, #50	; 0x32
  70:	f7ff fffe 	bl	0 <delay>
  74:	b00d      	add	sp, #52	; 0x34
  76:	bd30      	pop	{r4, r5, pc}

Disassembly of section .text._ZN15Adafruit_ICM20X14fillAccelEventEP15sensors_event_tm:

00000000 <_ZN15Adafruit_ICM20X14fillAccelEventEP15sensors_event_tm>:
   0:	b570      	push	{r4, r5, r6, lr}
   2:	460c      	mov	r4, r1
   4:	4605      	mov	r5, r0
   6:	4616      	mov	r6, r2
   8:	2100      	movs	r1, #0
   a:	2220      	movs	r2, #32
   c:	1d20      	adds	r0, r4, #4
   e:	f7ff fffe 	bl	0 <memset>
  12:	edd5 7a02 	vldr	s15, [r5, #8]
  16:	ed9f 7a0d 	vldr	s14, [pc, #52]	; 4c <_ZN15Adafruit_ICM20X14fillAccelEventEP15sensors_event_tm+0x4c>
  1a:	2301      	movs	r3, #1
  1c:	f8b5 2044 	ldrh.w	r2, [r5, #68]	; 0x44
  20:	ee67 7a87 	vmul.f32	s15, s15, s14
  24:	6126      	str	r6, [r4, #16]
  26:	60a3      	str	r3, [r4, #8]
  28:	edc4 7a05 	vstr	s15, [r4, #20]
  2c:	edd5 7a03 	vldr	s15, [r5, #12]
  30:	ee67 7a87 	vmul.f32	s15, s15, s14
  34:	e9c4 3200 	strd	r3, r2, [r4]
  38:	edc4 7a06 	vstr	s15, [r4, #24]
  3c:	edd5 7a04 	vldr	s15, [r5, #16]
  40:	ee67 7a87 	vmul.f32	s15, s15, s14
  44:	edc4 7a07 	vstr	s15, [r4, #28]
  48:	bd70      	pop	{r4, r5, r6, pc}
  4a:	bf00      	nop
  4c:	411ce80a 	.word	0x411ce80a

Disassembly of section .text._ZN15Adafruit_ICM20X13fillGyroEventEP15sensors_event_tm:

00000000 <_ZN15Adafruit_ICM20X13fillGyroEventEP15sensors_event_tm>:
   0:	b570      	push	{r4, r5, r6, lr}
   2:	460c      	mov	r4, r1
   4:	4605      	mov	r5, r0
   6:	4616      	mov	r6, r2
   8:	2100      	movs	r1, #0
   a:	2220      	movs	r2, #32
   c:	1d20      	adds	r0, r4, #4
   e:	f7ff fffe 	bl	0 <memset>
  12:	edd5 7a05 	vldr	s15, [r5, #20]
  16:	ed9f 7a0d 	vldr	s14, [pc, #52]	; 4c <_ZN15Adafruit_ICM20X13fillGyroEventEP15sensors_event_tm+0x4c>
  1a:	2201      	movs	r2, #1
  1c:	f8b5 3046 	ldrh.w	r3, [r5, #70]	; 0x46
  20:	ee67 7a87 	vmul.f32	s15, s15, s14
  24:	6126      	str	r6, [r4, #16]
  26:	6063      	str	r3, [r4, #4]
  28:	2304      	movs	r3, #4
  2a:	6022      	str	r2, [r4, #0]
  2c:	edc4 7a05 	vstr	s15, [r4, #20]
  30:	edd5 7a06 	vldr	s15, [r5, #24]
  34:	60a3      	str	r3, [r4, #8]
  36:	ee67 7a87 	vmul.f32	s15, s15, s14
  3a:	edc4 7a06 	vstr	s15, [r4, #24]
  3e:	edd5 7a07 	vldr	s15, [r5, #28]
  42:	ee67 7a87 	vmul.f32	s15, s15, s14
  46:	edc4 7a07 	vstr	s15, [r4, #28]
  4a:	bd70      	pop	{r4, r5, r6, pc}
  4c:	3c8efa35 	.word	0x3c8efa35

Disassembly of section .text._ZN15Adafruit_ICM20X12fillMagEventEP15sensors_event_tm:

00000000 <_ZN15Adafruit_ICM20X12fillMagEventEP15sensors_event_tm>:
   0:	b570      	push	{r4, r5, r6, lr}
   2:	460c      	mov	r4, r1
   4:	4605      	mov	r5, r0
   6:	4616      	mov	r6, r2
   8:	2100      	movs	r1, #0
   a:	2220      	movs	r2, #32
   c:	1d20      	adds	r0, r4, #4
   e:	f7ff fffe 	bl	0 <memset>
  12:	6a2a      	ldr	r2, [r5, #32]
  14:	2301      	movs	r3, #1
  16:	f8b5 1048 	ldrh.w	r1, [r5, #72]	; 0x48
  1a:	6162      	str	r2, [r4, #20]
  1c:	2202      	movs	r2, #2
  1e:	6023      	str	r3, [r4, #0]
  20:	6a6b      	ldr	r3, [r5, #36]	; 0x24
  22:	6126      	str	r6, [r4, #16]
  24:	61a3      	str	r3, [r4, #24]
  26:	6aab      	ldr	r3, [r5, #40]	; 0x28
  28:	6061      	str	r1, [r4, #4]
  2a:	60a2      	str	r2, [r4, #8]
  2c:	61e3      	str	r3, [r4, #28]
  2e:	bd70      	pop	{r4, r5, r6, pc}

Disassembly of section .text._ZN15Adafruit_ICM20X13fillTempEventEP15sensors_event_tm:

00000000 <_ZN15Adafruit_ICM20X13fillTempEventEP15sensors_event_tm>:
   0:	b570      	push	{r4, r5, r6, lr}
   2:	460c      	mov	r4, r1
   4:	4605      	mov	r5, r0
   6:	4616      	mov	r6, r2
   8:	2100      	movs	r1, #0
   a:	2220      	movs	r2, #32
   c:	1d20      	adds	r0, r4, #4
   e:	f7ff fffe 	bl	0 <memset>
  12:	ed95 6a01 	vldr	s12, [r5, #4]
  16:	eeb3 5b05 	vmov.f64	d5, #53	; 0x41a80000  21.0
  1a:	f8b5 104a 	ldrh.w	r1, [r5, #74]	; 0x4a
  1e:	eeb7 6ac6 	vcvt.f64.f32	d6, s12
  22:	2224      	movs	r2, #36	; 0x24
  24:	230d      	movs	r3, #13
  26:	6061      	str	r1, [r4, #4]
  28:	6126      	str	r6, [r4, #16]
  2a:	6022      	str	r2, [r4, #0]
  2c:	60a3      	str	r3, [r4, #8]
  2e:	ed9f 4b06 	vldr	d4, [pc, #24]	; 48 <_ZN15Adafruit_ICM20X13fillTempEventEP15sensors_event_tm+0x48>
  32:	ee86 7b04 	vdiv.f64	d7, d6, d4
  36:	ee37 7b05 	vadd.f64	d7, d7, d5
  3a:	eeb7 7bc7 	vcvt.f32.f64	s14, d7
  3e:	ed84 7a05 	vstr	s14, [r4, #20]
  42:	bd70      	pop	{r4, r5, r6, pc}
  44:	f3af 8000 	nop.w
  48:	851eb852 	.word	0x851eb852
  4c:	4074ddeb 	.word	0x4074ddeb

Disassembly of section .text._ZN15Adafruit_ICM20X5_readEv:

00000000 <_ZN15Adafruit_ICM20X5_readEv>:
   0:	b530      	push	{r4, r5, lr}
   2:	2300      	movs	r3, #0
   4:	b097      	sub	sp, #92	; 0x5c
   6:	2501      	movs	r5, #1
   8:	227f      	movs	r2, #127	; 0x7f
   a:	4604      	mov	r4, r0
   c:	e9cd 3502 	strd	r3, r5, [sp, #8]
  10:	e9cd 2500 	strd	r2, r5, [sp]
  14:	e9d0 120b 	ldrd	r1, r2, [r0, #44]	; 0x2c
  18:	a810      	add	r0, sp, #64	; 0x40
  1a:	f7ff fffe 	bl	0 <_ZN23Adafruit_BusIO_RegisterC1EP18Adafruit_I2CDeviceP18Adafruit_SPIDevice26_Adafruit_BusIO_SPIRegTypethhh>
  1e:	2300      	movs	r3, #0
  20:	a810      	add	r0, sp, #64	; 0x40
  22:	461a      	mov	r2, r3
  24:	4619      	mov	r1, r3
  26:	f7ff fffe 	bl	0 <_ZN23Adafruit_BusIO_Register5writeEmh>
  2a:	2300      	movs	r3, #0
  2c:	9503      	str	r5, [sp, #12]
  2e:	222d      	movs	r2, #45	; 0x2d
  30:	2517      	movs	r5, #23
  32:	a80a      	add	r0, sp, #40	; 0x28
  34:	9200      	str	r2, [sp, #0]
  36:	e9cd 5301 	strd	r5, r3, [sp, #4]
  3a:	e9d4 120b 	ldrd	r1, r2, [r4, #44]	; 0x2c
  3e:	f7ff fffe 	bl	0 <_ZN23Adafruit_BusIO_RegisterC1EP18Adafruit_I2CDeviceP18Adafruit_SPIDevice26_Adafruit_BusIO_SPIRegTypethhh>
  42:	462a      	mov	r2, r5
  44:	a904      	add	r1, sp, #16
  46:	a80a      	add	r0, sp, #40	; 0x28
  48:	f7ff fffe 	bl	0 <_ZN23Adafruit_BusIO_Register4readEPhh>
  4c:	f8bd 301c 	ldrh.w	r3, [sp, #28]
  50:	f8bd 2012 	ldrh.w	r2, [sp, #18]
  54:	ba5b      	rev16	r3, r3
  56:	f8bd 1010 	ldrh.w	r1, [sp, #16]
  5a:	ba52      	rev16	r2, r2
  5c:	f8bd 001f 	ldrh.w	r0, [sp, #31]
  60:	b29b      	uxth	r3, r3
  62:	ba49      	rev16	r1, r1
  64:	f8a4 204e 	strh.w	r2, [r4, #78]	; 0x4e
  68:	f8bd 2016 	ldrh.w	r2, [sp, #22]
  6c:	ee07 3a90 	vmov	s15, r3
  70:	f8a4 104c 	strh.w	r1, [r4, #76]	; 0x4c
  74:	ba53      	rev16	r3, r2
  76:	f8bd 2018 	ldrh.w	r2, [sp, #24]
  7a:	f8bd 1014 	ldrh.w	r1, [sp, #20]
  7e:	eef8 7ae7 	vcvt.f32.s32	s15, s15
  82:	f8a4 3054 	strh.w	r3, [r4, #84]	; 0x54
  86:	ba52      	rev16	r2, r2
  88:	f8bd 301a 	ldrh.w	r3, [sp, #26]
  8c:	ba49      	rev16	r1, r1
  8e:	f8a4 2056 	strh.w	r2, [r4, #86]	; 0x56
  92:	ba5b      	rev16	r3, r3
  94:	4a15      	ldr	r2, [pc, #84]	; (ec <_ZN15Adafruit_ICM20X5_readEv+0xec>)
  96:	f8a4 005a 	strh.w	r0, [r4, #90]	; 0x5a
  9a:	f8a4 3058 	strh.w	r3, [r4, #88]	; 0x58
  9e:	6823      	ldr	r3, [r4, #0]
  a0:	f8bd 0021 	ldrh.w	r0, [sp, #33]	; 0x21
  a4:	681b      	ldr	r3, [r3, #0]
  a6:	f8a4 1050 	strh.w	r1, [r4, #80]	; 0x50
  aa:	4293      	cmp	r3, r2
  ac:	f8bd 1023 	ldrh.w	r1, [sp, #35]	; 0x23
  b0:	edc4 7a01 	vstr	s15, [r4, #4]
  b4:	f8a4 005c 	strh.w	r0, [r4, #92]	; 0x5c
  b8:	f8a4 105e 	strh.w	r1, [r4, #94]	; 0x5e
  bc:	d113      	bne.n	e6 <_ZN15Adafruit_ICM20X5_readEv+0xe6>
  be:	2500      	movs	r5, #0
  c0:	2301      	movs	r3, #1
  c2:	227f      	movs	r2, #127	; 0x7f
  c4:	a810      	add	r0, sp, #64	; 0x40
  c6:	e9cd 5302 	strd	r5, r3, [sp, #8]
  ca:	e9cd 2300 	strd	r2, r3, [sp]
  ce:	462b      	mov	r3, r5
  d0:	e9d4 120b 	ldrd	r1, r2, [r4, #44]	; 0x2c
  d4:	f7ff fffe 	bl	0 <_ZN23Adafruit_BusIO_RegisterC1EP18Adafruit_I2CDeviceP18Adafruit_SPIDevice26_Adafruit_BusIO_SPIRegTypethhh>
  d8:	462a      	mov	r2, r5
  da:	4629      	mov	r1, r5
  dc:	a810      	add	r0, sp, #64	; 0x40
  de:	f7ff fffe 	bl	0 <_ZN23Adafruit_BusIO_Register5writeEmh>
  e2:	b017      	add	sp, #92	; 0x5c
  e4:	bd30      	pop	{r4, r5, pc}
  e6:	4620      	mov	r0, r4
  e8:	4798      	blx	r3
  ea:	e7e8      	b.n	be <_ZN15Adafruit_ICM20X5_readEv+0xbe>
  ec:	00000000 	.word	0x00000000

Disassembly of section .text._ZN15Adafruit_ICM20X8getEventEP15sensors_event_tS1_S1_S1_:

00000000 <_ZN15Adafruit_ICM20X8getEventEP15sensors_event_tS1_S1_S1_>:
   0:	e92d 47f0 	stmdb	sp!, {r4, r5, r6, r7, r8, r9, sl, lr}
   4:	460e      	mov	r6, r1
   6:	461f      	mov	r7, r3
   8:	4b49      	ldr	r3, [pc, #292]	; (130 <_ZN15Adafruit_ICM20X8getEventEP15sensors_event_tS1_S1_S1_+0x130>)
   a:	4604      	mov	r4, r0
   c:	4615      	mov	r5, r2
   e:	f8dd 8020 	ldr.w	r8, [sp, #32]
  12:	f8d3 a000 	ldr.w	sl, [r3]
  16:	f7ff fffe 	bl	0 <_ZN15Adafruit_ICM20X8getEventEP15sensors_event_tS1_S1_S1_>
  1a:	2220      	movs	r2, #32
  1c:	2100      	movs	r1, #0
  1e:	1d30      	adds	r0, r6, #4
  20:	f04f 0901 	mov.w	r9, #1
  24:	f7ff fffe 	bl	0 <memset>
  28:	edd4 7a02 	vldr	s15, [r4, #8]
  2c:	ed9f 7a41 	vldr	s14, [pc, #260]	; 134 <_ZN15Adafruit_ICM20X8getEventEP15sensors_event_tS1_S1_S1_+0x134>
  30:	2220      	movs	r2, #32
  32:	f8b4 3044 	ldrh.w	r3, [r4, #68]	; 0x44
  36:	2100      	movs	r1, #0
  38:	ee67 7a87 	vmul.f32	s15, s15, s14
  3c:	1d28      	adds	r0, r5, #4
  3e:	6073      	str	r3, [r6, #4]
  40:	f8c6 a010 	str.w	sl, [r6, #16]
  44:	edc6 7a05 	vstr	s15, [r6, #20]
  48:	edd4 7a03 	vldr	s15, [r4, #12]
  4c:	ee67 7a87 	vmul.f32	s15, s15, s14
  50:	edc6 7a06 	vstr	s15, [r6, #24]
  54:	edd4 7a04 	vldr	s15, [r4, #16]
  58:	f8c6 9000 	str.w	r9, [r6]
  5c:	ee67 7a87 	vmul.f32	s15, s15, s14
  60:	f8c6 9008 	str.w	r9, [r6, #8]
  64:	edc6 7a07 	vstr	s15, [r6, #28]
  68:	f7ff fffe 	bl	0 <memset>
  6c:	edd4 7a05 	vldr	s15, [r4, #20]
  70:	ed9f 7a31 	vldr	s14, [pc, #196]	; 138 <_ZN15Adafruit_ICM20X8getEventEP15sensors_event_tS1_S1_S1_+0x138>
  74:	2220      	movs	r2, #32
  76:	f8b4 3046 	ldrh.w	r3, [r4, #70]	; 0x46
  7a:	2100      	movs	r1, #0
  7c:	ee67 7a87 	vmul.f32	s15, s15, s14
  80:	f8c5 9000 	str.w	r9, [r5]
  84:	606b      	str	r3, [r5, #4]
  86:	2304      	movs	r3, #4
  88:	f8c5 a010 	str.w	sl, [r5, #16]
  8c:	edc5 7a05 	vstr	s15, [r5, #20]
  90:	18f8      	adds	r0, r7, r3
  92:	edd4 7a06 	vldr	s15, [r4, #24]
  96:	ee67 7a87 	vmul.f32	s15, s15, s14
  9a:	edc5 7a06 	vstr	s15, [r5, #24]
  9e:	edd4 7a07 	vldr	s15, [r4, #28]
  a2:	60ab      	str	r3, [r5, #8]
  a4:	ee67 7a87 	vmul.f32	s15, s15, s14
  a8:	edc5 7a07 	vstr	s15, [r5, #28]
  ac:	f7ff fffe 	bl	0 <memset>
  b0:	ed94 6a01 	vldr	s12, [r4, #4]
  b4:	eeb3 5b05 	vmov.f64	d5, #53	; 0x41a80000  21.0
  b8:	f8b4 304a 	ldrh.w	r3, [r4, #74]	; 0x4a
  bc:	eeb7 6ac6 	vcvt.f64.f32	d6, s12
  c0:	f8c7 a010 	str.w	sl, [r7, #16]
  c4:	607b      	str	r3, [r7, #4]
  c6:	2324      	movs	r3, #36	; 0x24
  c8:	ed9f 4b17 	vldr	d4, [pc, #92]	; 128 <_ZN15Adafruit_ICM20X8getEventEP15sensors_event_tS1_S1_S1_+0x128>
  cc:	603b      	str	r3, [r7, #0]
  ce:	230d      	movs	r3, #13
  d0:	ee86 7b04 	vdiv.f64	d7, d6, d4
  d4:	60bb      	str	r3, [r7, #8]
  d6:	ee37 7b05 	vadd.f64	d7, d7, d5
  da:	eeb7 7bc7 	vcvt.f32.f64	s14, d7
  de:	ed87 7a05 	vstr	s14, [r7, #20]
  e2:	f1b8 0f00 	cmp.w	r8, #0
  e6:	d019      	beq.n	11c <_ZN15Adafruit_ICM20X8getEventEP15sensors_event_tS1_S1_S1_+0x11c>
  e8:	2220      	movs	r2, #32
  ea:	2100      	movs	r1, #0
  ec:	f108 0004 	add.w	r0, r8, #4
  f0:	f7ff fffe 	bl	0 <memset>
  f4:	6a23      	ldr	r3, [r4, #32]
  f6:	f8b4 2048 	ldrh.w	r2, [r4, #72]	; 0x48
  fa:	f8c8 3014 	str.w	r3, [r8, #20]
  fe:	6a63      	ldr	r3, [r4, #36]	; 0x24
 100:	f8c8 2004 	str.w	r2, [r8, #4]
 104:	2202      	movs	r2, #2
 106:	f8c8 3018 	str.w	r3, [r8, #24]
 10a:	6aa3      	ldr	r3, [r4, #40]	; 0x28
 10c:	f8c8 a010 	str.w	sl, [r8, #16]
 110:	f8c8 9000 	str.w	r9, [r8]
 114:	f8c8 2008 	str.w	r2, [r8, #8]
 118:	f8c8 301c 	str.w	r3, [r8, #28]
 11c:	2001      	movs	r0, #1
 11e:	e8bd 87f0 	ldmia.w	sp!, {r4, r5, r6, r7, r8, r9, sl, pc}
 122:	bf00      	nop
 124:	f3af 8000 	nop.w
 128:	851eb852 	.word	0x851eb852
 12c:	4074ddeb 	.word	0x4074ddeb
 130:	00000000 	.word	0x00000000
 134:	411ce80a 	.word	0x411ce80a
 138:	3c8efa35 	.word	0x3c8efa35

Disassembly of section .text._ZN29Adafruit_ICM20X_Accelerometer8getEventEP15sensors_event_t:

00000000 <_ZN29Adafruit_ICM20X_Accelerometer8getEventEP15sensors_event_t>:
   0:	b570      	push	{r4, r5, r6, lr}
   2:	4605      	mov	r5, r0
   4:	460c      	mov	r4, r1
   6:	68c0      	ldr	r0, [r0, #12]
   8:	f7ff fffe 	bl	0 <_ZN29Adafruit_ICM20X_Accelerometer8getEventEP15sensors_event_t>
   c:	68ed      	ldr	r5, [r5, #12]
   e:	4b11      	ldr	r3, [pc, #68]	; (54 <_ZN29Adafruit_ICM20X_Accelerometer8getEventEP15sensors_event_t+0x54>)
  10:	2220      	movs	r2, #32
  12:	2100      	movs	r1, #0
  14:	1d20      	adds	r0, r4, #4
  16:	681e      	ldr	r6, [r3, #0]
  18:	f7ff fffe 	bl	0 <memset>
  1c:	edd5 7a02 	vldr	s15, [r5, #8]
  20:	2001      	movs	r0, #1
  22:	ed9f 7a0d 	vldr	s14, [pc, #52]	; 58 <_ZN29Adafruit_ICM20X_Accelerometer8getEventEP15sensors_event_t+0x58>
  26:	f8b5 3044 	ldrh.w	r3, [r5, #68]	; 0x44
  2a:	ee67 7a87 	vmul.f32	s15, s15, s14
  2e:	6126      	str	r6, [r4, #16]
  30:	60a0      	str	r0, [r4, #8]
  32:	edc4 7a05 	vstr	s15, [r4, #20]
  36:	edd5 7a03 	vldr	s15, [r5, #12]
  3a:	ee67 7a87 	vmul.f32	s15, s15, s14
  3e:	e9c4 0300 	strd	r0, r3, [r4]
  42:	edc4 7a06 	vstr	s15, [r4, #24]
  46:	edd5 7a04 	vldr	s15, [r5, #16]
  4a:	ee67 7a87 	vmul.f32	s15, s15, s14
  4e:	edc4 7a07 	vstr	s15, [r4, #28]
  52:	bd70      	pop	{r4, r5, r6, pc}
  54:	00000000 	.word	0x00000000
  58:	411ce80a 	.word	0x411ce80a

Disassembly of section .text._ZN20Adafruit_ICM20X_Gyro8getEventEP15sensors_event_t:

00000000 <_ZN20Adafruit_ICM20X_Gyro8getEventEP15sensors_event_t>:
   0:	b570      	push	{r4, r5, r6, lr}
   2:	4605      	mov	r5, r0
   4:	460c      	mov	r4, r1
   6:	68c0      	ldr	r0, [r0, #12]
   8:	f7ff fffe 	bl	0 <_ZN20Adafruit_ICM20X_Gyro8getEventEP15sensors_event_t>
   c:	68ed      	ldr	r5, [r5, #12]
   e:	4b12      	ldr	r3, [pc, #72]	; (58 <_ZN20Adafruit_ICM20X_Gyro8getEventEP15sensors_event_t+0x58>)
  10:	2220      	movs	r2, #32
  12:	2100      	movs	r1, #0
  14:	1d20      	adds	r0, r4, #4
  16:	681e      	ldr	r6, [r3, #0]
  18:	f7ff fffe 	bl	0 <memset>
  1c:	edd5 7a05 	vldr	s15, [r5, #20]
  20:	2001      	movs	r0, #1
  22:	ed9f 7a0e 	vldr	s14, [pc, #56]	; 5c <_ZN20Adafruit_ICM20X_Gyro8getEventEP15sensors_event_t+0x5c>
  26:	f8b5 3046 	ldrh.w	r3, [r5, #70]	; 0x46
  2a:	ee67 7a87 	vmul.f32	s15, s15, s14
  2e:	6126      	str	r6, [r4, #16]
  30:	6063      	str	r3, [r4, #4]
  32:	2304      	movs	r3, #4
  34:	6020      	str	r0, [r4, #0]
  36:	edc4 7a05 	vstr	s15, [r4, #20]
  3a:	edd5 7a06 	vldr	s15, [r5, #24]
  3e:	60a3      	str	r3, [r4, #8]
  40:	ee67 7a87 	vmul.f32	s15, s15, s14
  44:	edc4 7a06 	vstr	s15, [r4, #24]
  48:	edd5 7a07 	vldr	s15, [r5, #28]
  4c:	ee67 7a87 	vmul.f32	s15, s15, s14
  50:	edc4 7a07 	vstr	s15, [r4, #28]
  54:	bd70      	pop	{r4, r5, r6, pc}
  56:	bf00      	nop
  58:	00000000 	.word	0x00000000
  5c:	3c8efa35 	.word	0x3c8efa35

Disassembly of section .text._ZN28Adafruit_ICM20X_Magnetometer8getEventEP15sensors_event_t:

00000000 <_ZN28Adafruit_ICM20X_Magnetometer8getEventEP15sensors_event_t>:
   0:	b570      	push	{r4, r5, r6, lr}
   2:	4605      	mov	r5, r0
   4:	460c      	mov	r4, r1
   6:	68c0      	ldr	r0, [r0, #12]
   8:	f7ff fffe 	bl	0 <_ZN28Adafruit_ICM20X_Magnetometer8getEventEP15sensors_event_t>
   c:	68ed      	ldr	r5, [r5, #12]
   e:	4b0b      	ldr	r3, [pc, #44]	; (3c <_ZN28Adafruit_ICM20X_Magnetometer8getEventEP15sensors_event_t+0x3c>)
  10:	2220      	movs	r2, #32
  12:	2100      	movs	r1, #0
  14:	1d20      	adds	r0, r4, #4
  16:	681e      	ldr	r6, [r3, #0]
  18:	f7ff fffe 	bl	0 <memset>
  1c:	6a2b      	ldr	r3, [r5, #32]
  1e:	2001      	movs	r0, #1
  20:	f8b5 2048 	ldrh.w	r2, [r5, #72]	; 0x48
  24:	6163      	str	r3, [r4, #20]
  26:	6a6b      	ldr	r3, [r5, #36]	; 0x24
  28:	6062      	str	r2, [r4, #4]
  2a:	61a3      	str	r3, [r4, #24]
  2c:	6aab      	ldr	r3, [r5, #40]	; 0x28
  2e:	6126      	str	r6, [r4, #16]
  30:	61e3      	str	r3, [r4, #28]
  32:	2302      	movs	r3, #2
  34:	6020      	str	r0, [r4, #0]
  36:	60a3      	str	r3, [r4, #8]
  38:	bd70      	pop	{r4, r5, r6, pc}
  3a:	bf00      	nop
  3c:	00000000 	.word	0x00000000

Disassembly of section .text._ZN20Adafruit_ICM20X_Temp8getEventEP15sensors_event_t:

00000000 <_ZN20Adafruit_ICM20X_Temp8getEventEP15sensors_event_t>:
   0:	b570      	push	{r4, r5, r6, lr}
   2:	4605      	mov	r5, r0
   4:	460c      	mov	r4, r1
   6:	68c0      	ldr	r0, [r0, #12]
   8:	f7ff fffe 	bl	0 <_ZN20Adafruit_ICM20X_Temp8getEventEP15sensors_event_t>
   c:	68ed      	ldr	r5, [r5, #12]
   e:	4b12      	ldr	r3, [pc, #72]	; (58 <_ZN20Adafruit_ICM20X_Temp8getEventEP15sensors_event_t+0x58>)
  10:	2220      	movs	r2, #32
  12:	2100      	movs	r1, #0
  14:	1d20      	adds	r0, r4, #4
  16:	681e      	ldr	r6, [r3, #0]
  18:	f7ff fffe 	bl	0 <memset>
  1c:	ed95 6a01 	vldr	s12, [r5, #4]
  20:	eeb3 5b05 	vmov.f64	d5, #53	; 0x41a80000  21.0
  24:	f8b5 104a 	ldrh.w	r1, [r5, #74]	; 0x4a
  28:	2224      	movs	r2, #36	; 0x24
  2a:	eeb7 6ac6 	vcvt.f64.f32	d6, s12
  2e:	230d      	movs	r3, #13
  30:	2001      	movs	r0, #1
  32:	6061      	str	r1, [r4, #4]
  34:	6126      	str	r6, [r4, #16]
  36:	6022      	str	r2, [r4, #0]
  38:	60a3      	str	r3, [r4, #8]
  3a:	ed9f 4b05 	vldr	d4, [pc, #20]	; 50 <_ZN20Adafruit_ICM20X_Temp8getEventEP15sensors_event_t+0x50>
  3e:	ee86 7b04 	vdiv.f64	d7, d6, d4
  42:	ee37 7b05 	vadd.f64	d7, d7, d5
  46:	eeb7 7bc7 	vcvt.f32.f64	s14, d7
  4a:	ed84 7a05 	vstr	s14, [r4, #20]
  4e:	bd70      	pop	{r4, r5, r6, pc}
  50:	851eb852 	.word	0x851eb852
  54:	4074ddeb 	.word	0x4074ddeb
  58:	00000000 	.word	0x00000000

Disassembly of section .text._ZN15Adafruit_ICM20X22getAccelerometerSensorEv:

00000000 <_ZN15Adafruit_ICM20X22getAccelerometerSensorEv>:
   0:	6b40      	ldr	r0, [r0, #52]	; 0x34
   2:	4770      	bx	lr

Disassembly of section .text._ZN15Adafruit_ICM20X13getGyroSensorEv:

00000000 <_ZN15Adafruit_ICM20X13getGyroSensorEv>:
   0:	6b80      	ldr	r0, [r0, #56]	; 0x38
   2:	4770      	bx	lr

Disassembly of section .text._ZN15Adafruit_ICM20X21getMagnetometerSensorEv:

00000000 <_ZN15Adafruit_ICM20X21getMagnetometerSensorEv>:
   0:	6bc0      	ldr	r0, [r0, #60]	; 0x3c
   2:	4770      	bx	lr

Disassembly of section .text._ZN15Adafruit_ICM20X20getTemperatureSensorEv:

00000000 <_ZN15Adafruit_ICM20X20getTemperatureSensorEv>:
   0:	6c00      	ldr	r0, [r0, #64]	; 0x40
   2:	4770      	bx	lr

Disassembly of section .text._ZN15Adafruit_ICM20X8_setBankEh:

00000000 <_ZN15Adafruit_ICM20X8_setBankEh>:
   0:	b530      	push	{r4, r5, lr}
   2:	2301      	movs	r3, #1
   4:	b08b      	sub	sp, #44	; 0x2c
   6:	2500      	movs	r5, #0
   8:	460c      	mov	r4, r1
   a:	9301      	str	r3, [sp, #4]
   c:	e9cd 5302 	strd	r5, r3, [sp, #8]
  10:	237f      	movs	r3, #127	; 0x7f
  12:	9300      	str	r3, [sp, #0]
  14:	462b      	mov	r3, r5
  16:	e9d0 120b 	ldrd	r1, r2, [r0, #44]	; 0x2c
  1a:	a804      	add	r0, sp, #16
  1c:	f7ff fffe 	bl	0 <_ZN23Adafruit_BusIO_RegisterC1EP18Adafruit_I2CDeviceP18Adafruit_SPIDevice26_Adafruit_BusIO_SPIRegTypethhh>
  20:	462a      	mov	r2, r5
  22:	0121      	lsls	r1, r4, #4
  24:	a804      	add	r0, sp, #16
  26:	f001 0130 	and.w	r1, r1, #48	; 0x30
  2a:	f7ff fffe 	bl	0 <_ZN23Adafruit_BusIO_Register5writeEmh>
  2e:	b00b      	add	sp, #44	; 0x2c
  30:	bd30      	pop	{r4, r5, pc}
  32:	bf00      	nop

Disassembly of section .text._ZN15Adafruit_ICM20X14readAccelRangeEv:

00000000 <_ZN15Adafruit_ICM20X14readAccelRangeEv>:
   0:	b5f0      	push	{r4, r5, r6, r7, lr}
   2:	2400      	movs	r4, #0
   4:	b093      	sub	sp, #76	; 0x4c
   6:	2601      	movs	r6, #1
   8:	277f      	movs	r7, #127	; 0x7f
   a:	4605      	mov	r5, r0
   c:	4623      	mov	r3, r4
   e:	e9cd 4602 	strd	r4, r6, [sp, #8]
  12:	e9cd 7600 	strd	r7, r6, [sp]
  16:	e9d0 120b 	ldrd	r1, r2, [r0, #44]	; 0x2c
  1a:	a80c      	add	r0, sp, #48	; 0x30
  1c:	f7ff fffe 	bl	0 <_ZN23Adafruit_BusIO_RegisterC1EP18Adafruit_I2CDeviceP18Adafruit_SPIDevice26_Adafruit_BusIO_SPIRegTypethhh>
  20:	4622      	mov	r2, r4
  22:	2120      	movs	r1, #32
  24:	a80c      	add	r0, sp, #48	; 0x30
  26:	f7ff fffe 	bl	0 <_ZN23Adafruit_BusIO_Register5writeEmh>
  2a:	2314      	movs	r3, #20
  2c:	9601      	str	r6, [sp, #4]
  2e:	a806      	add	r0, sp, #24
  30:	9300      	str	r3, [sp, #0]
  32:	4623      	mov	r3, r4
  34:	e9cd 4602 	strd	r4, r6, [sp, #8]
  38:	e9d5 120b 	ldrd	r1, r2, [r5, #44]	; 0x2c
  3c:	f7ff fffe 	bl	0 <_ZN23Adafruit_BusIO_RegisterC1EP18Adafruit_I2CDeviceP18Adafruit_SPIDevice26_Adafruit_BusIO_SPIRegTypethhh>
  40:	a906      	add	r1, sp, #24
  42:	4633      	mov	r3, r6
  44:	2202      	movs	r2, #2
  46:	a804      	add	r0, sp, #16
  48:	f7ff fffe 	bl	0 <_ZN27Adafruit_BusIO_RegisterBitsC1EP23Adafruit_BusIO_Registerhh>
  4c:	a804      	add	r0, sp, #16
  4e:	f7ff fffe 	bl	0 <_ZN27Adafruit_BusIO_RegisterBits4readEv>
  52:	9603      	str	r6, [sp, #12]
  54:	9601      	str	r6, [sp, #4]
  56:	4623      	mov	r3, r4
  58:	4606      	mov	r6, r0
  5a:	9700      	str	r7, [sp, #0]
  5c:	9402      	str	r4, [sp, #8]
  5e:	a80c      	add	r0, sp, #48	; 0x30
  60:	e9d5 120b 	ldrd	r1, r2, [r5, #44]	; 0x2c
  64:	f7ff fffe 	bl	0 <_ZN23Adafruit_BusIO_RegisterC1EP18Adafruit_I2CDeviceP18Adafruit_SPIDevice26_Adafruit_BusIO_SPIRegTypethhh>
  68:	4622      	mov	r2, r4
  6a:	4621      	mov	r1, r4
  6c:	a80c      	add	r0, sp, #48	; 0x30
  6e:	f7ff fffe 	bl	0 <_ZN23Adafruit_BusIO_Register5writeEmh>
  72:	b2f0      	uxtb	r0, r6
  74:	b013      	add	sp, #76	; 0x4c
  76:	bdf0      	pop	{r4, r5, r6, r7, pc}

Disassembly of section .text._ZN15Adafruit_ICM20X15writeAccelRangeEh:

00000000 <_ZN15Adafruit_ICM20X15writeAccelRangeEh>:
   0:	e92d 41f0 	stmdb	sp!, {r4, r5, r6, r7, r8, lr}
   4:	2500      	movs	r5, #0
   6:	b092      	sub	sp, #72	; 0x48
   8:	2601      	movs	r6, #1
   a:	f04f 087f 	mov.w	r8, #127	; 0x7f
   e:	4604      	mov	r4, r0
  10:	460f      	mov	r7, r1
  12:	462b      	mov	r3, r5
  14:	9601      	str	r6, [sp, #4]
  16:	f8cd 8000 	str.w	r8, [sp]
  1a:	e9cd 5602 	strd	r5, r6, [sp, #8]
  1e:	e9d0 120b 	ldrd	r1, r2, [r0, #44]	; 0x2c
  22:	a80c      	add	r0, sp, #48	; 0x30
  24:	f7ff fffe 	bl	0 <_ZN23Adafruit_BusIO_RegisterC1EP18Adafruit_I2CDeviceP18Adafruit_SPIDevice26_Adafruit_BusIO_SPIRegTypethhh>
  28:	462a      	mov	r2, r5
  2a:	2120      	movs	r1, #32
  2c:	a80c      	add	r0, sp, #48	; 0x30
  2e:	f7ff fffe 	bl	0 <_ZN23Adafruit_BusIO_Register5writeEmh>
  32:	2314      	movs	r3, #20
  34:	9601      	str	r6, [sp, #4]
  36:	a806      	add	r0, sp, #24
  38:	9300      	str	r3, [sp, #0]
  3a:	462b      	mov	r3, r5
  3c:	e9cd 5602 	strd	r5, r6, [sp, #8]
  40:	e9d4 120b 	ldrd	r1, r2, [r4, #44]	; 0x2c
  44:	f7ff fffe 	bl	0 <_ZN23Adafruit_BusIO_RegisterC1EP18Adafruit_I2CDeviceP18Adafruit_SPIDevice26_Adafruit_BusIO_SPIRegTypethhh>
  48:	4633      	mov	r3, r6
  4a:	a906      	add	r1, sp, #24
  4c:	2202      	movs	r2, #2
  4e:	a804      	add	r0, sp, #16
  50:	f7ff fffe 	bl	0 <_ZN27Adafruit_BusIO_RegisterBitsC1EP23Adafruit_BusIO_Registerhh>
  54:	4639      	mov	r1, r7
  56:	a804      	add	r0, sp, #16
  58:	f7ff fffe 	bl	0 <_ZN27Adafruit_BusIO_RegisterBits5writeEm>
  5c:	f884 7060 	strb.w	r7, [r4, #96]	; 0x60
  60:	462b      	mov	r3, r5
  62:	9601      	str	r6, [sp, #4]
  64:	f8cd 8000 	str.w	r8, [sp]
  68:	a80c      	add	r0, sp, #48	; 0x30
  6a:	e9cd 5602 	strd	r5, r6, [sp, #8]
  6e:	e9d4 120b 	ldrd	r1, r2, [r4, #44]	; 0x2c
  72:	f7ff fffe 	bl	0 <_ZN23Adafruit_BusIO_RegisterC1EP18Adafruit_I2CDeviceP18Adafruit_SPIDevice26_Adafruit_BusIO_SPIRegTypethhh>
  76:	462a      	mov	r2, r5
  78:	4629      	mov	r1, r5
  7a:	a80c      	add	r0, sp, #48	; 0x30
  7c:	f7ff fffe 	bl	0 <_ZN23Adafruit_BusIO_Register5writeEmh>
  80:	b012      	add	sp, #72	; 0x48
  82:	e8bd 81f0 	ldmia.w	sp!, {r4, r5, r6, r7, r8, pc}
  86:	bf00      	nop

Disassembly of section .text._ZN15Adafruit_ICM20X13readGyroRangeEv:

00000000 <_ZN15Adafruit_ICM20X13readGyroRangeEv>:
   0:	b5f0      	push	{r4, r5, r6, r7, lr}
   2:	2400      	movs	r4, #0
   4:	b093      	sub	sp, #76	; 0x4c
   6:	2601      	movs	r6, #1
   8:	277f      	movs	r7, #127	; 0x7f
   a:	4605      	mov	r5, r0
   c:	4623      	mov	r3, r4
   e:	e9cd 4602 	strd	r4, r6, [sp, #8]
  12:	e9cd 7600 	strd	r7, r6, [sp]
  16:	e9d0 120b 	ldrd	r1, r2, [r0, #44]	; 0x2c
  1a:	a80c      	add	r0, sp, #48	; 0x30
  1c:	f7ff fffe 	bl	0 <_ZN23Adafruit_BusIO_RegisterC1EP18Adafruit_I2CDeviceP18Adafruit_SPIDevice26_Adafruit_BusIO_SPIRegTypethhh>
  20:	4622      	mov	r2, r4
  22:	2120      	movs	r1, #32
  24:	a80c      	add	r0, sp, #48	; 0x30
  26:	f7ff fffe 	bl	0 <_ZN23Adafruit_BusIO_Register5writeEmh>
  2a:	4623      	mov	r3, r4
  2c:	a806      	add	r0, sp, #24
  2e:	e9cd 4602 	strd	r4, r6, [sp, #8]
  32:	e9cd 6600 	strd	r6, r6, [sp]
  36:	e9d5 120b 	ldrd	r1, r2, [r5, #44]	; 0x2c
  3a:	f7ff fffe 	bl	0 <_ZN23Adafruit_BusIO_RegisterC1EP18Adafruit_I2CDeviceP18Adafruit_SPIDevice26_Adafruit_BusIO_SPIRegTypethhh>
  3e:	a906      	add	r1, sp, #24
  40:	4633      	mov	r3, r6
  42:	2202      	movs	r2, #2
  44:	a804      	add	r0, sp, #16
  46:	f7ff fffe 	bl	0 <_ZN27Adafruit_BusIO_RegisterBitsC1EP23Adafruit_BusIO_Registerhh>
  4a:	a804      	add	r0, sp, #16
  4c:	f7ff fffe 	bl	0 <_ZN27Adafruit_BusIO_RegisterBits4readEv>
  50:	9603      	str	r6, [sp, #12]
  52:	9601      	str	r6, [sp, #4]
  54:	4623      	mov	r3, r4
  56:	4606      	mov	r6, r0
  58:	9700      	str	r7, [sp, #0]
  5a:	9402      	str	r4, [sp, #8]
  5c:	a80c      	add	r0, sp, #48	; 0x30
  5e:	e9d5 120b 	ldrd	r1, r2, [r5, #44]	; 0x2c
  62:	f7ff fffe 	bl	0 <_ZN23Adafruit_BusIO_RegisterC1EP18Adafruit_I2CDeviceP18Adafruit_SPIDevice26_Adafruit_BusIO_SPIRegTypethhh>
  66:	4622      	mov	r2, r4
  68:	4621      	mov	r1, r4
  6a:	a80c      	add	r0, sp, #48	; 0x30
  6c:	f7ff fffe 	bl	0 <_ZN23Adafruit_BusIO_Register5writeEmh>
  70:	b2f0      	uxtb	r0, r6
  72:	b013      	add	sp, #76	; 0x4c
  74:	bdf0      	pop	{r4, r5, r6, r7, pc}
  76:	bf00      	nop

Disassembly of section .text._ZN15Adafruit_ICM20X14writeGyroRangeEh:

00000000 <_ZN15Adafruit_ICM20X14writeGyroRangeEh>:
   0:	e92d 41f0 	stmdb	sp!, {r4, r5, r6, r7, r8, lr}
   4:	2500      	movs	r5, #0
   6:	b092      	sub	sp, #72	; 0x48
   8:	2601      	movs	r6, #1
   a:	f04f 087f 	mov.w	r8, #127	; 0x7f
   e:	4604      	mov	r4, r0
  10:	460f      	mov	r7, r1
  12:	462b      	mov	r3, r5
  14:	9601      	str	r6, [sp, #4]
  16:	f8cd 8000 	str.w	r8, [sp]
  1a:	e9cd 5602 	strd	r5, r6, [sp, #8]
  1e:	e9d0 120b 	ldrd	r1, r2, [r0, #44]	; 0x2c
  22:	a80c      	add	r0, sp, #48	; 0x30
  24:	f7ff fffe 	bl	0 <_ZN23Adafruit_BusIO_RegisterC1EP18Adafruit_I2CDeviceP18Adafruit_SPIDevice26_Adafruit_BusIO_SPIRegTypethhh>
  28:	462a      	mov	r2, r5
  2a:	2120      	movs	r1, #32
  2c:	a80c      	add	r0, sp, #48	; 0x30
  2e:	f7ff fffe 	bl	0 <_ZN23Adafruit_BusIO_Register5writeEmh>
  32:	462b      	mov	r3, r5
  34:	a806      	add	r0, sp, #24
  36:	e9cd 5602 	strd	r5, r6, [sp, #8]
  3a:	e9cd 6600 	strd	r6, r6, [sp]
  3e:	e9d4 120b 	ldrd	r1, r2, [r4, #44]	; 0x2c
  42:	f7ff fffe 	bl	0 <_ZN23Adafruit_BusIO_RegisterC1EP18Adafruit_I2CDeviceP18Adafruit_SPIDevice26_Adafruit_BusIO_SPIRegTypethhh>
  46:	4633      	mov	r3, r6
  48:	a906      	add	r1, sp, #24
  4a:	2202      	movs	r2, #2
  4c:	a804      	add	r0, sp, #16
  4e:	f7ff fffe 	bl	0 <_ZN27Adafruit_BusIO_RegisterBitsC1EP23Adafruit_BusIO_Registerhh>
  52:	4639      	mov	r1, r7
  54:	a804      	add	r0, sp, #16
  56:	f7ff fffe 	bl	0 <_ZN27Adafruit_BusIO_RegisterBits5writeEm>
  5a:	f884 7061 	strb.w	r7, [r4, #97]	; 0x61
  5e:	462b      	mov	r3, r5
  60:	9601      	str	r6, [sp, #4]
  62:	f8cd 8000 	str.w	r8, [sp]
  66:	a80c      	add	r0, sp, #48	; 0x30
  68:	e9cd 5602 	strd	r5, r6, [sp, #8]
  6c:	e9d4 120b 	ldrd	r1, r2, [r4, #44]	; 0x2c
  70:	f7ff fffe 	bl	0 <_ZN23Adafruit_BusIO_RegisterC1EP18Adafruit_I2CDeviceP18Adafruit_SPIDevice26_Adafruit_BusIO_SPIRegTypethhh>
  74:	462a      	mov	r2, r5
  76:	4629      	mov	r1, r5
  78:	a80c      	add	r0, sp, #48	; 0x30
  7a:	f7ff fffe 	bl	0 <_ZN23Adafruit_BusIO_Register5writeEmh>
  7e:	b012      	add	sp, #72	; 0x48
  80:	e8bd 81f0 	ldmia.w	sp!, {r4, r5, r6, r7, r8, pc}

Disassembly of section .text._ZN15Adafruit_ICM20X19getAccelRateDivisorEv:

00000000 <_ZN15Adafruit_ICM20X19getAccelRateDivisorEv>:
   0:	b5f0      	push	{r4, r5, r6, r7, lr}
   2:	2500      	movs	r5, #0
   4:	b091      	sub	sp, #68	; 0x44
   6:	2601      	movs	r6, #1
   8:	277f      	movs	r7, #127	; 0x7f
   a:	4604      	mov	r4, r0
   c:	462b      	mov	r3, r5
   e:	e9cd 5602 	strd	r5, r6, [sp, #8]
  12:	e9cd 7600 	strd	r7, r6, [sp]
  16:	e9d0 120b 	ldrd	r1, r2, [r0, #44]	; 0x2c
  1a:	a80a      	add	r0, sp, #40	; 0x28
  1c:	f7ff fffe 	bl	0 <_ZN23Adafruit_BusIO_RegisterC1EP18Adafruit_I2CDeviceP18Adafruit_SPIDevice26_Adafruit_BusIO_SPIRegTypethhh>
  20:	462a      	mov	r2, r5
  22:	2120      	movs	r1, #32
  24:	a80a      	add	r0, sp, #40	; 0x28
  26:	f7ff fffe 	bl	0 <_ZN23Adafruit_BusIO_Register5writeEmh>
  2a:	2310      	movs	r3, #16
  2c:	2202      	movs	r2, #2
  2e:	a804      	add	r0, sp, #16
  30:	e9cd 6602 	strd	r6, r6, [sp, #8]
  34:	e9cd 3200 	strd	r3, r2, [sp]
  38:	462b      	mov	r3, r5
  3a:	e9d4 120b 	ldrd	r1, r2, [r4, #44]	; 0x2c
  3e:	f7ff fffe 	bl	0 <_ZN23Adafruit_BusIO_RegisterC1EP18Adafruit_I2CDeviceP18Adafruit_SPIDevice26_Adafruit_BusIO_SPIRegTypethhh>
  42:	a804      	add	r0, sp, #16
  44:	f7ff fffe 	bl	0 <_ZN23Adafruit_BusIO_Register4readEv>
  48:	9603      	str	r6, [sp, #12]
  4a:	9601      	str	r6, [sp, #4]
  4c:	462b      	mov	r3, r5
  4e:	4606      	mov	r6, r0
  50:	9700      	str	r7, [sp, #0]
  52:	9502      	str	r5, [sp, #8]
  54:	a80a      	add	r0, sp, #40	; 0x28
  56:	e9d4 120b 	ldrd	r1, r2, [r4, #44]	; 0x2c
  5a:	f7ff fffe 	bl	0 <_ZN23Adafruit_BusIO_RegisterC1EP18Adafruit_I2CDeviceP18Adafruit_SPIDevice26_Adafruit_BusIO_SPIRegTypethhh>
  5e:	462a      	mov	r2, r5
  60:	4629      	mov	r1, r5
  62:	a80a      	add	r0, sp, #40	; 0x28
  64:	f7ff fffe 	bl	0 <_ZN23Adafruit_BusIO_Register5writeEmh>
  68:	b2b0      	uxth	r0, r6
  6a:	b011      	add	sp, #68	; 0x44
  6c:	bdf0      	pop	{r4, r5, r6, r7, pc}
  6e:	bf00      	nop

Disassembly of section .text._ZN15Adafruit_ICM20X19setAccelRateDivisorEt:

00000000 <_ZN15Adafruit_ICM20X19setAccelRateDivisorEt>:
   0:	e92d 41f0 	stmdb	sp!, {r4, r5, r6, r7, r8, lr}
   4:	2400      	movs	r4, #0
   6:	b090      	sub	sp, #64	; 0x40
   8:	2601      	movs	r6, #1
   a:	f04f 087f 	mov.w	r8, #127	; 0x7f
   e:	4605      	mov	r5, r0
  10:	4623      	mov	r3, r4
  12:	460f      	mov	r7, r1
  14:	9601      	str	r6, [sp, #4]
  16:	f8cd 8000 	str.w	r8, [sp]
  1a:	e9cd 4602 	strd	r4, r6, [sp, #8]
  1e:	e9d0 120b 	ldrd	r1, r2, [r0, #44]	; 0x2c
  22:	a80a      	add	r0, sp, #40	; 0x28
  24:	f7ff fffe 	bl	0 <_ZN23Adafruit_BusIO_RegisterC1EP18Adafruit_I2CDeviceP18Adafruit_SPIDevice26_Adafruit_BusIO_SPIRegTypethhh>
  28:	4622      	mov	r2, r4
  2a:	2120      	movs	r1, #32
  2c:	a80a      	add	r0, sp, #40	; 0x28
  2e:	f7ff fffe 	bl	0 <_ZN23Adafruit_BusIO_Register5writeEmh>
  32:	2310      	movs	r3, #16
  34:	2202      	movs	r2, #2
  36:	a804      	add	r0, sp, #16
  38:	e9cd 3200 	strd	r3, r2, [sp]
  3c:	e9cd 6602 	strd	r6, r6, [sp, #8]
  40:	4623      	mov	r3, r4
  42:	e9d5 120b 	ldrd	r1, r2, [r5, #44]	; 0x2c
  46:	f7ff fffe 	bl	0 <_ZN23Adafruit_BusIO_RegisterC1EP18Adafruit_I2CDeviceP18Adafruit_SPIDevice26_Adafruit_BusIO_SPIRegTypethhh>
  4a:	4622      	mov	r2, r4
  4c:	4639      	mov	r1, r7
  4e:	a804      	add	r0, sp, #16
  50:	f7ff fffe 	bl	0 <_ZN23Adafruit_BusIO_Register5writeEmh>
  54:	4623      	mov	r3, r4
  56:	9601      	str	r6, [sp, #4]
  58:	a80a      	add	r0, sp, #40	; 0x28
  5a:	f8cd 8000 	str.w	r8, [sp]
  5e:	e9cd 4602 	strd	r4, r6, [sp, #8]
  62:	e9d5 120b 	ldrd	r1, r2, [r5, #44]	; 0x2c
  66:	f7ff fffe 	bl	0 <_ZN23Adafruit_BusIO_RegisterC1EP18Adafruit_I2CDeviceP18Adafruit_SPIDevice26_Adafruit_BusIO_SPIRegTypethhh>
  6a:	4622      	mov	r2, r4
  6c:	4621      	mov	r1, r4
  6e:	a80a      	add	r0, sp, #40	; 0x28
  70:	f7ff fffe 	bl	0 <_ZN23Adafruit_BusIO_Register5writeEmh>
  74:	b010      	add	sp, #64	; 0x40
  76:	e8bd 81f0 	ldmia.w	sp!, {r4, r5, r6, r7, r8, pc}
  7a:	bf00      	nop

Disassembly of section .text._ZN15Adafruit_ICM20X18getGyroRateDivisorEv:

00000000 <_ZN15Adafruit_ICM20X18getGyroRateDivisorEv>:
   0:	b5f0      	push	{r4, r5, r6, r7, lr}
   2:	2400      	movs	r4, #0
   4:	b091      	sub	sp, #68	; 0x44
   6:	2601      	movs	r6, #1
   8:	277f      	movs	r7, #127	; 0x7f
   a:	4605      	mov	r5, r0
   c:	4623      	mov	r3, r4
   e:	e9cd 4602 	strd	r4, r6, [sp, #8]
  12:	e9cd 7600 	strd	r7, r6, [sp]
  16:	e9d0 120b 	ldrd	r1, r2, [r0, #44]	; 0x2c
  1a:	a80a      	add	r0, sp, #40	; 0x28
  1c:	f7ff fffe 	bl	0 <_ZN23Adafruit_BusIO_RegisterC1EP18Adafruit_I2CDeviceP18Adafruit_SPIDevice26_Adafruit_BusIO_SPIRegTypethhh>
  20:	4622      	mov	r2, r4
  22:	2120      	movs	r1, #32
  24:	a80a      	add	r0, sp, #40	; 0x28
  26:	f7ff fffe 	bl	0 <_ZN23Adafruit_BusIO_Register5writeEmh>
  2a:	4623      	mov	r3, r4
  2c:	a804      	add	r0, sp, #16
  2e:	e9cd 4602 	strd	r4, r6, [sp, #8]
  32:	e9cd 4600 	strd	r4, r6, [sp]
  36:	e9d5 120b 	ldrd	r1, r2, [r5, #44]	; 0x2c
  3a:	f7ff fffe 	bl	0 <_ZN23Adafruit_BusIO_RegisterC1EP18Adafruit_I2CDeviceP18Adafruit_SPIDevice26_Adafruit_BusIO_SPIRegTypethhh>
  3e:	a804      	add	r0, sp, #16
  40:	f7ff fffe 	bl	0 <_ZN23Adafruit_BusIO_Register4readEv>
  44:	9603      	str	r6, [sp, #12]
  46:	9601      	str	r6, [sp, #4]
  48:	4623      	mov	r3, r4
  4a:	4606      	mov	r6, r0
  4c:	9700      	str	r7, [sp, #0]
  4e:	9402      	str	r4, [sp, #8]
  50:	a80a      	add	r0, sp, #40	; 0x28
  52:	e9d5 120b 	ldrd	r1, r2, [r5, #44]	; 0x2c
  56:	f7ff fffe 	bl	0 <_ZN23Adafruit_BusIO_RegisterC1EP18Adafruit_I2CDeviceP18Adafruit_SPIDevice26_Adafruit_BusIO_SPIRegTypethhh>
  5a:	4622      	mov	r2, r4
  5c:	4621      	mov	r1, r4
  5e:	a80a      	add	r0, sp, #40	; 0x28
  60:	f7ff fffe 	bl	0 <_ZN23Adafruit_BusIO_Register5writeEmh>
  64:	b2f0      	uxtb	r0, r6
  66:	b011      	add	sp, #68	; 0x44
  68:	bdf0      	pop	{r4, r5, r6, r7, pc}
  6a:	bf00      	nop

Disassembly of section .text._ZN15Adafruit_ICM20X18setGyroRateDivisorEh:

00000000 <_ZN15Adafruit_ICM20X18setGyroRateDivisorEh>:
   0:	e92d 41f0 	stmdb	sp!, {r4, r5, r6, r7, r8, lr}
   4:	2400      	movs	r4, #0
   6:	b090      	sub	sp, #64	; 0x40
   8:	2601      	movs	r6, #1
   a:	f04f 087f 	mov.w	r8, #127	; 0x7f
   e:	4605      	mov	r5, r0
  10:	4623      	mov	r3, r4
  12:	460f      	mov	r7, r1
  14:	9601      	str	r6, [sp, #4]
  16:	f8cd 8000 	str.w	r8, [sp]
  1a:	e9cd 4602 	strd	r4, r6, [sp, #8]
  1e:	e9d0 120b 	ldrd	r1, r2, [r0, #44]	; 0x2c
  22:	a80a      	add	r0, sp, #40	; 0x28
  24:	f7ff fffe 	bl	0 <_ZN23Adafruit_BusIO_RegisterC1EP18Adafruit_I2CDeviceP18Adafruit_SPIDevice26_Adafruit_BusIO_SPIRegTypethhh>
  28:	4622      	mov	r2, r4
  2a:	2120      	movs	r1, #32
  2c:	a80a      	add	r0, sp, #40	; 0x28
  2e:	f7ff fffe 	bl	0 <_ZN23Adafruit_BusIO_Register5writeEmh>
  32:	4623      	mov	r3, r4
  34:	a804      	add	r0, sp, #16
  36:	e9cd 4602 	strd	r4, r6, [sp, #8]
  3a:	e9cd 4600 	strd	r4, r6, [sp]
  3e:	e9d5 120b 	ldrd	r1, r2, [r5, #44]	; 0x2c
  42:	f7ff fffe 	bl	0 <_ZN23Adafruit_BusIO_RegisterC1EP18Adafruit_I2CDeviceP18Adafruit_SPIDevice26_Adafruit_BusIO_SPIRegTypethhh>
  46:	4622      	mov	r2, r4
  48:	4639      	mov	r1, r7
  4a:	a804      	add	r0, sp, #16
  4c:	f7ff fffe 	bl	0 <_ZN23Adafruit_BusIO_Register5writeEmh>
  50:	4623      	mov	r3, r4
  52:	9601      	str	r6, [sp, #4]
  54:	a80a      	add	r0, sp, #40	; 0x28
  56:	f8cd 8000 	str.w	r8, [sp]
  5a:	e9cd 4602 	strd	r4, r6, [sp, #8]
  5e:	e9d5 120b 	ldrd	r1, r2, [r5, #44]	; 0x2c
  62:	f7ff fffe 	bl	0 <_ZN23Adafruit_BusIO_RegisterC1EP18Adafruit_I2CDeviceP18Adafruit_SPIDevice26_Adafruit_BusIO_SPIRegTypethhh>
  66:	4622      	mov	r2, r4
  68:	4621      	mov	r1, r4
  6a:	a80a      	add	r0, sp, #40	; 0x28
  6c:	f7ff fffe 	bl	0 <_ZN23Adafruit_BusIO_Register5writeEmh>
  70:	b010      	add	sp, #64	; 0x40
  72:	e8bd 81f0 	ldmia.w	sp!, {r4, r5, r6, r7, r8, pc}
  76:	bf00      	nop

Disassembly of section .text._ZN15Adafruit_ICM20X5_initEl:

00000000 <_ZN15Adafruit_ICM20X5_initEl>:
   0:	b5f0      	push	{r4, r5, r6, r7, lr}
   2:	2500      	movs	r5, #0
   4:	b093      	sub	sp, #76	; 0x4c
   6:	2701      	movs	r7, #1
   8:	4604      	mov	r4, r0
   a:	462b      	mov	r3, r5
   c:	460e      	mov	r6, r1
   e:	e9cd 5702 	strd	r5, r7, [sp, #8]
  12:	e9cd 5700 	strd	r5, r7, [sp]
  16:	e9d0 120b 	ldrd	r1, r2, [r0, #44]	; 0x2c
  1a:	a806      	add	r0, sp, #24
  1c:	f7ff fffe 	bl	0 <_ZN23Adafruit_BusIO_RegisterC1EP18Adafruit_I2CDeviceP18Adafruit_SPIDevice26_Adafruit_BusIO_SPIRegTypethhh>
  20:	237f      	movs	r3, #127	; 0x7f
  22:	9703      	str	r7, [sp, #12]
  24:	a80c      	add	r0, sp, #48	; 0x30
  26:	9300      	str	r3, [sp, #0]
  28:	462b      	mov	r3, r5
  2a:	9701      	str	r7, [sp, #4]
  2c:	9502      	str	r5, [sp, #8]
  2e:	e9d4 120b 	ldrd	r1, r2, [r4, #44]	; 0x2c
  32:	f7ff fffe 	bl	0 <_ZN23Adafruit_BusIO_RegisterC1EP18Adafruit_I2CDeviceP18Adafruit_SPIDevice26_Adafruit_BusIO_SPIRegTypethhh>
  36:	462a      	mov	r2, r5
  38:	4629      	mov	r1, r5
  3a:	a80c      	add	r0, sp, #48	; 0x30
  3c:	f7ff fffe 	bl	0 <_ZN23Adafruit_BusIO_Register5writeEmh>
  40:	a806      	add	r0, sp, #24
  42:	f7ff fffe 	bl	0 <_ZN23Adafruit_BusIO_Register4readEv>
  46:	b2c0      	uxtb	r0, r0
  48:	28e1      	cmp	r0, #225	; 0xe1
  4a:	d004      	beq.n	56 <_ZN15Adafruit_ICM20X5_initEl+0x56>
  4c:	28ea      	cmp	r0, #234	; 0xea
  4e:	d002      	beq.n	56 <_ZN15Adafruit_ICM20X5_initEl+0x56>
  50:	4628      	mov	r0, r5
  52:	b013      	add	sp, #76	; 0x4c
  54:	bdf0      	pop	{r4, r5, r6, r7, pc}
  56:	2501      	movs	r5, #1
  58:	b2b1      	uxth	r1, r6
  5a:	2706      	movs	r7, #6
  5c:	2600      	movs	r6, #0
  5e:	194b      	adds	r3, r1, r5
  60:	f8a4 1044 	strh.w	r1, [r4, #68]	; 0x44
  64:	4620      	mov	r0, r4
  66:	f8a4 3046 	strh.w	r3, [r4, #70]	; 0x46
  6a:	1c8b      	adds	r3, r1, #2
  6c:	3103      	adds	r1, #3
  6e:	f8a4 3048 	strh.w	r3, [r4, #72]	; 0x48
  72:	f8a4 104a 	strh.w	r1, [r4, #74]	; 0x4a
  76:	f7ff fffe 	bl	0 <_ZN15Adafruit_ICM20X5_initEl>
  7a:	4633      	mov	r3, r6
  7c:	a80c      	add	r0, sp, #48	; 0x30
  7e:	e9cd 6502 	strd	r6, r5, [sp, #8]
  82:	e9cd 7500 	strd	r7, r5, [sp]
  86:	e9d4 120b 	ldrd	r1, r2, [r4, #44]	; 0x2c
  8a:	f7ff fffe 	bl	0 <_ZN23Adafruit_BusIO_RegisterC1EP18Adafruit_I2CDeviceP18Adafruit_SPIDevice26_Adafruit_BusIO_SPIRegTypethhh>
  8e:	463b      	mov	r3, r7
  90:	462a      	mov	r2, r5
  92:	a90c      	add	r1, sp, #48	; 0x30
  94:	a804      	add	r0, sp, #16
  96:	f7ff fffe 	bl	0 <_ZN27Adafruit_BusIO_RegisterBitsC1EP23Adafruit_BusIO_Registerhh>
  9a:	4631      	mov	r1, r6
  9c:	a804      	add	r0, sp, #16
  9e:	f7ff fffe 	bl	0 <_ZN27Adafruit_BusIO_RegisterBits5writeEm>
  a2:	4620      	mov	r0, r4
  a4:	2103      	movs	r1, #3
  a6:	f7ff fffe 	bl	0 <_ZN15Adafruit_ICM20X5_initEl>
  aa:	4620      	mov	r0, r4
  ac:	2103      	movs	r1, #3
  ae:	f7ff fffe 	bl	0 <_ZN15Adafruit_ICM20X5_initEl>
  b2:	4620      	mov	r0, r4
  b4:	210a      	movs	r1, #10
  b6:	f7ff fffe 	bl	0 <_ZN15Adafruit_ICM20X5_initEl>
  ba:	2114      	movs	r1, #20
  bc:	4620      	mov	r0, r4
  be:	f7ff fffe 	bl	0 <_ZN15Adafruit_ICM20X5_initEl>
  c2:	2010      	movs	r0, #16
  c4:	f7ff fffe 	bl	0 <_Znwj>
  c8:	4917      	ldr	r1, [pc, #92]	; (128 <_ZN15Adafruit_ICM20X5_initEl+0x128>)
  ca:	4603      	mov	r3, r0
  cc:	f240 220d 	movw	r2, #525	; 0x20d
  d0:	6001      	str	r1, [r0, #0]
  d2:	6082      	str	r2, [r0, #8]
  d4:	6420      	str	r0, [r4, #64]	; 0x40
  d6:	2010      	movs	r0, #16
  d8:	60dc      	str	r4, [r3, #12]
  da:	f7ff fffe 	bl	0 <_Znwj>
  de:	4913      	ldr	r1, [pc, #76]	; (12c <_ZN15Adafruit_ICM20X5_initEl+0x12c>)
  e0:	4603      	mov	r3, r0
  e2:	f240 220a 	movw	r2, #522	; 0x20a
  e6:	6001      	str	r1, [r0, #0]
  e8:	6082      	str	r2, [r0, #8]
  ea:	6360      	str	r0, [r4, #52]	; 0x34
  ec:	2010      	movs	r0, #16
  ee:	60dc      	str	r4, [r3, #12]
  f0:	f7ff fffe 	bl	0 <_Znwj>
  f4:	490e      	ldr	r1, [pc, #56]	; (130 <_ZN15Adafruit_ICM20X5_initEl+0x130>)
  f6:	4603      	mov	r3, r0
  f8:	f240 220b 	movw	r2, #523	; 0x20b
  fc:	6001      	str	r1, [r0, #0]
  fe:	6082      	str	r2, [r0, #8]
 100:	63a0      	str	r0, [r4, #56]	; 0x38
 102:	2010      	movs	r0, #16
 104:	60dc      	str	r4, [r3, #12]
 106:	f7ff fffe 	bl	0 <_Znwj>
 10a:	490a      	ldr	r1, [pc, #40]	; (134 <_ZN15Adafruit_ICM20X5_initEl+0x134>)
 10c:	4603      	mov	r3, r0
 10e:	f44f 7203 	mov.w	r2, #524	; 0x20c
 112:	6001      	str	r1, [r0, #0]
 114:	6082      	str	r2, [r0, #8]
 116:	63e0      	str	r0, [r4, #60]	; 0x3c
 118:	2014      	movs	r0, #20
 11a:	60dc      	str	r4, [r3, #12]
 11c:	f7ff fffe 	bl	0 <delay>
 120:	4628      	mov	r0, r5
 122:	b013      	add	sp, #76	; 0x4c
 124:	bdf0      	pop	{r4, r5, r6, r7, pc}
 126:	bf00      	nop
 128:	00000008 	.word	0x00000008
 12c:	00000008 	.word	0x00000008
 130:	00000008 	.word	0x00000008
 134:	00000008 	.word	0x00000008

Disassembly of section .text._ZN15Adafruit_ICM20X9begin_SPIEhP8SPIClassl:

00000000 <_ZN15Adafruit_ICM20X9begin_SPIEhP8SPIClassl>:
   0:	e92d 41f0 	stmdb	sp!, {r4, r5, r6, r7, r8, lr}
   4:	4604      	mov	r4, r0
   6:	2000      	movs	r0, #0
   8:	b082      	sub	sp, #8
   a:	460d      	mov	r5, r1
   c:	f8d4 8030 	ldr.w	r8, [r4, #48]	; 0x30
  10:	4616      	mov	r6, r2
  12:	461f      	mov	r7, r3
  14:	62e0      	str	r0, [r4, #44]	; 0x2c
  16:	f1b8 0f00 	cmp.w	r8, #0
  1a:	d006      	beq.n	2a <_ZN15Adafruit_ICM20X9begin_SPIEhP8SPIClassl+0x2a>
  1c:	4640      	mov	r0, r8
  1e:	f7ff fffe 	bl	0 <_ZN18Adafruit_SPIDeviceD1Ev>
  22:	4640      	mov	r0, r8
  24:	2114      	movs	r1, #20
  26:	f7ff fffe 	bl	0 <_ZdlPvj>
  2a:	2014      	movs	r0, #20
  2c:	f7ff fffe 	bl	0 <_Znwj>
  30:	2300      	movs	r3, #0
  32:	b269      	sxtb	r1, r5
  34:	4605      	mov	r5, r0
  36:	9300      	str	r3, [sp, #0]
  38:	2301      	movs	r3, #1
  3a:	4a09      	ldr	r2, [pc, #36]	; (60 <_ZN15Adafruit_ICM20X9begin_SPIEhP8SPIClassl+0x60>)
  3c:	9601      	str	r6, [sp, #4]
  3e:	f7ff fffe 	bl	0 <_ZN18Adafruit_SPIDeviceC1Eam9_BitOrderhP8SPIClass>
  42:	4628      	mov	r0, r5
  44:	6325      	str	r5, [r4, #48]	; 0x30
  46:	f7ff fffe 	bl	0 <_ZN18Adafruit_SPIDevice5beginEv>
  4a:	b910      	cbnz	r0, 52 <_ZN15Adafruit_ICM20X9begin_SPIEhP8SPIClassl+0x52>
  4c:	b002      	add	sp, #8
  4e:	e8bd 81f0 	ldmia.w	sp!, {r4, r5, r6, r7, r8, pc}
  52:	4639      	mov	r1, r7
  54:	4620      	mov	r0, r4
  56:	b002      	add	sp, #8
  58:	e8bd 41f0 	ldmia.w	sp!, {r4, r5, r6, r7, r8, lr}
  5c:	f7ff bffe 	b.w	0 <_ZN15Adafruit_ICM20X9begin_SPIEhP8SPIClassl>
  60:	000f4240 	.word	0x000f4240

Disassembly of section .text._ZN15Adafruit_ICM20X9begin_SPIEaaaal:

00000000 <_ZN15Adafruit_ICM20X9begin_SPIEaaaal>:
   0:	e92d 41f0 	stmdb	sp!, {r4, r5, r6, r7, r8, lr}
   4:	460e      	mov	r6, r1
   6:	b086      	sub	sp, #24
   8:	2100      	movs	r1, #0
   a:	6b05      	ldr	r5, [r0, #48]	; 0x30
   c:	4604      	mov	r4, r0
   e:	f99d 8030 	ldrsb.w	r8, [sp, #48]	; 0x30
  12:	9f0d      	ldr	r7, [sp, #52]	; 0x34
  14:	62c1      	str	r1, [r0, #44]	; 0x2c
  16:	b155      	cbz	r5, 2e <_ZN15Adafruit_ICM20X9begin_SPIEaaaal+0x2e>
  18:	4628      	mov	r0, r5
  1a:	e9cd 2304 	strd	r2, r3, [sp, #16]
  1e:	f7ff fffe 	bl	0 <_ZN18Adafruit_SPIDeviceD1Ev>
  22:	4628      	mov	r0, r5
  24:	2114      	movs	r1, #20
  26:	f7ff fffe 	bl	0 <_ZdlPvj>
  2a:	e9dd 2304 	ldrd	r2, r3, [sp, #16]
  2e:	2014      	movs	r0, #20
  30:	e9cd 2304 	strd	r2, r3, [sp, #16]
  34:	f7ff fffe 	bl	0 <_Znwj>
  38:	4631      	mov	r1, r6
  3a:	f04f 0c00 	mov.w	ip, #0
  3e:	2601      	movs	r6, #1
  40:	4605      	mov	r5, r0
  42:	9b05      	ldr	r3, [sp, #20]
  44:	9a04      	ldr	r2, [sp, #16]
  46:	f8cd 8000 	str.w	r8, [sp]
  4a:	e9cd 6c02 	strd	r6, ip, [sp, #8]
  4e:	4e09      	ldr	r6, [pc, #36]	; (74 <_ZN15Adafruit_ICM20X9begin_SPIEaaaal+0x74>)
  50:	9601      	str	r6, [sp, #4]
  52:	f7ff fffe 	bl	0 <_ZN18Adafruit_SPIDeviceC1Eaaaam9_BitOrderh>
  56:	4628      	mov	r0, r5
  58:	6325      	str	r5, [r4, #48]	; 0x30
  5a:	f7ff fffe 	bl	0 <_ZN18Adafruit_SPIDevice5beginEv>
  5e:	b910      	cbnz	r0, 66 <_ZN15Adafruit_ICM20X9begin_SPIEaaaal+0x66>
  60:	b006      	add	sp, #24
  62:	e8bd 81f0 	ldmia.w	sp!, {r4, r5, r6, r7, r8, pc}
  66:	4639      	mov	r1, r7
  68:	4620      	mov	r0, r4
  6a:	b006      	add	sp, #24
  6c:	e8bd 41f0 	ldmia.w	sp!, {r4, r5, r6, r7, r8, lr}
  70:	f7ff bffe 	b.w	0 <_ZN15Adafruit_ICM20X9begin_SPIEaaaal>
  74:	000f4240 	.word	0x000f4240

Disassembly of section .text._ZN15Adafruit_ICM20X15enableAccelDLPFEb21icm20x_accel_cutoff_t:

00000000 <_ZN15Adafruit_ICM20X15enableAccelDLPFEb21icm20x_accel_cutoff_t>:
   0:	b5f0      	push	{r4, r5, r6, r7, lr}
   2:	2300      	movs	r3, #0
   4:	b08f      	sub	sp, #60	; 0x3c
   6:	2501      	movs	r5, #1
   8:	4617      	mov	r7, r2
   a:	227f      	movs	r2, #127	; 0x7f
   c:	4604      	mov	r4, r0
   e:	460e      	mov	r6, r1
  10:	9501      	str	r5, [sp, #4]
  12:	9200      	str	r2, [sp, #0]
  14:	e9cd 3502 	strd	r3, r5, [sp, #8]
  18:	e9d0 120b 	ldrd	r1, r2, [r0, #44]	; 0x2c
  1c:	a808      	add	r0, sp, #32
  1e:	f7ff fffe 	bl	0 <_ZN23Adafruit_BusIO_RegisterC1EP18Adafruit_I2CDeviceP18Adafruit_SPIDevice26_Adafruit_BusIO_SPIRegTypethhh>
  22:	2300      	movs	r3, #0
  24:	2120      	movs	r1, #32
  26:	461a      	mov	r2, r3
  28:	eb0d 0001 	add.w	r0, sp, r1
  2c:	f7ff fffe 	bl	0 <_ZN23Adafruit_BusIO_Register5writeEmh>
  30:	2300      	movs	r3, #0
  32:	2214      	movs	r2, #20
  34:	9503      	str	r5, [sp, #12]
  36:	a808      	add	r0, sp, #32
  38:	9200      	str	r2, [sp, #0]
  3a:	e9cd 5301 	strd	r5, r3, [sp, #4]
  3e:	e9d4 120b 	ldrd	r1, r2, [r4, #44]	; 0x2c
  42:	f7ff fffe 	bl	0 <_ZN23Adafruit_BusIO_RegisterC1EP18Adafruit_I2CDeviceP18Adafruit_SPIDevice26_Adafruit_BusIO_SPIRegTypethhh>
  46:	a908      	add	r1, sp, #32
  48:	2300      	movs	r3, #0
  4a:	462a      	mov	r2, r5
  4c:	a804      	add	r0, sp, #16
  4e:	f7ff fffe 	bl	0 <_ZN27Adafruit_BusIO_RegisterBitsC1EP23Adafruit_BusIO_Registerhh>
  52:	4631      	mov	r1, r6
  54:	a804      	add	r0, sp, #16
  56:	f7ff fffe 	bl	0 <_ZN27Adafruit_BusIO_RegisterBits5writeEm>
  5a:	b100      	cbz	r0, 5e <_ZN15Adafruit_ICM20X15enableAccelDLPFEb21icm20x_accel_cutoff_t+0x5e>
  5c:	b90e      	cbnz	r6, 62 <_ZN15Adafruit_ICM20X15enableAccelDLPFEb21icm20x_accel_cutoff_t+0x62>
  5e:	b00f      	add	sp, #60	; 0x3c
  60:	bdf0      	pop	{r4, r5, r6, r7, pc}
  62:	2303      	movs	r3, #3
  64:	a908      	add	r1, sp, #32
  66:	a806      	add	r0, sp, #24
  68:	461a      	mov	r2, r3
  6a:	f7ff fffe 	bl	0 <_ZN27Adafruit_BusIO_RegisterBitsC1EP23Adafruit_BusIO_Registerhh>
  6e:	4639      	mov	r1, r7
  70:	a806      	add	r0, sp, #24
  72:	f7ff fffe 	bl	0 <_ZN27Adafruit_BusIO_RegisterBits5writeEm>
  76:	b00f      	add	sp, #60	; 0x3c
  78:	bdf0      	pop	{r4, r5, r6, r7, pc}
  7a:	bf00      	nop

Disassembly of section .text._ZN15Adafruit_ICM20X15enableGyrolDLPFEb20icm20x_gyro_cutoff_t:

00000000 <_ZN15Adafruit_ICM20X15enableGyrolDLPFEb20icm20x_gyro_cutoff_t>:
   0:	f7ff bffe 	b.w	0 <_ZN15Adafruit_ICM20X15enableGyrolDLPFEb20icm20x_gyro_cutoff_t>

Disassembly of section .text._ZN15Adafruit_ICM20X16setInt1ActiveLowEb:

00000000 <_ZN15Adafruit_ICM20X16setInt1ActiveLowEb>:
   0:	b570      	push	{r4, r5, r6, lr}
   2:	2300      	movs	r3, #0
   4:	b08e      	sub	sp, #56	; 0x38
   6:	2401      	movs	r4, #1
   8:	227f      	movs	r2, #127	; 0x7f
   a:	4605      	mov	r5, r0
   c:	460e      	mov	r6, r1
   e:	9401      	str	r4, [sp, #4]
  10:	9200      	str	r2, [sp, #0]
  12:	e9cd 3402 	strd	r3, r4, [sp, #8]
  16:	e9d0 120b 	ldrd	r1, r2, [r0, #44]	; 0x2c
  1a:	a808      	add	r0, sp, #32
  1c:	f7ff fffe 	bl	0 <_ZN23Adafruit_BusIO_RegisterC1EP18Adafruit_I2CDeviceP18Adafruit_SPIDevice26_Adafruit_BusIO_SPIRegTypethhh>
  20:	2300      	movs	r3, #0
  22:	a808      	add	r0, sp, #32
  24:	461a      	mov	r2, r3
  26:	4619      	mov	r1, r3
  28:	f7ff fffe 	bl	0 <_ZN23Adafruit_BusIO_Register5writeEmh>
  2c:	2300      	movs	r3, #0
  2e:	220f      	movs	r2, #15
  30:	9403      	str	r4, [sp, #12]
  32:	a808      	add	r0, sp, #32
  34:	9200      	str	r2, [sp, #0]
  36:	e9cd 4301 	strd	r4, r3, [sp, #4]
  3a:	e9d5 120b 	ldrd	r1, r2, [r5, #44]	; 0x2c
  3e:	f7ff fffe 	bl	0 <_ZN23Adafruit_BusIO_RegisterC1EP18Adafruit_I2CDeviceP18Adafruit_SPIDevice26_Adafruit_BusIO_SPIRegTypethhh>
  42:	4622      	mov	r2, r4
  44:	a908      	add	r1, sp, #32
  46:	2307      	movs	r3, #7
  48:	a804      	add	r0, sp, #16
  4a:	f7ff fffe 	bl	0 <_ZN27Adafruit_BusIO_RegisterBitsC1EP23Adafruit_BusIO_Registerhh>
  4e:	2306      	movs	r3, #6
  50:	4622      	mov	r2, r4
  52:	a908      	add	r1, sp, #32
  54:	a806      	add	r0, sp, #24
  56:	f7ff fffe 	bl	0 <_ZN27Adafruit_BusIO_RegisterBitsC1EP23Adafruit_BusIO_Registerhh>
  5a:	4621      	mov	r1, r4
  5c:	a806      	add	r0, sp, #24
  5e:	f7ff fffe 	bl	0 <_ZN27Adafruit_BusIO_RegisterBits5writeEm>
  62:	4631      	mov	r1, r6
  64:	a804      	add	r0, sp, #16
  66:	f7ff fffe 	bl	0 <_ZN27Adafruit_BusIO_RegisterBits5writeEm>
  6a:	b00e      	add	sp, #56	; 0x38
  6c:	bd70      	pop	{r4, r5, r6, pc}
  6e:	bf00      	nop

Disassembly of section .text._ZN15Adafruit_ICM20X16setInt2ActiveLowEb:

00000000 <_ZN15Adafruit_ICM20X16setInt2ActiveLowEb>:
   0:	b570      	push	{r4, r5, r6, lr}
   2:	2300      	movs	r3, #0
   4:	b08e      	sub	sp, #56	; 0x38
   6:	2401      	movs	r4, #1
   8:	227f      	movs	r2, #127	; 0x7f
   a:	4605      	mov	r5, r0
   c:	460e      	mov	r6, r1
   e:	9401      	str	r4, [sp, #4]
  10:	9200      	str	r2, [sp, #0]
  12:	e9cd 3402 	strd	r3, r4, [sp, #8]
  16:	e9d0 120b 	ldrd	r1, r2, [r0, #44]	; 0x2c
  1a:	a808      	add	r0, sp, #32
  1c:	f7ff fffe 	bl	0 <_ZN23Adafruit_BusIO_RegisterC1EP18Adafruit_I2CDeviceP18Adafruit_SPIDevice26_Adafruit_BusIO_SPIRegTypethhh>
  20:	2300      	movs	r3, #0
  22:	a808      	add	r0, sp, #32
  24:	461a      	mov	r2, r3
  26:	4619      	mov	r1, r3
  28:	f7ff fffe 	bl	0 <_ZN23Adafruit_BusIO_Register5writeEmh>
  2c:	2300      	movs	r3, #0
  2e:	2211      	movs	r2, #17
  30:	9403      	str	r4, [sp, #12]
  32:	a808      	add	r0, sp, #32
  34:	9200      	str	r2, [sp, #0]
  36:	e9cd 4301 	strd	r4, r3, [sp, #4]
  3a:	e9d5 120b 	ldrd	r1, r2, [r5, #44]	; 0x2c
  3e:	f7ff fffe 	bl	0 <_ZN23Adafruit_BusIO_RegisterC1EP18Adafruit_I2CDeviceP18Adafruit_SPIDevice26_Adafruit_BusIO_SPIRegTypethhh>
  42:	4622      	mov	r2, r4
  44:	a908      	add	r1, sp, #32
  46:	2307      	movs	r3, #7
  48:	a804      	add	r0, sp, #16
  4a:	f7ff fffe 	bl	0 <_ZN27Adafruit_BusIO_RegisterBitsC1EP23Adafruit_BusIO_Registerhh>
  4e:	2306      	movs	r3, #6
  50:	4622      	mov	r2, r4
  52:	a908      	add	r1, sp, #32
  54:	a806      	add	r0, sp, #24
  56:	f7ff fffe 	bl	0 <_ZN27Adafruit_BusIO_RegisterBitsC1EP23Adafruit_BusIO_Registerhh>
  5a:	4621      	mov	r1, r4
  5c:	a806      	add	r0, sp, #24
  5e:	f7ff fffe 	bl	0 <_ZN27Adafruit_BusIO_RegisterBits5writeEm>
  62:	4631      	mov	r1, r6
  64:	a804      	add	r0, sp, #16
  66:	f7ff fffe 	bl	0 <_ZN27Adafruit_BusIO_RegisterBits5writeEm>
  6a:	b00e      	add	sp, #56	; 0x38
  6c:	bd70      	pop	{r4, r5, r6, pc}
  6e:	bf00      	nop

Disassembly of section .text._ZN15Adafruit_ICM20X12setI2CBypassEb:

00000000 <_ZN15Adafruit_ICM20X12setI2CBypassEb>:
   0:	b570      	push	{r4, r5, r6, lr}
   2:	2300      	movs	r3, #0
   4:	b08c      	sub	sp, #48	; 0x30
   6:	2501      	movs	r5, #1
   8:	227f      	movs	r2, #127	; 0x7f
   a:	4604      	mov	r4, r0
   c:	460e      	mov	r6, r1
   e:	9501      	str	r5, [sp, #4]
  10:	9200      	str	r2, [sp, #0]
  12:	e9cd 3502 	strd	r3, r5, [sp, #8]
  16:	e9d0 120b 	ldrd	r1, r2, [r0, #44]	; 0x2c
  1a:	a806      	add	r0, sp, #24
  1c:	f7ff fffe 	bl	0 <_ZN23Adafruit_BusIO_RegisterC1EP18Adafruit_I2CDeviceP18Adafruit_SPIDevice26_Adafruit_BusIO_SPIRegTypethhh>
  20:	2300      	movs	r3, #0
  22:	a806      	add	r0, sp, #24
  24:	461a      	mov	r2, r3
  26:	4619      	mov	r1, r3
  28:	f7ff fffe 	bl	0 <_ZN23Adafruit_BusIO_Register5writeEmh>
  2c:	2300      	movs	r3, #0
  2e:	220f      	movs	r2, #15
  30:	9503      	str	r5, [sp, #12]
  32:	a806      	add	r0, sp, #24
  34:	9200      	str	r2, [sp, #0]
  36:	e9cd 5301 	strd	r5, r3, [sp, #4]
  3a:	e9d4 120b 	ldrd	r1, r2, [r4, #44]	; 0x2c
  3e:	f7ff fffe 	bl	0 <_ZN23Adafruit_BusIO_RegisterC1EP18Adafruit_I2CDeviceP18Adafruit_SPIDevice26_Adafruit_BusIO_SPIRegTypethhh>
  42:	462b      	mov	r3, r5
  44:	462a      	mov	r2, r5
  46:	a906      	add	r1, sp, #24
  48:	a804      	add	r0, sp, #16
  4a:	f7ff fffe 	bl	0 <_ZN27Adafruit_BusIO_RegisterBitsC1EP23Adafruit_BusIO_Registerhh>
  4e:	4631      	mov	r1, r6
  50:	a804      	add	r0, sp, #16
  52:	f7ff fffe 	bl	0 <_ZN27Adafruit_BusIO_RegisterBits5writeEm>
  56:	b00c      	add	sp, #48	; 0x30
  58:	bd70      	pop	{r4, r5, r6, pc}
  5a:	bf00      	nop

Disassembly of section .text._ZN15Adafruit_ICM20X15enableI2CMasterEb:

00000000 <_ZN15Adafruit_ICM20X15enableI2CMasterEb>:
   0:	b570      	push	{r4, r5, r6, lr}
   2:	2300      	movs	r3, #0
   4:	b08c      	sub	sp, #48	; 0x30
   6:	2501      	movs	r5, #1
   8:	227f      	movs	r2, #127	; 0x7f
   a:	4604      	mov	r4, r0
   c:	460e      	mov	r6, r1
   e:	9501      	str	r5, [sp, #4]
  10:	9200      	str	r2, [sp, #0]
  12:	e9cd 3502 	strd	r3, r5, [sp, #8]
  16:	e9d0 120b 	ldrd	r1, r2, [r0, #44]	; 0x2c
  1a:	a806      	add	r0, sp, #24
  1c:	f7ff fffe 	bl	0 <_ZN23Adafruit_BusIO_RegisterC1EP18Adafruit_I2CDeviceP18Adafruit_SPIDevice26_Adafruit_BusIO_SPIRegTypethhh>
  20:	2300      	movs	r3, #0
  22:	a806      	add	r0, sp, #24
  24:	461a      	mov	r2, r3
  26:	4619      	mov	r1, r3
  28:	f7ff fffe 	bl	0 <_ZN23Adafruit_BusIO_Register5writeEmh>
  2c:	2300      	movs	r3, #0
  2e:	2203      	movs	r2, #3
  30:	9503      	str	r5, [sp, #12]
  32:	a806      	add	r0, sp, #24
  34:	9200      	str	r2, [sp, #0]
  36:	e9cd 5301 	strd	r5, r3, [sp, #4]
  3a:	e9d4 120b 	ldrd	r1, r2, [r4, #44]	; 0x2c
  3e:	f7ff fffe 	bl	0 <_ZN23Adafruit_BusIO_RegisterC1EP18Adafruit_I2CDeviceP18Adafruit_SPIDevice26_Adafruit_BusIO_SPIRegTypethhh>
  42:	2305      	movs	r3, #5
  44:	462a      	mov	r2, r5
  46:	a906      	add	r1, sp, #24
  48:	a804      	add	r0, sp, #16
  4a:	f7ff fffe 	bl	0 <_ZN27Adafruit_BusIO_RegisterBitsC1EP23Adafruit_BusIO_Registerhh>
  4e:	4631      	mov	r1, r6
  50:	a804      	add	r0, sp, #16
  52:	f7ff fffe 	bl	0 <_ZN27Adafruit_BusIO_RegisterBits5writeEm>
  56:	b00c      	add	sp, #48	; 0x30
  58:	bd70      	pop	{r4, r5, r6, pc}
  5a:	bf00      	nop

Disassembly of section .text._ZN15Adafruit_ICM20X18configureI2CMasterEv:

00000000 <_ZN15Adafruit_ICM20X18configureI2CMasterEv>:
   0:	b570      	push	{r4, r5, r6, lr}
   2:	237f      	movs	r3, #127	; 0x7f
   4:	b08a      	sub	sp, #40	; 0x28
   6:	2400      	movs	r4, #0
   8:	2601      	movs	r6, #1
   a:	4605      	mov	r5, r0
   c:	e9cd 3600 	strd	r3, r6, [sp]
  10:	e9cd 4602 	strd	r4, r6, [sp, #8]
  14:	4623      	mov	r3, r4
  16:	e9d0 120b 	ldrd	r1, r2, [r0, #44]	; 0x2c
  1a:	a804      	add	r0, sp, #16
  1c:	f7ff fffe 	bl	0 <_ZN23Adafruit_BusIO_RegisterC1EP18Adafruit_I2CDeviceP18Adafruit_SPIDevice26_Adafruit_BusIO_SPIRegTypethhh>
  20:	4622      	mov	r2, r4
  22:	2130      	movs	r1, #48	; 0x30
  24:	a804      	add	r0, sp, #16
  26:	f7ff fffe 	bl	0 <_ZN23Adafruit_BusIO_Register5writeEmh>
  2a:	4623      	mov	r3, r4
  2c:	a804      	add	r0, sp, #16
  2e:	e9cd 4602 	strd	r4, r6, [sp, #8]
  32:	e9cd 6600 	strd	r6, r6, [sp]
  36:	e9d5 120b 	ldrd	r1, r2, [r5, #44]	; 0x2c
  3a:	f7ff fffe 	bl	0 <_ZN23Adafruit_BusIO_RegisterC1EP18Adafruit_I2CDeviceP18Adafruit_SPIDevice26_Adafruit_BusIO_SPIRegTypethhh>
  3e:	4622      	mov	r2, r4
  40:	2117      	movs	r1, #23
  42:	a804      	add	r0, sp, #16
  44:	f7ff fffe 	bl	0 <_ZN23Adafruit_BusIO_Register5writeEmh>
  48:	b00a      	add	sp, #40	; 0x28
  4a:	bd70      	pop	{r4, r5, r6, pc}

Disassembly of section .text._ZN15Adafruit_ICM20X28auxillaryRegisterTransactionEbhhh:

00000000 <_ZN15Adafruit_ICM20X28auxillaryRegisterTransactionEbhhh>:
   0:	e92d 4ff0 	stmdb	sp!, {r4, r5, r6, r7, r8, r9, sl, fp, lr}
   4:	2501      	movs	r5, #1
   6:	b0a7      	sub	sp, #156	; 0x9c
   8:	2600      	movs	r6, #0
   a:	4699      	mov	r9, r3
   c:	237f      	movs	r3, #127	; 0x7f
   e:	4604      	mov	r4, r0
  10:	460f      	mov	r7, r1
  12:	9503      	str	r5, [sp, #12]
  14:	9300      	str	r3, [sp, #0]
  16:	4690      	mov	r8, r2
  18:	4633      	mov	r3, r6
  1a:	9501      	str	r5, [sp, #4]
  1c:	9602      	str	r6, [sp, #8]
  1e:	f04f 0a17 	mov.w	sl, #23
  22:	f89d b0c0 	ldrb.w	fp, [sp, #192]	; 0xc0
  26:	e9d0 120b 	ldrd	r1, r2, [r0, #44]	; 0x2c
  2a:	a820      	add	r0, sp, #128	; 0x80
  2c:	f7ff fffe 	bl	0 <_ZN23Adafruit_BusIO_RegisterC1EP18Adafruit_I2CDeviceP18Adafruit_SPIDevice26_Adafruit_BusIO_SPIRegTypethhh>
  30:	4632      	mov	r2, r6
  32:	2130      	movs	r1, #48	; 0x30
  34:	a820      	add	r0, sp, #128	; 0x80
  36:	f7ff fffe 	bl	0 <_ZN23Adafruit_BusIO_Register5writeEmh>
  3a:	2313      	movs	r3, #19
  3c:	9501      	str	r5, [sp, #4]
  3e:	a808      	add	r0, sp, #32
  40:	9300      	str	r3, [sp, #0]
  42:	4633      	mov	r3, r6
  44:	e9cd 6502 	strd	r6, r5, [sp, #8]
  48:	e9d4 120b 	ldrd	r1, r2, [r4, #44]	; 0x2c
  4c:	f7ff fffe 	bl	0 <_ZN23Adafruit_BusIO_RegisterC1EP18Adafruit_I2CDeviceP18Adafruit_SPIDevice26_Adafruit_BusIO_SPIRegTypethhh>
  50:	2314      	movs	r3, #20
  52:	9501      	str	r5, [sp, #4]
  54:	a80e      	add	r0, sp, #56	; 0x38
  56:	9300      	str	r3, [sp, #0]
  58:	4633      	mov	r3, r6
  5a:	e9cd 6502 	strd	r6, r5, [sp, #8]
  5e:	e9d4 120b 	ldrd	r1, r2, [r4, #44]	; 0x2c
  62:	f7ff fffe 	bl	0 <_ZN23Adafruit_BusIO_RegisterC1EP18Adafruit_I2CDeviceP18Adafruit_SPIDevice26_Adafruit_BusIO_SPIRegTypethhh>
  66:	2315      	movs	r3, #21
  68:	9501      	str	r5, [sp, #4]
  6a:	a814      	add	r0, sp, #80	; 0x50
  6c:	9300      	str	r3, [sp, #0]
  6e:	4633      	mov	r3, r6
  70:	e9cd 6502 	strd	r6, r5, [sp, #8]
  74:	e9d4 120b 	ldrd	r1, r2, [r4, #44]	; 0x2c
  78:	f7ff fffe 	bl	0 <_ZN23Adafruit_BusIO_RegisterC1EP18Adafruit_I2CDeviceP18Adafruit_SPIDevice26_Adafruit_BusIO_SPIRegTypethhh>
  7c:	4633      	mov	r3, r6
  7e:	a81a      	add	r0, sp, #104	; 0x68
  80:	e9cd 6502 	strd	r6, r5, [sp, #8]
  84:	e9cd a500 	strd	sl, r5, [sp]
  88:	e9d4 120b 	ldrd	r1, r2, [r4, #44]	; 0x2c
  8c:	f7ff fffe 	bl	0 <_ZN23Adafruit_BusIO_RegisterC1EP18Adafruit_I2CDeviceP18Adafruit_SPIDevice26_Adafruit_BusIO_SPIRegTypethhh>
  90:	a91a      	add	r1, sp, #104	; 0x68
  92:	2306      	movs	r3, #6
  94:	462a      	mov	r2, r5
  96:	a806      	add	r0, sp, #24
  98:	f7ff fffe 	bl	0 <_ZN27Adafruit_BusIO_RegisterBitsC1EP23Adafruit_BusIO_Registerhh>
  9c:	b1cf      	cbz	r7, d2 <_ZN15Adafruit_ICM20X28auxillaryRegisterTransactionEbhhh+0xd2>
  9e:	f048 0880 	orr.w	r8, r8, #128	; 0x80
  a2:	2018      	movs	r0, #24
  a4:	f7ff fffe 	bl	0 <_Znwj>
  a8:	f8cd a000 	str.w	sl, [sp]
  ac:	9503      	str	r5, [sp, #12]
  ae:	4633      	mov	r3, r6
  b0:	9005      	str	r0, [sp, #20]
  b2:	e9cd 5601 	strd	r5, r6, [sp, #4]
  b6:	e9d4 120b 	ldrd	r1, r2, [r4, #44]	; 0x2c
  ba:	f7ff fffe 	bl	0 <_ZN23Adafruit_BusIO_RegisterC1EP18Adafruit_I2CDeviceP18Adafruit_SPIDevice26_Adafruit_BusIO_SPIRegTypethhh>
  be:	4641      	mov	r1, r8
  c0:	a808      	add	r0, sp, #32
  c2:	2200      	movs	r2, #0
  c4:	f7ff fffe 	bl	0 <_ZN23Adafruit_BusIO_Register5writeEmh>
  c8:	b9f8      	cbnz	r0, 10a <_ZN15Adafruit_ICM20X28auxillaryRegisterTransactionEbhhh+0x10a>
  ca:	2000      	movs	r0, #0
  cc:	b027      	add	sp, #156	; 0x9c
  ce:	e8bd 8ff0 	ldmia.w	sp!, {r4, r5, r6, r7, r8, r9, sl, fp, pc}
  d2:	2018      	movs	r0, #24
  d4:	f7ff fffe 	bl	0 <_Znwj>
  d8:	2316      	movs	r3, #22
  da:	9503      	str	r5, [sp, #12]
  dc:	9501      	str	r5, [sp, #4]
  de:	4605      	mov	r5, r0
  e0:	9300      	str	r3, [sp, #0]
  e2:	463b      	mov	r3, r7
  e4:	9702      	str	r7, [sp, #8]
  e6:	e9d4 120b 	ldrd	r1, r2, [r4, #44]	; 0x2c
  ea:	f7ff fffe 	bl	0 <_ZN23Adafruit_BusIO_RegisterC1EP18Adafruit_I2CDeviceP18Adafruit_SPIDevice26_Adafruit_BusIO_SPIRegTypethhh>
  ee:	463a      	mov	r2, r7
  f0:	4659      	mov	r1, fp
  f2:	4628      	mov	r0, r5
  f4:	f7ff fffe 	bl	0 <_ZN23Adafruit_BusIO_Register5writeEmh>
  f8:	2800      	cmp	r0, #0
  fa:	d0e6      	beq.n	ca <_ZN15Adafruit_ICM20X28auxillaryRegisterTransactionEbhhh+0xca>
  fc:	4641      	mov	r1, r8
  fe:	a808      	add	r0, sp, #32
 100:	2200      	movs	r2, #0
 102:	f7ff fffe 	bl	0 <_ZN23Adafruit_BusIO_Register5writeEmh>
 106:	2800      	cmp	r0, #0
 108:	d0df      	beq.n	ca <_ZN15Adafruit_ICM20X28auxillaryRegisterTransactionEbhhh+0xca>
 10a:	4649      	mov	r1, r9
 10c:	a80e      	add	r0, sp, #56	; 0x38
 10e:	2200      	movs	r2, #0
 110:	f7ff fffe 	bl	0 <_ZN23Adafruit_BusIO_Register5writeEmh>
 114:	2800      	cmp	r0, #0
 116:	d0d8      	beq.n	ca <_ZN15Adafruit_ICM20X28auxillaryRegisterTransactionEbhhh+0xca>
 118:	a814      	add	r0, sp, #80	; 0x50
 11a:	2200      	movs	r2, #0
 11c:	2180      	movs	r1, #128	; 0x80
 11e:	f7ff fffe 	bl	0 <_ZN23Adafruit_BusIO_Register5writeEmh>
 122:	2800      	cmp	r0, #0
 124:	d0d1      	beq.n	ca <_ZN15Adafruit_ICM20X28auxillaryRegisterTransactionEbhhh+0xca>
 126:	2500      	movs	r5, #0
 128:	2301      	movs	r3, #1
 12a:	a820      	add	r0, sp, #128	; 0x80
 12c:	9301      	str	r3, [sp, #4]
 12e:	e9cd 5302 	strd	r5, r3, [sp, #8]
 132:	237f      	movs	r3, #127	; 0x7f
 134:	9300      	str	r3, [sp, #0]
 136:	462b      	mov	r3, r5
 138:	e9d4 120b 	ldrd	r1, r2, [r4, #44]	; 0x2c
 13c:	f7ff fffe 	bl	0 <_ZN23Adafruit_BusIO_RegisterC1EP18Adafruit_I2CDeviceP18Adafruit_SPIDevice26_Adafruit_BusIO_SPIRegTypethhh>
 140:	462a      	mov	r2, r5
 142:	4629      	mov	r1, r5
 144:	a820      	add	r0, sp, #128	; 0x80
 146:	2564      	movs	r5, #100	; 0x64
 148:	f7ff fffe 	bl	0 <_ZN23Adafruit_BusIO_Register5writeEmh>
 14c:	e002      	b.n	154 <_ZN15Adafruit_ICM20X28auxillaryRegisterTransactionEbhhh+0x154>
 14e:	f015 05ff 	ands.w	r5, r5, #255	; 0xff
 152:	d0ba      	beq.n	ca <_ZN15Adafruit_ICM20X28auxillaryRegisterTransactionEbhhh+0xca>
 154:	a806      	add	r0, sp, #24
 156:	3d01      	subs	r5, #1
 158:	f7ff fffe 	bl	0 <_ZN27Adafruit_BusIO_RegisterBits4readEv>
 15c:	2801      	cmp	r0, #1
 15e:	d1f6      	bne.n	14e <_ZN15Adafruit_ICM20X28auxillaryRegisterTransactionEbhhh+0x14e>
 160:	2f00      	cmp	r7, #0
 162:	d0b3      	beq.n	cc <_ZN15Adafruit_ICM20X28auxillaryRegisterTransactionEbhhh+0xcc>
 164:	2500      	movs	r5, #0
 166:	237f      	movs	r3, #127	; 0x7f
 168:	9003      	str	r0, [sp, #12]
 16a:	9001      	str	r0, [sp, #4]
 16c:	a820      	add	r0, sp, #128	; 0x80
 16e:	9300      	str	r3, [sp, #0]
 170:	462b      	mov	r3, r5
 172:	9502      	str	r5, [sp, #8]
 174:	e9d4 120b 	ldrd	r1, r2, [r4, #44]	; 0x2c
 178:	f7ff fffe 	bl	0 <_ZN23Adafruit_BusIO_RegisterC1EP18Adafruit_I2CDeviceP18Adafruit_SPIDevice26_Adafruit_BusIO_SPIRegTypethhh>
 17c:	462a      	mov	r2, r5
 17e:	2130      	movs	r1, #48	; 0x30
 180:	a820      	add	r0, sp, #128	; 0x80
 182:	f7ff fffe 	bl	0 <_ZN23Adafruit_BusIO_Register5writeEmh>
 186:	9805      	ldr	r0, [sp, #20]
 188:	f7ff fffe 	bl	0 <_ZN23Adafruit_BusIO_Register4readEv>
 18c:	b2c0      	uxtb	r0, r0
 18e:	e79d      	b.n	cc <_ZN15Adafruit_ICM20X28auxillaryRegisterTransactionEbhhh+0xcc>

Disassembly of section .text._ZN15Adafruit_ICM20X20readExternalRegisterEhh:

00000000 <_ZN15Adafruit_ICM20X20readExternalRegisterEhh>:
   0:	468c      	mov	ip, r1
   2:	4613      	mov	r3, r2
   4:	2101      	movs	r1, #1
   6:	4662      	mov	r2, ip
   8:	b510      	push	{r4, lr}
   a:	24ff      	movs	r4, #255	; 0xff
   c:	b082      	sub	sp, #8
   e:	9400      	str	r4, [sp, #0]
  10:	f7ff fffe 	bl	0 <_ZN15Adafruit_ICM20X20readExternalRegisterEhh>
  14:	b002      	add	sp, #8
  16:	bd10      	pop	{r4, pc}

Disassembly of section .text._ZN15Adafruit_ICM20X21writeExternalRegisterEhhh:

00000000 <_ZN15Adafruit_ICM20X21writeExternalRegisterEhhh>:
   0:	b510      	push	{r4, lr}
   2:	468c      	mov	ip, r1
   4:	b082      	sub	sp, #8
   6:	461c      	mov	r4, r3
   8:	2100      	movs	r1, #0
   a:	4613      	mov	r3, r2
   c:	4662      	mov	r2, ip
   e:	9400      	str	r4, [sp, #0]
  10:	f7ff fffe 	bl	0 <_ZN15Adafruit_ICM20X21writeExternalRegisterEhhh>
  14:	3800      	subs	r0, #0
  16:	bf18      	it	ne
  18:	2001      	movne	r0, #1
  1a:	b002      	add	sp, #8
  1c:	bd10      	pop	{r4, pc}
  1e:	bf00      	nop

Disassembly of section .text._ZN15Adafruit_ICM20X14resetI2CMasterEv:

00000000 <_ZN15Adafruit_ICM20X14resetI2CMasterEv>:
   0:	b530      	push	{r4, r5, lr}
   2:	2300      	movs	r3, #0
   4:	b08d      	sub	sp, #52	; 0x34
   6:	2401      	movs	r4, #1
   8:	227f      	movs	r2, #127	; 0x7f
   a:	4605      	mov	r5, r0
   c:	e9cd 3402 	strd	r3, r4, [sp, #8]
  10:	e9cd 2400 	strd	r2, r4, [sp]
  14:	e9d0 120b 	ldrd	r1, r2, [r0, #44]	; 0x2c
  18:	a806      	add	r0, sp, #24
  1a:	f7ff fffe 	bl	0 <_ZN23Adafruit_BusIO_RegisterC1EP18Adafruit_I2CDeviceP18Adafruit_SPIDevice26_Adafruit_BusIO_SPIRegTypethhh>
  1e:	2300      	movs	r3, #0
  20:	a806      	add	r0, sp, #24
  22:	461a      	mov	r2, r3
  24:	4619      	mov	r1, r3
  26:	f7ff fffe 	bl	0 <_ZN23Adafruit_BusIO_Register5writeEmh>
  2a:	2300      	movs	r3, #0
  2c:	2203      	movs	r2, #3
  2e:	9403      	str	r4, [sp, #12]
  30:	a806      	add	r0, sp, #24
  32:	9200      	str	r2, [sp, #0]
  34:	e9cd 4301 	strd	r4, r3, [sp, #4]
  38:	e9d5 120b 	ldrd	r1, r2, [r5, #44]	; 0x2c
  3c:	f7ff fffe 	bl	0 <_ZN23Adafruit_BusIO_RegisterC1EP18Adafruit_I2CDeviceP18Adafruit_SPIDevice26_Adafruit_BusIO_SPIRegTypethhh>
  40:	a906      	add	r1, sp, #24
  42:	4623      	mov	r3, r4
  44:	4622      	mov	r2, r4
  46:	a804      	add	r0, sp, #16
  48:	f7ff fffe 	bl	0 <_ZN27Adafruit_BusIO_RegisterBitsC1EP23Adafruit_BusIO_Registerhh>
  4c:	4621      	mov	r1, r4
  4e:	a804      	add	r0, sp, #16
  50:	f7ff fffe 	bl	0 <_ZN27Adafruit_BusIO_RegisterBits5writeEm>
  54:	e001      	b.n	5a <_ZN15Adafruit_ICM20X14resetI2CMasterEv+0x5a>
  56:	f7ff fffe 	bl	0 <delay>
  5a:	a804      	add	r0, sp, #16
  5c:	f7ff fffe 	bl	0 <_ZN27Adafruit_BusIO_RegisterBits4readEv>
  60:	4603      	mov	r3, r0
  62:	200a      	movs	r0, #10
  64:	2b00      	cmp	r3, #0
  66:	d1f6      	bne.n	56 <_ZN15Adafruit_ICM20X14resetI2CMasterEv+0x56>
  68:	2064      	movs	r0, #100	; 0x64
  6a:	f7ff fffe 	bl	0 <delay>
  6e:	b00d      	add	sp, #52	; 0x34
  70:	bd30      	pop	{r4, r5, pc}
  72:	bf00      	nop
