
build/./libraries/Adafruit_ICM20X/Adafruit_ICM20948.cpp.o:     file format elf32-littlearm

SYMBOL TABLE:
00000000 l    df *ABS*	00000000 Adafruit_ICM20948.cpp
00000000 l    d  .text	00000000 .text
00000000 l    d  .data	00000000 .data
00000000 l    d  .bss	00000000 .bss
00000000 l    d  .text._ZN17Adafruit_ICM2094811scaleValuesEv	00000000 .text._ZN17Adafruit_ICM2094811scaleValuesEv
00000000 l    d  .text._ZN17Adafruit_ICM20948C2Ev	00000000 .text._ZN17Adafruit_ICM20948C2Ev
00000000 l    d  .text._ZN17Adafruit_ICM2094820auxI2CBusSetupFailedEv	00000000 .text._ZN17Adafruit_ICM2094820auxI2CBusSetupFailedEv
00000000 l    d  .text._ZN17Adafruit_ICM209488getMagIdEv	00000000 .text._ZN17Adafruit_ICM209488getMagIdEv
00000000 l    d  .rodata._ZN17Adafruit_ICM209488setupMagEv.str1.4	00000000 .rodata._ZN17Adafruit_ICM209488setupMagEv.str1.4
00000000 l    d  .text._ZN17Adafruit_ICM209488setupMagEv	00000000 .text._ZN17Adafruit_ICM209488setupMagEv
00000000 l    d  .rodata._ZN17Adafruit_ICM209489begin_I2CEhP7TwoWirel.str1.4	00000000 .rodata._ZN17Adafruit_ICM209489begin_I2CEhP7TwoWirel.str1.4
00000000 l    d  .text._ZN17Adafruit_ICM209489begin_I2CEhP7TwoWirel	00000000 .text._ZN17Adafruit_ICM209489begin_I2CEhP7TwoWirel
00000000 l    d  .text._ZN17Adafruit_ICM2094815readMagRegisterEh	00000000 .text._ZN17Adafruit_ICM2094815readMagRegisterEh
00000000 l    d  .text._ZN17Adafruit_ICM2094816writeMagRegisterEhh	00000000 .text._ZN17Adafruit_ICM2094816writeMagRegisterEhh
00000000 l    d  .text._ZN17Adafruit_ICM2094813getAccelRangeEv	00000000 .text._ZN17Adafruit_ICM2094813getAccelRangeEv
00000000 l    d  .text._ZN17Adafruit_ICM2094813setAccelRangeE22icm20948_accel_range_t	00000000 .text._ZN17Adafruit_ICM2094813setAccelRangeE22icm20948_accel_range_t
00000000 l    d  .text._ZN17Adafruit_ICM2094812getGyroRangeEv	00000000 .text._ZN17Adafruit_ICM2094812getGyroRangeEv
00000000 l    d  .text._ZN17Adafruit_ICM2094812setGyroRangeE21icm20948_gyro_range_t	00000000 .text._ZN17Adafruit_ICM2094812setGyroRangeE21icm20948_gyro_range_t
00000000 l    d  .text._ZN17Adafruit_ICM2094814getMagDataRateEv	00000000 .text._ZN17Adafruit_ICM2094814getMagDataRateEv
00000000 l    d  .text._ZN17Adafruit_ICM2094814setMagDataRateE19ak09916_data_rate_t	00000000 .text._ZN17Adafruit_ICM2094814setMagDataRateE19ak09916_data_rate_t
00000000 l    d  .rodata._ZTV17Adafruit_ICM20948	00000000 .rodata._ZTV17Adafruit_ICM20948
00000000 l    d  .comment	00000000 .comment
00000000 l    d  .ARM.attributes	00000000 .ARM.attributes
00000000 g     F .text._ZN17Adafruit_ICM2094811scaleValuesEv	00000150 _ZN17Adafruit_ICM2094811scaleValuesEv
00000000 g     F .text._ZN17Adafruit_ICM20948C2Ev	00000014 _ZN17Adafruit_ICM20948C2Ev
00000000         *UND*	00000000 _ZN15Adafruit_ICM20XC2Ev
00000000 g     F .text._ZN17Adafruit_ICM20948C2Ev	00000014 _ZN17Adafruit_ICM20948C1Ev
00000000 g     F .text._ZN17Adafruit_ICM2094820auxI2CBusSetupFailedEv	00000028 _ZN17Adafruit_ICM2094820auxI2CBusSetupFailedEv
00000000         *UND*	00000000 _ZN15Adafruit_ICM20X20readExternalRegisterEhh
00000000         *UND*	00000000 _ZN15Adafruit_ICM20X14resetI2CMasterEv
00000000 g     F .text._ZN17Adafruit_ICM209488getMagIdEv	00000008 _ZN17Adafruit_ICM209488getMagIdEv
00000000 g     F .text._ZN17Adafruit_ICM209488setupMagEv	000000e0 _ZN17Adafruit_ICM209488setupMagEv
00000000         *UND*	00000000 _ZN15Adafruit_ICM20X12setI2CBypassEb
00000000         *UND*	00000000 _ZN15Adafruit_ICM20X18configureI2CMasterEv
00000000         *UND*	00000000 _ZN15Adafruit_ICM20X15enableI2CMasterEb
00000000         *UND*	00000000 _ZN15Adafruit_ICM20X21writeExternalRegisterEhhh
00000000         *UND*	00000000 delay
00000000         *UND*	00000000 usb_serial_write
00000000         *UND*	00000000 _ZN5Print7printlnEv
00000000         *UND*	00000000 _ZN15Adafruit_ICM20X8_setBankEh
00000000         *UND*	00000000 _ZN18Adafruit_I2CDevice5writeEPKhjbS1_j
00000000         *UND*	00000000 Serial
00000000 g     F .text._ZN17Adafruit_ICM209489begin_I2CEhP7TwoWirel	00000088 _ZN17Adafruit_ICM209489begin_I2CEhP7TwoWirel
00000000         *UND*	00000000 _ZdlPvj
00000000         *UND*	00000000 _Znwj
00000000         *UND*	00000000 _ZN18Adafruit_I2CDeviceC1EhP7TwoWire
00000000         *UND*	00000000 _ZN18Adafruit_I2CDevice5beginEb
00000000         *UND*	00000000 _ZN15Adafruit_ICM20X5_initEl
00000000 g     F .text._ZN17Adafruit_ICM2094815readMagRegisterEh	00000008 _ZN17Adafruit_ICM2094815readMagRegisterEh
00000000 g     F .text._ZN17Adafruit_ICM2094816writeMagRegisterEhh	0000000c _ZN17Adafruit_ICM2094816writeMagRegisterEhh
00000000 g     F .text._ZN17Adafruit_ICM2094813getAccelRangeEv	00000004 _ZN17Adafruit_ICM2094813getAccelRangeEv
00000000         *UND*	00000000 _ZN15Adafruit_ICM20X14readAccelRangeEv
00000000 g     F .text._ZN17Adafruit_ICM2094813setAccelRangeE22icm20948_accel_range_t	00000004 _ZN17Adafruit_ICM2094813setAccelRangeE22icm20948_accel_range_t
00000000         *UND*	00000000 _ZN15Adafruit_ICM20X15writeAccelRangeEh
00000000 g     F .text._ZN17Adafruit_ICM2094812getGyroRangeEv	00000004 _ZN17Adafruit_ICM2094812getGyroRangeEv
00000000         *UND*	00000000 _ZN15Adafruit_ICM20X13readGyroRangeEv
00000000 g     F .text._ZN17Adafruit_ICM2094812setGyroRangeE21icm20948_gyro_range_t	00000004 _ZN17Adafruit_ICM2094812setGyroRangeE21icm20948_gyro_range_t
00000000         *UND*	00000000 _ZN15Adafruit_ICM20X14writeGyroRangeEh
00000000 g     F .text._ZN17Adafruit_ICM2094814getMagDataRateEv	00000008 _ZN17Adafruit_ICM2094814getMagDataRateEv
00000000 g     F .text._ZN17Adafruit_ICM2094814setMagDataRateE19ak09916_data_rate_t	0000002a _ZN17Adafruit_ICM2094814setMagDataRateE19ak09916_data_rate_t
00000000 g     O .rodata._ZTV17Adafruit_ICM20948	00000010 _ZTV17Adafruit_ICM20948


Contents of section .text._ZN17Adafruit_ICM2094811scaleValuesEv:
 0000 90f86120 90f86030 4ab1012a 70d19fed  ..a ..`0J..*p...
 0010 487a43b1 012b70d1 dfed467a 05e09fed  HzC..+p...Fz....
 0020 467a002b f6d1dfed 457ab0f9 543004ee  Fz.+....Ez..T0..
 0030 103ab0f9 563004ee 903ab0f9 5830b8ee  .:..V0...:..X0..
 0040 c44a05ee 103ab0f9 4c30f8ee e44a05ee  .J...:..L0...J..
 0050 903ab0f9 4e30b8ee c55a06ee 103ab0f9  .:..N0...Z...:..
 0060 5030f8ee e55a06ee 903ab0f9 5a30b8ee  P0...Z...:..Z0..
 0070 c66af8ee e66a85ee 071a05ee 103ab0f9  .j...j.......:..
 0080 5c3084ee 072ac4ee 871ac5ee a72a80ed  \0...*.......*..
 0090 071a86ee 273a06ee 103ab0f9 5e3080ed  ....':...:..^0..
 00a0 052a07ee 103ac6ee a73ac0ed 061ab8ee  .*...:...:......
 00b0 c55bb8ee c66bc0ed 022ab8ee c77b9fed  .[...k...*...{..
 00c0 1a4b80ed 033a25ee 045b26ee 046bc0ed  .K...:%..[&..k..
 00d0 043a27ee 047bb7ee c55bb7ee c66bb7ee  .:'..{...[...k..
 00e0 c77b80ed 085a80ed 096a80ed 0a7a7047  .{...Z...j...zpG
 00f0 022a07d1 9fed127a 8be7022b 0ad1dfed  .*.....z...+....
 0100 117a92e7 b7ee007a dfed0f7a 032a07fe  .z.....z...z.*..
 0110 877a7ee7 f7ee007a dfed0c6a 032b46fe  .z~....z...j.+F.
 0120 a77a82e7 aff30080 33333333 3333c33f  .z......333333.?
 0130 00008342 00000046 00000343 00008046  ...B...F...C...F
 0140 33330342 00008045 33338341 00000045  33.B...E33.A...E
Contents of section .text._ZN17Adafruit_ICM20948C2Ev:
 0000 10b50446 fff7feff 014b2046 236010bd  ...F.....K F#`..
 0010 08000000                             ....            
Contents of section .text._ZN17Adafruit_ICM2094820auxI2CBusSetupFailedEv:
 0000 38b50524 05460122 8c212846 fff7feff  8..$.F.".!(F....
 0010 03462846 092b05d0 fff7feff 013cf2d1  .F(F.+.......<..
 0020 012038bd 002038bd                    . 8.. 8.        
Contents of section .text._ZN17Adafruit_ICM209488getMagIdEv:
 0000 01228c21 fff7febf                    .".!....        
Contents of section .rodata._ZN17Adafruit_ICM209488setupMagEv.str1.4:
 0000 4572726f 72207365 7474696e 67206d61  Error setting ma
 0010 676e6574 6f6d6574 65722064 61746120  gnetometer data 
 0020 72617465 206f6e20 65787465 726e616c  rate on external
 0030 20627573 00                           bus.           
Contents of section .text._ZN17Adafruit_ICM209488setupMagEv:
 0000 30b50446 002185b0 0525fff7 feff2046  0..F.!...%.... F
 0010 fff7feff 01212046 fff7feff 01228c21  .....! F.....".!
 0020 2046fff7 feff0346 2046092b 07d0fff7   F.....F F.+....
 0030 feff013d f2d10025 284605b0 30bd0023  ...=...%(F..0..#
 0040 31220c21 fff7feff 05460120 fff7feff  1".!.....F. ....
 0050 08233122 0c212046 fff7feff 284010f0  .#1".! F....(@..
 0060 ff0509d1 34211c48 fff7feff 1b48fff7  ....4!.H.....H..
 0070 feff2846 05b030bd 03212046 fff7feff  ..(F..0..! F....
 0080 002548f6 03420123 03a9adf8 0c200222  .%H..B.#..... ."
 0090 cde90055 e06afff7 feff0028 cbd041f2  ...U.j.....(..A.
 00a0 04020123 03a9adf8 0c200222 cde90055  ...#..... ."...U
 00b0 e06afff7 feff0028 bdd048f6 0512e06a  .j.....(..H....j
 00c0 012303a9 adf80c20 0222cde9 0055fff7  .#..... ."...U..
 00d0 feff0546 b0e700bf 00000000 00000000  ...F............
Contents of section .rodata._ZN17Adafruit_ICM209489begin_I2CEhP7TwoWirel.str1.4:
 0000 49324320 62656769 6e204661 696c6564  I2C begin Failed
 0010 00000000 6661696c 65642074 6f207365  ....failed to se
 0020 74757020 6d616700                    tup mag.        
Contents of section .text._ZN17Adafruit_ICM209489begin_I2CEhP7TwoWirel:
 0000 70b50546 c06a82b0 0c461e46 20b11021  p..F.j...F.F ..!
 0010 0192fff7 feff019a 10200192 fff7feff  ......... ......
 0020 21460446 019afff7 feff0121 2046ec62  !F.F.......! F.b
 0030 fff7feff 044660b1 31462846 fff7feff  .....F`.1F(F....
 0040 04462846 fff7feff 034660b1 204602b0  .F(F.....F`. F..
 0050 70bd1021 0948fff7 feff0948 fff7feff  p..!.H.....H....
 0060 204602b0 70bd1c46 13210648 fff7feff   F..p..F.!.H....
 0070 0348fff7 feff2046 02b070bd 00000000  .H.... F..p.....
 0080 00000000 14000000                    ........        
Contents of section .text._ZN17Adafruit_ICM2094815readMagRegisterEh:
 0000 0a468c21 fff7febf                    .F.!....        
Contents of section .text._ZN17Adafruit_ICM2094816writeMagRegisterEhh:
 0000 8c461346 0c216246 fff7febf           .F.F.!bF....    
Contents of section .text._ZN17Adafruit_ICM2094813getAccelRangeEv:
 0000 fff7febf                             ....            
Contents of section .text._ZN17Adafruit_ICM2094813setAccelRangeE22icm20948_accel_range_t:
 0000 fff7febf                             ....            
Contents of section .text._ZN17Adafruit_ICM2094812getGyroRangeEv:
 0000 fff7febf                             ....            
Contents of section .text._ZN17Adafruit_ICM2094812setGyroRangeE21icm20948_gyro_range_t:
 0000 fff7febf                             ....            
Contents of section .text._ZN17Adafruit_ICM2094814getMagDataRateEv:
 0000 31228c21 fff7febf                    1".!....        
Contents of section .text._ZN17Adafruit_ICM2094814setMagDataRateE19ak09916_data_rate_t:
 0000 70b53122 0e460023 0c210546 fff7feff  p.1".F.#.!.F....
 0010 04460120 fff7feff 33463122 0c212846  .F. ....3F1".!(F
 0020 fff7feff 2040c0b2 70bd00bf           .... @..p...    
Contents of section .rodata._ZTV17Adafruit_ICM20948:
 0000 00000000 00000000 00000000 00000000  ................
Contents of section .comment:
 0000 00474343 3a202841 726d2047 4e552054  .GCC: (Arm GNU T
 0010 6f6f6c63 6861696e 2031312e 332e5265  oolchain 11.3.Re
 0020 6c312920 31312e33 2e312032 30323230  l1) 11.3.1 20220
 0030 37313200                             712.            
Contents of section .ARM.attributes:
 0000 41310000 00616561 62690001 27000000  A1...aeabi..'...
 0010 0537452d 4d00060d 074d0902 0a081204  .7E-M....M......
 0020 14011501 17031801 19011a01 1c011e02  ................
 0030 2201                                 ".              

Disassembly of section .text._ZN17Adafruit_ICM2094811scaleValuesEv:

00000000 <_ZN17Adafruit_ICM2094811scaleValuesEv>:
   0:	f890 2061 	ldrb.w	r2, [r0, #97]	; 0x61
   4:	f890 3060 	ldrb.w	r3, [r0, #96]	; 0x60
   8:	b14a      	cbz	r2, 1e <_ZN17Adafruit_ICM2094811scaleValuesEv+0x1e>
   a:	2a01      	cmp	r2, #1
   c:	d170      	bne.n	f0 <_ZN17Adafruit_ICM2094811scaleValuesEv+0xf0>
   e:	ed9f 7a48 	vldr	s14, [pc, #288]	; 130 <_ZN17Adafruit_ICM2094811scaleValuesEv+0x130>
  12:	b143      	cbz	r3, 26 <_ZN17Adafruit_ICM2094811scaleValuesEv+0x26>
  14:	2b01      	cmp	r3, #1
  16:	d170      	bne.n	fa <_ZN17Adafruit_ICM2094811scaleValuesEv+0xfa>
  18:	eddf 7a46 	vldr	s15, [pc, #280]	; 134 <_ZN17Adafruit_ICM2094811scaleValuesEv+0x134>
  1c:	e005      	b.n	2a <_ZN17Adafruit_ICM2094811scaleValuesEv+0x2a>
  1e:	ed9f 7a46 	vldr	s14, [pc, #280]	; 138 <_ZN17Adafruit_ICM2094811scaleValuesEv+0x138>
  22:	2b00      	cmp	r3, #0
  24:	d1f6      	bne.n	14 <_ZN17Adafruit_ICM2094811scaleValuesEv+0x14>
  26:	eddf 7a45 	vldr	s15, [pc, #276]	; 13c <_ZN17Adafruit_ICM2094811scaleValuesEv+0x13c>
  2a:	f9b0 3054 	ldrsh.w	r3, [r0, #84]	; 0x54
  2e:	ee04 3a10 	vmov	s8, r3
  32:	f9b0 3056 	ldrsh.w	r3, [r0, #86]	; 0x56
  36:	ee04 3a90 	vmov	s9, r3
  3a:	f9b0 3058 	ldrsh.w	r3, [r0, #88]	; 0x58
  3e:	eeb8 4ac4 	vcvt.f32.s32	s8, s8
  42:	ee05 3a10 	vmov	s10, r3
  46:	f9b0 304c 	ldrsh.w	r3, [r0, #76]	; 0x4c
  4a:	eef8 4ae4 	vcvt.f32.s32	s9, s9
  4e:	ee05 3a90 	vmov	s11, r3
  52:	f9b0 304e 	ldrsh.w	r3, [r0, #78]	; 0x4e
  56:	eeb8 5ac5 	vcvt.f32.s32	s10, s10
  5a:	ee06 3a10 	vmov	s12, r3
  5e:	f9b0 3050 	ldrsh.w	r3, [r0, #80]	; 0x50
  62:	eef8 5ae5 	vcvt.f32.s32	s11, s11
  66:	ee06 3a90 	vmov	s13, r3
  6a:	f9b0 305a 	ldrsh.w	r3, [r0, #90]	; 0x5a
  6e:	eeb8 6ac6 	vcvt.f32.s32	s12, s12
  72:	eef8 6ae6 	vcvt.f32.s32	s13, s13
  76:	ee85 1a07 	vdiv.f32	s2, s10, s14
  7a:	ee05 3a10 	vmov	s10, r3
  7e:	f9b0 305c 	ldrsh.w	r3, [r0, #92]	; 0x5c
  82:	ee84 2a07 	vdiv.f32	s4, s8, s14
  86:	eec4 1a87 	vdiv.f32	s3, s9, s14
  8a:	eec5 2aa7 	vdiv.f32	s5, s11, s15
  8e:	ed80 1a07 	vstr	s2, [r0, #28]
  92:	ee86 3a27 	vdiv.f32	s6, s12, s15
  96:	ee06 3a10 	vmov	s12, r3
  9a:	f9b0 305e 	ldrsh.w	r3, [r0, #94]	; 0x5e
  9e:	ed80 2a05 	vstr	s4, [r0, #20]
  a2:	ee07 3a10 	vmov	s14, r3
  a6:	eec6 3aa7 	vdiv.f32	s7, s13, s15
  aa:	edc0 1a06 	vstr	s3, [r0, #24]
  ae:	eeb8 5bc5 	vcvt.f64.s32	d5, s10
  b2:	eeb8 6bc6 	vcvt.f64.s32	d6, s12
  b6:	edc0 2a02 	vstr	s5, [r0, #8]
  ba:	eeb8 7bc7 	vcvt.f64.s32	d7, s14
  be:	ed9f 4b1a 	vldr	d4, [pc, #104]	; 128 <_ZN17Adafruit_ICM2094811scaleValuesEv+0x128>
  c2:	ed80 3a03 	vstr	s6, [r0, #12]
  c6:	ee25 5b04 	vmul.f64	d5, d5, d4
  ca:	ee26 6b04 	vmul.f64	d6, d6, d4
  ce:	edc0 3a04 	vstr	s7, [r0, #16]
  d2:	ee27 7b04 	vmul.f64	d7, d7, d4
  d6:	eeb7 5bc5 	vcvt.f32.f64	s10, d5
  da:	eeb7 6bc6 	vcvt.f32.f64	s12, d6
  de:	eeb7 7bc7 	vcvt.f32.f64	s14, d7
  e2:	ed80 5a08 	vstr	s10, [r0, #32]
  e6:	ed80 6a09 	vstr	s12, [r0, #36]	; 0x24
  ea:	ed80 7a0a 	vstr	s14, [r0, #40]	; 0x28
  ee:	4770      	bx	lr
  f0:	2a02      	cmp	r2, #2
  f2:	d107      	bne.n	104 <_ZN17Adafruit_ICM2094811scaleValuesEv+0x104>
  f4:	ed9f 7a12 	vldr	s14, [pc, #72]	; 140 <_ZN17Adafruit_ICM2094811scaleValuesEv+0x140>
  f8:	e78b      	b.n	12 <_ZN17Adafruit_ICM2094811scaleValuesEv+0x12>
  fa:	2b02      	cmp	r3, #2
  fc:	d10a      	bne.n	114 <_ZN17Adafruit_ICM2094811scaleValuesEv+0x114>
  fe:	eddf 7a11 	vldr	s15, [pc, #68]	; 144 <_ZN17Adafruit_ICM2094811scaleValuesEv+0x144>
 102:	e792      	b.n	2a <_ZN17Adafruit_ICM2094811scaleValuesEv+0x2a>
 104:	eeb7 7a00 	vmov.f32	s14, #112	; 0x3f800000  1.0
 108:	eddf 7a0f 	vldr	s15, [pc, #60]	; 148 <_ZN17Adafruit_ICM2094811scaleValuesEv+0x148>
 10c:	2a03      	cmp	r2, #3
 10e:	fe07 7a87 	vseleq.f32	s14, s15, s14
 112:	e77e      	b.n	12 <_ZN17Adafruit_ICM2094811scaleValuesEv+0x12>
 114:	eef7 7a00 	vmov.f32	s15, #112	; 0x3f800000  1.0
 118:	eddf 6a0c 	vldr	s13, [pc, #48]	; 14c <_ZN17Adafruit_ICM2094811scaleValuesEv+0x14c>
 11c:	2b03      	cmp	r3, #3
 11e:	fe46 7aa7 	vseleq.f32	s15, s13, s15
 122:	e782      	b.n	2a <_ZN17Adafruit_ICM2094811scaleValuesEv+0x2a>
 124:	f3af 8000 	nop.w
 128:	33333333 	.word	0x33333333
 12c:	3fc33333 	.word	0x3fc33333
 130:	42830000 	.word	0x42830000
 134:	46000000 	.word	0x46000000
 138:	43030000 	.word	0x43030000
 13c:	46800000 	.word	0x46800000
 140:	42033333 	.word	0x42033333
 144:	45800000 	.word	0x45800000
 148:	41833333 	.word	0x41833333
 14c:	45000000 	.word	0x45000000

Disassembly of section .text._ZN17Adafruit_ICM20948C2Ev:

00000000 <_ZN17Adafruit_ICM20948C1Ev>:
   0:	b510      	push	{r4, lr}
   2:	4604      	mov	r4, r0
   4:	f7ff fffe 	bl	0 <_ZN15Adafruit_ICM20XC2Ev>
   8:	4b01      	ldr	r3, [pc, #4]	; (10 <_ZN17Adafruit_ICM20948C1Ev+0x10>)
   a:	4620      	mov	r0, r4
   c:	6023      	str	r3, [r4, #0]
   e:	bd10      	pop	{r4, pc}
  10:	00000008 	.word	0x00000008

Disassembly of section .text._ZN17Adafruit_ICM2094820auxI2CBusSetupFailedEv:

00000000 <_ZN17Adafruit_ICM2094820auxI2CBusSetupFailedEv>:
   0:	b538      	push	{r3, r4, r5, lr}
   2:	2405      	movs	r4, #5
   4:	4605      	mov	r5, r0
   6:	2201      	movs	r2, #1
   8:	218c      	movs	r1, #140	; 0x8c
   a:	4628      	mov	r0, r5
   c:	f7ff fffe 	bl	0 <_ZN15Adafruit_ICM20X20readExternalRegisterEhh>
  10:	4603      	mov	r3, r0
  12:	4628      	mov	r0, r5
  14:	2b09      	cmp	r3, #9
  16:	d005      	beq.n	24 <_ZN17Adafruit_ICM2094820auxI2CBusSetupFailedEv+0x24>
  18:	f7ff fffe 	bl	0 <_ZN15Adafruit_ICM20X14resetI2CMasterEv>
  1c:	3c01      	subs	r4, #1
  1e:	d1f2      	bne.n	6 <_ZN17Adafruit_ICM2094820auxI2CBusSetupFailedEv+0x6>
  20:	2001      	movs	r0, #1
  22:	bd38      	pop	{r3, r4, r5, pc}
  24:	2000      	movs	r0, #0
  26:	bd38      	pop	{r3, r4, r5, pc}

Disassembly of section .text._ZN17Adafruit_ICM209488getMagIdEv:

00000000 <_ZN17Adafruit_ICM209488getMagIdEv>:
   0:	2201      	movs	r2, #1
   2:	218c      	movs	r1, #140	; 0x8c
   4:	f7ff bffe 	b.w	0 <_ZN15Adafruit_ICM20X20readExternalRegisterEhh>

Disassembly of section .text._ZN17Adafruit_ICM209488setupMagEv:

00000000 <_ZN17Adafruit_ICM209488setupMagEv>:
   0:	b530      	push	{r4, r5, lr}
   2:	4604      	mov	r4, r0
   4:	2100      	movs	r1, #0
   6:	b085      	sub	sp, #20
   8:	2505      	movs	r5, #5
   a:	f7ff fffe 	bl	0 <_ZN15Adafruit_ICM20X12setI2CBypassEb>
   e:	4620      	mov	r0, r4
  10:	f7ff fffe 	bl	0 <_ZN15Adafruit_ICM20X18configureI2CMasterEv>
  14:	2101      	movs	r1, #1
  16:	4620      	mov	r0, r4
  18:	f7ff fffe 	bl	0 <_ZN15Adafruit_ICM20X15enableI2CMasterEb>
  1c:	2201      	movs	r2, #1
  1e:	218c      	movs	r1, #140	; 0x8c
  20:	4620      	mov	r0, r4
  22:	f7ff fffe 	bl	0 <_ZN15Adafruit_ICM20X20readExternalRegisterEhh>
  26:	4603      	mov	r3, r0
  28:	4620      	mov	r0, r4
  2a:	2b09      	cmp	r3, #9
  2c:	d007      	beq.n	3e <_ZN17Adafruit_ICM209488setupMagEv+0x3e>
  2e:	f7ff fffe 	bl	0 <_ZN15Adafruit_ICM20X14resetI2CMasterEv>
  32:	3d01      	subs	r5, #1
  34:	d1f2      	bne.n	1c <_ZN17Adafruit_ICM209488setupMagEv+0x1c>
  36:	2500      	movs	r5, #0
  38:	4628      	mov	r0, r5
  3a:	b005      	add	sp, #20
  3c:	bd30      	pop	{r4, r5, pc}
  3e:	2300      	movs	r3, #0
  40:	2231      	movs	r2, #49	; 0x31
  42:	210c      	movs	r1, #12
  44:	f7ff fffe 	bl	0 <_ZN15Adafruit_ICM20X21writeExternalRegisterEhhh>
  48:	4605      	mov	r5, r0
  4a:	2001      	movs	r0, #1
  4c:	f7ff fffe 	bl	0 <delay>
  50:	2308      	movs	r3, #8
  52:	2231      	movs	r2, #49	; 0x31
  54:	210c      	movs	r1, #12
  56:	4620      	mov	r0, r4
  58:	f7ff fffe 	bl	0 <_ZN15Adafruit_ICM20X21writeExternalRegisterEhhh>
  5c:	4028      	ands	r0, r5
  5e:	f010 05ff 	ands.w	r5, r0, #255	; 0xff
  62:	d109      	bne.n	78 <_ZN17Adafruit_ICM209488setupMagEv+0x78>
  64:	2134      	movs	r1, #52	; 0x34
  66:	481c      	ldr	r0, [pc, #112]	; (d8 <_ZN17Adafruit_ICM209488setupMagEv+0xd8>)
  68:	f7ff fffe 	bl	0 <usb_serial_write>
  6c:	481b      	ldr	r0, [pc, #108]	; (dc <_ZN17Adafruit_ICM209488setupMagEv+0xdc>)
  6e:	f7ff fffe 	bl	0 <_ZN5Print7printlnEv>
  72:	4628      	mov	r0, r5
  74:	b005      	add	sp, #20
  76:	bd30      	pop	{r4, r5, pc}
  78:	2103      	movs	r1, #3
  7a:	4620      	mov	r0, r4
  7c:	f7ff fffe 	bl	0 <_ZN15Adafruit_ICM20X8_setBankEh>
  80:	2500      	movs	r5, #0
  82:	f648 4203 	movw	r2, #35843	; 0x8c03
  86:	2301      	movs	r3, #1
  88:	a903      	add	r1, sp, #12
  8a:	f8ad 200c 	strh.w	r2, [sp, #12]
  8e:	2202      	movs	r2, #2
  90:	e9cd 5500 	strd	r5, r5, [sp]
  94:	6ae0      	ldr	r0, [r4, #44]	; 0x2c
  96:	f7ff fffe 	bl	0 <_ZN18Adafruit_I2CDevice5writeEPKhjbS1_j>
  9a:	2800      	cmp	r0, #0
  9c:	d0cb      	beq.n	36 <_ZN17Adafruit_ICM209488setupMagEv+0x36>
  9e:	f241 0204 	movw	r2, #4100	; 0x1004
  a2:	2301      	movs	r3, #1
  a4:	a903      	add	r1, sp, #12
  a6:	f8ad 200c 	strh.w	r2, [sp, #12]
  aa:	2202      	movs	r2, #2
  ac:	e9cd 5500 	strd	r5, r5, [sp]
  b0:	6ae0      	ldr	r0, [r4, #44]	; 0x2c
  b2:	f7ff fffe 	bl	0 <_ZN18Adafruit_I2CDevice5writeEPKhjbS1_j>
  b6:	2800      	cmp	r0, #0
  b8:	d0bd      	beq.n	36 <_ZN17Adafruit_ICM209488setupMagEv+0x36>
  ba:	f648 1205 	movw	r2, #35077	; 0x8905
  be:	6ae0      	ldr	r0, [r4, #44]	; 0x2c
  c0:	2301      	movs	r3, #1
  c2:	a903      	add	r1, sp, #12
  c4:	f8ad 200c 	strh.w	r2, [sp, #12]
  c8:	2202      	movs	r2, #2
  ca:	e9cd 5500 	strd	r5, r5, [sp]
  ce:	f7ff fffe 	bl	0 <_ZN18Adafruit_I2CDevice5writeEPKhjbS1_j>
  d2:	4605      	mov	r5, r0
  d4:	e7b0      	b.n	38 <_ZN17Adafruit_ICM209488setupMagEv+0x38>
  d6:	bf00      	nop
  d8:	00000000 	.word	0x00000000
  dc:	00000000 	.word	0x00000000

Disassembly of section .text._ZN17Adafruit_ICM209489begin_I2CEhP7TwoWirel:

00000000 <_ZN17Adafruit_ICM209489begin_I2CEhP7TwoWirel>:
   0:	b570      	push	{r4, r5, r6, lr}
   2:	4605      	mov	r5, r0
   4:	6ac0      	ldr	r0, [r0, #44]	; 0x2c
   6:	b082      	sub	sp, #8
   8:	460c      	mov	r4, r1
   a:	461e      	mov	r6, r3
   c:	b120      	cbz	r0, 18 <_ZN17Adafruit_ICM209489begin_I2CEhP7TwoWirel+0x18>
   e:	2110      	movs	r1, #16
  10:	9201      	str	r2, [sp, #4]
  12:	f7ff fffe 	bl	0 <_ZdlPvj>
  16:	9a01      	ldr	r2, [sp, #4]
  18:	2010      	movs	r0, #16
  1a:	9201      	str	r2, [sp, #4]
  1c:	f7ff fffe 	bl	0 <_Znwj>
  20:	4621      	mov	r1, r4
  22:	4604      	mov	r4, r0
  24:	9a01      	ldr	r2, [sp, #4]
  26:	f7ff fffe 	bl	0 <_ZN18Adafruit_I2CDeviceC1EhP7TwoWire>
  2a:	2101      	movs	r1, #1
  2c:	4620      	mov	r0, r4
  2e:	62ec      	str	r4, [r5, #44]	; 0x2c
  30:	f7ff fffe 	bl	0 <_ZN18Adafruit_I2CDevice5beginEb>
  34:	4604      	mov	r4, r0
  36:	b160      	cbz	r0, 52 <_ZN17Adafruit_ICM209489begin_I2CEhP7TwoWirel+0x52>
  38:	4631      	mov	r1, r6
  3a:	4628      	mov	r0, r5
  3c:	f7ff fffe 	bl	0 <_ZN15Adafruit_ICM20X5_initEl>
  40:	4604      	mov	r4, r0
  42:	4628      	mov	r0, r5
  44:	f7ff fffe 	bl	0 <_ZN17Adafruit_ICM209489begin_I2CEhP7TwoWirel>
  48:	4603      	mov	r3, r0
  4a:	b160      	cbz	r0, 66 <_ZN17Adafruit_ICM209489begin_I2CEhP7TwoWirel+0x66>
  4c:	4620      	mov	r0, r4
  4e:	b002      	add	sp, #8
  50:	bd70      	pop	{r4, r5, r6, pc}
  52:	2110      	movs	r1, #16
  54:	4809      	ldr	r0, [pc, #36]	; (7c <_ZN17Adafruit_ICM209489begin_I2CEhP7TwoWirel+0x7c>)
  56:	f7ff fffe 	bl	0 <usb_serial_write>
  5a:	4809      	ldr	r0, [pc, #36]	; (80 <_ZN17Adafruit_ICM209489begin_I2CEhP7TwoWirel+0x80>)
  5c:	f7ff fffe 	bl	0 <_ZN5Print7printlnEv>
  60:	4620      	mov	r0, r4
  62:	b002      	add	sp, #8
  64:	bd70      	pop	{r4, r5, r6, pc}
  66:	461c      	mov	r4, r3
  68:	2113      	movs	r1, #19
  6a:	4806      	ldr	r0, [pc, #24]	; (84 <_ZN17Adafruit_ICM209489begin_I2CEhP7TwoWirel+0x84>)
  6c:	f7ff fffe 	bl	0 <usb_serial_write>
  70:	4803      	ldr	r0, [pc, #12]	; (80 <_ZN17Adafruit_ICM209489begin_I2CEhP7TwoWirel+0x80>)
  72:	f7ff fffe 	bl	0 <_ZN5Print7printlnEv>
  76:	4620      	mov	r0, r4
  78:	b002      	add	sp, #8
  7a:	bd70      	pop	{r4, r5, r6, pc}
  7c:	00000000 	.word	0x00000000
  80:	00000000 	.word	0x00000000
  84:	00000014 	.word	0x00000014

Disassembly of section .text._ZN17Adafruit_ICM2094815readMagRegisterEh:

00000000 <_ZN17Adafruit_ICM2094815readMagRegisterEh>:
   0:	460a      	mov	r2, r1
   2:	218c      	movs	r1, #140	; 0x8c
   4:	f7ff bffe 	b.w	0 <_ZN15Adafruit_ICM20X20readExternalRegisterEhh>

Disassembly of section .text._ZN17Adafruit_ICM2094816writeMagRegisterEhh:

00000000 <_ZN17Adafruit_ICM2094816writeMagRegisterEhh>:
   0:	468c      	mov	ip, r1
   2:	4613      	mov	r3, r2
   4:	210c      	movs	r1, #12
   6:	4662      	mov	r2, ip
   8:	f7ff bffe 	b.w	0 <_ZN15Adafruit_ICM20X21writeExternalRegisterEhhh>

Disassembly of section .text._ZN17Adafruit_ICM2094813getAccelRangeEv:

00000000 <_ZN17Adafruit_ICM2094813getAccelRangeEv>:
   0:	f7ff bffe 	b.w	0 <_ZN15Adafruit_ICM20X14readAccelRangeEv>

Disassembly of section .text._ZN17Adafruit_ICM2094813setAccelRangeE22icm20948_accel_range_t:

00000000 <_ZN17Adafruit_ICM2094813setAccelRangeE22icm20948_accel_range_t>:
   0:	f7ff bffe 	b.w	0 <_ZN15Adafruit_ICM20X15writeAccelRangeEh>

Disassembly of section .text._ZN17Adafruit_ICM2094812getGyroRangeEv:

00000000 <_ZN17Adafruit_ICM2094812getGyroRangeEv>:
   0:	f7ff bffe 	b.w	0 <_ZN15Adafruit_ICM20X13readGyroRangeEv>

Disassembly of section .text._ZN17Adafruit_ICM2094812setGyroRangeE21icm20948_gyro_range_t:

00000000 <_ZN17Adafruit_ICM2094812setGyroRangeE21icm20948_gyro_range_t>:
   0:	f7ff bffe 	b.w	0 <_ZN15Adafruit_ICM20X14writeGyroRangeEh>

Disassembly of section .text._ZN17Adafruit_ICM2094814getMagDataRateEv:

00000000 <_ZN17Adafruit_ICM2094814getMagDataRateEv>:
   0:	2231      	movs	r2, #49	; 0x31
   2:	218c      	movs	r1, #140	; 0x8c
   4:	f7ff bffe 	b.w	0 <_ZN15Adafruit_ICM20X20readExternalRegisterEhh>

Disassembly of section .text._ZN17Adafruit_ICM2094814setMagDataRateE19ak09916_data_rate_t:

00000000 <_ZN17Adafruit_ICM2094814setMagDataRateE19ak09916_data_rate_t>:
   0:	b570      	push	{r4, r5, r6, lr}
   2:	2231      	movs	r2, #49	; 0x31
   4:	460e      	mov	r6, r1
   6:	2300      	movs	r3, #0
   8:	210c      	movs	r1, #12
   a:	4605      	mov	r5, r0
   c:	f7ff fffe 	bl	0 <_ZN15Adafruit_ICM20X21writeExternalRegisterEhhh>
  10:	4604      	mov	r4, r0
  12:	2001      	movs	r0, #1
  14:	f7ff fffe 	bl	0 <delay>
  18:	4633      	mov	r3, r6
  1a:	2231      	movs	r2, #49	; 0x31
  1c:	210c      	movs	r1, #12
  1e:	4628      	mov	r0, r5
  20:	f7ff fffe 	bl	0 <_ZN15Adafruit_ICM20X21writeExternalRegisterEhhh>
  24:	4020      	ands	r0, r4
  26:	b2c0      	uxtb	r0, r0
  28:	bd70      	pop	{r4, r5, r6, pc}
  2a:	bf00      	nop
