
build/./libraries/QNEthernet/src/lwip/tcp_out.c.o:     file format elf32-littlearm

SYMBOL TABLE:
00000000 l    df *ABS*	00000000 tcp_out.c
00000000 l    d  .text	00000000 .text
00000000 l    d  .data	00000000 .data
00000000 l    d  .bss	00000000 .bss
00000000 l    d  .rodata.tcp_pbuf_prealloc.str1.4	00000000 .rodata.tcp_pbuf_prealloc.str1.4
00000000 l    d  .text.tcp_pbuf_prealloc	00000000 .text.tcp_pbuf_prealloc
00000000 l     F .text.tcp_pbuf_prealloc	00000094 tcp_pbuf_prealloc
00000000 l    d  .rodata.tcp_create_segment.str1.4	00000000 .rodata.tcp_create_segment.str1.4
00000000 l    d  .text.tcp_create_segment	00000000 .text.tcp_create_segment
00000000 l     F .text.tcp_create_segment	000000fc tcp_create_segment
00000000 l    d  .rodata.tcp_output_segment_busy.part.0.str1.4	00000000 .rodata.tcp_output_segment_busy.part.0.str1.4
00000000 l    d  .text.tcp_output_segment_busy.part.0	00000000 .text.tcp_output_segment_busy.part.0
00000000 l     F .text.tcp_output_segment_busy.part.0	0000002c tcp_output_segment_busy.part.0
00000000 l    d  .rodata.tcp_output_control_segment_netif.part.0.str1.4	00000000 .rodata.tcp_output_control_segment_netif.part.0.str1.4
00000000 l    d  .text.tcp_output_control_segment_netif.part.0	00000000 .text.tcp_output_control_segment_netif.part.0
00000000 l     F .text.tcp_output_control_segment_netif.part.0	0000002c tcp_output_control_segment_netif.part.0
00000000 l    d  .rodata.tcp_rexmit_rto_commit.part.0.str1.4	00000000 .rodata.tcp_rexmit_rto_commit.part.0.str1.4
00000000 l    d  .text.tcp_rexmit_rto_commit.part.0	00000000 .text.tcp_rexmit_rto_commit.part.0
00000000 l     F .text.tcp_rexmit_rto_commit.part.0	0000002c tcp_rexmit_rto_commit.part.0
00000000 l    d  .rodata.tcp_output_alloc_header.constprop.0.str1.4	00000000 .rodata.tcp_output_alloc_header.constprop.0.str1.4
00000000 l    d  .text.tcp_output_alloc_header.constprop.0	00000000 .text.tcp_output_alloc_header.constprop.0
00000000 l     F .text.tcp_output_alloc_header.constprop.0	000000a0 tcp_output_alloc_header.constprop.0
00000000 l    d  .rodata.tcp_output_fill_options.constprop.0.str1.4	00000000 .rodata.tcp_output_fill_options.constprop.0.str1.4
00000000 l    d  .text.tcp_output_fill_options.constprop.0	00000000 .text.tcp_output_fill_options.constprop.0
00000000 l     F .text.tcp_output_fill_options.constprop.0	00000034 tcp_output_fill_options.constprop.0
00000000 l    d  .rodata.tcp_output_control_segment.str1.4	00000000 .rodata.tcp_output_control_segment.str1.4
00000000 l    d  .text.tcp_output_control_segment	00000000 .text.tcp_output_control_segment
00000000 l     F .text.tcp_output_control_segment	0000009c tcp_output_control_segment
00000000 l    d  .rodata.tcp_rst_common.isra.0.str1.4	00000000 .rodata.tcp_rst_common.isra.0.str1.4
00000000 l    d  .text.tcp_rst_common.isra.0	00000000 .text.tcp_rst_common.isra.0
00000000 l     F .text.tcp_rst_common.isra.0	000000ac tcp_rst_common.isra.0
00000000 l    d  .rodata.tcp_write.str1.4	00000000 .rodata.tcp_write.str1.4
00000000 l    d  .text.tcp_write	00000000 .text.tcp_write
00000000 l    d  .rodata.tcp_split_unsent_seg.str1.4	00000000 .rodata.tcp_split_unsent_seg.str1.4
00000000 l    d  .text.tcp_split_unsent_seg	00000000 .text.tcp_split_unsent_seg
00000000 l    d  .rodata.tcp_enqueue_flags.str1.4	00000000 .rodata.tcp_enqueue_flags.str1.4
00000000 l    d  .text.tcp_enqueue_flags	00000000 .text.tcp_enqueue_flags
00000000 l    d  .rodata.tcp_send_fin.str1.4	00000000 .rodata.tcp_send_fin.str1.4
00000000 l    d  .text.tcp_send_fin	00000000 .text.tcp_send_fin
00000000 l    d  .rodata.tcp_rexmit_rto_prepare.str1.4	00000000 .rodata.tcp_rexmit_rto_prepare.str1.4
00000000 l    d  .text.tcp_rexmit_rto_prepare	00000000 .text.tcp_rexmit_rto_prepare
00000000 l    d  .rodata.tcp_rexmit.str1.4	00000000 .rodata.tcp_rexmit.str1.4
00000000 l    d  .text.tcp_rexmit	00000000 .text.tcp_rexmit
00000000 l    d  .rodata.tcp_rexmit_fast.str1.4	00000000 .rodata.tcp_rexmit_fast.str1.4
00000000 l    d  .text.tcp_rexmit_fast	00000000 .text.tcp_rexmit_fast
00000000 l    d  .text.tcp_rst	00000000 .text.tcp_rst
00000000 l    d  .text.tcp_rst_netif	00000000 .text.tcp_rst_netif
00000000 l    d  .rodata.tcp_send_empty_ack.str1.4	00000000 .rodata.tcp_send_empty_ack.str1.4
00000000 l    d  .text.tcp_send_empty_ack	00000000 .text.tcp_send_empty_ack
00000000 l    d  .rodata.tcp_output.str1.4	00000000 .rodata.tcp_output.str1.4
00000000 l    d  .text.tcp_output	00000000 .text.tcp_output
00000000 l    d  .text.tcp_rexmit_rto_commit	00000000 .text.tcp_rexmit_rto_commit
00000000 l    d  .rodata.tcp_rexmit_rto.str1.4	00000000 .rodata.tcp_rexmit_rto.str1.4
00000000 l    d  .text.tcp_rexmit_rto	00000000 .text.tcp_rexmit_rto
00000000 l    d  .rodata.tcp_keepalive.str1.4	00000000 .rodata.tcp_keepalive.str1.4
00000000 l    d  .text.tcp_keepalive	00000000 .text.tcp_keepalive
00000000 l    d  .rodata.tcp_zero_window_probe.str1.4	00000000 .rodata.tcp_zero_window_probe.str1.4
00000000 l    d  .text.tcp_zero_window_probe	00000000 .text.tcp_zero_window_probe
00000000 l    d  .rodata.__FUNCTION__.0	00000000 .rodata.__FUNCTION__.0
00000000 l     O .rodata.__FUNCTION__.0	0000000b __FUNCTION__.0
00000000 l    d  .rodata.__FUNCTION__.1	00000000 .rodata.__FUNCTION__.1
00000000 l     O .rodata.__FUNCTION__.1	0000000a __FUNCTION__.1
00000000 l    d  .comment	00000000 .comment
00000000 l    d  .ARM.attributes	00000000 .ARM.attributes
00000000         *UND*	00000000 pbuf_alloc
00000000         *UND*	00000000 printf
00000000         *UND*	00000000 fflush
00000000         *UND*	00000000 qnethernet_hal_stdio_flush
00000000         *UND*	00000000 abort
00000000         *UND*	00000000 memp_malloc
00000000         *UND*	00000000 pbuf_add_header
00000000         *UND*	00000000 tcp_seg_free
00000000         *UND*	00000000 pbuf_free
00000000         *UND*	00000000 ip4_route
00000000         *UND*	00000000 ip4_output_if
00000000         *UND*	00000000 netif_get_by_index
00000000 g     F .text.tcp_write	00000594 tcp_write
00000000         *UND*	00000000 qnethernet_hal_check_core_locking
00000000         *UND*	00000000 pbuf_cat
00000000         *UND*	00000000 pbuf_clen
00000000         *UND*	00000000 memcpy
00000000         *UND*	00000000 tcp_segs_free
00000000 g     F .text.tcp_split_unsent_seg	00000184 tcp_split_unsent_seg
00000000         *UND*	00000000 pbuf_copy_partial
00000000         *UND*	00000000 pbuf_realloc
00000000 g     F .text.tcp_enqueue_flags	0000012c tcp_enqueue_flags
00000000 g     F .text.tcp_send_fin	00000068 tcp_send_fin
00000000 g     F .text.tcp_rexmit_rto_prepare	0000008c tcp_rexmit_rto_prepare
00000000 g     F .text.tcp_rexmit	0000008c tcp_rexmit
00000000 g     F .text.tcp_rexmit_fast	00000080 tcp_rexmit_fast
00000000 g     F .text.tcp_rst	0000003e tcp_rst
00000000 g     F .text.tcp_rst_netif	0000004e tcp_rst_netif
00000000 g     F .text.tcp_send_empty_ack	00000070 tcp_send_empty_ack
00000000 g     F .text.tcp_output	00000360 tcp_output
00000000         *UND*	00000000 tcp_eff_send_mss_netif
00000000         *UND*	00000000 tcp_input_pcb
00000000         *UND*	00000000 tcp_ticks
00000000 g     F .text.tcp_rexmit_rto_commit	0000001e tcp_rexmit_rto_commit
00000000 g     F .text.tcp_rexmit_rto	00000050 tcp_rexmit_rto
00000000 g     F .text.tcp_keepalive	0000005c tcp_keepalive
00000000 g     F .text.tcp_zero_window_probe	000000c4 tcp_zero_window_probe


Contents of section .rodata.tcp_pbuf_prealloc.str1.4:
 0000 6c696272 61726965 732f514e 45746865  libraries/QNEthe
 0010 726e6574 2f737263 2f6c7769 702f7463  rnet/src/lwip/tc
 0020 705f6f75 742e6300 7463705f 70627566  p_out.c.tcp_pbuf
 0030 5f707265 616c6c6f 633a2069 6e76616c  _prealloc: inval
 0040 69642070 63620000 41737365 7274696f  id pcb..Assertio
 0050 6e202225 73222066 61696c65 64206174  n "%s" failed at
 0060 206c696e 65202564 20696e20 25730a00   line %d in %s..
 0070 6e656564 20756e63 6861696e 65642070  need unchained p
 0080 62756600                             buf.            
Contents of section .text.tcp_pbuf_prealloc:
 0000 70b5049d 0c461e46 9df81810 9df81430  p....F.F.......0
 0010 25b39442 0dd32146 4ff42072 fff7feff  %..B..!FO. r....
 0020 30b10368 43bb4389 1b1b3380 04814481  0..hC.C...3...D.
 0030 70bd9b07 05d46b8b 5b06ecd4 09b1eb6e  p.....k.[......n
 0040 43b104f2 b75121f0 03019142 28bf1146  C....Q!....B(..F
 0050 89b2e1e7 2b6f002b f3d1dce7 094bec22  ....+o.+.....K."
 0060 09490a48 fff7feff 0020fff7 feff0120  .I.H..... ..... 
 0070 fff7feff fff7feff 024b4ff4 87720449  .........KO..r.I
 0080 efe700bf 00000000 28000000 48000000  ........(...H...
 0090 70000000                             p...            
Contents of section .rodata.tcp_create_segment.str1.4:
 0000 7463705f 63726561 74655f73 65676d65  tcp_create_segme
 0010 6e743a20 696e7661 6c696420 70636200  nt: invalid pcb.
 0020 7463705f 63726561 74655f73 65676d65  tcp_create_segme
 0030 6e743a20 696e7661 6c696420 70627566  nt: invalid pbuf
 0040 00000000 702d3e74 6f745f6c 656e203e  ....p->tot_len >
 0050 3d206f70 746c656e 00                 = optlen.       
Contents of section .text.tcp_create_segment:
 0000 2de9f047 06469df8 20a00028 4fd00f46  -..G.F.. ..(O..F
 0010 00293ed0 4fea8a04 03209146 984604f0  .)>.O.... .F.F..
 0020 0404fff7 feff0546 78b380f8 0aa04ff0  .......Fx.....O.
 0030 000a3b89 a2b24760 a342c0f8 00a044d3  ..;...G`.B....D.
 0040 9b1a1421 03813846 fff7feff c0b9a402  ...!..8F........
 0050 6b68f18a 98fa88f8 04f5a044 49ba44ea  kh.........DI.D.
 0060 090254ba 5a68338b ea605bba c2f80480  ..T.Zh3..`[.....
 0070 94811180 9074d074 53802846 bde8f087  .....t.tS.(F....
 0080 28465546 fff7feff f7e73846 fff7feff  (FUF......8F....
 0090 f3e7154b a7221549 1548fff7 feff3846  ...K.".I.H....8F
 00a0 fff7feff 0120fff7 fefffff7 feff0e4b  ..... .........K
 00b0 a6221049 0e48fff7 feff3046 fff7feff  .".I.H....0F....
 00c0 0120fff7 fefffff7 feff074b b3220a49  . .........K.".I
 00d0 0748fff7 feff5046 fff7feff 0120fff7  .H....PF..... ..
 00e0 fefffff7 feff00bf 00000000 20000000  ............ ...
 00f0 48000000 00000000 44000000           H.......D...    
Contents of section .rodata.tcp_output_segment_busy.part.0.str1.4:
 0000 7463705f 6f757470 75745f73 65676d65  tcp_output_segme
 0010 6e745f62 7573793a 20696e76 616c6964  nt_busy: invalid
 0020 20736567 00                           seg.           
Contents of section .text.tcp_output_segment_busy.part.0:
 0000 08b540f2 9e52064b 06490748 fff7feff  ..@..R.K.I.H....
 0010 0020fff7 feff0120 fff7feff fff7feff  . ..... ........
 0020 00000000 00000000 48000000           ........H...    
Contents of section .rodata.tcp_output_control_segment_netif.part.0.str1.4:
 0000 7463705f 6f757470 75745f63 6f6e7472  tcp_output_contr
 0010 6f6c5f73 65676d65 6e745f6e 65746966  ol_segment_netif
 0020 3a206e6f 206e6574 69662067 6976656e  : no netif given
 0030 00                                   .               
Contents of section .text.tcp_output_control_segment_netif.part.0:
 0000 08b540f2 a172064b 06490748 fff7feff  ..@..r.K.I.H....
 0010 0020fff7 feff0120 fff7feff fff7feff  . ..... ........
 0020 00000000 00000000 48000000           ........H...    
Contents of section .rodata.tcp_rexmit_rto_commit.part.0.str1.4:
 0000 7463705f 7265786d 69745f72 746f5f63  tcp_rexmit_rto_c
 0010 6f6d6d69 743a2069 6e76616c 69642070  ommit: invalid p
 0020 636200                               cb.             
Contents of section .text.tcp_rexmit_rto_commit.part.0:
 0000 08b540f2 9c62064b 06490748 fff7feff  ..@..b.K.I.H....
 0010 0020fff7 feff0120 fff7feff fff7feff  . ..... ........
 0020 00000000 00000000 48000000           ........H...    
Contents of section .rodata.tcp_output_alloc_header.constprop.0.str1.4:
 0000 7463705f 6f757470 75745f61 6c6c6f63  tcp_output_alloc
 0010 5f686561 6465723a 20696e76 616c6964  _header: invalid
 0020 20706362 00000000 63686563 6b207468   pcb....check th
 0030 61742066 69727374 20706275 66206361  at first pbuf ca
 0040 6e20686f 6c642073 74727563 74207463  n hold struct tc
 0050 705f6864 7200                        p_hdr.          
Contents of section .text.tcp_output_alloc_header.constprop.0:
 0000 2de9f843 044670b3 14311546 476a4ff4  -..C.Fp..1.FGjO.
 0010 2072b0f8 169089b2 2420b4f8 1880668d   r......$ ....f.
 0020 fff7feff e8b14389 132b2bd9 628d99fa  ......C..++.b...
 0030 99f9636a 98fa98f8 3fba76ba 99184368  ..cj....?.v...Ch
 0040 0022a3f8 00901a74 5a749a74 da745022  .".....tZt.t.tP"
 0050 a3f80280 1a731022 5d609f60 de815a73  .....s."]`.`..Zs
 0060 e162bde8 f8830a4b 40f24672 09490a48  .b.....K@.Fr.I.H
 0070 fff7feff 0020fff7 feff0120 fff7feff  ..... ..... ....
 0080 fff7feff 024b40f2 27720449 efe700bf  .....K@.'r.I....
 0090 00000000 00000000 48000000 28000000  ........H...(...
Contents of section .rodata.tcp_output_fill_options.constprop.0.str1.4:
 0000 7463705f 6f757470 75745f66 696c6c5f  tcp_output_fill_
 0010 6f707469 6f6e733a 20696e76 616c6964  options: invalid
 0020 20706275 6600                         pbuf.          
Contents of section .text.tcp_output_fill_options.constprop.0:
 0000 00b17047 10b50446 074b40f2 5a720749  ..pG...F.K@.Zr.I
 0010 0748fff7 feff2046 fff7feff 0120fff7  .H.... F..... ..
 0020 fefffff7 feff00bf 00000000 00000000  ................
 0030 48000000                             H...            
Contents of section .rodata.tcp_output_control_segment.str1.4:
 0000 7463705f 6f757470 75745f63 6f6e7472  tcp_output_contr
 0010 6f6c5f73 65676d65 6e743a20 696e7661  ol_segment: inva
 0020 6c696420 70627566 00                 lid pbuf.       
Contents of section .text.tcp_output_control_segment:
 0000 70b50d46 86b00029 32d00446 164630b3  p..F...)2..F.F0.
 0010 007ab0b9 18460593 fff7feff 059ab0b1  .z...F..........
 0020 e37aa47a 00940624 31460290 01942846  .z.z...$1F....(F
 0030 fff7feff 04462846 fff7feff 204606b0  .....F(F.... F..
 0040 70bd0593 fff7feff 059a0028 e8d16ff0  p..........(..o.
 0050 03042846 fff7feff 204606b0 70bd1846  ..(F.... F..p..F
 0060 0593fff7 feff0028 f1d0ff23 059ad9e7  .......(...#....
 0070 074b40f2 8a720749 0748fff7 feff2846  .K@..r.I.H....(F
 0080 fff7feff 0120fff7 fefffff7 feff00bf  ..... ..........
 0090 00000000 00000000 48000000           ........H...    
Contents of section .rodata.tcp_rst_common.isra.0.str1.4:
 0000 7463705f 7273743a 20696e76 616c6964  tcp_rst: invalid
 0010 206c6f63 616c5f69 70000000 7463705f   local_ip...tcp_
 0020 7273743a 20696e76 616c6964 2072656d  rst: invalid rem
 0030 6f74655f 697000                      ote_ip.         
Contents of section .text.tcp_rst_common.isra.0:
 0000 2de9f041 bdf81880 bdf81c70 52b3c3b3  -..A.......pR...
 0010 0e464ff4 207205ba 14212420 fff7feff  .FO. r...!$ ....
 0020 0446e0b1 4389132b 30d94368 00225021  .F..C..+0.Ch."P!
 0030 98fa98f8 1a747fba 5a7436ba 9a74da74  .....t..Zt6..t.t
 0040 14221973 6ff02f01 5a731622 a3f80080  .".so./.Zs."....
 0050 5f805d60 9e609973 da73fff7 feff2046  _.]`.`.s.s.... F
 0060 bde8f081 0c4b40f2 c4720c49 0c48fff7  .....K@..r.I.H..
 0070 feff0020 fff7feff 0120fff7 fefffff7  ... ..... ......
 0080 feff054b 40f2c572 0649efe7 024b40f2  ...K@..r.I...K@.
 0090 27720549 eae700bf 00000000 00000000  'r.I............
 00a0 48000000 1c000000 28000000           H.......(...    
Contents of section .rodata.tcp_write.str1.4:
 0000 7463705f 77726974 653a2070 62756673  tcp_write: pbufs
 0010 206f6e20 71756575 65203d3e 20617420   on queue => at 
 0020 6c656173 74206f6e 65207175 65756520  least one queue 
 0030 6e6f6e2d 656d7074 79000000 7463705f  non-empty...tcp_
 0040 77726974 653a206e 6f207062 75667320  write: no pbufs 
 0050 6f6e2071 75657565 203d3e20 626f7468  on queue => both
 0060 20717565 75657320 656d7074 79000000   queues empty...
 0070 6d73735f 6c6f6361 6c206973 20746f6f  mss_local is too
 0080 20736d61 6c6c0000 696e636f 6e736973   small..inconsis
 0090 74656e74 206f7665 7273697a 65207673  tent oversize vs
 00a0 2e207370 61636500 696e636f 6e736973  . space.inconsis
 00b0 74656e74 206f7665 7273697a 65207673  tent oversize vs
 00c0 2e206c65 6e000000 7463705f 77726974  . len...tcp_writ
 00d0 653a2052 4f4d2070 62756673 2063616e  e: ROM pbufs can
 00e0 6e6f7420 6265206f 76657273 697a6564  not be oversized
 00f0 00000000 756e7365 6e745f6f 76657273  ....unsent_overs
 0100 697a6520 6d69736d 61746368 20287063  ize mismatch (pc
 0110 622d3e75 6e73656e 74206973 204e554c  b->unsent is NUL
 0120 4c290000 7463705f 77726974 653a2063  L)..tcp_write: c
 0130 6865636b 20746861 74206669 72737420  heck that first 
 0140 70627566 2063616e 20686f6c 64207468  pbuf can hold th
 0150 6520636f 6d706c65 74652073 65676c65  e complete segle
 0160 6e000000 6f766572 73697a65 203d3d20  n...oversize == 
 0170 30000000 70726576 5f736567 20213d20  0...prev_seg != 
 0180 4e554c4c 00000000 7463705f 77726974  NULL....tcp_writ
 0190 653a2063 616e6e6f 7420636f 6e636174  e: cannot concat
 01a0 656e6174 65207768 656e2070 63622d3e  enate when pcb->
 01b0 756e7365 6e742069 7320656d 70747900  unsent is empty.
 01c0 7463705f 77726974 653a2065 7874656e  tcp_write: exten
 01d0 73696f6e 206f6620 72656665 72656e63  sion of referenc
 01e0 65207265 71756972 65732072 65666572  e requires refer
 01f0 656e6365 00000000 7463705f 77726974  ence....tcp_writ
 0200 653a2076 616c6964 20717565 7565206c  e: valid queue l
 0210 656e6774 6800                        ength.          
Contents of section .text.tcp_write:
 0000 2de9f04f 002491b0 cde90713 adf83e40  -..O.$........>@
 0010 002800f0 6182b0f8 62309246 428e0d46  .(..a...b0.FB..F
 0020 5b088146 40f2a711 a5489342 28bf1346  [..F@....H.B(..F
 0030 9b46a342 08bf9346 a24afff7 feff002d  .F.B...F.J.....-
 0040 00f04a82 99f81430 9a1e022a 02d9072b  ..J....0...*...+
 0050 40f02182 baf1000f 00f08f80 b9f86430  @.!...........d0
 0060 5345c0f0 3082b9f8 66600f2e 00f22b82  SE..0...f`....+.
 0070 d9f87030 9eb9002b 40f04c82 d9f86c30  ..p0...+@.L...l0
 0080 002b40f0 4782b9f8 6860002e 40f00682  .+@.G...h`..@...
 0090 00231c46 0c930993 cde90a33 77e0002b  .#.F.......3w..+
 00a0 00f09d81 d9f86c80 b8f1000f 00f03782  ......l.......7.
 00b0 43461a46 1b68002b fbd19846 937a1189  CF.F.h.+...F.z..
 00c0 9b000a92 03f00403 ca189345 c0f21882  ...........E....
 00d0 abeb0102 d21ab9f8 683092b2 0993adf8  ........h0......
 00e0 3e30002b 00f0ea80 934200f2 2b820998  >0.+.....B..+...
 00f0 50450346 28bf5346 934228bf 1346c01a  PE.F(.SF.B(..F..
 0100 d21a80b2 92b2adf8 3e0010b1 9a4540f0  ........>....E@.
 0110 14820a9f 0993099b 002a18bf 9a452fd9  .........*...E/.
 0120 71b3aaeb 0304089b 9442a8bf 1446d907  q........B...F..
 0130 a5b200f1 ec800a9b 5a681346 1268002a  ........Zh.F.h.*
 0140 fbd10b92 1a7b12f0 c00f06d1 5a895b68  .....{......Z.[h
 0150 1344079a 9a4200f0 b2810122 29460020  .D...B.....")F. 
 0160 fff7feff 0b900028 40f09d81 b9f81a30  .......(@......0
 0170 43f08003 a9f81a30 b9e0b9f8 666091e7  C......0....f`..
 0180 0023099c 0b930c93 a24540f2 8580089b  .#.......E@.....
 0190 4ff00008 03f00103 cde9048b 0d939b46  O..............F
 01a0 3ee0bdf8 3e30002b 40f09981 01222946  >...>0.+@....")F
 01b0 3820fff7 feff0028 00f08680 079a5946  8 .....(......YF
 01c0 06902244 42604ff4 20723820 fff7feff  .."DB`O. r8 ....
 01d0 069b0746 002800f0 0d811946 fff7feff  ...F.(.....F....
 01e0 3846fff7 feff3044 86b2102e 46d8d9f8  8F....0D....F...
 01f0 5c300022 39464846 23440092 fff7feff  \0."9FHF#D......
 0200 002861d0 049b002b 3ed0b8f1 000f00f0  .(a....+>.......
 0210 6d812544 c8f80000 acb2a245 39d98046  m.%D.......E9..F
 0220 aaeb0405 059badb2 9d4228bf 1d46adb2  .........B(..F..
 0230 bbf1000f b5d0089b 2946059a 3820cde9  ........)F..8 ..
 0240 0093049b b3fa83f3 5b090293 0df13e03  ........[.....>.
 0250 fff7feff 07460028 36d04389 ab42c0f0  .....F.(6.C..B..
 0260 4a81079b 2a464068 1919fff7 feff3846  J...*F@h......8F
 0270 fff7feff 304486b2 102eb8d9 3846ddf8  ....0D......8F..
 0280 1080fff7 feff21e0 25440490 acb2a245  ......!.%D.....E
 0290 c5d8ddf8 10800746 099b002b 00f0b080  .......F...+....
 02a0 0a9a5468 002c61d0 9b46079d 23895b44  ..Th.,a..F..#.[D
 02b0 23812368 002b4cd0 1c46f7e7 47462ae7  #.#h.+L..F..GF*.
 02c0 00000000 00000000 ddf81080 b9f81a30  ...............0
 02d0 43f08003 a9f81a30 0b9b13b1 1846fff7  C......0.....F..
 02e0 feffb8f1 000f02d0 4046fff7 feffb9f8  ........@F......
 02f0 66303bb1 d9f87030 23b9d9f8 6c40002c  f0;...p0#...l@.,
 0300 00f02581 4ff0ff30 11b0bde8 f08fcde9  ..%.O..0........
 0310 00930123 29460020 02930df1 3e03fff7  ...#)F. ....>...
 0320 feff0b90 00283ff4 21af079b 04460999  .....(?.!....F..
 0330 2a464068 5918fff7 feff2046 fff7feff  *F@hY..... F....
 0340 30440023 86b20c93 099b0a9f ec18a4b2  0D.#............
 0350 1ae76389 5a466068 29461844 fff7feff  ..c.ZF`h)F.D....
 0360 63895b44 63812368 002ba5d1 0a9a0999  c.[Dc.#h.+......
 0370 13891944 bdf83e30 1181a9f8 68300b9b  ...D..>0....h0..
 0380 002b5fd0 0a9c0b9d 60682946 fff7feff  .+_.....`h)F....
 0390 2a892389 13442381 0a9bc3f8 0080d9f8  *.#..D#.........
 03a0 5c30a9f8 66605344 c9f85c30 b9f86430  \0..f`SD..\0..d0
 03b0 a3eb0a03 a9f86430 1eb1d9f8 7030002b  ......d0....p0.+
 03c0 37d057b1 fb6843b1 089a12f0 020004d1  7.W..hC.........
 03d0 9a8942f4 00629a81 96e70020 94e7d9f8  ..B..b..... ....
 03e0 6c80b8f1 000f7ff4 63ae5b4b 4ff4ac72  l.......c.[KO..r
 03f0 5a4913e0 1846ddf8 1080fff7 feff65e7  ZI...F........e.
 0400 bdf83e30 a9f86830 0b9b002b 39d00a9b  ..>0..h0...+9...
 0410 002bb7d1 504b40f2 e3225149 5148fff7  .+..PK@.."QIQH..
 0420 feff0020 fff7feff 0120fff7 fefffff7  ... ..... ......
 0430 feffd9f8 6c40002c c3d1474b 40f21532  ....l@.,..GK@..2
 0440 4949ebe7 0c9b002b a6d00a9b 5968e9b1  II.....+....Yh..
 0450 0a68002a 48d00c98 00e01a46 0b890344  .h.*H......F...D
 0460 0b811146 1368002b f7d11389 0c990b44  ...F.h.+.......D
 0470 13815389 0b445381 0a9a1389 0b441381  ..S..DS......D..
 0480 8ae70c9b a3b10a9b 002bded1 324b40f2  .........+..2K@.
 0490 e9223649 c2e76ff0 0a0035e7 2e4b40f2  ."6I..o...5..K@.
 04a0 4d223349 bae7079b 099a1344 436045e7  M"3I.......DC`E.
 04b0 0a9b002b 7ff470af c9f86c80 6fe7099b  ...+..p...l.o...
 04c0 1bbb0c95 40e7b9f8 1a304ff0 ff3043f0  ....@....0O..0C.
 04d0 8003a9f8 1a3017e7 6ff00f00 14e71e4b  .....0..o......K
 04e0 4ff41d72 234999e7 0a46bee7 1a4b40f2  O..r#I...F...K@.
 04f0 ae222149 92e7184b 40f26922 1f498de7  ."!I...K@.i".I..
 0500 154b40f2 e9121e49 88e7134b 4ff40d72  .K@....I...KO..r
 0510 1c4983e7 104b40f2 5b121b49 7ee7b9f8  .I...K@.[..I~...
 0520 6830002b bad1baf1 000f7ff4 b1adbdf8  h0.+............
 0530 3e305746 a9f86830 bee7074b 40f20322  >0WF..h0...K@.."
 0540 12496be7 044b40f2 fb121149 66e7024b  .Ik..K@....If..K
 0550 40f22a32 044961e7 00000000 00000000  @.*2.Ia.........
 0560 88010000 48000000 f8010000 c0010000  ....H...........
 0570 f4000000 64010000 74010000 24010000  ....d...t...$...
 0580 70000000 c8000000 3c000000 a8000000  p.......<.......
 0590 88000000                             ....            
Contents of section .rodata.tcp_split_unsent_seg.str1.4:
 0000 7463705f 73706c69 745f756e 73656e74  tcp_split_unsent
 0010 5f736567 3a20696e 76616c69 64207063  _seg: invalid pc
 0020 62000000 43616e27 74207370 6c697420  b...Can't split 
 0030 7365676d 656e7420 696e746f 206c656e  segment into len
 0040 67746820 30000000 73706c69 74203c3d  gth 0...split <=
 0050 206d7373 00                           mss.           
Contents of section .text.tcp_split_unsent_seg:
 0000 2de9f04f 054683b0 002800f0 a680c66e  -..O.F...(.....n
 0010 002e00f0 86800c46 002900f0 8f80b6f8  .......F.)......
 0020 08908945 76d9438e 8b42c0f0 9b8096f8  ...Ev.C..B......
 0030 0aa0a9eb 01084ff4 20723820 4fea8a0b  ......O. r8 O...
 0040 1ffa88f8 0bf0040b 08eb0b01 89b2fff7  ................
 0050 feff0746 002864d0 70683289 03897968  ...F.(d.ph2...yh
 0060 9b1a4246 59442344 9bb2fff7 feff4045  ..BFYD#D......@E
 0070 54d1f368 9a8952ba 5ffa82f8 12f00802  T..h..R._.......
 0080 54d108f0 3f0818f0 010f03d0 08f0fe08  T...?...........
 0090 42f00102 5b683946 2846cdf8 00a01bba  B...[h9F(F......
 00a0 2344fff7 feff0746 00283ad0 7068a4eb  #D.....F.(:.ph..
 00b0 0904fff7 feff7268 b5f86630 a4b21189  ......rh..f0....
 00c0 98fa98f8 1b1a1046 21441ffa 88f8a5f8  .......F!D......
 00d0 663089b2 fff7feff 33897068 1c44f368  f0......3.ph.D.h
 00e0 34819a89 48ea0208 a3f80c80 fff7feff  4...H...........
 00f0 b5f86630 03447868 a5f86630 fff7feff  ..f0.Dxh..f0....
 0100 b5f86630 18443368 a5f86600 3b603760  ..f0.D3h..f.;`7`
 0110 3b687bb1 002003b0 bde8f08f 3846fff7  ;h{.. ......8F..
 0120 feff4ff0 ff3003b0 bde8f08f 08f03708  ..O..0........7.
 0130 0822a8e7 1846a5f8 6830f4e7 0c4b40f2  ."...F..h0...K@.
 0140 56320c49 0c48fff7 feff0020 fff7feff  V2.I.H..... ....
 0150 0120fff7 fefffff7 feff054b 40f24e32  . .........K@.N2
 0160 0649efe7 024b40f2 5e320549 eae700bf  .I...K@.^2.I....
 0170 00000000 24000000 48000000 00000000  ....$...H.......
 0180 48000000                             H...            
Contents of section .rodata.tcp_enqueue_flags.str1.4:
 0000 7463705f 656e7175 6575655f 666c6167  tcp_enqueue_flag
 0010 733a206e 65656420 65697468 65722054  s: need either T
 0020 43505f53 594e206f 72205443 505f4649  CP_SYN or TCP_FI
 0030 4e20696e 20666c61 67732028 70726f67  N in flags (prog
 0040 72616d6d 65722076 696f6c61 74657320  rammer violates 
 0050 41504929 00000000 7463705f 656e7175  API)....tcp_enqu
 0060 6575655f 666c6167 733a2069 6e76616c  eue_flags: inval
 0070 69642070 63620000 7463705f 656e7175  id pcb..tcp_enqu
 0080 6575655f 666c6167 733a2063 6865636b  eue_flags: check
 0090 20746861 74206669 72737420 70627566   that first pbuf
 00a0 2063616e 20686f6c 64206f70 746c656e   can hold optlen
 00b0 00000000 7365672d 3e746370 68647220  ....seg->tcphdr 
 00c0 6e6f7420 616c6967 6e656400 7463705f  not aligned.tcp_
 00d0 656e7175 6575655f 666c6167 733a2069  enqueue_flags: i
 00e0 6e76616c 69642073 65676d65 6e74206c  nvalid segment l
 00f0 656e6774 68000000 7463705f 656e7175  ength...tcp_enqu
 0100 6575655f 666c6167 733a2069 6e76616c  eue_flags: inval
 0110 69642071 75657565 206c656e 67746800  id queue length.
Contents of section .text.tcp_enqueue_flags:
 0000 70b511f0 030682b0 7ad00446 002868d0  p.......z..F.(h.
 0010 11f00206 0d464ff4 207237d1 31463820  .....FO. r7.1F8 
 0020 fff7feff 01460028 45d0e36d 2a462046  .....F.(E..m*F F
 0030 0096fff7 feff0028 3dd0c368 13f00306  .......(=..h....
 0040 54d10389 002b56d1 e36e53b3 1a461b68  T....+V..nS..F.h
 0050 002bfbd1 1060e36d 00220133 a4f86820  .+...`.m.".3..h 
 0060 e365eb07 03d5638b 43f02003 63834068  .e....c.C. .c.@h
 0070 fff7feff b4f86630 184480b2 a4f86600  ......f0.D....f.
 0080 10b1206f 78b10020 02b070bd 04213820  .. ox.. ..p..!8 
 0090 fff7feff 014670b1 4389032b 12d90126  .....Fp.C..+...&
 00a0 c3e7e066 d7e7e46e 002cedd1 174b40f2  ...f...n.,...K@.
 00b0 69421749 0ae0638b 4ff0ff30 43f08003  iB.I..c.O..0C...
 00c0 6383e1e7 114b40f2 3d421249 1248fff7  c....K@.=B.I.H..
 00d0 feff0020 fff7feff 0120fff7 fefffff7  ... ..... ......
 00e0 feff0a4b 40f21542 0c49efe7 074b40f2  ...K@..B.I...K@.
 00f0 46420b49 eae7054b 40f24742 0949e5e7  FB.I...K@.GB.I..
 0100 024b40f2 13420849 e0e700bf 00000000  .K@..B.I........
 0110 f8000000 78000000 48000000 58000000  ....x...H...X...
 0120 b4000000 cc000000 00000000           ............    
Contents of section .rodata.tcp_send_fin.str1.4:
 0000 7463705f 73656e64 5f66696e 3a20696e  tcp_send_fin: in
 0010 76616c69 64207063 6200               valid pcb.      
Contents of section .text.tcp_send_fin:
 0000 10b50446 d0b1c36e 4bb11a46 1b68002b  ...F...nK..F.h.+
 0010 fbd1d168 8a8990b2 52ba5207 05d02046  ...h....R.R... F
 0020 0121bde8 1040fff7 febf628b 40f48070  .!...@....b.@..p
 0030 42f02002 88811846 628310bd 074b40f2  B. ....Fb....K@.
 0040 ef320749 0748fff7 feff2046 fff7feff  .2.I.H.... F....
 0050 0120fff7 fefffff7 feff00bf 00000000  . ..............
 0060 00000000 48000000                    ....H...        
Contents of section .rodata.tcp_rexmit_rto_prepare.str1.4:
 0000 7463705f 7265786d 69745f72 746f5f70  tcp_rexmit_rto_p
 0010 72657061 72653a20 696e7661 6c696420  repare: invalid 
 0020 70636200                             pcb.            
Contents of section .text.tcp_rexmit_rto_prepare:
 0000 38b50446 60b3016f 71b10a46 13683bb1  8..F`..oq..F.h;.
 0010 5268927b 012a07d1 1a461368 002bf7d1  Rh.{.*...F.h.+..
 0020 5068807b 012803d0 6ff00503 184638bd  Ph.{.(..o....F8.
 0030 e06ed568 1060608b c4e91b13 40f40061  .n.h.``.....@..a
 0040 61831189 aa896868 52ba6363 00ba12f0  a.....hhR.cc....
 0050 03020144 184618bf 01220a44 e26438bd  ...D.F...".D.d8.
 0060 074b40f2 67620749 0748fff7 feff2046  .K@.gb.I.H.... F
 0070 fff7feff 0120fff7 fefffff7 feff00bf  ..... ..........
 0080 00000000 00000000 48000000           ........H...    
Contents of section .rodata.tcp_rexmit.str1.4:
 0000 7463705f 7265786d 69743a20 696e7661  tcp_rexmit: inva
 0010 6c696420 70636200                    lid pcb.        
Contents of section .text.tcp_rexmit:
 0000 38b50446 60b3056f 25b36b68 9b7b012b  8..F`..o%.kh.{.+
 0010 20d1c26e 6c302b68 236762b1 eb685968   ..nl0+h#gb..hYh
 0020 09ba02e0 10461268 2ab1d368 5b681bba  .....F.h*..h[h..
 0030 5b1a002b f6db2a60 05602b68 6bb194f8  [..+..*`.`+hk...
 0040 4230ff2b 02d00133 84f84230 00231846  B0.+...3..B0.#.F
 0050 636338bd 6ff00500 38bda4f8 6830eee7  cc8.o...8...h0..
 0060 074b40f2 c5620749 0748fff7 feff2046  .K@..b.I.H.... F
 0070 fff7feff 0120fff7 fefffff7 feff00bf  ..... ..........
 0080 00000000 00000000 48000000           ........H...    
Contents of section .rodata.tcp_rexmit_fast.str1.4:
 0000 7463705f 7265786d 69745f66 6173743a  tcp_rexmit_fast:
 0010 20696e76 616c6964 20706362 00         invalid pcb.   
Contents of section .text.tcp_rexmit_fast:
 0000 10b50446 38b3036f 13b1438b 5b0700d5  ...F8..o..C.[...
 0010 10bdfff7 feff0028 fad1b4f8 6010b4f8  .......(....`...
 0020 4830628e 99424fea 420028bf 19464b08  H0b..BO.B.(..FK.
 0030 b0eb510f a4f84a30 02d983b2 a4f84a30  ..Q...J0......J0
 0040 618b0244 41f00401 13440022 a4f84830  a..DA....D."..H0
 0050 61832286 10bd074b 40f2fd62 06490748  a."....K@..b.I.H
 0060 fff7feff 2046fff7 feff0120 fff7feff  .... F..... ....
 0070 fff7feff 00000000 00000000 48000000  ............H...
Contents of section .text.tcp_rst:
 0000 70b582b0 1c460d46 8446bdf8 1c301146  p....F.F.F...0.F
 0010 069e2846 00932246 bdf82030 65460193  ..(F.."F.. 0eF..
 0020 3346fff7 feff40b1 01463346 22462846  3F....@..F3F"F(F
 0030 02b0bde8 7040fff7 febf02b0 70bd00bf  ....p@......p...
Contents of section .text.tcp_rst_netif:
 0000 f0b585b0 8c461f46 11460a9e bdf82c30  .....F.F.F....,0
 0010 bdf83020 c8b10446 6046cde9 00323346  ..0 ...F`F...23F
 0020 3a46fff7 feff0546 78b10294 00230624  :F.....Fx....#.$
 0030 32463946 cde90034 ff23fff7 feff2846  2F9F...4.#....(F
 0040 05b0bde8 f040fff7 febf05b0 f0bd00bf  .....@..........
Contents of section .rodata.tcp_send_empty_ack.str1.4:
 0000 7463705f 73656e64 5f656d70 74795f61  tcp_send_empty_a
 0010 636b3a20 696e7661 6c696420 70636200  ck: invalid pcb.
Contents of section .text.tcp_send_empty_ack:
 0000 38b50446 f8b1026d 002112ba fff7feff  8..F...m.!......
 0010 054690b1 fff7feff 231d2246 29462046  .F......#."F)F F
 0020 fff7feff 638b20b9 23f00303 9bb26383  ....c. .#.....c.
 0030 38bd43f0 03036383 38bd638b 6ff00100  8.C...c.8.c.o...
 0040 43f00303 f3e7074b 4ff40362 06490748  C......KO..b.I.H
 0050 fff7feff 2046fff7 feff0120 fff7feff  .... F..... ....
 0060 fff7feff 00000000 00000000 48000000  ............H...
Contents of section .rodata.tcp_output.str1.4:
 0000 7463705f 6f757470 75743a20 696e7661  tcp_output: inva
 0010 6c696420 70636200 646f6e27 74206361  lid pcb.don't ca
 0020 6c6c2074 63705f6f 75747075 7420666f  ll tcp_output fo
 0030 72206c69 7374656e 2d706362 73000000  r listen-pcbs...
 0040 52535420 6e6f7420 65787065 63746564  RST not expected
 0050 20686572 65210000 6f707469 6f6e7320   here!..options 
 0060 6e6f7420 66696c6c 656400             not filled.     
Contents of section .text.tcp_output:
 0000 2de9f04f 044685b0 b14a40f2 e341b148  -..O.F...J@..A.H
 0010 fff7feff 002c00f0 8d81257d 012d00f0  .....,....%}.-..
 0020 8e81ad4b 1b68a342 00f05a81 e56eb4f8  ...K.h.B..Z..n..
 0030 4890b4f8 60601db3 207a04f1 040b0028  H...``.. z.....(
 0040 40f05281 5846fff7 feff8246 baf1000f  @.R.XF.....F....
 0050 00f05981 236813b9 daf80030 2360b145  ..Y.#h.....0#`.E
 0060 626c2b89 28bfb146 ee689b1a 726812ba  bl+.(..F.h..rh..
 0070 13444b45 0fd9b4f8 60304b45 00f01581  .DKE....`0KE....
 0080 608b8107 00f10b81 20f08003 00206383  `....... .... c.
 0090 05b0bde8 f08f0023 84f89930 236f002b  .......#...0#o.+
 00a0 00f01381 98461b68 002bfbd1 53460027  .....F.h.+..SF.'
 00b0 b2461e46 baf80c30 5aba9bb2 520700f1  .F.F...0Z...R...
 00c0 2581226f 62b1618b 11f0440f 8c4607d1  %."ob.a...D..F..
 00d0 e06e0028 00f0bf80 0268002a 00f0b580  .n.(.....h.*....
 00e0 227d022a 00f08f80 43f48053 6868aaf8  "}.*....C..Shh..
 00f0 0c30837b 012b3dd0 2868e066 638b23f0  .0.{.+=.(h.fc.#.
 0100 03036383 e968b5f8 08c08b89 49685bba  ..c..h......Ih[.
 0110 226d09ba 13f00303 18bf0123 634401eb  "m.........#cD..
 0120 030ca2eb 0c02002a b8bfc4f8 50c0002b  .......*....P..+
 0130 70d0236f 2f60002b 00f08380 d8f80c20  p.#o/`.+....... 
 0140 526812ba 8a1a002a c0f29980 c8f80050  Rh.....*.......P
 0150 a8460546 002d00f0 cb80d5f8 0ca02b89  .F.F.-........+.
 0160 daf80410 626c09ba 9b1a0b44 4b45a1d9  ....bl.....DKE..
 0170 608b89e7 636a628d 19ba1344 52bacaf8  `...cjb....DR...
 0180 0810aaf8 0e20e362 ab7a13f0 010146d1  ..... .b.z....F.
 0190 0af1140a b4f93030 626b002b eb68b8bf  ......00bk.+.h..
 01a0 27862ab9 4d4a1268 62635a68 12baa263  '.*.MJ.hbcZh...c
 01b0 42680029 4189a3eb 02024360 92b2a1eb  Bh.)A.....C`....
 01c0 02014181 0189a1eb 02020281 14bf1822  ..A............"
 01d0 14221f74 5f741344 9a4540f0 a6800623  .".t_t.D.E@....#
 01e0 02965a46 21460193 a37a0093 e37afff7  ..ZF!F...z...z..
 01f0 feff0028 40f08280 237d2868 022be066  ...(@...#}(h.+.f
 0200 7ff47caf 7ee76868 837b012b b2d02868  ..|.~.hh.{.+..(h
 0210 e06677e7 2846fff7 feffe56e 9ae73146  .fw.(F.....n..1F
 0220 5a4640f2 b4500af1 180afff7 feff40f0  ZF@..P........@.
 0230 017000ba 4af8040c ab7a6868 03f00101  .p..J....zhh....
 0240 a8e7a846 25670546 84e7b0f8 08e0628e  ...F%g.F......b.
 0250 9645bff4 45afb4f8 6420002a 3ff440af  .E..E...d .*?.@.
 0260 b4f86620 0f2a3ff6 3baf11f0 a00f7ff4  ..f .*?.;.......
 0270 37af0346 6046002b 7ff406af 39e004f1  7..F`F.+....9...
 0280 700002e0 18461b68 2bb1da68 526812ba  p....F.h+..hRh..
 0290 521a002a f6db2b60 0560e56e 5ae72046  R..*..+`.`.nZ. F
 02a0 05b0bde8 f04ffff7 febf236f 002b7ff4  .....O....#o.+..
 02b0 e7ae94f8 9930002b 7ff4e2ae 4ff48072  .....0.+....O..r
 02c0 84f89a30 a4f89820 dae69846 eee600bf  ...0... ...F....
 02d0 00000000 00000000 00000000 00000000  ................
 02e0 002005b0 bde8f08f fff7feff 8246ade6  . ...........F..
 02f0 618b0023 0846a4f8 6830c5e6 638b43f0  a..#.F..h0..c.C.
 0300 80036383 c4e66ff0 0300c1e6 0e4b40f2  ..c...o......K@.
 0310 3a520e49 0e48fff7 feff0020 fff7feff  :R.I.H..... ....
 0320 0120fff7 fefffff7 feff074b 4ff4c462  . .........KO..b
 0330 0849efe7 044b40f2 e5420749 eae7024b  .I...K@..B.I...K
 0340 40f2e742 0549e5e7 00000000 40000000  @..B.I......@...
 0350 48000000 58000000 00000000 18000000  H...X...........
Contents of section .text.tcp_rexmit_rto_commit:
 0000 08b550b1 90f84230 ff2b02d0 013380f8  ..P...B0.+...3..
 0010 4230bde8 0840fff7 febffff7 feff00bf  B0...@..........
Contents of section .rodata.tcp_rexmit_rto.str1.4:
 0000 7463705f 7265786d 69745f72 746f3a20  tcp_rexmit_rto: 
 0010 696e7661 6c696420 70636200           invalid pcb.    
Contents of section .text.tcp_rexmit_rto:
 0000 10b50446 78b1fff7 feff00b1 10bd94f8  ...Fx...........
 0010 4230ff2b 02d00133 84f84230 2046bde8  B0.+...3..B0 F..
 0020 1040fff7 febf074b 40f2b162 06490748  .@.....K@..b.I.H
 0030 fff7feff 2046fff7 feff0120 fff7feff  .... F..... ....
 0040 fff7feff 00000000 00000000 48000000  ............H...
Contents of section .rodata.tcp_keepalive.str1.4:
 0000 7463705f 6b656570 616c6976 653a2069  tcp_keepalive: i
 0010 6e76616c 69642070 636200             nvalid pcb.     
Contents of section .text.tcp_keepalive:
 0000 70b50446 a0b1026d 0021013a 12bafff7  p..F...m.!.:....
 0010 feff0546 48b1fff7 feff231d 22462946  ...FH.....#."F)F
 0020 2046bde8 7040fff7 febf4ff0 ff3070bd   F..p@....O..0p.
 0030 074b40f6 6a020749 0748fff7 feff2046  .K@.j..I.H.... F
 0040 fff7feff 0120fff7 fefffff7 feff00bf  ..... ..........
 0050 00000000 00000000 48000000           ........H...    
Contents of section .rodata.tcp_zero_window_probe.str1.4:
 0000 7463705f 7a65726f 5f77696e 646f775f  tcp_zero_window_
 0010 70726f62 653a2069 6e76616c 69642070  probe: invalid p
 0020 636200                               cb.             
Contents of section .text.tcp_zero_window_probe:
 0000 70b50446 002848d0 c66e002e 43d090f8  p..F.(H..n..C...
 0010 9a30ff2b 02d00133 80f89a30 f2689389  .0.+...3...0.h..
 0020 5bbadb07 22d53189 01bb5268 2046fff7  [...".1...Rh F..
 0030 feff0546 08b36a68 938923f4 7c5343f4  ...F..jh..#.|SC.
 0040 88539381 f3682846 226d5b68 1bba0133  .S...h(F"m[h...3
 0050 d21a002a b8bf2365 fff7feff 231d2246  ...*..#e....#."F
 0060 29462046 bde87040 fff7febf 52680121  )F F..p@....Rh.!
 0070 2046fff7 feff0546 10b94ff0 ff3070bd   F.....F..O..0p.
 0080 70683289 03896968 9b1a0122 14319bb2  ph2...ih...".1..
 0090 fff7feff d6e73046 70bd074b 40f69502  ......0Fp..K@...
 00a0 06490748 fff7feff 2046fff7 feff0120  .I.H.... F..... 
 00b0 fff7feff fff7feff 00000000 00000000  ................
 00c0 48000000                             H...            
Contents of section .rodata.__FUNCTION__.0:
 0000 7463705f 6f757470 757400             tcp_output.     
Contents of section .rodata.__FUNCTION__.1:
 0000 7463705f 77726974 6500               tcp_write.      
Contents of section .comment:
 0000 00474343 3a202841 726d2047 4e552054  .GCC: (Arm GNU T
 0010 6f6f6c63 6861696e 2031312e 332e5265  oolchain 11.3.Re
 0020 6c312920 31312e33 2e312032 30323230  l1) 11.3.1 20220
 0030 37313200                             712.            
Contents of section .ARM.attributes:
 0000 41310000 00616561 62690001 27000000  A1...aeabi..'...
 0010 0537452d 4d00060d 074d0902 0a081204  .7E-M....M......
 0020 14011501 17031801 19011a01 1c011e02  ................
 0030 2201                                 ".              

Disassembly of section .text.tcp_pbuf_prealloc:

00000000 <tcp_pbuf_prealloc>:
   0:	b570      	push	{r4, r5, r6, lr}
   2:	9d04      	ldr	r5, [sp, #16]
   4:	460c      	mov	r4, r1
   6:	461e      	mov	r6, r3
   8:	f89d 1018 	ldrb.w	r1, [sp, #24]
   c:	f89d 3014 	ldrb.w	r3, [sp, #20]
  10:	b325      	cbz	r5, 5c <tcp_pbuf_prealloc+0x5c>
  12:	4294      	cmp	r4, r2
  14:	d30d      	bcc.n	32 <tcp_pbuf_prealloc+0x32>
  16:	4621      	mov	r1, r4
  18:	f44f 7220 	mov.w	r2, #640	; 0x280
  1c:	f7ff fffe 	bl	0 <pbuf_alloc>
  20:	b130      	cbz	r0, 30 <tcp_pbuf_prealloc+0x30>
  22:	6803      	ldr	r3, [r0, #0]
  24:	bb43      	cbnz	r3, 78 <tcp_pbuf_prealloc+0x78>
  26:	8943      	ldrh	r3, [r0, #10]
  28:	1b1b      	subs	r3, r3, r4
  2a:	8033      	strh	r3, [r6, #0]
  2c:	8104      	strh	r4, [r0, #8]
  2e:	8144      	strh	r4, [r0, #10]
  30:	bd70      	pop	{r4, r5, r6, pc}
  32:	079b      	lsls	r3, r3, #30
  34:	d405      	bmi.n	42 <tcp_pbuf_prealloc+0x42>
  36:	8b6b      	ldrh	r3, [r5, #26]
  38:	065b      	lsls	r3, r3, #25
  3a:	d4ec      	bmi.n	16 <tcp_pbuf_prealloc+0x16>
  3c:	b109      	cbz	r1, 42 <tcp_pbuf_prealloc+0x42>
  3e:	6eeb      	ldr	r3, [r5, #108]	; 0x6c
  40:	b143      	cbz	r3, 54 <tcp_pbuf_prealloc+0x54>
  42:	f204 51b7 	addw	r1, r4, #1463	; 0x5b7
  46:	f021 0103 	bic.w	r1, r1, #3
  4a:	4291      	cmp	r1, r2
  4c:	bf28      	it	cs
  4e:	4611      	movcs	r1, r2
  50:	b289      	uxth	r1, r1
  52:	e7e1      	b.n	18 <tcp_pbuf_prealloc+0x18>
  54:	6f2b      	ldr	r3, [r5, #112]	; 0x70
  56:	2b00      	cmp	r3, #0
  58:	d1f3      	bne.n	42 <tcp_pbuf_prealloc+0x42>
  5a:	e7dc      	b.n	16 <tcp_pbuf_prealloc+0x16>
  5c:	4b09      	ldr	r3, [pc, #36]	; (84 <tcp_pbuf_prealloc+0x84>)
  5e:	22ec      	movs	r2, #236	; 0xec
  60:	4909      	ldr	r1, [pc, #36]	; (88 <tcp_pbuf_prealloc+0x88>)
  62:	480a      	ldr	r0, [pc, #40]	; (8c <tcp_pbuf_prealloc+0x8c>)
  64:	f7ff fffe 	bl	0 <printf>
  68:	2000      	movs	r0, #0
  6a:	f7ff fffe 	bl	0 <fflush>
  6e:	2001      	movs	r0, #1
  70:	f7ff fffe 	bl	0 <qnethernet_hal_stdio_flush>
  74:	f7ff fffe 	bl	0 <abort>
  78:	4b02      	ldr	r3, [pc, #8]	; (84 <tcp_pbuf_prealloc+0x84>)
  7a:	f44f 7287 	mov.w	r2, #270	; 0x10e
  7e:	4904      	ldr	r1, [pc, #16]	; (90 <tcp_pbuf_prealloc+0x90>)
  80:	e7ef      	b.n	62 <tcp_pbuf_prealloc+0x62>
  82:	bf00      	nop
  84:	00000000 	.word	0x00000000
  88:	00000028 	.word	0x00000028
  8c:	00000048 	.word	0x00000048
  90:	00000070 	.word	0x00000070

Disassembly of section .text.tcp_create_segment:

00000000 <tcp_create_segment>:
   0:	e92d 47f0 	stmdb	sp!, {r4, r5, r6, r7, r8, r9, sl, lr}
   4:	4606      	mov	r6, r0
   6:	f89d a020 	ldrb.w	sl, [sp, #32]
   a:	2800      	cmp	r0, #0
   c:	d04f      	beq.n	ae <tcp_create_segment+0xae>
   e:	460f      	mov	r7, r1
  10:	2900      	cmp	r1, #0
  12:	d03e      	beq.n	92 <tcp_create_segment+0x92>
  14:	ea4f 048a 	mov.w	r4, sl, lsl #2
  18:	2003      	movs	r0, #3
  1a:	4691      	mov	r9, r2
  1c:	4698      	mov	r8, r3
  1e:	f004 0404 	and.w	r4, r4, #4
  22:	f7ff fffe 	bl	0 <memp_malloc>
  26:	4605      	mov	r5, r0
  28:	b378      	cbz	r0, 8a <tcp_create_segment+0x8a>
  2a:	f880 a00a 	strb.w	sl, [r0, #10]
  2e:	f04f 0a00 	mov.w	sl, #0
  32:	893b      	ldrh	r3, [r7, #8]
  34:	b2a2      	uxth	r2, r4
  36:	6047      	str	r7, [r0, #4]
  38:	42a3      	cmp	r3, r4
  3a:	f8c0 a000 	str.w	sl, [r0]
  3e:	d344      	bcc.n	ca <tcp_create_segment+0xca>
  40:	1a9b      	subs	r3, r3, r2
  42:	2114      	movs	r1, #20
  44:	8103      	strh	r3, [r0, #8]
  46:	4638      	mov	r0, r7
  48:	f7ff fffe 	bl	0 <pbuf_add_header>
  4c:	b9c0      	cbnz	r0, 80 <tcp_create_segment+0x80>
  4e:	02a4      	lsls	r4, r4, #10
  50:	686b      	ldr	r3, [r5, #4]
  52:	8af1      	ldrh	r1, [r6, #22]
  54:	fa98 f888 	rev.w	r8, r8
  58:	f504 44a0 	add.w	r4, r4, #20480	; 0x5000
  5c:	ba49      	rev16	r1, r1
  5e:	ea44 0209 	orr.w	r2, r4, r9
  62:	ba54      	rev16	r4, r2
  64:	685a      	ldr	r2, [r3, #4]
  66:	8b33      	ldrh	r3, [r6, #24]
  68:	60ea      	str	r2, [r5, #12]
  6a:	ba5b      	rev16	r3, r3
  6c:	f8c2 8004 	str.w	r8, [r2, #4]
  70:	8194      	strh	r4, [r2, #12]
  72:	8011      	strh	r1, [r2, #0]
  74:	7490      	strb	r0, [r2, #18]
  76:	74d0      	strb	r0, [r2, #19]
  78:	8053      	strh	r3, [r2, #2]
  7a:	4628      	mov	r0, r5
  7c:	e8bd 87f0 	ldmia.w	sp!, {r4, r5, r6, r7, r8, r9, sl, pc}
  80:	4628      	mov	r0, r5
  82:	4655      	mov	r5, sl
  84:	f7ff fffe 	bl	0 <tcp_seg_free>
  88:	e7f7      	b.n	7a <tcp_create_segment+0x7a>
  8a:	4638      	mov	r0, r7
  8c:	f7ff fffe 	bl	0 <pbuf_free>
  90:	e7f3      	b.n	7a <tcp_create_segment+0x7a>
  92:	4b15      	ldr	r3, [pc, #84]	; (e8 <tcp_create_segment+0xe8>)
  94:	22a7      	movs	r2, #167	; 0xa7
  96:	4915      	ldr	r1, [pc, #84]	; (ec <tcp_create_segment+0xec>)
  98:	4815      	ldr	r0, [pc, #84]	; (f0 <tcp_create_segment+0xf0>)
  9a:	f7ff fffe 	bl	0 <printf>
  9e:	4638      	mov	r0, r7
  a0:	f7ff fffe 	bl	0 <fflush>
  a4:	2001      	movs	r0, #1
  a6:	f7ff fffe 	bl	0 <qnethernet_hal_stdio_flush>
  aa:	f7ff fffe 	bl	0 <abort>
  ae:	4b0e      	ldr	r3, [pc, #56]	; (e8 <tcp_create_segment+0xe8>)
  b0:	22a6      	movs	r2, #166	; 0xa6
  b2:	4910      	ldr	r1, [pc, #64]	; (f4 <tcp_create_segment+0xf4>)
  b4:	480e      	ldr	r0, [pc, #56]	; (f0 <tcp_create_segment+0xf0>)
  b6:	f7ff fffe 	bl	0 <printf>
  ba:	4630      	mov	r0, r6
  bc:	f7ff fffe 	bl	0 <fflush>
  c0:	2001      	movs	r0, #1
  c2:	f7ff fffe 	bl	0 <qnethernet_hal_stdio_flush>
  c6:	f7ff fffe 	bl	0 <abort>
  ca:	4b07      	ldr	r3, [pc, #28]	; (e8 <tcp_create_segment+0xe8>)
  cc:	22b3      	movs	r2, #179	; 0xb3
  ce:	490a      	ldr	r1, [pc, #40]	; (f8 <tcp_create_segment+0xf8>)
  d0:	4807      	ldr	r0, [pc, #28]	; (f0 <tcp_create_segment+0xf0>)
  d2:	f7ff fffe 	bl	0 <printf>
  d6:	4650      	mov	r0, sl
  d8:	f7ff fffe 	bl	0 <fflush>
  dc:	2001      	movs	r0, #1
  de:	f7ff fffe 	bl	0 <qnethernet_hal_stdio_flush>
  e2:	f7ff fffe 	bl	0 <abort>
  e6:	bf00      	nop
  e8:	00000000 	.word	0x00000000
  ec:	00000020 	.word	0x00000020
  f0:	00000048 	.word	0x00000048
  f4:	00000000 	.word	0x00000000
  f8:	00000044 	.word	0x00000044

Disassembly of section .text.tcp_output_segment_busy.part.0:

00000000 <tcp_output_segment_busy.part.0>:
   0:	b508      	push	{r3, lr}
   2:	f240 529e 	movw	r2, #1438	; 0x59e
   6:	4b06      	ldr	r3, [pc, #24]	; (20 <tcp_output_segment_busy.part.0+0x20>)
   8:	4906      	ldr	r1, [pc, #24]	; (24 <tcp_output_segment_busy.part.0+0x24>)
   a:	4807      	ldr	r0, [pc, #28]	; (28 <tcp_output_segment_busy.part.0+0x28>)
   c:	f7ff fffe 	bl	0 <printf>
  10:	2000      	movs	r0, #0
  12:	f7ff fffe 	bl	0 <fflush>
  16:	2001      	movs	r0, #1
  18:	f7ff fffe 	bl	0 <qnethernet_hal_stdio_flush>
  1c:	f7ff fffe 	bl	0 <abort>
  20:	00000000 	.word	0x00000000
  24:	00000000 	.word	0x00000000
  28:	00000048 	.word	0x00000048

Disassembly of section .text.tcp_output_control_segment_netif.part.0:

00000000 <tcp_output_control_segment_netif.part.0>:
   0:	b508      	push	{r3, lr}
   2:	f240 72a1 	movw	r2, #1953	; 0x7a1
   6:	4b06      	ldr	r3, [pc, #24]	; (20 <tcp_output_control_segment_netif.part.0+0x20>)
   8:	4906      	ldr	r1, [pc, #24]	; (24 <tcp_output_control_segment_netif.part.0+0x24>)
   a:	4807      	ldr	r0, [pc, #28]	; (28 <tcp_output_control_segment_netif.part.0+0x28>)
   c:	f7ff fffe 	bl	0 <printf>
  10:	2000      	movs	r0, #0
  12:	f7ff fffe 	bl	0 <fflush>
  16:	2001      	movs	r0, #1
  18:	f7ff fffe 	bl	0 <qnethernet_hal_stdio_flush>
  1c:	f7ff fffe 	bl	0 <abort>
  20:	00000000 	.word	0x00000000
  24:	00000000 	.word	0x00000000
  28:	00000048 	.word	0x00000048

Disassembly of section .text.tcp_rexmit_rto_commit.part.0:

00000000 <tcp_rexmit_rto_commit.part.0>:
   0:	b508      	push	{r3, lr}
   2:	f240 629c 	movw	r2, #1692	; 0x69c
   6:	4b06      	ldr	r3, [pc, #24]	; (20 <tcp_rexmit_rto_commit.part.0+0x20>)
   8:	4906      	ldr	r1, [pc, #24]	; (24 <tcp_rexmit_rto_commit.part.0+0x24>)
   a:	4807      	ldr	r0, [pc, #28]	; (28 <tcp_rexmit_rto_commit.part.0+0x28>)
   c:	f7ff fffe 	bl	0 <printf>
  10:	2000      	movs	r0, #0
  12:	f7ff fffe 	bl	0 <fflush>
  16:	2001      	movs	r0, #1
  18:	f7ff fffe 	bl	0 <qnethernet_hal_stdio_flush>
  1c:	f7ff fffe 	bl	0 <abort>
  20:	00000000 	.word	0x00000000
  24:	00000000 	.word	0x00000000
  28:	00000048 	.word	0x00000048

Disassembly of section .text.tcp_output_alloc_header.constprop.0:

00000000 <tcp_output_alloc_header.constprop.0>:
   0:	e92d 43f8 	stmdb	sp!, {r3, r4, r5, r6, r7, r8, r9, lr}
   4:	4604      	mov	r4, r0
   6:	b370      	cbz	r0, 66 <tcp_output_alloc_header.constprop.0+0x66>
   8:	3114      	adds	r1, #20
   a:	4615      	mov	r5, r2
   c:	6a47      	ldr	r7, [r0, #36]	; 0x24
   e:	f44f 7220 	mov.w	r2, #640	; 0x280
  12:	f8b0 9016 	ldrh.w	r9, [r0, #22]
  16:	b289      	uxth	r1, r1
  18:	2024      	movs	r0, #36	; 0x24
  1a:	f8b4 8018 	ldrh.w	r8, [r4, #24]
  1e:	8d66      	ldrh	r6, [r4, #42]	; 0x2a
  20:	f7ff fffe 	bl	0 <pbuf_alloc>
  24:	b1e8      	cbz	r0, 62 <tcp_output_alloc_header.constprop.0+0x62>
  26:	8943      	ldrh	r3, [r0, #10]
  28:	2b13      	cmp	r3, #19
  2a:	d92b      	bls.n	84 <tcp_output_alloc_header.constprop.0+0x84>
  2c:	8d62      	ldrh	r2, [r4, #42]	; 0x2a
  2e:	fa99 f999 	rev16.w	r9, r9
  32:	6a63      	ldr	r3, [r4, #36]	; 0x24
  34:	fa98 f898 	rev16.w	r8, r8
  38:	ba3f      	rev	r7, r7
  3a:	ba76      	rev16	r6, r6
  3c:	1899      	adds	r1, r3, r2
  3e:	6843      	ldr	r3, [r0, #4]
  40:	2200      	movs	r2, #0
  42:	f8a3 9000 	strh.w	r9, [r3]
  46:	741a      	strb	r2, [r3, #16]
  48:	745a      	strb	r2, [r3, #17]
  4a:	749a      	strb	r2, [r3, #18]
  4c:	74da      	strb	r2, [r3, #19]
  4e:	2250      	movs	r2, #80	; 0x50
  50:	f8a3 8002 	strh.w	r8, [r3, #2]
  54:	731a      	strb	r2, [r3, #12]
  56:	2210      	movs	r2, #16
  58:	605d      	str	r5, [r3, #4]
  5a:	609f      	str	r7, [r3, #8]
  5c:	81de      	strh	r6, [r3, #14]
  5e:	735a      	strb	r2, [r3, #13]
  60:	62e1      	str	r1, [r4, #44]	; 0x2c
  62:	e8bd 83f8 	ldmia.w	sp!, {r3, r4, r5, r6, r7, r8, r9, pc}
  66:	4b0a      	ldr	r3, [pc, #40]	; (90 <tcp_output_alloc_header.constprop.0+0x90>)
  68:	f240 7246 	movw	r2, #1862	; 0x746
  6c:	4909      	ldr	r1, [pc, #36]	; (94 <tcp_output_alloc_header.constprop.0+0x94>)
  6e:	480a      	ldr	r0, [pc, #40]	; (98 <tcp_output_alloc_header.constprop.0+0x98>)
  70:	f7ff fffe 	bl	0 <printf>
  74:	2000      	movs	r0, #0
  76:	f7ff fffe 	bl	0 <fflush>
  7a:	2001      	movs	r0, #1
  7c:	f7ff fffe 	bl	0 <qnethernet_hal_stdio_flush>
  80:	f7ff fffe 	bl	0 <abort>
  84:	4b02      	ldr	r3, [pc, #8]	; (90 <tcp_output_alloc_header.constprop.0+0x90>)
  86:	f240 7227 	movw	r2, #1831	; 0x727
  8a:	4904      	ldr	r1, [pc, #16]	; (9c <tcp_output_alloc_header.constprop.0+0x9c>)
  8c:	e7ef      	b.n	6e <tcp_output_alloc_header.constprop.0+0x6e>
  8e:	bf00      	nop
  90:	00000000 	.word	0x00000000
  94:	00000000 	.word	0x00000000
  98:	00000048 	.word	0x00000048
  9c:	00000028 	.word	0x00000028

Disassembly of section .text.tcp_output_fill_options.constprop.0:

00000000 <tcp_output_fill_options.constprop.0>:
   0:	b100      	cbz	r0, 4 <tcp_output_fill_options.constprop.0+0x4>
   2:	4770      	bx	lr
   4:	b510      	push	{r4, lr}
   6:	4604      	mov	r4, r0
   8:	4b07      	ldr	r3, [pc, #28]	; (28 <tcp_output_fill_options.constprop.0+0x28>)
   a:	f240 725a 	movw	r2, #1882	; 0x75a
   e:	4907      	ldr	r1, [pc, #28]	; (2c <tcp_output_fill_options.constprop.0+0x2c>)
  10:	4807      	ldr	r0, [pc, #28]	; (30 <tcp_output_fill_options.constprop.0+0x30>)
  12:	f7ff fffe 	bl	0 <printf>
  16:	4620      	mov	r0, r4
  18:	f7ff fffe 	bl	0 <fflush>
  1c:	2001      	movs	r0, #1
  1e:	f7ff fffe 	bl	0 <qnethernet_hal_stdio_flush>
  22:	f7ff fffe 	bl	0 <abort>
  26:	bf00      	nop
  28:	00000000 	.word	0x00000000
  2c:	00000000 	.word	0x00000000
  30:	00000048 	.word	0x00000048

Disassembly of section .text.tcp_output_control_segment:

00000000 <tcp_output_control_segment>:
   0:	b570      	push	{r4, r5, r6, lr}
   2:	460d      	mov	r5, r1
   4:	b086      	sub	sp, #24
   6:	2900      	cmp	r1, #0
   8:	d032      	beq.n	70 <tcp_output_control_segment+0x70>
   a:	4604      	mov	r4, r0
   c:	4616      	mov	r6, r2
   e:	b330      	cbz	r0, 5e <tcp_output_control_segment+0x5e>
  10:	7a00      	ldrb	r0, [r0, #8]
  12:	b9b0      	cbnz	r0, 42 <tcp_output_control_segment+0x42>
  14:	4618      	mov	r0, r3
  16:	9305      	str	r3, [sp, #20]
  18:	f7ff fffe 	bl	0 <ip4_route>
  1c:	9a05      	ldr	r2, [sp, #20]
  1e:	b1b0      	cbz	r0, 4e <tcp_output_control_segment+0x4e>
  20:	7ae3      	ldrb	r3, [r4, #11]
  22:	7aa4      	ldrb	r4, [r4, #10]
  24:	9400      	str	r4, [sp, #0]
  26:	2406      	movs	r4, #6
  28:	4631      	mov	r1, r6
  2a:	9002      	str	r0, [sp, #8]
  2c:	9401      	str	r4, [sp, #4]
  2e:	4628      	mov	r0, r5
  30:	f7ff fffe 	bl	0 <ip4_output_if>
  34:	4604      	mov	r4, r0
  36:	4628      	mov	r0, r5
  38:	f7ff fffe 	bl	0 <pbuf_free>
  3c:	4620      	mov	r0, r4
  3e:	b006      	add	sp, #24
  40:	bd70      	pop	{r4, r5, r6, pc}
  42:	9305      	str	r3, [sp, #20]
  44:	f7ff fffe 	bl	0 <netif_get_by_index>
  48:	9a05      	ldr	r2, [sp, #20]
  4a:	2800      	cmp	r0, #0
  4c:	d1e8      	bne.n	20 <tcp_output_control_segment+0x20>
  4e:	f06f 0403 	mvn.w	r4, #3
  52:	4628      	mov	r0, r5
  54:	f7ff fffe 	bl	0 <pbuf_free>
  58:	4620      	mov	r0, r4
  5a:	b006      	add	sp, #24
  5c:	bd70      	pop	{r4, r5, r6, pc}
  5e:	4618      	mov	r0, r3
  60:	9305      	str	r3, [sp, #20]
  62:	f7ff fffe 	bl	0 <ip4_route>
  66:	2800      	cmp	r0, #0
  68:	d0f1      	beq.n	4e <tcp_output_control_segment+0x4e>
  6a:	23ff      	movs	r3, #255	; 0xff
  6c:	9a05      	ldr	r2, [sp, #20]
  6e:	e7d9      	b.n	24 <tcp_output_control_segment+0x24>
  70:	4b07      	ldr	r3, [pc, #28]	; (90 <tcp_output_control_segment+0x90>)
  72:	f240 728a 	movw	r2, #1930	; 0x78a
  76:	4907      	ldr	r1, [pc, #28]	; (94 <tcp_output_control_segment+0x94>)
  78:	4807      	ldr	r0, [pc, #28]	; (98 <tcp_output_control_segment+0x98>)
  7a:	f7ff fffe 	bl	0 <printf>
  7e:	4628      	mov	r0, r5
  80:	f7ff fffe 	bl	0 <fflush>
  84:	2001      	movs	r0, #1
  86:	f7ff fffe 	bl	0 <qnethernet_hal_stdio_flush>
  8a:	f7ff fffe 	bl	0 <abort>
  8e:	bf00      	nop
  90:	00000000 	.word	0x00000000
  94:	00000000 	.word	0x00000000
  98:	00000048 	.word	0x00000048

Disassembly of section .text.tcp_rst_common.isra.0:

00000000 <tcp_rst_common.isra.0>:
   0:	e92d 41f0 	stmdb	sp!, {r4, r5, r6, r7, r8, lr}
   4:	f8bd 8018 	ldrh.w	r8, [sp, #24]
   8:	f8bd 701c 	ldrh.w	r7, [sp, #28]
   c:	b352      	cbz	r2, 64 <tcp_rst_common.isra.0+0x64>
   e:	b3c3      	cbz	r3, 82 <tcp_rst_common.isra.0+0x82>
  10:	460e      	mov	r6, r1
  12:	f44f 7220 	mov.w	r2, #640	; 0x280
  16:	ba05      	rev	r5, r0
  18:	2114      	movs	r1, #20
  1a:	2024      	movs	r0, #36	; 0x24
  1c:	f7ff fffe 	bl	0 <pbuf_alloc>
  20:	4604      	mov	r4, r0
  22:	b1e0      	cbz	r0, 5e <tcp_rst_common.isra.0+0x5e>
  24:	8943      	ldrh	r3, [r0, #10]
  26:	2b13      	cmp	r3, #19
  28:	d930      	bls.n	8c <tcp_rst_common.isra.0+0x8c>
  2a:	6843      	ldr	r3, [r0, #4]
  2c:	2200      	movs	r2, #0
  2e:	2150      	movs	r1, #80	; 0x50
  30:	fa98 f898 	rev16.w	r8, r8
  34:	741a      	strb	r2, [r3, #16]
  36:	ba7f      	rev16	r7, r7
  38:	745a      	strb	r2, [r3, #17]
  3a:	ba36      	rev	r6, r6
  3c:	749a      	strb	r2, [r3, #18]
  3e:	74da      	strb	r2, [r3, #19]
  40:	2214      	movs	r2, #20
  42:	7319      	strb	r1, [r3, #12]
  44:	f06f 012f 	mvn.w	r1, #47	; 0x2f
  48:	735a      	strb	r2, [r3, #13]
  4a:	2216      	movs	r2, #22
  4c:	f8a3 8000 	strh.w	r8, [r3]
  50:	805f      	strh	r7, [r3, #2]
  52:	605d      	str	r5, [r3, #4]
  54:	609e      	str	r6, [r3, #8]
  56:	7399      	strb	r1, [r3, #14]
  58:	73da      	strb	r2, [r3, #15]
  5a:	f7ff fffe 	bl	0 <tcp_rst_common.isra.0>
  5e:	4620      	mov	r0, r4
  60:	e8bd 81f0 	ldmia.w	sp!, {r4, r5, r6, r7, r8, pc}
  64:	4b0c      	ldr	r3, [pc, #48]	; (98 <tcp_rst_common.isra.0+0x98>)
  66:	f240 72c4 	movw	r2, #1988	; 0x7c4
  6a:	490c      	ldr	r1, [pc, #48]	; (9c <tcp_rst_common.isra.0+0x9c>)
  6c:	480c      	ldr	r0, [pc, #48]	; (a0 <tcp_rst_common.isra.0+0xa0>)
  6e:	f7ff fffe 	bl	0 <printf>
  72:	2000      	movs	r0, #0
  74:	f7ff fffe 	bl	0 <fflush>
  78:	2001      	movs	r0, #1
  7a:	f7ff fffe 	bl	0 <qnethernet_hal_stdio_flush>
  7e:	f7ff fffe 	bl	0 <abort>
  82:	4b05      	ldr	r3, [pc, #20]	; (98 <tcp_rst_common.isra.0+0x98>)
  84:	f240 72c5 	movw	r2, #1989	; 0x7c5
  88:	4906      	ldr	r1, [pc, #24]	; (a4 <tcp_rst_common.isra.0+0xa4>)
  8a:	e7ef      	b.n	6c <tcp_rst_common.isra.0+0x6c>
  8c:	4b02      	ldr	r3, [pc, #8]	; (98 <tcp_rst_common.isra.0+0x98>)
  8e:	f240 7227 	movw	r2, #1831	; 0x727
  92:	4905      	ldr	r1, [pc, #20]	; (a8 <tcp_rst_common.isra.0+0xa8>)
  94:	e7ea      	b.n	6c <tcp_rst_common.isra.0+0x6c>
  96:	bf00      	nop
  98:	00000000 	.word	0x00000000
  9c:	00000000 	.word	0x00000000
  a0:	00000048 	.word	0x00000048
  a4:	0000001c 	.word	0x0000001c
  a8:	00000028 	.word	0x00000028

Disassembly of section .text.tcp_write:

00000000 <tcp_write>:
   0:	e92d 4ff0 	stmdb	sp!, {r4, r5, r6, r7, r8, r9, sl, fp, lr}
   4:	2400      	movs	r4, #0
   6:	b091      	sub	sp, #68	; 0x44
   8:	e9cd 1307 	strd	r1, r3, [sp, #28]
   c:	f8ad 403e 	strh.w	r4, [sp, #62]	; 0x3e
  10:	2800      	cmp	r0, #0
  12:	f000 8261 	beq.w	4d8 <tcp_write+0x4d8>
  16:	f8b0 3062 	ldrh.w	r3, [r0, #98]	; 0x62
  1a:	4692      	mov	sl, r2
  1c:	8e42      	ldrh	r2, [r0, #50]	; 0x32
  1e:	460d      	mov	r5, r1
  20:	085b      	lsrs	r3, r3, #1
  22:	4681      	mov	r9, r0
  24:	f240 11a7 	movw	r1, #423	; 0x1a7
  28:	48a5      	ldr	r0, [pc, #660]	; (2c0 <tcp_write+0x2c0>)
  2a:	4293      	cmp	r3, r2
  2c:	bf28      	it	cs
  2e:	4613      	movcs	r3, r2
  30:	469b      	mov	fp, r3
  32:	42a3      	cmp	r3, r4
  34:	bf08      	it	eq
  36:	4693      	moveq	fp, r2
  38:	4aa2      	ldr	r2, [pc, #648]	; (2c4 <tcp_write+0x2c4>)
  3a:	f7ff fffe 	bl	0 <qnethernet_hal_check_core_locking>
  3e:	2d00      	cmp	r5, #0
  40:	f000 824a 	beq.w	4d8 <tcp_write+0x4d8>
  44:	f899 3014 	ldrb.w	r3, [r9, #20]
  48:	1e9a      	subs	r2, r3, #2
  4a:	2a02      	cmp	r2, #2
  4c:	d902      	bls.n	54 <tcp_write+0x54>
  4e:	2b07      	cmp	r3, #7
  50:	f040 8221 	bne.w	496 <tcp_write+0x496>
  54:	f1ba 0f00 	cmp.w	sl, #0
  58:	f000 808f 	beq.w	17a <tcp_write+0x17a>
  5c:	f8b9 3064 	ldrh.w	r3, [r9, #100]	; 0x64
  60:	4553      	cmp	r3, sl
  62:	f0c0 8230 	bcc.w	4c6 <tcp_write+0x4c6>
  66:	f8b9 6066 	ldrh.w	r6, [r9, #102]	; 0x66
  6a:	2e0f      	cmp	r6, #15
  6c:	f200 822b 	bhi.w	4c6 <tcp_write+0x4c6>
  70:	f8d9 3070 	ldr.w	r3, [r9, #112]	; 0x70
  74:	b99e      	cbnz	r6, 9e <tcp_write+0x9e>
  76:	2b00      	cmp	r3, #0
  78:	f040 824c 	bne.w	514 <tcp_write+0x514>
  7c:	f8d9 306c 	ldr.w	r3, [r9, #108]	; 0x6c
  80:	2b00      	cmp	r3, #0
  82:	f040 8247 	bne.w	514 <tcp_write+0x514>
  86:	f8b9 6068 	ldrh.w	r6, [r9, #104]	; 0x68
  8a:	2e00      	cmp	r6, #0
  8c:	f040 8206 	bne.w	49c <tcp_write+0x49c>
  90:	2300      	movs	r3, #0
  92:	461c      	mov	r4, r3
  94:	930c      	str	r3, [sp, #48]	; 0x30
  96:	9309      	str	r3, [sp, #36]	; 0x24
  98:	e9cd 330a 	strd	r3, r3, [sp, #40]	; 0x28
  9c:	e077      	b.n	18e <tcp_write+0x18e>
  9e:	2b00      	cmp	r3, #0
  a0:	f000 819d 	beq.w	3de <tcp_write+0x3de>
  a4:	f8d9 806c 	ldr.w	r8, [r9, #108]	; 0x6c
  a8:	f1b8 0f00 	cmp.w	r8, #0
  ac:	f000 8237 	beq.w	51e <tcp_write+0x51e>
  b0:	4643      	mov	r3, r8
  b2:	461a      	mov	r2, r3
  b4:	681b      	ldr	r3, [r3, #0]
  b6:	2b00      	cmp	r3, #0
  b8:	d1fb      	bne.n	b2 <tcp_write+0xb2>
  ba:	4698      	mov	r8, r3
  bc:	7a93      	ldrb	r3, [r2, #10]
  be:	8911      	ldrh	r1, [r2, #8]
  c0:	009b      	lsls	r3, r3, #2
  c2:	920a      	str	r2, [sp, #40]	; 0x28
  c4:	f003 0304 	and.w	r3, r3, #4
  c8:	18ca      	adds	r2, r1, r3
  ca:	4593      	cmp	fp, r2
  cc:	f2c0 8218 	blt.w	500 <tcp_write+0x500>
  d0:	ebab 0201 	sub.w	r2, fp, r1
  d4:	1ad2      	subs	r2, r2, r3
  d6:	f8b9 3068 	ldrh.w	r3, [r9, #104]	; 0x68
  da:	b292      	uxth	r2, r2
  dc:	9309      	str	r3, [sp, #36]	; 0x24
  de:	f8ad 303e 	strh.w	r3, [sp, #62]	; 0x3e
  e2:	2b00      	cmp	r3, #0
  e4:	f000 80ea 	beq.w	2bc <tcp_write+0x2bc>
  e8:	4293      	cmp	r3, r2
  ea:	f200 822b 	bhi.w	544 <tcp_write+0x544>
  ee:	9809      	ldr	r0, [sp, #36]	; 0x24
  f0:	4550      	cmp	r0, sl
  f2:	4603      	mov	r3, r0
  f4:	bf28      	it	cs
  f6:	4653      	movcs	r3, sl
  f8:	4293      	cmp	r3, r2
  fa:	bf28      	it	cs
  fc:	4613      	movcs	r3, r2
  fe:	1ac0      	subs	r0, r0, r3
 100:	1ad2      	subs	r2, r2, r3
 102:	b280      	uxth	r0, r0
 104:	b292      	uxth	r2, r2
 106:	f8ad 003e 	strh.w	r0, [sp, #62]	; 0x3e
 10a:	b110      	cbz	r0, 112 <tcp_write+0x112>
 10c:	459a      	cmp	sl, r3
 10e:	f040 8214 	bne.w	53a <tcp_write+0x53a>
 112:	9f0a      	ldr	r7, [sp, #40]	; 0x28
 114:	9309      	str	r3, [sp, #36]	; 0x24
 116:	9b09      	ldr	r3, [sp, #36]	; 0x24
 118:	2a00      	cmp	r2, #0
 11a:	bf18      	it	ne
 11c:	459a      	cmpne	sl, r3
 11e:	d92f      	bls.n	180 <tcp_write+0x180>
 120:	b371      	cbz	r1, 180 <tcp_write+0x180>
 122:	ebaa 0403 	sub.w	r4, sl, r3
 126:	9b08      	ldr	r3, [sp, #32]
 128:	4294      	cmp	r4, r2
 12a:	bfa8      	it	ge
 12c:	4614      	movge	r4, r2
 12e:	07d9      	lsls	r1, r3, #31
 130:	b2a5      	uxth	r5, r4
 132:	f100 80ec 	bmi.w	30e <tcp_write+0x30e>
 136:	9b0a      	ldr	r3, [sp, #40]	; 0x28
 138:	685a      	ldr	r2, [r3, #4]
 13a:	4613      	mov	r3, r2
 13c:	6812      	ldr	r2, [r2, #0]
 13e:	2a00      	cmp	r2, #0
 140:	d1fb      	bne.n	13a <tcp_write+0x13a>
 142:	920b      	str	r2, [sp, #44]	; 0x2c
 144:	7b1a      	ldrb	r2, [r3, #12]
 146:	f012 0fc0 	tst.w	r2, #192	; 0xc0
 14a:	d106      	bne.n	15a <tcp_write+0x15a>
 14c:	895a      	ldrh	r2, [r3, #10]
 14e:	685b      	ldr	r3, [r3, #4]
 150:	4413      	add	r3, r2
 152:	9a07      	ldr	r2, [sp, #28]
 154:	429a      	cmp	r2, r3
 156:	f000 81b2 	beq.w	4be <tcp_write+0x4be>
 15a:	2201      	movs	r2, #1
 15c:	4629      	mov	r1, r5
 15e:	2000      	movs	r0, #0
 160:	f7ff fffe 	bl	0 <pbuf_alloc>
 164:	900b      	str	r0, [sp, #44]	; 0x2c
 166:	2800      	cmp	r0, #0
 168:	f040 819d 	bne.w	4a6 <tcp_write+0x4a6>
 16c:	f8b9 301a 	ldrh.w	r3, [r9, #26]
 170:	f043 0380 	orr.w	r3, r3, #128	; 0x80
 174:	f8a9 301a 	strh.w	r3, [r9, #26]
 178:	e0b9      	b.n	2ee <tcp_write+0x2ee>
 17a:	f8b9 6066 	ldrh.w	r6, [r9, #102]	; 0x66
 17e:	e791      	b.n	a4 <tcp_write+0xa4>
 180:	2300      	movs	r3, #0
 182:	9c09      	ldr	r4, [sp, #36]	; 0x24
 184:	930b      	str	r3, [sp, #44]	; 0x2c
 186:	930c      	str	r3, [sp, #48]	; 0x30
 188:	45a2      	cmp	sl, r4
 18a:	f240 8085 	bls.w	298 <tcp_write+0x298>
 18e:	9b08      	ldr	r3, [sp, #32]
 190:	f04f 0800 	mov.w	r8, #0
 194:	f003 0301 	and.w	r3, r3, #1
 198:	e9cd 8b04 	strd	r8, fp, [sp, #16]
 19c:	930d      	str	r3, [sp, #52]	; 0x34
 19e:	469b      	mov	fp, r3
 1a0:	e03e      	b.n	220 <tcp_write+0x220>
 1a2:	f8bd 303e 	ldrh.w	r3, [sp, #62]	; 0x3e
 1a6:	2b00      	cmp	r3, #0
 1a8:	f040 8199 	bne.w	4de <tcp_write+0x4de>
 1ac:	2201      	movs	r2, #1
 1ae:	4629      	mov	r1, r5
 1b0:	2038      	movs	r0, #56	; 0x38
 1b2:	f7ff fffe 	bl	0 <pbuf_alloc>
 1b6:	2800      	cmp	r0, #0
 1b8:	f000 8086 	beq.w	2c8 <tcp_write+0x2c8>
 1bc:	9a07      	ldr	r2, [sp, #28]
 1be:	4659      	mov	r1, fp
 1c0:	9006      	str	r0, [sp, #24]
 1c2:	4422      	add	r2, r4
 1c4:	6042      	str	r2, [r0, #4]
 1c6:	f44f 7220 	mov.w	r2, #640	; 0x280
 1ca:	2038      	movs	r0, #56	; 0x38
 1cc:	f7ff fffe 	bl	0 <pbuf_alloc>
 1d0:	9b06      	ldr	r3, [sp, #24]
 1d2:	4607      	mov	r7, r0
 1d4:	2800      	cmp	r0, #0
 1d6:	f000 810d 	beq.w	3f4 <tcp_write+0x3f4>
 1da:	4619      	mov	r1, r3
 1dc:	f7ff fffe 	bl	0 <pbuf_cat>
 1e0:	4638      	mov	r0, r7
 1e2:	f7ff fffe 	bl	0 <pbuf_clen>
 1e6:	4430      	add	r0, r6
 1e8:	b286      	uxth	r6, r0
 1ea:	2e10      	cmp	r6, #16
 1ec:	d846      	bhi.n	27c <tcp_write+0x27c>
 1ee:	f8d9 305c 	ldr.w	r3, [r9, #92]	; 0x5c
 1f2:	2200      	movs	r2, #0
 1f4:	4639      	mov	r1, r7
 1f6:	4648      	mov	r0, r9
 1f8:	4423      	add	r3, r4
 1fa:	9200      	str	r2, [sp, #0]
 1fc:	f7ff fffe 	bl	0 <tcp_write>
 200:	2800      	cmp	r0, #0
 202:	d061      	beq.n	2c8 <tcp_write+0x2c8>
 204:	9b04      	ldr	r3, [sp, #16]
 206:	2b00      	cmp	r3, #0
 208:	d03e      	beq.n	288 <tcp_write+0x288>
 20a:	f1b8 0f00 	cmp.w	r8, #0
 20e:	f000 816d 	beq.w	4ec <tcp_write+0x4ec>
 212:	4425      	add	r5, r4
 214:	f8c8 0000 	str.w	r0, [r8]
 218:	b2ac      	uxth	r4, r5
 21a:	45a2      	cmp	sl, r4
 21c:	d939      	bls.n	292 <tcp_write+0x292>
 21e:	4680      	mov	r8, r0
 220:	ebaa 0504 	sub.w	r5, sl, r4
 224:	9b05      	ldr	r3, [sp, #20]
 226:	b2ad      	uxth	r5, r5
 228:	429d      	cmp	r5, r3
 22a:	bf28      	it	cs
 22c:	461d      	movcs	r5, r3
 22e:	b2ad      	uxth	r5, r5
 230:	f1bb 0f00 	cmp.w	fp, #0
 234:	d0b5      	beq.n	1a2 <tcp_write+0x1a2>
 236:	9b08      	ldr	r3, [sp, #32]
 238:	4629      	mov	r1, r5
 23a:	9a05      	ldr	r2, [sp, #20]
 23c:	2038      	movs	r0, #56	; 0x38
 23e:	e9cd 9300 	strd	r9, r3, [sp]
 242:	9b04      	ldr	r3, [sp, #16]
 244:	fab3 f383 	clz	r3, r3
 248:	095b      	lsrs	r3, r3, #5
 24a:	9302      	str	r3, [sp, #8]
 24c:	f10d 033e 	add.w	r3, sp, #62	; 0x3e
 250:	f7ff fffe 	bl	0 <tcp_write>
 254:	4607      	mov	r7, r0
 256:	2800      	cmp	r0, #0
 258:	d036      	beq.n	2c8 <tcp_write+0x2c8>
 25a:	8943      	ldrh	r3, [r0, #10]
 25c:	42ab      	cmp	r3, r5
 25e:	f0c0 814a 	bcc.w	4f6 <tcp_write+0x4f6>
 262:	9b07      	ldr	r3, [sp, #28]
 264:	462a      	mov	r2, r5
 266:	6840      	ldr	r0, [r0, #4]
 268:	1919      	adds	r1, r3, r4
 26a:	f7ff fffe 	bl	0 <memcpy>
 26e:	4638      	mov	r0, r7
 270:	f7ff fffe 	bl	0 <pbuf_clen>
 274:	4430      	add	r0, r6
 276:	b286      	uxth	r6, r0
 278:	2e10      	cmp	r6, #16
 27a:	d9b8      	bls.n	1ee <tcp_write+0x1ee>
 27c:	4638      	mov	r0, r7
 27e:	f8dd 8010 	ldr.w	r8, [sp, #16]
 282:	f7ff fffe 	bl	0 <pbuf_free>
 286:	e021      	b.n	2cc <tcp_write+0x2cc>
 288:	4425      	add	r5, r4
 28a:	9004      	str	r0, [sp, #16]
 28c:	b2ac      	uxth	r4, r5
 28e:	45a2      	cmp	sl, r4
 290:	d8c5      	bhi.n	21e <tcp_write+0x21e>
 292:	f8dd 8010 	ldr.w	r8, [sp, #16]
 296:	4607      	mov	r7, r0
 298:	9b09      	ldr	r3, [sp, #36]	; 0x24
 29a:	2b00      	cmp	r3, #0
 29c:	f000 80b0 	beq.w	400 <tcp_write+0x400>
 2a0:	9a0a      	ldr	r2, [sp, #40]	; 0x28
 2a2:	6854      	ldr	r4, [r2, #4]
 2a4:	2c00      	cmp	r4, #0
 2a6:	d061      	beq.n	36c <tcp_write+0x36c>
 2a8:	469b      	mov	fp, r3
 2aa:	9d07      	ldr	r5, [sp, #28]
 2ac:	8923      	ldrh	r3, [r4, #8]
 2ae:	445b      	add	r3, fp
 2b0:	8123      	strh	r3, [r4, #8]
 2b2:	6823      	ldr	r3, [r4, #0]
 2b4:	2b00      	cmp	r3, #0
 2b6:	d04c      	beq.n	352 <tcp_write+0x352>
 2b8:	461c      	mov	r4, r3
 2ba:	e7f7      	b.n	2ac <tcp_write+0x2ac>
 2bc:	4647      	mov	r7, r8
 2be:	e72a      	b.n	116 <tcp_write+0x116>
 2c0:	00000000 	.word	0x00000000
 2c4:	00000000 	.word	0x00000000
 2c8:	f8dd 8010 	ldr.w	r8, [sp, #16]
 2cc:	f8b9 301a 	ldrh.w	r3, [r9, #26]
 2d0:	f043 0380 	orr.w	r3, r3, #128	; 0x80
 2d4:	f8a9 301a 	strh.w	r3, [r9, #26]
 2d8:	9b0b      	ldr	r3, [sp, #44]	; 0x2c
 2da:	b113      	cbz	r3, 2e2 <tcp_write+0x2e2>
 2dc:	4618      	mov	r0, r3
 2de:	f7ff fffe 	bl	0 <pbuf_free>
 2e2:	f1b8 0f00 	cmp.w	r8, #0
 2e6:	d002      	beq.n	2ee <tcp_write+0x2ee>
 2e8:	4640      	mov	r0, r8
 2ea:	f7ff fffe 	bl	0 <tcp_segs_free>
 2ee:	f8b9 3066 	ldrh.w	r3, [r9, #102]	; 0x66
 2f2:	b13b      	cbz	r3, 304 <tcp_write+0x304>
 2f4:	f8d9 3070 	ldr.w	r3, [r9, #112]	; 0x70
 2f8:	b923      	cbnz	r3, 304 <tcp_write+0x304>
 2fa:	f8d9 406c 	ldr.w	r4, [r9, #108]	; 0x6c
 2fe:	2c00      	cmp	r4, #0
 300:	f000 8125 	beq.w	54e <tcp_write+0x54e>
 304:	f04f 30ff 	mov.w	r0, #4294967295	; 0xffffffff
 308:	b011      	add	sp, #68	; 0x44
 30a:	e8bd 8ff0 	ldmia.w	sp!, {r4, r5, r6, r7, r8, r9, sl, fp, pc}
 30e:	e9cd 9300 	strd	r9, r3, [sp]
 312:	2301      	movs	r3, #1
 314:	4629      	mov	r1, r5
 316:	2000      	movs	r0, #0
 318:	9302      	str	r3, [sp, #8]
 31a:	f10d 033e 	add.w	r3, sp, #62	; 0x3e
 31e:	f7ff fffe 	bl	0 <tcp_write>
 322:	900b      	str	r0, [sp, #44]	; 0x2c
 324:	2800      	cmp	r0, #0
 326:	f43f af21 	beq.w	16c <tcp_write+0x16c>
 32a:	9b07      	ldr	r3, [sp, #28]
 32c:	4604      	mov	r4, r0
 32e:	9909      	ldr	r1, [sp, #36]	; 0x24
 330:	462a      	mov	r2, r5
 332:	6840      	ldr	r0, [r0, #4]
 334:	1859      	adds	r1, r3, r1
 336:	f7ff fffe 	bl	0 <memcpy>
 33a:	4620      	mov	r0, r4
 33c:	f7ff fffe 	bl	0 <pbuf_clen>
 340:	4430      	add	r0, r6
 342:	2300      	movs	r3, #0
 344:	b286      	uxth	r6, r0
 346:	930c      	str	r3, [sp, #48]	; 0x30
 348:	9b09      	ldr	r3, [sp, #36]	; 0x24
 34a:	9f0a      	ldr	r7, [sp, #40]	; 0x28
 34c:	18ec      	adds	r4, r5, r3
 34e:	b2a4      	uxth	r4, r4
 350:	e71a      	b.n	188 <tcp_write+0x188>
 352:	8963      	ldrh	r3, [r4, #10]
 354:	465a      	mov	r2, fp
 356:	6860      	ldr	r0, [r4, #4]
 358:	4629      	mov	r1, r5
 35a:	4418      	add	r0, r3
 35c:	f7ff fffe 	bl	0 <memcpy>
 360:	8963      	ldrh	r3, [r4, #10]
 362:	445b      	add	r3, fp
 364:	8163      	strh	r3, [r4, #10]
 366:	6823      	ldr	r3, [r4, #0]
 368:	2b00      	cmp	r3, #0
 36a:	d1a5      	bne.n	2b8 <tcp_write+0x2b8>
 36c:	9a0a      	ldr	r2, [sp, #40]	; 0x28
 36e:	9909      	ldr	r1, [sp, #36]	; 0x24
 370:	8913      	ldrh	r3, [r2, #8]
 372:	4419      	add	r1, r3
 374:	f8bd 303e 	ldrh.w	r3, [sp, #62]	; 0x3e
 378:	8111      	strh	r1, [r2, #8]
 37a:	f8a9 3068 	strh.w	r3, [r9, #104]	; 0x68
 37e:	9b0b      	ldr	r3, [sp, #44]	; 0x2c
 380:	2b00      	cmp	r3, #0
 382:	d05f      	beq.n	444 <tcp_write+0x444>
 384:	9c0a      	ldr	r4, [sp, #40]	; 0x28
 386:	9d0b      	ldr	r5, [sp, #44]	; 0x2c
 388:	6860      	ldr	r0, [r4, #4]
 38a:	4629      	mov	r1, r5
 38c:	f7ff fffe 	bl	0 <pbuf_cat>
 390:	892a      	ldrh	r2, [r5, #8]
 392:	8923      	ldrh	r3, [r4, #8]
 394:	4413      	add	r3, r2
 396:	8123      	strh	r3, [r4, #8]
 398:	9b0a      	ldr	r3, [sp, #40]	; 0x28
 39a:	f8c3 8000 	str.w	r8, [r3]
 39e:	f8d9 305c 	ldr.w	r3, [r9, #92]	; 0x5c
 3a2:	f8a9 6066 	strh.w	r6, [r9, #102]	; 0x66
 3a6:	4453      	add	r3, sl
 3a8:	f8c9 305c 	str.w	r3, [r9, #92]	; 0x5c
 3ac:	f8b9 3064 	ldrh.w	r3, [r9, #100]	; 0x64
 3b0:	eba3 030a 	sub.w	r3, r3, sl
 3b4:	f8a9 3064 	strh.w	r3, [r9, #100]	; 0x64
 3b8:	b11e      	cbz	r6, 3c2 <tcp_write+0x3c2>
 3ba:	f8d9 3070 	ldr.w	r3, [r9, #112]	; 0x70
 3be:	2b00      	cmp	r3, #0
 3c0:	d037      	beq.n	432 <tcp_write+0x432>
 3c2:	b157      	cbz	r7, 3da <tcp_write+0x3da>
 3c4:	68fb      	ldr	r3, [r7, #12]
 3c6:	b143      	cbz	r3, 3da <tcp_write+0x3da>
 3c8:	9a08      	ldr	r2, [sp, #32]
 3ca:	f012 0002 	ands.w	r0, r2, #2
 3ce:	d104      	bne.n	3da <tcp_write+0x3da>
 3d0:	899a      	ldrh	r2, [r3, #12]
 3d2:	f442 6200 	orr.w	r2, r2, #2048	; 0x800
 3d6:	819a      	strh	r2, [r3, #12]
 3d8:	e796      	b.n	308 <tcp_write+0x308>
 3da:	2000      	movs	r0, #0
 3dc:	e794      	b.n	308 <tcp_write+0x308>
 3de:	f8d9 806c 	ldr.w	r8, [r9, #108]	; 0x6c
 3e2:	f1b8 0f00 	cmp.w	r8, #0
 3e6:	f47f ae63 	bne.w	b0 <tcp_write+0xb0>
 3ea:	4b5b      	ldr	r3, [pc, #364]	; (558 <tcp_write+0x558>)
 3ec:	f44f 72ac 	mov.w	r2, #344	; 0x158
 3f0:	495a      	ldr	r1, [pc, #360]	; (55c <tcp_write+0x55c>)
 3f2:	e013      	b.n	41c <tcp_write+0x41c>
 3f4:	4618      	mov	r0, r3
 3f6:	f8dd 8010 	ldr.w	r8, [sp, #16]
 3fa:	f7ff fffe 	bl	0 <pbuf_free>
 3fe:	e765      	b.n	2cc <tcp_write+0x2cc>
 400:	f8bd 303e 	ldrh.w	r3, [sp, #62]	; 0x3e
 404:	f8a9 3068 	strh.w	r3, [r9, #104]	; 0x68
 408:	9b0b      	ldr	r3, [sp, #44]	; 0x2c
 40a:	2b00      	cmp	r3, #0
 40c:	d039      	beq.n	482 <tcp_write+0x482>
 40e:	9b0a      	ldr	r3, [sp, #40]	; 0x28
 410:	2b00      	cmp	r3, #0
 412:	d1b7      	bne.n	384 <tcp_write+0x384>
 414:	4b50      	ldr	r3, [pc, #320]	; (558 <tcp_write+0x558>)
 416:	f240 22e3 	movw	r2, #739	; 0x2e3
 41a:	4951      	ldr	r1, [pc, #324]	; (560 <tcp_write+0x560>)
 41c:	4851      	ldr	r0, [pc, #324]	; (564 <tcp_write+0x564>)
 41e:	f7ff fffe 	bl	0 <printf>
 422:	2000      	movs	r0, #0
 424:	f7ff fffe 	bl	0 <fflush>
 428:	2001      	movs	r0, #1
 42a:	f7ff fffe 	bl	0 <qnethernet_hal_stdio_flush>
 42e:	f7ff fffe 	bl	0 <abort>
 432:	f8d9 406c 	ldr.w	r4, [r9, #108]	; 0x6c
 436:	2c00      	cmp	r4, #0
 438:	d1c3      	bne.n	3c2 <tcp_write+0x3c2>
 43a:	4b47      	ldr	r3, [pc, #284]	; (558 <tcp_write+0x558>)
 43c:	f240 3215 	movw	r2, #789	; 0x315
 440:	4949      	ldr	r1, [pc, #292]	; (568 <tcp_write+0x568>)
 442:	e7eb      	b.n	41c <tcp_write+0x41c>
 444:	9b0c      	ldr	r3, [sp, #48]	; 0x30
 446:	2b00      	cmp	r3, #0
 448:	d0a6      	beq.n	398 <tcp_write+0x398>
 44a:	9b0a      	ldr	r3, [sp, #40]	; 0x28
 44c:	6859      	ldr	r1, [r3, #4]
 44e:	b1e9      	cbz	r1, 48c <tcp_write+0x48c>
 450:	680a      	ldr	r2, [r1, #0]
 452:	2a00      	cmp	r2, #0
 454:	d048      	beq.n	4e8 <tcp_write+0x4e8>
 456:	980c      	ldr	r0, [sp, #48]	; 0x30
 458:	e000      	b.n	45c <tcp_write+0x45c>
 45a:	461a      	mov	r2, r3
 45c:	890b      	ldrh	r3, [r1, #8]
 45e:	4403      	add	r3, r0
 460:	810b      	strh	r3, [r1, #8]
 462:	4611      	mov	r1, r2
 464:	6813      	ldr	r3, [r2, #0]
 466:	2b00      	cmp	r3, #0
 468:	d1f7      	bne.n	45a <tcp_write+0x45a>
 46a:	8913      	ldrh	r3, [r2, #8]
 46c:	990c      	ldr	r1, [sp, #48]	; 0x30
 46e:	440b      	add	r3, r1
 470:	8113      	strh	r3, [r2, #8]
 472:	8953      	ldrh	r3, [r2, #10]
 474:	440b      	add	r3, r1
 476:	8153      	strh	r3, [r2, #10]
 478:	9a0a      	ldr	r2, [sp, #40]	; 0x28
 47a:	8913      	ldrh	r3, [r2, #8]
 47c:	440b      	add	r3, r1
 47e:	8113      	strh	r3, [r2, #8]
 480:	e78a      	b.n	398 <tcp_write+0x398>
 482:	9b0c      	ldr	r3, [sp, #48]	; 0x30
 484:	b1a3      	cbz	r3, 4b0 <tcp_write+0x4b0>
 486:	9b0a      	ldr	r3, [sp, #40]	; 0x28
 488:	2b00      	cmp	r3, #0
 48a:	d1de      	bne.n	44a <tcp_write+0x44a>
 48c:	4b32      	ldr	r3, [pc, #200]	; (558 <tcp_write+0x558>)
 48e:	f240 22e9 	movw	r2, #745	; 0x2e9
 492:	4936      	ldr	r1, [pc, #216]	; (56c <tcp_write+0x56c>)
 494:	e7c2      	b.n	41c <tcp_write+0x41c>
 496:	f06f 000a 	mvn.w	r0, #10
 49a:	e735      	b.n	308 <tcp_write+0x308>
 49c:	4b2e      	ldr	r3, [pc, #184]	; (558 <tcp_write+0x558>)
 49e:	f240 224d 	movw	r2, #589	; 0x24d
 4a2:	4933      	ldr	r1, [pc, #204]	; (570 <tcp_write+0x570>)
 4a4:	e7ba      	b.n	41c <tcp_write+0x41c>
 4a6:	9b07      	ldr	r3, [sp, #28]
 4a8:	9a09      	ldr	r2, [sp, #36]	; 0x24
 4aa:	4413      	add	r3, r2
 4ac:	6043      	str	r3, [r0, #4]
 4ae:	e745      	b.n	33c <tcp_write+0x33c>
 4b0:	9b0a      	ldr	r3, [sp, #40]	; 0x28
 4b2:	2b00      	cmp	r3, #0
 4b4:	f47f af70 	bne.w	398 <tcp_write+0x398>
 4b8:	f8c9 806c 	str.w	r8, [r9, #108]	; 0x6c
 4bc:	e76f      	b.n	39e <tcp_write+0x39e>
 4be:	9b09      	ldr	r3, [sp, #36]	; 0x24
 4c0:	bb1b      	cbnz	r3, 50a <tcp_write+0x50a>
 4c2:	950c      	str	r5, [sp, #48]	; 0x30
 4c4:	e740      	b.n	348 <tcp_write+0x348>
 4c6:	f8b9 301a 	ldrh.w	r3, [r9, #26]
 4ca:	f04f 30ff 	mov.w	r0, #4294967295	; 0xffffffff
 4ce:	f043 0380 	orr.w	r3, r3, #128	; 0x80
 4d2:	f8a9 301a 	strh.w	r3, [r9, #26]
 4d6:	e717      	b.n	308 <tcp_write+0x308>
 4d8:	f06f 000f 	mvn.w	r0, #15
 4dc:	e714      	b.n	308 <tcp_write+0x308>
 4de:	4b1e      	ldr	r3, [pc, #120]	; (558 <tcp_write+0x558>)
 4e0:	f44f 721d 	mov.w	r2, #628	; 0x274
 4e4:	4923      	ldr	r1, [pc, #140]	; (574 <tcp_write+0x574>)
 4e6:	e799      	b.n	41c <tcp_write+0x41c>
 4e8:	460a      	mov	r2, r1
 4ea:	e7be      	b.n	46a <tcp_write+0x46a>
 4ec:	4b1a      	ldr	r3, [pc, #104]	; (558 <tcp_write+0x558>)
 4ee:	f240 22ae 	movw	r2, #686	; 0x2ae
 4f2:	4921      	ldr	r1, [pc, #132]	; (578 <tcp_write+0x578>)
 4f4:	e792      	b.n	41c <tcp_write+0x41c>
 4f6:	4b18      	ldr	r3, [pc, #96]	; (558 <tcp_write+0x558>)
 4f8:	f240 2269 	movw	r2, #617	; 0x269
 4fc:	491f      	ldr	r1, [pc, #124]	; (57c <tcp_write+0x57c>)
 4fe:	e78d      	b.n	41c <tcp_write+0x41c>
 500:	4b15      	ldr	r3, [pc, #84]	; (558 <tcp_write+0x558>)
 502:	f240 12e9 	movw	r2, #489	; 0x1e9
 506:	491e      	ldr	r1, [pc, #120]	; (580 <tcp_write+0x580>)
 508:	e788      	b.n	41c <tcp_write+0x41c>
 50a:	4b13      	ldr	r3, [pc, #76]	; (558 <tcp_write+0x558>)
 50c:	f44f 720d 	mov.w	r2, #564	; 0x234
 510:	491c      	ldr	r1, [pc, #112]	; (584 <tcp_write+0x584>)
 512:	e783      	b.n	41c <tcp_write+0x41c>
 514:	4b10      	ldr	r3, [pc, #64]	; (558 <tcp_write+0x558>)
 516:	f240 125b 	movw	r2, #347	; 0x15b
 51a:	491b      	ldr	r1, [pc, #108]	; (588 <tcp_write+0x588>)
 51c:	e77e      	b.n	41c <tcp_write+0x41c>
 51e:	f8b9 3068 	ldrh.w	r3, [r9, #104]	; 0x68
 522:	2b00      	cmp	r3, #0
 524:	d1ba      	bne.n	49c <tcp_write+0x49c>
 526:	f1ba 0f00 	cmp.w	sl, #0
 52a:	f47f adb1 	bne.w	90 <tcp_write+0x90>
 52e:	f8bd 303e 	ldrh.w	r3, [sp, #62]	; 0x3e
 532:	4657      	mov	r7, sl
 534:	f8a9 3068 	strh.w	r3, [r9, #104]	; 0x68
 538:	e7be      	b.n	4b8 <tcp_write+0x4b8>
 53a:	4b07      	ldr	r3, [pc, #28]	; (558 <tcp_write+0x558>)
 53c:	f240 2203 	movw	r2, #515	; 0x203
 540:	4912      	ldr	r1, [pc, #72]	; (58c <tcp_write+0x58c>)
 542:	e76b      	b.n	41c <tcp_write+0x41c>
 544:	4b04      	ldr	r3, [pc, #16]	; (558 <tcp_write+0x558>)
 546:	f240 12fb 	movw	r2, #507	; 0x1fb
 54a:	4911      	ldr	r1, [pc, #68]	; (590 <tcp_write+0x590>)
 54c:	e766      	b.n	41c <tcp_write+0x41c>
 54e:	4b02      	ldr	r3, [pc, #8]	; (558 <tcp_write+0x558>)
 550:	f240 322a 	movw	r2, #810	; 0x32a
 554:	4904      	ldr	r1, [pc, #16]	; (568 <tcp_write+0x568>)
 556:	e761      	b.n	41c <tcp_write+0x41c>
 558:	00000000 	.word	0x00000000
 55c:	00000000 	.word	0x00000000
 560:	00000188 	.word	0x00000188
 564:	00000048 	.word	0x00000048
 568:	000001f8 	.word	0x000001f8
 56c:	000001c0 	.word	0x000001c0
 570:	000000f4 	.word	0x000000f4
 574:	00000164 	.word	0x00000164
 578:	00000174 	.word	0x00000174
 57c:	00000124 	.word	0x00000124
 580:	00000070 	.word	0x00000070
 584:	000000c8 	.word	0x000000c8
 588:	0000003c 	.word	0x0000003c
 58c:	000000a8 	.word	0x000000a8
 590:	00000088 	.word	0x00000088

Disassembly of section .text.tcp_split_unsent_seg:

00000000 <tcp_split_unsent_seg>:
   0:	e92d 4ff0 	stmdb	sp!, {r4, r5, r6, r7, r8, r9, sl, fp, lr}
   4:	4605      	mov	r5, r0
   6:	b083      	sub	sp, #12
   8:	2800      	cmp	r0, #0
   a:	f000 80a6 	beq.w	15a <tcp_split_unsent_seg+0x15a>
   e:	6ec6      	ldr	r6, [r0, #108]	; 0x6c
  10:	2e00      	cmp	r6, #0
  12:	f000 8086 	beq.w	122 <tcp_split_unsent_seg+0x122>
  16:	460c      	mov	r4, r1
  18:	2900      	cmp	r1, #0
  1a:	f000 808f 	beq.w	13c <tcp_split_unsent_seg+0x13c>
  1e:	f8b6 9008 	ldrh.w	r9, [r6, #8]
  22:	4589      	cmp	r9, r1
  24:	d976      	bls.n	114 <tcp_split_unsent_seg+0x114>
  26:	8e43      	ldrh	r3, [r0, #50]	; 0x32
  28:	428b      	cmp	r3, r1
  2a:	f0c0 809b 	bcc.w	164 <tcp_split_unsent_seg+0x164>
  2e:	f896 a00a 	ldrb.w	sl, [r6, #10]
  32:	eba9 0801 	sub.w	r8, r9, r1
  36:	f44f 7220 	mov.w	r2, #640	; 0x280
  3a:	2038      	movs	r0, #56	; 0x38
  3c:	ea4f 0b8a 	mov.w	fp, sl, lsl #2
  40:	fa1f f888 	uxth.w	r8, r8
  44:	f00b 0b04 	and.w	fp, fp, #4
  48:	eb08 010b 	add.w	r1, r8, fp
  4c:	b289      	uxth	r1, r1
  4e:	f7ff fffe 	bl	0 <pbuf_alloc>
  52:	4607      	mov	r7, r0
  54:	2800      	cmp	r0, #0
  56:	d064      	beq.n	122 <tcp_split_unsent_seg+0x122>
  58:	6870      	ldr	r0, [r6, #4]
  5a:	8932      	ldrh	r2, [r6, #8]
  5c:	8903      	ldrh	r3, [r0, #8]
  5e:	6879      	ldr	r1, [r7, #4]
  60:	1a9b      	subs	r3, r3, r2
  62:	4642      	mov	r2, r8
  64:	4459      	add	r1, fp
  66:	4423      	add	r3, r4
  68:	b29b      	uxth	r3, r3
  6a:	f7ff fffe 	bl	0 <pbuf_copy_partial>
  6e:	4540      	cmp	r0, r8
  70:	d154      	bne.n	11c <tcp_split_unsent_seg+0x11c>
  72:	68f3      	ldr	r3, [r6, #12]
  74:	899a      	ldrh	r2, [r3, #12]
  76:	ba52      	rev16	r2, r2
  78:	fa5f f882 	uxtb.w	r8, r2
  7c:	f012 0208 	ands.w	r2, r2, #8
  80:	d154      	bne.n	12c <tcp_split_unsent_seg+0x12c>
  82:	f008 083f 	and.w	r8, r8, #63	; 0x3f
  86:	f018 0f01 	tst.w	r8, #1
  8a:	d003      	beq.n	94 <tcp_split_unsent_seg+0x94>
  8c:	f008 08fe 	and.w	r8, r8, #254	; 0xfe
  90:	f042 0201 	orr.w	r2, r2, #1
  94:	685b      	ldr	r3, [r3, #4]
  96:	4639      	mov	r1, r7
  98:	4628      	mov	r0, r5
  9a:	f8cd a000 	str.w	sl, [sp]
  9e:	ba1b      	rev	r3, r3
  a0:	4423      	add	r3, r4
  a2:	f7ff fffe 	bl	0 <tcp_split_unsent_seg>
  a6:	4607      	mov	r7, r0
  a8:	2800      	cmp	r0, #0
  aa:	d03a      	beq.n	122 <tcp_split_unsent_seg+0x122>
  ac:	6870      	ldr	r0, [r6, #4]
  ae:	eba4 0409 	sub.w	r4, r4, r9
  b2:	f7ff fffe 	bl	0 <pbuf_clen>
  b6:	6872      	ldr	r2, [r6, #4]
  b8:	f8b5 3066 	ldrh.w	r3, [r5, #102]	; 0x66
  bc:	b2a4      	uxth	r4, r4
  be:	8911      	ldrh	r1, [r2, #8]
  c0:	fa98 f898 	rev16.w	r8, r8
  c4:	1a1b      	subs	r3, r3, r0
  c6:	4610      	mov	r0, r2
  c8:	4421      	add	r1, r4
  ca:	fa1f f888 	uxth.w	r8, r8
  ce:	f8a5 3066 	strh.w	r3, [r5, #102]	; 0x66
  d2:	b289      	uxth	r1, r1
  d4:	f7ff fffe 	bl	0 <pbuf_realloc>
  d8:	8933      	ldrh	r3, [r6, #8]
  da:	6870      	ldr	r0, [r6, #4]
  dc:	441c      	add	r4, r3
  de:	68f3      	ldr	r3, [r6, #12]
  e0:	8134      	strh	r4, [r6, #8]
  e2:	899a      	ldrh	r2, [r3, #12]
  e4:	ea48 0802 	orr.w	r8, r8, r2
  e8:	f8a3 800c 	strh.w	r8, [r3, #12]
  ec:	f7ff fffe 	bl	0 <pbuf_clen>
  f0:	f8b5 3066 	ldrh.w	r3, [r5, #102]	; 0x66
  f4:	4403      	add	r3, r0
  f6:	6878      	ldr	r0, [r7, #4]
  f8:	f8a5 3066 	strh.w	r3, [r5, #102]	; 0x66
  fc:	f7ff fffe 	bl	0 <pbuf_clen>
 100:	f8b5 3066 	ldrh.w	r3, [r5, #102]	; 0x66
 104:	4418      	add	r0, r3
 106:	6833      	ldr	r3, [r6, #0]
 108:	f8a5 0066 	strh.w	r0, [r5, #102]	; 0x66
 10c:	603b      	str	r3, [r7, #0]
 10e:	6037      	str	r7, [r6, #0]
 110:	683b      	ldr	r3, [r7, #0]
 112:	b17b      	cbz	r3, 134 <tcp_split_unsent_seg+0x134>
 114:	2000      	movs	r0, #0
 116:	b003      	add	sp, #12
 118:	e8bd 8ff0 	ldmia.w	sp!, {r4, r5, r6, r7, r8, r9, sl, fp, pc}
 11c:	4638      	mov	r0, r7
 11e:	f7ff fffe 	bl	0 <pbuf_free>
 122:	f04f 30ff 	mov.w	r0, #4294967295	; 0xffffffff
 126:	b003      	add	sp, #12
 128:	e8bd 8ff0 	ldmia.w	sp!, {r4, r5, r6, r7, r8, r9, sl, fp, pc}
 12c:	f008 0837 	and.w	r8, r8, #55	; 0x37
 130:	2208      	movs	r2, #8
 132:	e7a8      	b.n	86 <tcp_split_unsent_seg+0x86>
 134:	4618      	mov	r0, r3
 136:	f8a5 3068 	strh.w	r3, [r5, #104]	; 0x68
 13a:	e7f4      	b.n	126 <tcp_split_unsent_seg+0x126>
 13c:	4b0c      	ldr	r3, [pc, #48]	; (170 <tcp_split_unsent_seg+0x170>)
 13e:	f240 3256 	movw	r2, #854	; 0x356
 142:	490c      	ldr	r1, [pc, #48]	; (174 <tcp_split_unsent_seg+0x174>)
 144:	480c      	ldr	r0, [pc, #48]	; (178 <tcp_split_unsent_seg+0x178>)
 146:	f7ff fffe 	bl	0 <printf>
 14a:	2000      	movs	r0, #0
 14c:	f7ff fffe 	bl	0 <fflush>
 150:	2001      	movs	r0, #1
 152:	f7ff fffe 	bl	0 <qnethernet_hal_stdio_flush>
 156:	f7ff fffe 	bl	0 <abort>
 15a:	4b05      	ldr	r3, [pc, #20]	; (170 <tcp_split_unsent_seg+0x170>)
 15c:	f240 324e 	movw	r2, #846	; 0x34e
 160:	4906      	ldr	r1, [pc, #24]	; (17c <tcp_split_unsent_seg+0x17c>)
 162:	e7ef      	b.n	144 <tcp_split_unsent_seg+0x144>
 164:	4b02      	ldr	r3, [pc, #8]	; (170 <tcp_split_unsent_seg+0x170>)
 166:	f240 325e 	movw	r2, #862	; 0x35e
 16a:	4905      	ldr	r1, [pc, #20]	; (180 <tcp_split_unsent_seg+0x180>)
 16c:	e7ea      	b.n	144 <tcp_split_unsent_seg+0x144>
 16e:	bf00      	nop
 170:	00000000 	.word	0x00000000
 174:	00000024 	.word	0x00000024
 178:	00000048 	.word	0x00000048
 17c:	00000000 	.word	0x00000000
 180:	00000048 	.word	0x00000048

Disassembly of section .text.tcp_enqueue_flags:

00000000 <tcp_enqueue_flags>:
   0:	b570      	push	{r4, r5, r6, lr}
   2:	f011 0603 	ands.w	r6, r1, #3
   6:	b082      	sub	sp, #8
   8:	d07a      	beq.n	100 <tcp_enqueue_flags+0x100>
   a:	4604      	mov	r4, r0
   c:	2800      	cmp	r0, #0
   e:	d068      	beq.n	e2 <tcp_enqueue_flags+0xe2>
  10:	f011 0602 	ands.w	r6, r1, #2
  14:	460d      	mov	r5, r1
  16:	f44f 7220 	mov.w	r2, #640	; 0x280
  1a:	d137      	bne.n	8c <tcp_enqueue_flags+0x8c>
  1c:	4631      	mov	r1, r6
  1e:	2038      	movs	r0, #56	; 0x38
  20:	f7ff fffe 	bl	0 <pbuf_alloc>
  24:	4601      	mov	r1, r0
  26:	2800      	cmp	r0, #0
  28:	d045      	beq.n	b6 <tcp_enqueue_flags+0xb6>
  2a:	6de3      	ldr	r3, [r4, #92]	; 0x5c
  2c:	462a      	mov	r2, r5
  2e:	4620      	mov	r0, r4
  30:	9600      	str	r6, [sp, #0]
  32:	f7ff fffe 	bl	0 <tcp_enqueue_flags>
  36:	2800      	cmp	r0, #0
  38:	d03d      	beq.n	b6 <tcp_enqueue_flags+0xb6>
  3a:	68c3      	ldr	r3, [r0, #12]
  3c:	f013 0603 	ands.w	r6, r3, #3
  40:	d154      	bne.n	ec <tcp_enqueue_flags+0xec>
  42:	8903      	ldrh	r3, [r0, #8]
  44:	2b00      	cmp	r3, #0
  46:	d156      	bne.n	f6 <tcp_enqueue_flags+0xf6>
  48:	6ee3      	ldr	r3, [r4, #108]	; 0x6c
  4a:	b353      	cbz	r3, a2 <tcp_enqueue_flags+0xa2>
  4c:	461a      	mov	r2, r3
  4e:	681b      	ldr	r3, [r3, #0]
  50:	2b00      	cmp	r3, #0
  52:	d1fb      	bne.n	4c <tcp_enqueue_flags+0x4c>
  54:	6010      	str	r0, [r2, #0]
  56:	6de3      	ldr	r3, [r4, #92]	; 0x5c
  58:	2200      	movs	r2, #0
  5a:	3301      	adds	r3, #1
  5c:	f8a4 2068 	strh.w	r2, [r4, #104]	; 0x68
  60:	65e3      	str	r3, [r4, #92]	; 0x5c
  62:	07eb      	lsls	r3, r5, #31
  64:	d503      	bpl.n	6e <tcp_enqueue_flags+0x6e>
  66:	8b63      	ldrh	r3, [r4, #26]
  68:	f043 0320 	orr.w	r3, r3, #32
  6c:	8363      	strh	r3, [r4, #26]
  6e:	6840      	ldr	r0, [r0, #4]
  70:	f7ff fffe 	bl	0 <pbuf_clen>
  74:	f8b4 3066 	ldrh.w	r3, [r4, #102]	; 0x66
  78:	4418      	add	r0, r3
  7a:	b280      	uxth	r0, r0
  7c:	f8a4 0066 	strh.w	r0, [r4, #102]	; 0x66
  80:	b110      	cbz	r0, 88 <tcp_enqueue_flags+0x88>
  82:	6f20      	ldr	r0, [r4, #112]	; 0x70
  84:	b178      	cbz	r0, a6 <tcp_enqueue_flags+0xa6>
  86:	2000      	movs	r0, #0
  88:	b002      	add	sp, #8
  8a:	bd70      	pop	{r4, r5, r6, pc}
  8c:	2104      	movs	r1, #4
  8e:	2038      	movs	r0, #56	; 0x38
  90:	f7ff fffe 	bl	0 <pbuf_alloc>
  94:	4601      	mov	r1, r0
  96:	b170      	cbz	r0, b6 <tcp_enqueue_flags+0xb6>
  98:	8943      	ldrh	r3, [r0, #10]
  9a:	2b03      	cmp	r3, #3
  9c:	d912      	bls.n	c4 <tcp_enqueue_flags+0xc4>
  9e:	2601      	movs	r6, #1
  a0:	e7c3      	b.n	2a <tcp_enqueue_flags+0x2a>
  a2:	66e0      	str	r0, [r4, #108]	; 0x6c
  a4:	e7d7      	b.n	56 <tcp_enqueue_flags+0x56>
  a6:	6ee4      	ldr	r4, [r4, #108]	; 0x6c
  a8:	2c00      	cmp	r4, #0
  aa:	d1ed      	bne.n	88 <tcp_enqueue_flags+0x88>
  ac:	4b17      	ldr	r3, [pc, #92]	; (10c <tcp_enqueue_flags+0x10c>)
  ae:	f240 4269 	movw	r2, #1129	; 0x469
  b2:	4917      	ldr	r1, [pc, #92]	; (110 <tcp_enqueue_flags+0x110>)
  b4:	e00a      	b.n	cc <tcp_enqueue_flags+0xcc>
  b6:	8b63      	ldrh	r3, [r4, #26]
  b8:	f04f 30ff 	mov.w	r0, #4294967295	; 0xffffffff
  bc:	f043 0380 	orr.w	r3, r3, #128	; 0x80
  c0:	8363      	strh	r3, [r4, #26]
  c2:	e7e1      	b.n	88 <tcp_enqueue_flags+0x88>
  c4:	4b11      	ldr	r3, [pc, #68]	; (10c <tcp_enqueue_flags+0x10c>)
  c6:	f240 423d 	movw	r2, #1085	; 0x43d
  ca:	4912      	ldr	r1, [pc, #72]	; (114 <tcp_enqueue_flags+0x114>)
  cc:	4812      	ldr	r0, [pc, #72]	; (118 <tcp_enqueue_flags+0x118>)
  ce:	f7ff fffe 	bl	0 <printf>
  d2:	2000      	movs	r0, #0
  d4:	f7ff fffe 	bl	0 <fflush>
  d8:	2001      	movs	r0, #1
  da:	f7ff fffe 	bl	0 <qnethernet_hal_stdio_flush>
  de:	f7ff fffe 	bl	0 <abort>
  e2:	4b0a      	ldr	r3, [pc, #40]	; (10c <tcp_enqueue_flags+0x10c>)
  e4:	f240 4215 	movw	r2, #1045	; 0x415
  e8:	490c      	ldr	r1, [pc, #48]	; (11c <tcp_enqueue_flags+0x11c>)
  ea:	e7ef      	b.n	cc <tcp_enqueue_flags+0xcc>
  ec:	4b07      	ldr	r3, [pc, #28]	; (10c <tcp_enqueue_flags+0x10c>)
  ee:	f240 4246 	movw	r2, #1094	; 0x446
  f2:	490b      	ldr	r1, [pc, #44]	; (120 <tcp_enqueue_flags+0x120>)
  f4:	e7ea      	b.n	cc <tcp_enqueue_flags+0xcc>
  f6:	4b05      	ldr	r3, [pc, #20]	; (10c <tcp_enqueue_flags+0x10c>)
  f8:	f240 4247 	movw	r2, #1095	; 0x447
  fc:	4909      	ldr	r1, [pc, #36]	; (124 <tcp_enqueue_flags+0x124>)
  fe:	e7e5      	b.n	cc <tcp_enqueue_flags+0xcc>
 100:	4b02      	ldr	r3, [pc, #8]	; (10c <tcp_enqueue_flags+0x10c>)
 102:	f240 4213 	movw	r2, #1043	; 0x413
 106:	4908      	ldr	r1, [pc, #32]	; (128 <tcp_enqueue_flags+0x128>)
 108:	e7e0      	b.n	cc <tcp_enqueue_flags+0xcc>
 10a:	bf00      	nop
 10c:	00000000 	.word	0x00000000
 110:	000000f8 	.word	0x000000f8
 114:	00000078 	.word	0x00000078
 118:	00000048 	.word	0x00000048
 11c:	00000058 	.word	0x00000058
 120:	000000b4 	.word	0x000000b4
 124:	000000cc 	.word	0x000000cc
 128:	00000000 	.word	0x00000000

Disassembly of section .text.tcp_send_fin:

00000000 <tcp_send_fin>:
   0:	b510      	push	{r4, lr}
   2:	4604      	mov	r4, r0
   4:	b1d0      	cbz	r0, 3c <tcp_send_fin+0x3c>
   6:	6ec3      	ldr	r3, [r0, #108]	; 0x6c
   8:	b14b      	cbz	r3, 1e <tcp_send_fin+0x1e>
   a:	461a      	mov	r2, r3
   c:	681b      	ldr	r3, [r3, #0]
   e:	2b00      	cmp	r3, #0
  10:	d1fb      	bne.n	a <tcp_send_fin+0xa>
  12:	68d1      	ldr	r1, [r2, #12]
  14:	898a      	ldrh	r2, [r1, #12]
  16:	b290      	uxth	r0, r2
  18:	ba52      	rev16	r2, r2
  1a:	0752      	lsls	r2, r2, #29
  1c:	d005      	beq.n	2a <tcp_send_fin+0x2a>
  1e:	4620      	mov	r0, r4
  20:	2101      	movs	r1, #1
  22:	e8bd 4010 	ldmia.w	sp!, {r4, lr}
  26:	f7ff bffe 	b.w	0 <tcp_send_fin>
  2a:	8b62      	ldrh	r2, [r4, #26]
  2c:	f440 7080 	orr.w	r0, r0, #256	; 0x100
  30:	f042 0220 	orr.w	r2, r2, #32
  34:	8188      	strh	r0, [r1, #12]
  36:	4618      	mov	r0, r3
  38:	8362      	strh	r2, [r4, #26]
  3a:	bd10      	pop	{r4, pc}
  3c:	4b07      	ldr	r3, [pc, #28]	; (5c <tcp_send_fin+0x5c>)
  3e:	f240 32ef 	movw	r2, #1007	; 0x3ef
  42:	4907      	ldr	r1, [pc, #28]	; (60 <tcp_send_fin+0x60>)
  44:	4807      	ldr	r0, [pc, #28]	; (64 <tcp_send_fin+0x64>)
  46:	f7ff fffe 	bl	0 <printf>
  4a:	4620      	mov	r0, r4
  4c:	f7ff fffe 	bl	0 <fflush>
  50:	2001      	movs	r0, #1
  52:	f7ff fffe 	bl	0 <qnethernet_hal_stdio_flush>
  56:	f7ff fffe 	bl	0 <abort>
  5a:	bf00      	nop
  5c:	00000000 	.word	0x00000000
  60:	00000000 	.word	0x00000000
  64:	00000048 	.word	0x00000048

Disassembly of section .text.tcp_rexmit_rto_prepare:

00000000 <tcp_rexmit_rto_prepare>:
   0:	b538      	push	{r3, r4, r5, lr}
   2:	4604      	mov	r4, r0
   4:	b360      	cbz	r0, 60 <tcp_rexmit_rto_prepare+0x60>
   6:	6f01      	ldr	r1, [r0, #112]	; 0x70
   8:	b171      	cbz	r1, 28 <tcp_rexmit_rto_prepare+0x28>
   a:	460a      	mov	r2, r1
   c:	6813      	ldr	r3, [r2, #0]
   e:	b13b      	cbz	r3, 20 <tcp_rexmit_rto_prepare+0x20>
  10:	6852      	ldr	r2, [r2, #4]
  12:	7b92      	ldrb	r2, [r2, #14]
  14:	2a01      	cmp	r2, #1
  16:	d107      	bne.n	28 <tcp_rexmit_rto_prepare+0x28>
  18:	461a      	mov	r2, r3
  1a:	6813      	ldr	r3, [r2, #0]
  1c:	2b00      	cmp	r3, #0
  1e:	d1f7      	bne.n	10 <tcp_rexmit_rto_prepare+0x10>
  20:	6850      	ldr	r0, [r2, #4]
  22:	7b80      	ldrb	r0, [r0, #14]
  24:	2801      	cmp	r0, #1
  26:	d003      	beq.n	30 <tcp_rexmit_rto_prepare+0x30>
  28:	f06f 0305 	mvn.w	r3, #5
  2c:	4618      	mov	r0, r3
  2e:	bd38      	pop	{r3, r4, r5, pc}
  30:	6ee0      	ldr	r0, [r4, #108]	; 0x6c
  32:	68d5      	ldr	r5, [r2, #12]
  34:	6010      	str	r0, [r2, #0]
  36:	8b60      	ldrh	r0, [r4, #26]
  38:	e9c4 131b 	strd	r1, r3, [r4, #108]	; 0x6c
  3c:	f440 6100 	orr.w	r1, r0, #2048	; 0x800
  40:	8361      	strh	r1, [r4, #26]
  42:	8911      	ldrh	r1, [r2, #8]
  44:	89aa      	ldrh	r2, [r5, #12]
  46:	6868      	ldr	r0, [r5, #4]
  48:	ba52      	rev16	r2, r2
  4a:	6363      	str	r3, [r4, #52]	; 0x34
  4c:	ba00      	rev	r0, r0
  4e:	f012 0203 	ands.w	r2, r2, #3
  52:	4401      	add	r1, r0
  54:	4618      	mov	r0, r3
  56:	bf18      	it	ne
  58:	2201      	movne	r2, #1
  5a:	440a      	add	r2, r1
  5c:	64e2      	str	r2, [r4, #76]	; 0x4c
  5e:	bd38      	pop	{r3, r4, r5, pc}
  60:	4b07      	ldr	r3, [pc, #28]	; (80 <tcp_rexmit_rto_prepare+0x80>)
  62:	f240 6267 	movw	r2, #1639	; 0x667
  66:	4907      	ldr	r1, [pc, #28]	; (84 <tcp_rexmit_rto_prepare+0x84>)
  68:	4807      	ldr	r0, [pc, #28]	; (88 <tcp_rexmit_rto_prepare+0x88>)
  6a:	f7ff fffe 	bl	0 <printf>
  6e:	4620      	mov	r0, r4
  70:	f7ff fffe 	bl	0 <fflush>
  74:	2001      	movs	r0, #1
  76:	f7ff fffe 	bl	0 <qnethernet_hal_stdio_flush>
  7a:	f7ff fffe 	bl	0 <abort>
  7e:	bf00      	nop
  80:	00000000 	.word	0x00000000
  84:	00000000 	.word	0x00000000
  88:	00000048 	.word	0x00000048

Disassembly of section .text.tcp_rexmit:

00000000 <tcp_rexmit>:
   0:	b538      	push	{r3, r4, r5, lr}
   2:	4604      	mov	r4, r0
   4:	b360      	cbz	r0, 60 <tcp_rexmit+0x60>
   6:	6f05      	ldr	r5, [r0, #112]	; 0x70
   8:	b325      	cbz	r5, 54 <tcp_rexmit+0x54>
   a:	686b      	ldr	r3, [r5, #4]
   c:	7b9b      	ldrb	r3, [r3, #14]
   e:	2b01      	cmp	r3, #1
  10:	d120      	bne.n	54 <tcp_rexmit+0x54>
  12:	6ec2      	ldr	r2, [r0, #108]	; 0x6c
  14:	306c      	adds	r0, #108	; 0x6c
  16:	682b      	ldr	r3, [r5, #0]
  18:	6723      	str	r3, [r4, #112]	; 0x70
  1a:	b162      	cbz	r2, 36 <tcp_rexmit+0x36>
  1c:	68eb      	ldr	r3, [r5, #12]
  1e:	6859      	ldr	r1, [r3, #4]
  20:	ba09      	rev	r1, r1
  22:	e002      	b.n	2a <tcp_rexmit+0x2a>
  24:	4610      	mov	r0, r2
  26:	6812      	ldr	r2, [r2, #0]
  28:	b12a      	cbz	r2, 36 <tcp_rexmit+0x36>
  2a:	68d3      	ldr	r3, [r2, #12]
  2c:	685b      	ldr	r3, [r3, #4]
  2e:	ba1b      	rev	r3, r3
  30:	1a5b      	subs	r3, r3, r1
  32:	2b00      	cmp	r3, #0
  34:	dbf6      	blt.n	24 <tcp_rexmit+0x24>
  36:	602a      	str	r2, [r5, #0]
  38:	6005      	str	r5, [r0, #0]
  3a:	682b      	ldr	r3, [r5, #0]
  3c:	b16b      	cbz	r3, 5a <tcp_rexmit+0x5a>
  3e:	f894 3042 	ldrb.w	r3, [r4, #66]	; 0x42
  42:	2bff      	cmp	r3, #255	; 0xff
  44:	d002      	beq.n	4c <tcp_rexmit+0x4c>
  46:	3301      	adds	r3, #1
  48:	f884 3042 	strb.w	r3, [r4, #66]	; 0x42
  4c:	2300      	movs	r3, #0
  4e:	4618      	mov	r0, r3
  50:	6363      	str	r3, [r4, #52]	; 0x34
  52:	bd38      	pop	{r3, r4, r5, pc}
  54:	f06f 0005 	mvn.w	r0, #5
  58:	bd38      	pop	{r3, r4, r5, pc}
  5a:	f8a4 3068 	strh.w	r3, [r4, #104]	; 0x68
  5e:	e7ee      	b.n	3e <tcp_rexmit+0x3e>
  60:	4b07      	ldr	r3, [pc, #28]	; (80 <tcp_rexmit+0x80>)
  62:	f240 62c5 	movw	r2, #1733	; 0x6c5
  66:	4907      	ldr	r1, [pc, #28]	; (84 <tcp_rexmit+0x84>)
  68:	4807      	ldr	r0, [pc, #28]	; (88 <tcp_rexmit+0x88>)
  6a:	f7ff fffe 	bl	0 <printf>
  6e:	4620      	mov	r0, r4
  70:	f7ff fffe 	bl	0 <fflush>
  74:	2001      	movs	r0, #1
  76:	f7ff fffe 	bl	0 <qnethernet_hal_stdio_flush>
  7a:	f7ff fffe 	bl	0 <abort>
  7e:	bf00      	nop
  80:	00000000 	.word	0x00000000
  84:	00000000 	.word	0x00000000
  88:	00000048 	.word	0x00000048

Disassembly of section .text.tcp_rexmit_fast:

00000000 <tcp_rexmit_fast>:
   0:	b510      	push	{r4, lr}
   2:	4604      	mov	r4, r0
   4:	b338      	cbz	r0, 56 <tcp_rexmit_fast+0x56>
   6:	6f03      	ldr	r3, [r0, #112]	; 0x70
   8:	b113      	cbz	r3, 10 <tcp_rexmit_fast+0x10>
   a:	8b43      	ldrh	r3, [r0, #26]
   c:	075b      	lsls	r3, r3, #29
   e:	d500      	bpl.n	12 <tcp_rexmit_fast+0x12>
  10:	bd10      	pop	{r4, pc}
  12:	f7ff fffe 	bl	0 <tcp_rexmit_fast>
  16:	2800      	cmp	r0, #0
  18:	d1fa      	bne.n	10 <tcp_rexmit_fast+0x10>
  1a:	f8b4 1060 	ldrh.w	r1, [r4, #96]	; 0x60
  1e:	f8b4 3048 	ldrh.w	r3, [r4, #72]	; 0x48
  22:	8e62      	ldrh	r2, [r4, #50]	; 0x32
  24:	4299      	cmp	r1, r3
  26:	ea4f 0042 	mov.w	r0, r2, lsl #1
  2a:	bf28      	it	cs
  2c:	4619      	movcs	r1, r3
  2e:	084b      	lsrs	r3, r1, #1
  30:	ebb0 0f51 	cmp.w	r0, r1, lsr #1
  34:	f8a4 304a 	strh.w	r3, [r4, #74]	; 0x4a
  38:	d902      	bls.n	40 <tcp_rexmit_fast+0x40>
  3a:	b283      	uxth	r3, r0
  3c:	f8a4 304a 	strh.w	r3, [r4, #74]	; 0x4a
  40:	8b61      	ldrh	r1, [r4, #26]
  42:	4402      	add	r2, r0
  44:	f041 0104 	orr.w	r1, r1, #4
  48:	4413      	add	r3, r2
  4a:	2200      	movs	r2, #0
  4c:	f8a4 3048 	strh.w	r3, [r4, #72]	; 0x48
  50:	8361      	strh	r1, [r4, #26]
  52:	8622      	strh	r2, [r4, #48]	; 0x30
  54:	bd10      	pop	{r4, pc}
  56:	4b07      	ldr	r3, [pc, #28]	; (74 <tcp_rexmit_fast+0x74>)
  58:	f240 62fd 	movw	r2, #1789	; 0x6fd
  5c:	4906      	ldr	r1, [pc, #24]	; (78 <tcp_rexmit_fast+0x78>)
  5e:	4807      	ldr	r0, [pc, #28]	; (7c <tcp_rexmit_fast+0x7c>)
  60:	f7ff fffe 	bl	0 <printf>
  64:	4620      	mov	r0, r4
  66:	f7ff fffe 	bl	0 <fflush>
  6a:	2001      	movs	r0, #1
  6c:	f7ff fffe 	bl	0 <qnethernet_hal_stdio_flush>
  70:	f7ff fffe 	bl	0 <abort>
  74:	00000000 	.word	0x00000000
  78:	00000000 	.word	0x00000000
  7c:	00000048 	.word	0x00000048

Disassembly of section .text.tcp_rst:

00000000 <tcp_rst>:
   0:	b570      	push	{r4, r5, r6, lr}
   2:	b082      	sub	sp, #8
   4:	461c      	mov	r4, r3
   6:	460d      	mov	r5, r1
   8:	4684      	mov	ip, r0
   a:	f8bd 301c 	ldrh.w	r3, [sp, #28]
   e:	4611      	mov	r1, r2
  10:	9e06      	ldr	r6, [sp, #24]
  12:	4628      	mov	r0, r5
  14:	9300      	str	r3, [sp, #0]
  16:	4622      	mov	r2, r4
  18:	f8bd 3020 	ldrh.w	r3, [sp, #32]
  1c:	4665      	mov	r5, ip
  1e:	9301      	str	r3, [sp, #4]
  20:	4633      	mov	r3, r6
  22:	f7ff fffe 	bl	0 <tcp_rst>
  26:	b140      	cbz	r0, 3a <tcp_rst+0x3a>
  28:	4601      	mov	r1, r0
  2a:	4633      	mov	r3, r6
  2c:	4622      	mov	r2, r4
  2e:	4628      	mov	r0, r5
  30:	b002      	add	sp, #8
  32:	e8bd 4070 	ldmia.w	sp!, {r4, r5, r6, lr}
  36:	f7ff bffe 	b.w	0 <tcp_rst>
  3a:	b002      	add	sp, #8
  3c:	bd70      	pop	{r4, r5, r6, pc}
  3e:	bf00      	nop

Disassembly of section .text.tcp_rst_netif:

00000000 <tcp_rst_netif>:
   0:	b5f0      	push	{r4, r5, r6, r7, lr}
   2:	b085      	sub	sp, #20
   4:	468c      	mov	ip, r1
   6:	461f      	mov	r7, r3
   8:	4611      	mov	r1, r2
   a:	9e0a      	ldr	r6, [sp, #40]	; 0x28
   c:	f8bd 302c 	ldrh.w	r3, [sp, #44]	; 0x2c
  10:	f8bd 2030 	ldrh.w	r2, [sp, #48]	; 0x30
  14:	b1c8      	cbz	r0, 4a <tcp_rst_netif+0x4a>
  16:	4604      	mov	r4, r0
  18:	4660      	mov	r0, ip
  1a:	e9cd 3200 	strd	r3, r2, [sp]
  1e:	4633      	mov	r3, r6
  20:	463a      	mov	r2, r7
  22:	f7ff fffe 	bl	0 <tcp_rst_netif>
  26:	4605      	mov	r5, r0
  28:	b178      	cbz	r0, 4a <tcp_rst_netif+0x4a>
  2a:	9402      	str	r4, [sp, #8]
  2c:	2300      	movs	r3, #0
  2e:	2406      	movs	r4, #6
  30:	4632      	mov	r2, r6
  32:	4639      	mov	r1, r7
  34:	e9cd 3400 	strd	r3, r4, [sp]
  38:	23ff      	movs	r3, #255	; 0xff
  3a:	f7ff fffe 	bl	0 <ip4_output_if>
  3e:	4628      	mov	r0, r5
  40:	b005      	add	sp, #20
  42:	e8bd 40f0 	ldmia.w	sp!, {r4, r5, r6, r7, lr}
  46:	f7ff bffe 	b.w	0 <pbuf_free>
  4a:	b005      	add	sp, #20
  4c:	bdf0      	pop	{r4, r5, r6, r7, pc}
  4e:	bf00      	nop

Disassembly of section .text.tcp_send_empty_ack:

00000000 <tcp_send_empty_ack>:
   0:	b538      	push	{r3, r4, r5, lr}
   2:	4604      	mov	r4, r0
   4:	b1f8      	cbz	r0, 46 <tcp_send_empty_ack+0x46>
   6:	6d02      	ldr	r2, [r0, #80]	; 0x50
   8:	2100      	movs	r1, #0
   a:	ba12      	rev	r2, r2
   c:	f7ff fffe 	bl	0 <tcp_send_empty_ack>
  10:	4605      	mov	r5, r0
  12:	b190      	cbz	r0, 3a <tcp_send_empty_ack+0x3a>
  14:	f7ff fffe 	bl	0 <tcp_send_empty_ack>
  18:	1d23      	adds	r3, r4, #4
  1a:	4622      	mov	r2, r4
  1c:	4629      	mov	r1, r5
  1e:	4620      	mov	r0, r4
  20:	f7ff fffe 	bl	0 <tcp_send_empty_ack>
  24:	8b63      	ldrh	r3, [r4, #26]
  26:	b920      	cbnz	r0, 32 <tcp_send_empty_ack+0x32>
  28:	f023 0303 	bic.w	r3, r3, #3
  2c:	b29b      	uxth	r3, r3
  2e:	8363      	strh	r3, [r4, #26]
  30:	bd38      	pop	{r3, r4, r5, pc}
  32:	f043 0303 	orr.w	r3, r3, #3
  36:	8363      	strh	r3, [r4, #26]
  38:	bd38      	pop	{r3, r4, r5, pc}
  3a:	8b63      	ldrh	r3, [r4, #26]
  3c:	f06f 0001 	mvn.w	r0, #1
  40:	f043 0303 	orr.w	r3, r3, #3
  44:	e7f3      	b.n	2e <tcp_send_empty_ack+0x2e>
  46:	4b07      	ldr	r3, [pc, #28]	; (64 <tcp_send_empty_ack+0x64>)
  48:	f44f 6203 	mov.w	r2, #2096	; 0x830
  4c:	4906      	ldr	r1, [pc, #24]	; (68 <tcp_send_empty_ack+0x68>)
  4e:	4807      	ldr	r0, [pc, #28]	; (6c <tcp_send_empty_ack+0x6c>)
  50:	f7ff fffe 	bl	0 <printf>
  54:	4620      	mov	r0, r4
  56:	f7ff fffe 	bl	0 <fflush>
  5a:	2001      	movs	r0, #1
  5c:	f7ff fffe 	bl	0 <qnethernet_hal_stdio_flush>
  60:	f7ff fffe 	bl	0 <abort>
  64:	00000000 	.word	0x00000000
  68:	00000000 	.word	0x00000000
  6c:	00000048 	.word	0x00000048

Disassembly of section .text.tcp_output:

00000000 <tcp_output>:
   0:	e92d 4ff0 	stmdb	sp!, {r4, r5, r6, r7, r8, r9, sl, fp, lr}
   4:	4604      	mov	r4, r0
   6:	b085      	sub	sp, #20
   8:	4ab1      	ldr	r2, [pc, #708]	; (2d0 <tcp_output+0x2d0>)
   a:	f240 41e3 	movw	r1, #1251	; 0x4e3
   e:	48b1      	ldr	r0, [pc, #708]	; (2d4 <tcp_output+0x2d4>)
  10:	f7ff fffe 	bl	0 <qnethernet_hal_check_core_locking>
  14:	2c00      	cmp	r4, #0
  16:	f000 818d 	beq.w	334 <tcp_output+0x334>
  1a:	7d25      	ldrb	r5, [r4, #20]
  1c:	2d01      	cmp	r5, #1
  1e:	f000 818e 	beq.w	33e <tcp_output+0x33e>
  22:	4bad      	ldr	r3, [pc, #692]	; (2d8 <tcp_output+0x2d8>)
  24:	681b      	ldr	r3, [r3, #0]
  26:	42a3      	cmp	r3, r4
  28:	f000 815a 	beq.w	2e0 <tcp_output+0x2e0>
  2c:	6ee5      	ldr	r5, [r4, #108]	; 0x6c
  2e:	f8b4 9048 	ldrh.w	r9, [r4, #72]	; 0x48
  32:	f8b4 6060 	ldrh.w	r6, [r4, #96]	; 0x60
  36:	b31d      	cbz	r5, 80 <tcp_output+0x80>
  38:	7a20      	ldrb	r0, [r4, #8]
  3a:	f104 0b04 	add.w	fp, r4, #4
  3e:	2800      	cmp	r0, #0
  40:	f040 8152 	bne.w	2e8 <tcp_output+0x2e8>
  44:	4658      	mov	r0, fp
  46:	f7ff fffe 	bl	0 <ip4_route>
  4a:	4682      	mov	sl, r0
  4c:	f1ba 0f00 	cmp.w	sl, #0
  50:	f000 8159 	beq.w	306 <tcp_output+0x306>
  54:	6823      	ldr	r3, [r4, #0]
  56:	b913      	cbnz	r3, 5e <tcp_output+0x5e>
  58:	f8da 3000 	ldr.w	r3, [sl]
  5c:	6023      	str	r3, [r4, #0]
  5e:	45b1      	cmp	r9, r6
  60:	6c62      	ldr	r2, [r4, #68]	; 0x44
  62:	892b      	ldrh	r3, [r5, #8]
  64:	bf28      	it	cs
  66:	46b1      	movcs	r9, r6
  68:	68ee      	ldr	r6, [r5, #12]
  6a:	1a9b      	subs	r3, r3, r2
  6c:	6872      	ldr	r2, [r6, #4]
  6e:	ba12      	rev	r2, r2
  70:	4413      	add	r3, r2
  72:	454b      	cmp	r3, r9
  74:	d90f      	bls.n	96 <tcp_output+0x96>
  76:	f8b4 3060 	ldrh.w	r3, [r4, #96]	; 0x60
  7a:	454b      	cmp	r3, r9
  7c:	f000 8115 	beq.w	2aa <tcp_output+0x2aa>
  80:	8b60      	ldrh	r0, [r4, #26]
  82:	0781      	lsls	r1, r0, #30
  84:	f100 810b 	bmi.w	29e <tcp_output+0x29e>
  88:	f020 0380 	bic.w	r3, r0, #128	; 0x80
  8c:	2000      	movs	r0, #0
  8e:	8363      	strh	r3, [r4, #26]
  90:	b005      	add	sp, #20
  92:	e8bd 8ff0 	ldmia.w	sp!, {r4, r5, r6, r7, r8, r9, sl, fp, pc}
  96:	2300      	movs	r3, #0
  98:	f884 3099 	strb.w	r3, [r4, #153]	; 0x99
  9c:	6f23      	ldr	r3, [r4, #112]	; 0x70
  9e:	2b00      	cmp	r3, #0
  a0:	f000 8113 	beq.w	2ca <tcp_output+0x2ca>
  a4:	4698      	mov	r8, r3
  a6:	681b      	ldr	r3, [r3, #0]
  a8:	2b00      	cmp	r3, #0
  aa:	d1fb      	bne.n	a4 <tcp_output+0xa4>
  ac:	4653      	mov	r3, sl
  ae:	2700      	movs	r7, #0
  b0:	46b2      	mov	sl, r6
  b2:	461e      	mov	r6, r3
  b4:	f8ba 300c 	ldrh.w	r3, [sl, #12]
  b8:	ba5a      	rev16	r2, r3
  ba:	b29b      	uxth	r3, r3
  bc:	0752      	lsls	r2, r2, #29
  be:	f100 8125 	bmi.w	30c <tcp_output+0x30c>
  c2:	6f22      	ldr	r2, [r4, #112]	; 0x70
  c4:	b162      	cbz	r2, e0 <tcp_output+0xe0>
  c6:	8b61      	ldrh	r1, [r4, #26]
  c8:	f011 0f44 	tst.w	r1, #68	; 0x44
  cc:	468c      	mov	ip, r1
  ce:	d107      	bne.n	e0 <tcp_output+0xe0>
  d0:	6ee0      	ldr	r0, [r4, #108]	; 0x6c
  d2:	2800      	cmp	r0, #0
  d4:	f000 80bf 	beq.w	256 <tcp_output+0x256>
  d8:	6802      	ldr	r2, [r0, #0]
  da:	2a00      	cmp	r2, #0
  dc:	f000 80b5 	beq.w	24a <tcp_output+0x24a>
  e0:	7d22      	ldrb	r2, [r4, #20]
  e2:	2a02      	cmp	r2, #2
  e4:	f000 808f 	beq.w	206 <tcp_output+0x206>
  e8:	f443 5380 	orr.w	r3, r3, #4096	; 0x1000
  ec:	6868      	ldr	r0, [r5, #4]
  ee:	f8aa 300c 	strh.w	r3, [sl, #12]
  f2:	7b83      	ldrb	r3, [r0, #14]
  f4:	2b01      	cmp	r3, #1
  f6:	d03d      	beq.n	174 <tcp_output+0x174>
  f8:	6828      	ldr	r0, [r5, #0]
  fa:	66e0      	str	r0, [r4, #108]	; 0x6c
  fc:	8b63      	ldrh	r3, [r4, #26]
  fe:	f023 0303 	bic.w	r3, r3, #3
 102:	8363      	strh	r3, [r4, #26]
 104:	68e9      	ldr	r1, [r5, #12]
 106:	f8b5 c008 	ldrh.w	ip, [r5, #8]
 10a:	898b      	ldrh	r3, [r1, #12]
 10c:	6849      	ldr	r1, [r1, #4]
 10e:	ba5b      	rev16	r3, r3
 110:	6d22      	ldr	r2, [r4, #80]	; 0x50
 112:	ba09      	rev	r1, r1
 114:	f013 0303 	ands.w	r3, r3, #3
 118:	bf18      	it	ne
 11a:	2301      	movne	r3, #1
 11c:	4463      	add	r3, ip
 11e:	eb01 0c03 	add.w	ip, r1, r3
 122:	eba2 020c 	sub.w	r2, r2, ip
 126:	2a00      	cmp	r2, #0
 128:	bfb8      	it	lt
 12a:	f8c4 c050 	strlt.w	ip, [r4, #80]	; 0x50
 12e:	2b00      	cmp	r3, #0
 130:	d070      	beq.n	214 <tcp_output+0x214>
 132:	6f23      	ldr	r3, [r4, #112]	; 0x70
 134:	602f      	str	r7, [r5, #0]
 136:	2b00      	cmp	r3, #0
 138:	f000 8083 	beq.w	242 <tcp_output+0x242>
 13c:	f8d8 200c 	ldr.w	r2, [r8, #12]
 140:	6852      	ldr	r2, [r2, #4]
 142:	ba12      	rev	r2, r2
 144:	1a8a      	subs	r2, r1, r2
 146:	2a00      	cmp	r2, #0
 148:	f2c0 8099 	blt.w	27e <tcp_output+0x27e>
 14c:	f8c8 5000 	str.w	r5, [r8]
 150:	46a8      	mov	r8, r5
 152:	4605      	mov	r5, r0
 154:	2d00      	cmp	r5, #0
 156:	f000 80cb 	beq.w	2f0 <tcp_output+0x2f0>
 15a:	f8d5 a00c 	ldr.w	sl, [r5, #12]
 15e:	892b      	ldrh	r3, [r5, #8]
 160:	f8da 1004 	ldr.w	r1, [sl, #4]
 164:	6c62      	ldr	r2, [r4, #68]	; 0x44
 166:	ba09      	rev	r1, r1
 168:	1a9b      	subs	r3, r3, r2
 16a:	440b      	add	r3, r1
 16c:	454b      	cmp	r3, r9
 16e:	d9a1      	bls.n	b4 <tcp_output+0xb4>
 170:	8b60      	ldrh	r0, [r4, #26]
 172:	e789      	b.n	88 <tcp_output+0x88>
 174:	6a63      	ldr	r3, [r4, #36]	; 0x24
 176:	8d62      	ldrh	r2, [r4, #42]	; 0x2a
 178:	ba19      	rev	r1, r3
 17a:	4413      	add	r3, r2
 17c:	ba52      	rev16	r2, r2
 17e:	f8ca 1008 	str.w	r1, [sl, #8]
 182:	f8aa 200e 	strh.w	r2, [sl, #14]
 186:	62e3      	str	r3, [r4, #44]	; 0x2c
 188:	7aab      	ldrb	r3, [r5, #10]
 18a:	f013 0101 	ands.w	r1, r3, #1
 18e:	d146      	bne.n	21e <tcp_output+0x21e>
 190:	f10a 0a14 	add.w	sl, sl, #20
 194:	f9b4 3030 	ldrsh.w	r3, [r4, #48]	; 0x30
 198:	6b62      	ldr	r2, [r4, #52]	; 0x34
 19a:	2b00      	cmp	r3, #0
 19c:	68eb      	ldr	r3, [r5, #12]
 19e:	bfb8      	it	lt
 1a0:	8627      	strhlt	r7, [r4, #48]	; 0x30
 1a2:	b92a      	cbnz	r2, 1b0 <tcp_output+0x1b0>
 1a4:	4a4d      	ldr	r2, [pc, #308]	; (2dc <tcp_output+0x2dc>)
 1a6:	6812      	ldr	r2, [r2, #0]
 1a8:	6362      	str	r2, [r4, #52]	; 0x34
 1aa:	685a      	ldr	r2, [r3, #4]
 1ac:	ba12      	rev	r2, r2
 1ae:	63a2      	str	r2, [r4, #56]	; 0x38
 1b0:	6842      	ldr	r2, [r0, #4]
 1b2:	2900      	cmp	r1, #0
 1b4:	8941      	ldrh	r1, [r0, #10]
 1b6:	eba3 0202 	sub.w	r2, r3, r2
 1ba:	6043      	str	r3, [r0, #4]
 1bc:	b292      	uxth	r2, r2
 1be:	eba1 0102 	sub.w	r1, r1, r2
 1c2:	8141      	strh	r1, [r0, #10]
 1c4:	8901      	ldrh	r1, [r0, #8]
 1c6:	eba1 0202 	sub.w	r2, r1, r2
 1ca:	8102      	strh	r2, [r0, #8]
 1cc:	bf14      	ite	ne
 1ce:	2218      	movne	r2, #24
 1d0:	2214      	moveq	r2, #20
 1d2:	741f      	strb	r7, [r3, #16]
 1d4:	745f      	strb	r7, [r3, #17]
 1d6:	4413      	add	r3, r2
 1d8:	459a      	cmp	sl, r3
 1da:	f040 80a6 	bne.w	32a <tcp_output+0x32a>
 1de:	2306      	movs	r3, #6
 1e0:	9602      	str	r6, [sp, #8]
 1e2:	465a      	mov	r2, fp
 1e4:	4621      	mov	r1, r4
 1e6:	9301      	str	r3, [sp, #4]
 1e8:	7aa3      	ldrb	r3, [r4, #10]
 1ea:	9300      	str	r3, [sp, #0]
 1ec:	7ae3      	ldrb	r3, [r4, #11]
 1ee:	f7ff fffe 	bl	0 <ip4_output_if>
 1f2:	2800      	cmp	r0, #0
 1f4:	f040 8082 	bne.w	2fc <tcp_output+0x2fc>
 1f8:	7d23      	ldrb	r3, [r4, #20]
 1fa:	6828      	ldr	r0, [r5, #0]
 1fc:	2b02      	cmp	r3, #2
 1fe:	66e0      	str	r0, [r4, #108]	; 0x6c
 200:	f47f af7c 	bne.w	fc <tcp_output+0xfc>
 204:	e77e      	b.n	104 <tcp_output+0x104>
 206:	6868      	ldr	r0, [r5, #4]
 208:	7b83      	ldrb	r3, [r0, #14]
 20a:	2b01      	cmp	r3, #1
 20c:	d0b2      	beq.n	174 <tcp_output+0x174>
 20e:	6828      	ldr	r0, [r5, #0]
 210:	66e0      	str	r0, [r4, #108]	; 0x6c
 212:	e777      	b.n	104 <tcp_output+0x104>
 214:	4628      	mov	r0, r5
 216:	f7ff fffe 	bl	0 <tcp_seg_free>
 21a:	6ee5      	ldr	r5, [r4, #108]	; 0x6c
 21c:	e79a      	b.n	154 <tcp_output+0x154>
 21e:	4631      	mov	r1, r6
 220:	465a      	mov	r2, fp
 222:	f240 50b4 	movw	r0, #1460	; 0x5b4
 226:	f10a 0a18 	add.w	sl, sl, #24
 22a:	f7ff fffe 	bl	0 <tcp_eff_send_mss_netif>
 22e:	f040 7001 	orr.w	r0, r0, #33816576	; 0x2040000
 232:	ba00      	rev	r0, r0
 234:	f84a 0c04 	str.w	r0, [sl, #-4]
 238:	7aab      	ldrb	r3, [r5, #10]
 23a:	6868      	ldr	r0, [r5, #4]
 23c:	f003 0101 	and.w	r1, r3, #1
 240:	e7a8      	b.n	194 <tcp_output+0x194>
 242:	46a8      	mov	r8, r5
 244:	6725      	str	r5, [r4, #112]	; 0x70
 246:	4605      	mov	r5, r0
 248:	e784      	b.n	154 <tcp_output+0x154>
 24a:	f8b0 e008 	ldrh.w	lr, [r0, #8]
 24e:	8e62      	ldrh	r2, [r4, #50]	; 0x32
 250:	4596      	cmp	lr, r2
 252:	f4bf af45 	bcs.w	e0 <tcp_output+0xe0>
 256:	f8b4 2064 	ldrh.w	r2, [r4, #100]	; 0x64
 25a:	2a00      	cmp	r2, #0
 25c:	f43f af40 	beq.w	e0 <tcp_output+0xe0>
 260:	f8b4 2066 	ldrh.w	r2, [r4, #102]	; 0x66
 264:	2a0f      	cmp	r2, #15
 266:	f63f af3b 	bhi.w	e0 <tcp_output+0xe0>
 26a:	f011 0fa0 	tst.w	r1, #160	; 0xa0
 26e:	f47f af37 	bne.w	e0 <tcp_output+0xe0>
 272:	4603      	mov	r3, r0
 274:	4660      	mov	r0, ip
 276:	2b00      	cmp	r3, #0
 278:	f47f af06 	bne.w	88 <tcp_output+0x88>
 27c:	e039      	b.n	2f2 <tcp_output+0x2f2>
 27e:	f104 0070 	add.w	r0, r4, #112	; 0x70
 282:	e002      	b.n	28a <tcp_output+0x28a>
 284:	4618      	mov	r0, r3
 286:	681b      	ldr	r3, [r3, #0]
 288:	b12b      	cbz	r3, 296 <tcp_output+0x296>
 28a:	68da      	ldr	r2, [r3, #12]
 28c:	6852      	ldr	r2, [r2, #4]
 28e:	ba12      	rev	r2, r2
 290:	1a52      	subs	r2, r2, r1
 292:	2a00      	cmp	r2, #0
 294:	dbf6      	blt.n	284 <tcp_output+0x284>
 296:	602b      	str	r3, [r5, #0]
 298:	6005      	str	r5, [r0, #0]
 29a:	6ee5      	ldr	r5, [r4, #108]	; 0x6c
 29c:	e75a      	b.n	154 <tcp_output+0x154>
 29e:	4620      	mov	r0, r4
 2a0:	b005      	add	sp, #20
 2a2:	e8bd 4ff0 	ldmia.w	sp!, {r4, r5, r6, r7, r8, r9, sl, fp, lr}
 2a6:	f7ff bffe 	b.w	0 <tcp_output>
 2aa:	6f23      	ldr	r3, [r4, #112]	; 0x70
 2ac:	2b00      	cmp	r3, #0
 2ae:	f47f aee7 	bne.w	80 <tcp_output+0x80>
 2b2:	f894 3099 	ldrb.w	r3, [r4, #153]	; 0x99
 2b6:	2b00      	cmp	r3, #0
 2b8:	f47f aee2 	bne.w	80 <tcp_output+0x80>
 2bc:	f44f 7280 	mov.w	r2, #256	; 0x100
 2c0:	f884 309a 	strb.w	r3, [r4, #154]	; 0x9a
 2c4:	f8a4 2098 	strh.w	r2, [r4, #152]	; 0x98
 2c8:	e6da      	b.n	80 <tcp_output+0x80>
 2ca:	4698      	mov	r8, r3
 2cc:	e6ee      	b.n	ac <tcp_output+0xac>
 2ce:	bf00      	nop
 2d0:	00000000 	.word	0x00000000
 2d4:	00000000 	.word	0x00000000
 2d8:	00000000 	.word	0x00000000
 2dc:	00000000 	.word	0x00000000
 2e0:	2000      	movs	r0, #0
 2e2:	b005      	add	sp, #20
 2e4:	e8bd 8ff0 	ldmia.w	sp!, {r4, r5, r6, r7, r8, r9, sl, fp, pc}
 2e8:	f7ff fffe 	bl	0 <netif_get_by_index>
 2ec:	4682      	mov	sl, r0
 2ee:	e6ad      	b.n	4c <tcp_output+0x4c>
 2f0:	8b61      	ldrh	r1, [r4, #26]
 2f2:	2300      	movs	r3, #0
 2f4:	4608      	mov	r0, r1
 2f6:	f8a4 3068 	strh.w	r3, [r4, #104]	; 0x68
 2fa:	e6c5      	b.n	88 <tcp_output+0x88>
 2fc:	8b63      	ldrh	r3, [r4, #26]
 2fe:	f043 0380 	orr.w	r3, r3, #128	; 0x80
 302:	8363      	strh	r3, [r4, #26]
 304:	e6c4      	b.n	90 <tcp_output+0x90>
 306:	f06f 0003 	mvn.w	r0, #3
 30a:	e6c1      	b.n	90 <tcp_output+0x90>
 30c:	4b0e      	ldr	r3, [pc, #56]	; (348 <tcp_output+0x348>)
 30e:	f240 523a 	movw	r2, #1338	; 0x53a
 312:	490e      	ldr	r1, [pc, #56]	; (34c <tcp_output+0x34c>)
 314:	480e      	ldr	r0, [pc, #56]	; (350 <tcp_output+0x350>)
 316:	f7ff fffe 	bl	0 <printf>
 31a:	2000      	movs	r0, #0
 31c:	f7ff fffe 	bl	0 <fflush>
 320:	2001      	movs	r0, #1
 322:	f7ff fffe 	bl	0 <qnethernet_hal_stdio_flush>
 326:	f7ff fffe 	bl	0 <abort>
 32a:	4b07      	ldr	r3, [pc, #28]	; (348 <tcp_output+0x348>)
 32c:	f44f 62c4 	mov.w	r2, #1568	; 0x620
 330:	4908      	ldr	r1, [pc, #32]	; (354 <tcp_output+0x354>)
 332:	e7ef      	b.n	314 <tcp_output+0x314>
 334:	4b04      	ldr	r3, [pc, #16]	; (348 <tcp_output+0x348>)
 336:	f240 42e5 	movw	r2, #1253	; 0x4e5
 33a:	4907      	ldr	r1, [pc, #28]	; (358 <tcp_output+0x358>)
 33c:	e7ea      	b.n	314 <tcp_output+0x314>
 33e:	4b02      	ldr	r3, [pc, #8]	; (348 <tcp_output+0x348>)
 340:	f240 42e7 	movw	r2, #1255	; 0x4e7
 344:	4905      	ldr	r1, [pc, #20]	; (35c <tcp_output+0x35c>)
 346:	e7e5      	b.n	314 <tcp_output+0x314>
 348:	00000000 	.word	0x00000000
 34c:	00000040 	.word	0x00000040
 350:	00000048 	.word	0x00000048
 354:	00000058 	.word	0x00000058
 358:	00000000 	.word	0x00000000
 35c:	00000018 	.word	0x00000018

Disassembly of section .text.tcp_rexmit_rto_commit:

00000000 <tcp_rexmit_rto_commit>:
   0:	b508      	push	{r3, lr}
   2:	b150      	cbz	r0, 1a <tcp_rexmit_rto_commit+0x1a>
   4:	f890 3042 	ldrb.w	r3, [r0, #66]	; 0x42
   8:	2bff      	cmp	r3, #255	; 0xff
   a:	d002      	beq.n	12 <tcp_rexmit_rto_commit+0x12>
   c:	3301      	adds	r3, #1
   e:	f880 3042 	strb.w	r3, [r0, #66]	; 0x42
  12:	e8bd 4008 	ldmia.w	sp!, {r3, lr}
  16:	f7ff bffe 	b.w	0 <tcp_rexmit_rto_commit>
  1a:	f7ff fffe 	bl	0 <tcp_rexmit_rto_commit>
  1e:	bf00      	nop

Disassembly of section .text.tcp_rexmit_rto:

00000000 <tcp_rexmit_rto>:
   0:	b510      	push	{r4, lr}
   2:	4604      	mov	r4, r0
   4:	b178      	cbz	r0, 26 <tcp_rexmit_rto+0x26>
   6:	f7ff fffe 	bl	0 <tcp_rexmit_rto>
   a:	b100      	cbz	r0, e <tcp_rexmit_rto+0xe>
   c:	bd10      	pop	{r4, pc}
   e:	f894 3042 	ldrb.w	r3, [r4, #66]	; 0x42
  12:	2bff      	cmp	r3, #255	; 0xff
  14:	d002      	beq.n	1c <tcp_rexmit_rto+0x1c>
  16:	3301      	adds	r3, #1
  18:	f884 3042 	strb.w	r3, [r4, #66]	; 0x42
  1c:	4620      	mov	r0, r4
  1e:	e8bd 4010 	ldmia.w	sp!, {r4, lr}
  22:	f7ff bffe 	b.w	0 <tcp_rexmit_rto>
  26:	4b07      	ldr	r3, [pc, #28]	; (44 <tcp_rexmit_rto+0x44>)
  28:	f240 62b1 	movw	r2, #1713	; 0x6b1
  2c:	4906      	ldr	r1, [pc, #24]	; (48 <tcp_rexmit_rto+0x48>)
  2e:	4807      	ldr	r0, [pc, #28]	; (4c <tcp_rexmit_rto+0x4c>)
  30:	f7ff fffe 	bl	0 <printf>
  34:	4620      	mov	r0, r4
  36:	f7ff fffe 	bl	0 <fflush>
  3a:	2001      	movs	r0, #1
  3c:	f7ff fffe 	bl	0 <qnethernet_hal_stdio_flush>
  40:	f7ff fffe 	bl	0 <abort>
  44:	00000000 	.word	0x00000000
  48:	00000000 	.word	0x00000000
  4c:	00000048 	.word	0x00000048

Disassembly of section .text.tcp_keepalive:

00000000 <tcp_keepalive>:
   0:	b570      	push	{r4, r5, r6, lr}
   2:	4604      	mov	r4, r0
   4:	b1a0      	cbz	r0, 30 <tcp_keepalive+0x30>
   6:	6d02      	ldr	r2, [r0, #80]	; 0x50
   8:	2100      	movs	r1, #0
   a:	3a01      	subs	r2, #1
   c:	ba12      	rev	r2, r2
   e:	f7ff fffe 	bl	0 <tcp_keepalive>
  12:	4605      	mov	r5, r0
  14:	b148      	cbz	r0, 2a <tcp_keepalive+0x2a>
  16:	f7ff fffe 	bl	0 <tcp_keepalive>
  1a:	1d23      	adds	r3, r4, #4
  1c:	4622      	mov	r2, r4
  1e:	4629      	mov	r1, r5
  20:	4620      	mov	r0, r4
  22:	e8bd 4070 	ldmia.w	sp!, {r4, r5, r6, lr}
  26:	f7ff bffe 	b.w	0 <tcp_keepalive>
  2a:	f04f 30ff 	mov.w	r0, #4294967295	; 0xffffffff
  2e:	bd70      	pop	{r4, r5, r6, pc}
  30:	4b07      	ldr	r3, [pc, #28]	; (50 <tcp_keepalive+0x50>)
  32:	f640 026a 	movw	r2, #2154	; 0x86a
  36:	4907      	ldr	r1, [pc, #28]	; (54 <tcp_keepalive+0x54>)
  38:	4807      	ldr	r0, [pc, #28]	; (58 <tcp_keepalive+0x58>)
  3a:	f7ff fffe 	bl	0 <printf>
  3e:	4620      	mov	r0, r4
  40:	f7ff fffe 	bl	0 <fflush>
  44:	2001      	movs	r0, #1
  46:	f7ff fffe 	bl	0 <qnethernet_hal_stdio_flush>
  4a:	f7ff fffe 	bl	0 <abort>
  4e:	bf00      	nop
  50:	00000000 	.word	0x00000000
  54:	00000000 	.word	0x00000000
  58:	00000048 	.word	0x00000048

Disassembly of section .text.tcp_zero_window_probe:

00000000 <tcp_zero_window_probe>:
   0:	b570      	push	{r4, r5, r6, lr}
   2:	4604      	mov	r4, r0
   4:	2800      	cmp	r0, #0
   6:	d048      	beq.n	9a <tcp_zero_window_probe+0x9a>
   8:	6ec6      	ldr	r6, [r0, #108]	; 0x6c
   a:	2e00      	cmp	r6, #0
   c:	d043      	beq.n	96 <tcp_zero_window_probe+0x96>
   e:	f890 309a 	ldrb.w	r3, [r0, #154]	; 0x9a
  12:	2bff      	cmp	r3, #255	; 0xff
  14:	d002      	beq.n	1c <tcp_zero_window_probe+0x1c>
  16:	3301      	adds	r3, #1
  18:	f880 309a 	strb.w	r3, [r0, #154]	; 0x9a
  1c:	68f2      	ldr	r2, [r6, #12]
  1e:	8993      	ldrh	r3, [r2, #12]
  20:	ba5b      	rev16	r3, r3
  22:	07db      	lsls	r3, r3, #31
  24:	d522      	bpl.n	6c <tcp_zero_window_probe+0x6c>
  26:	8931      	ldrh	r1, [r6, #8]
  28:	bb01      	cbnz	r1, 6c <tcp_zero_window_probe+0x6c>
  2a:	6852      	ldr	r2, [r2, #4]
  2c:	4620      	mov	r0, r4
  2e:	f7ff fffe 	bl	0 <tcp_zero_window_probe>
  32:	4605      	mov	r5, r0
  34:	b308      	cbz	r0, 7a <tcp_zero_window_probe+0x7a>
  36:	686a      	ldr	r2, [r5, #4]
  38:	8993      	ldrh	r3, [r2, #12]
  3a:	f423 537c 	bic.w	r3, r3, #16128	; 0x3f00
  3e:	f443 5388 	orr.w	r3, r3, #4352	; 0x1100
  42:	8193      	strh	r3, [r2, #12]
  44:	68f3      	ldr	r3, [r6, #12]
  46:	4628      	mov	r0, r5
  48:	6d22      	ldr	r2, [r4, #80]	; 0x50
  4a:	685b      	ldr	r3, [r3, #4]
  4c:	ba1b      	rev	r3, r3
  4e:	3301      	adds	r3, #1
  50:	1ad2      	subs	r2, r2, r3
  52:	2a00      	cmp	r2, #0
  54:	bfb8      	it	lt
  56:	6523      	strlt	r3, [r4, #80]	; 0x50
  58:	f7ff fffe 	bl	0 <tcp_zero_window_probe>
  5c:	1d23      	adds	r3, r4, #4
  5e:	4622      	mov	r2, r4
  60:	4629      	mov	r1, r5
  62:	4620      	mov	r0, r4
  64:	e8bd 4070 	ldmia.w	sp!, {r4, r5, r6, lr}
  68:	f7ff bffe 	b.w	0 <tcp_zero_window_probe>
  6c:	6852      	ldr	r2, [r2, #4]
  6e:	2101      	movs	r1, #1
  70:	4620      	mov	r0, r4
  72:	f7ff fffe 	bl	0 <tcp_zero_window_probe>
  76:	4605      	mov	r5, r0
  78:	b910      	cbnz	r0, 80 <tcp_zero_window_probe+0x80>
  7a:	f04f 30ff 	mov.w	r0, #4294967295	; 0xffffffff
  7e:	bd70      	pop	{r4, r5, r6, pc}
  80:	6870      	ldr	r0, [r6, #4]
  82:	8932      	ldrh	r2, [r6, #8]
  84:	8903      	ldrh	r3, [r0, #8]
  86:	6869      	ldr	r1, [r5, #4]
  88:	1a9b      	subs	r3, r3, r2
  8a:	2201      	movs	r2, #1
  8c:	3114      	adds	r1, #20
  8e:	b29b      	uxth	r3, r3
  90:	f7ff fffe 	bl	0 <pbuf_copy_partial>
  94:	e7d6      	b.n	44 <tcp_zero_window_probe+0x44>
  96:	4630      	mov	r0, r6
  98:	bd70      	pop	{r4, r5, r6, pc}
  9a:	4b07      	ldr	r3, [pc, #28]	; (b8 <tcp_zero_window_probe+0xb8>)
  9c:	f640 0295 	movw	r2, #2197	; 0x895
  a0:	4906      	ldr	r1, [pc, #24]	; (bc <tcp_zero_window_probe+0xbc>)
  a2:	4807      	ldr	r0, [pc, #28]	; (c0 <tcp_zero_window_probe+0xc0>)
  a4:	f7ff fffe 	bl	0 <printf>
  a8:	4620      	mov	r0, r4
  aa:	f7ff fffe 	bl	0 <fflush>
  ae:	2001      	movs	r0, #1
  b0:	f7ff fffe 	bl	0 <qnethernet_hal_stdio_flush>
  b4:	f7ff fffe 	bl	0 <abort>
  b8:	00000000 	.word	0x00000000
  bc:	00000000 	.word	0x00000000
  c0:	00000048 	.word	0x00000048
