
build/./libraries/SdFat/src/iostream/istream.cpp.o:     file format elf32-littlearm

SYMBOL TABLE:
00000000 l    df *ABS*	00000000 istream.cpp
00000000 l    d  .text	00000000 .text
00000000 l    d  .data	00000000 .data
00000000 l    d  .bss	00000000 .bss
00000000 l    d  .text._ZN7istream3getEv	00000000 .text._ZN7istream3getEv
00000000 l    d  .text._ZN7istream3getERc	00000000 .text._ZN7istream3getERc
00000000 l    d  .text._ZN7istream3getEPcyc	00000000 .text._ZN7istream3getEPcyc
00000000 l    d  .text._ZN7istream7getlineEPcyc	00000000 .text._ZN7istream7getlineEPcyc
00000000 l    d  .text._ZN7istream6ignoreEyi	00000000 .text._ZN7istream6ignoreEyi
00000000 l    d  .text._ZN7istream4peekEv	00000000 .text._ZN7istream4peekEv
00000000 l    d  .text._ZN7istream8readSkipEv	00000000 .text._ZN7istream8readSkipEv
00000000 l    d  .text._ZN7istream7getCharEPc	00000000 .text._ZN7istream7getCharEPc
00000000 l    d  .text._ZN7istream9getDoubleEPd	00000000 .text._ZN7istream9getDoubleEPd
00000000 l    d  .text._ZN7istream9getNumberEmmPm	00000000 .text._ZN7istream9getNumberEmmPm
00000000 l    d  .text._ZN7istream6getStrEPc	00000000 .text._ZN7istream6getStrEPc
00000000 l    d  .rodata._ZN7istream7getBoolEPb.str1.4	00000000 .rodata._ZN7istream7getBoolEPb.str1.4
00000000 l    d  .text._ZN7istream7getBoolEPb	00000000 .text._ZN7istream7getBoolEPb
00000000 l    d  .text._ZN7istream9skipWhiteEv	00000000 .text._ZN7istream9skipWhiteEv
00000000 l    d  .comment	00000000 .comment
00000000 l    d  .ARM.attributes	00000000 .ARM.attributes
00000000 g     F .text._ZN7istream3getEv	0000002a _ZN7istream3getEv
00000000 g     F .text._ZN7istream3getERc	00000032 _ZN7istream3getERc
00000000 g     F .text._ZN7istream3getEPcyc	00000092 _ZN7istream3getEPcyc
00000000 g     F .text._ZN7istream7getlineEPcyc	00000090 _ZN7istream7getlineEPcyc
00000000 g     F .text._ZN7istream6ignoreEyi	00000042 _ZN7istream6ignoreEyi
00000000 g     F .text._ZN7istream4peekEv	00000046 _ZN7istream4peekEv
00000000 g     F .text._ZN7istream8readSkipEv	0000002a _ZN7istream8readSkipEv
00000000         *UND*	00000000 isspace
00000000 g     F .text._ZN7istream7getCharEPc	00000024 _ZN7istream7getCharEPc
00000000 g     F .text._ZN7istream9getDoubleEPd	00000214 _ZN7istream9getDoubleEPd
00000000 g     F .text._ZN7istream9getNumberEmmPm	0000017c _ZN7istream9getNumberEmmPm
00000000         *UND*	00000000 isalpha
00000000         *UND*	00000000 isupper
00000000 g     F .text._ZN7istream6getStrEPc	000000b6 _ZN7istream6getStrEPc
00000000 g     F .text._ZN7istream7getBoolEPb	000000c4 _ZN7istream7getBoolEPb
00000000 g     F .text._ZN7istream9skipWhiteEv	0000002e _ZN7istream9skipWhiteEv


Contents of section .text._ZN7istream3getEv:
 0000 00220368 10b51b68 04464260 98470028  .".h...h.FB`.G.(
 0010 02db0123 636010bd 236853f8 0c3c1c44  ...#c`..#hS..<.D
 0020 237c43f0 04032374 10bd00bf           #|C...#t....    
Contents of section .text._ZN7istream3getERc:
 0000 38b50022 03680446 0d461b68 42609847  8..".h.F.F.hB`.G
 0010 002804db 01236360 28702046 38bd2368  .(...#c`(p F8.#h
 0020 204653f8 0c3c2344 1a7c42f0 04021a74   FS..<#D.|B....t
 0030 38bd00bf                             8...            
Contents of section .text._ZN7istream3getEPcyc:
 0000 2de9f043 022a1d46 85b04ff0 000875f1  -..C.*.F..O...u.
 0010 00030446 16460f46 9df83090 c0f80480  ...F.F.F..0.....
 0020 0cd21fe0 81452bd0 63685a1c 6260f854  .....E+.chZ.b`.T
 0030 63685a1c b24278eb 05020bd2 23686946  chZ..Bx.....#hiF
 0040 20465b68 98472368 20461b68 98470028   F[h.G#h F.h.G.(
 0050 e8da6368 0022fa54 63682bb1 204605b0  ..ch.".Tch+. F..
 0060 bde8f083 154312d1 23682046 53f80c3c  .....C..#h FS..<
 0070 23441a7c 42f00402 1a7405b0 bde8f083  #D.|B....t......
 0080 23686946 20461b69 98476368 e2e74346  #hiF F.i.Gch..CF
 0090 e0e700bf                             ....            
Contents of section .text._ZN7istream7getlineEPcyc:
 0000 2de9f043 98461746 002385b0 57ea0802  -..C.F.F.#..W...
 0010 04464360 0d469df8 30904ff0 000618bf  .FC`.F..0.O.....
 0020 0b700ae0 814521d0 5a1cba42 76eb0801  .p...E!.Z..Bv...
 0030 1fd26260 e8546368 ee542368 69462046  ..b`.Tch.T#hiF F
 0040 5b689847 23682046 1b689847 00286368  [h.G#h F.h.G.(ch
 0050 e8da3bb9 236853f8 0c3c2344 1a7c42f0  ..;.#hS..<#D.|B.
 0060 04021a74 204605b0 bde8f083 01336360  ...t F.......3c`
 0070 efe72368 69462046 1b699847 236853f8  ..#hiF F.i.G#hS.
 0080 0c3c2344 1a7c42f0 04021a74 6368e0e7  .<#D.|B....tch..
Contents of section .text._ZN7istream6ignoreEyi:
 0000 2de9f041 00268046 15461c46 3146069f  -..A.&.F.F.F1F..
 0010 46600ee0 d8f80030 1b689847 b0f1000c  F`.....0.h.G....
 0020 0cdbd8f8 0410bc45 01f10101 c8f80410  .......E........
 0030 04d0a942 404676eb 0403ebd3 4046bde8  ...B@Fv.....@F..
 0040 f08100bf                             ....            
Contents of section .text._ZN7istream4peekEv:
 0000 30b50022 85b00368 04464260 69465b68  0.."...h.FB`iF[h
 0010 98472368 20461b68 9847051e 236806db  .G#h F.h.G..#h..
 0020 69462046 1b699847 284605b0 30bd53f8  iF F.i.G(F..0.S.
 0030 0c3c2344 1a7cd107 f6d442f0 02022846  .<#D.|....B...(F
 0040 1a7405b0 30bd00bf                    .t..0...        
Contents of section .text._ZN7istream8readSkipEv:
 0000 38b50268 044606e0 226852f8 0c3c2344  8..h.F.."hR..<#D
 0010 5b68db04 07d51368 20469847 0546fff7  [h.....h F.G.F..
 0020 feff0028 f0d12846 38bd00bf           ...(..(F8...    
Contents of section .text._ZN7istream7getCharEPc:
 0000 38b50446 0d46fff7 feff0028 01db2870  8..F.F.....(..(p
 0010 38bd2368 53f80c0c 2044037c 43f00403  8.#hS... D.|C...
 0020 037438bd                             .t8.            
Contents of section .text._ZN7istream9getDoubleEPd:
 0000 2de9f04f 03680446 8a465b68 2ded028b  -..O.h.F.F[h-...
 0010 87b002a9 98472046 fff7feff 2d288146  .....G F....-(.F
 0020 00f0a380 2b2800f0 a0800025 dff8e081  ....+(.....%....
 0030 2e46ab46 2f461be0 454576d2 05eb8505  .F.F/F..EEv.....
 0040 00eb4500 a0f13005 bbf1000f 06d0013e  ..E...0........>
 0050 b3b236b2 64339bb2 c82b70d8 01272368  ..6.d3...+p..'#h
 0060 204602a9 5b689847 23682046 1b689847   F..[h.G#h F.h.G
 0070 a0f13003 092bdfd9 8bf0010b 2e2814bf  ..0..+.......(..
 0080 4ff0000b 0bf0010b bbf1000f e7d1002f  O............../
 0090 55d020f0 200000b2 45286bd0 07ee905a  U. . ...E(k....Z
 00a0 b8ee678b b3440ffa 8bf2002a c0f29880  ..g..D.....*....
 00b0 29d01346 b2ee047b 9fed515b 9fed524b  )..F...{..Q[..RK
 00c0 0de085ee 076bb4ee c86bf1ee 10fa36d4  .....k...k....6.
 00d0 28ee078b 43f34f03 27ee077b 9bb1d907  (...C.O.'..{....
 00e0 f8d5002a edda27ee 046bb4ee 486bf1ee  ...*..'..k..Hk..
 00f0 10fa00dd 1dbb43f3 4f0388ee 078b27ee  ......C.O.....'.
 0100 077b002b ebd12368 204602a9 1b699847  .{.+..#h F...i.G
 0110 b9f12d0f 384608bf b1ee488b 8aed008b  ..-.8F....H.....
 0120 07b0bdec 028bbde8 f08fbbf1 000f1ad1  ................
 0130 0136b3b2 36b26433 9bb2c82b 8ed92368  .6..6.d3...+..#h
 0140 204602a9 00271b69 98472368 384653f8   F...'.i.G#h8FS.
 0150 0c3c2344 1a7c42f0 04021a74 07b0bdec  .<#D.|B....t....
 0160 028bbde8 f08f5f46 79e72368 20461b68  ......_Fy.#h F.h
 0170 98475ae7 23682046 1b689847 2b280190  .GZ.#h F.h.G+(..
 0180 31d02d28 2fd0a0f1 3003092b 86d80198  1.-(/...0..+....
 0190 30384ff0 000802e0 b8f1640f cfdc08eb  08O.......d.....
 01a0 88032268 02a900eb 43005268 1ffa80fb  .."h....C.Rh....
 01b0 0ffa80f8 20469047 22682046 12689047  .... F.G"h F.h.G
 01c0 30380928 e8d9019b 07ee905a 2d2bb8ee  08.(.......Z-+..
 01d0 678b7ff4 67afa6eb 0b0b0ffa 8bf264e7  g...g.........d.
 01e0 53421bb2 66e72368 20461b68 9847a0f1  SB..f.#h F.h.G..
 01f0 3003092b ccd94ff0 000be4e7 aff30080  0..+..O.........
 0200 ffffffff ffffef7f 00000000 00001000  ................
 0210 99999919                             ....            
Contents of section .text._ZN7istream9getNumberEmmPm:
 0000 2de9f04f 0c460168 904689b0 51f80c2c  -..O.F.h.F..Q..,
 0010 83460293 02445668 06f03806 202e00f0  .F...DVh..8. ...
 0020 a480102e 32d00a27 00253e46 4a685846  ....2..'.%>FJhXF
 0030 04a99047 5846fff7 feff2d28 814600f0  ...GXF....-(.F..
 0040 8b800023 2b280193 00f08880 b9f1300f  ...#+(........0.
 0050 1fd1f5b1 dbf80020 04a95846 52689047  ....... ..XFRh.G
 0060 dbf80020 58461268 904720f0 20018146  ... XF.h.G . ..F
 0070 09b25829 7dd1dbf8 00205846 4ff0000a  ..X)}.... XFO...
 0080 12689047 01238146 039305e0 37460125  .h.G.#.F....7F.%
 0090 cce70023 9a460393 4346019a 002a08bf  ...#.F..CF...*..
 00a0 23460024 b3fbf7f8 07fb1833 009313e0  #F.$.......3....
 00b0 44454ff0 010a07fb 04343ad8 02d1009a  DEO......4:.....
 00c0 934236dc dbf80030 5b689847 dbf80030  .B6....0[h.G...0
 00d0 58461b68 98478146 a9f13003 1ffa89f5  XF.h.G.F..0.....
 00e0 4846092b 1bb20cd9 fff7feff 03464846  HF.+.........FHF
 00f0 5bb1fff7 feff0028 14bf3723 5723ed1a  [......(..7#W#..
 0100 2bb2b342 04a95846 d2dbdbf8 002004a9  +..B..XF..... ..
 0110 58461269 9047baf1 000f01d1 039b73b1  XF.i.G........s.
 0120 019b03b1 64420120 029b1c60 09b0bde8  ....dB. ...`....
 0130 f08fdbf8 002004a9 58461269 9047dbf8  ..... ..XF.i.G..
 0140 00200020 52f80c3c 5b441a7c 42f00402  . . R..<[D.|B...
 0150 1a7409b0 bde8f08f 01230193 dbf80020  .t.......#..... 
 0160 58461268 90478146 70e70827 00253e46  XF.h.G.Fp..'.%>F
 0170 5ce70023 4ff0010a 03938de7           \..#O.......    
Contents of section .text._ZN7istream6getStrEPc:
 0000 026852f8 0c3c0344 db682de9 f0470546  .hR..<.D.h-..G.F
 0010 84b08946 002b36d0 03f1ff38 1ffa88f8  ...F.+6....8....
 0020 b8f1000f 32d05368 28466946 09f1ff37  ....2.Sh(FiF...7
 0030 98472846 fff7feff 4ff0000a 0446002c  .G(F....O....F.,
 0040 204631db fff7feff 06460af1 01026946   F1......F....iF
 0050 284636bb 07f8014f 1ffa82fa 2b685b68  (F6....O....+h[h
 0060 98472b68 28461b68 9847d045 0446e6d1  .G+h(F.h.G.E.F..
 0070 09f80860 2b680022 53f80c3c 2b44da60  ...`+h."S..<+D.`
 0080 04b0bde8 f0874ff6 fe78cce7 81f80080  ......O..x......
 0090 2b6853f8 0c3c2b44 1a7c42f0 04021a74  +hS..<+D.|B....t
 00a0 e8e72b68 1b699847 002309f8 0a30baf1  ..+h.i.G.#...0..
 00b0 000fdfd1 ece700bf                    ........        
Contents of section .rodata._ZN7istream7getBoolEPb.str1.4:
 0000 66616c73 65000000 74727565 00        false...true.   
Contents of section .text._ZN7istream7getBoolEPb:
 0000 036853f8 0c3c0344 5b68db05 2de9f047  .hS..<.D[h..-..G
 0010 894682b0 2ed50124 284fdff8 a4808246  .F.....$(O.....F
 0020 25462646 fff7feff 631edbb2 1db118f8  %F&F....c.......
 0030 03208242 0fd016b1 fb5c9842 16d0daf8  . .B.....\.B....
 0040 003053f8 0c3c5344 1a7c42f0 04021a74  .0S..<SD.|B....t
 0050 02b0bde8 f0875ebb 052c23d0 daf80030  ......^..,#....0
 0060 01345046 1b68e4b2 9847dde7 042c13d0  .4PF.h...G...,..
 0070 0025f3e7 012201ab 1146fff7 feff0028  .%..."...F.....(
 0080 e6d0019b 003b18bf 012389f8 003002b0  .....;...#...0..
 0090 bde8f087 042cdfd1 012389f8 003002b0  .....,...#...0..
 00a0 bde8f087 002389f8 003002b0 bde8f087  .....#...0......
 00b0 fb5c9842 eed00026 cee700bf 08000000  .\.B...&........
 00c0 00000000                             ....            
Contents of section .text._ZN7istream9skipWhiteEv:
 0000 10b50446 84b02368 69462046 5b689847  ...F..#hiF F[h.G
 0010 23682046 1b689847 fff7feff 0028f2d1  #h F.h.G.....(..
 0020 23686946 20461b69 984704b0 10bd00bf  #hiF F.i.G......
Contents of section .comment:
 0000 00474343 3a202841 726d2047 4e552054  .GCC: (Arm GNU T
 0010 6f6f6c63 6861696e 2031312e 332e5265  oolchain 11.3.Re
 0020 6c312920 31312e33 2e312032 30323230  l1) 11.3.1 20220
 0030 37313200                             712.            
Contents of section .ARM.attributes:
 0000 41310000 00616561 62690001 27000000  A1...aeabi..'...
 0010 0537452d 4d00060d 074d0902 0a081204  .7E-M....M......
 0020 14011501 17031801 19011a01 1c011e02  ................
 0030 2201                                 ".              

Disassembly of section .text._ZN7istream3getEv:

00000000 <_ZN7istream3getEv>:
   0:	2200      	movs	r2, #0
   2:	6803      	ldr	r3, [r0, #0]
   4:	b510      	push	{r4, lr}
   6:	681b      	ldr	r3, [r3, #0]
   8:	4604      	mov	r4, r0
   a:	6042      	str	r2, [r0, #4]
   c:	4798      	blx	r3
   e:	2800      	cmp	r0, #0
  10:	db02      	blt.n	18 <_ZN7istream3getEv+0x18>
  12:	2301      	movs	r3, #1
  14:	6063      	str	r3, [r4, #4]
  16:	bd10      	pop	{r4, pc}
  18:	6823      	ldr	r3, [r4, #0]
  1a:	f853 3c0c 	ldr.w	r3, [r3, #-12]
  1e:	441c      	add	r4, r3
  20:	7c23      	ldrb	r3, [r4, #16]
  22:	f043 0304 	orr.w	r3, r3, #4
  26:	7423      	strb	r3, [r4, #16]
  28:	bd10      	pop	{r4, pc}
  2a:	bf00      	nop

Disassembly of section .text._ZN7istream3getERc:

00000000 <_ZN7istream3getERc>:
   0:	b538      	push	{r3, r4, r5, lr}
   2:	2200      	movs	r2, #0
   4:	6803      	ldr	r3, [r0, #0]
   6:	4604      	mov	r4, r0
   8:	460d      	mov	r5, r1
   a:	681b      	ldr	r3, [r3, #0]
   c:	6042      	str	r2, [r0, #4]
   e:	4798      	blx	r3
  10:	2800      	cmp	r0, #0
  12:	db04      	blt.n	1e <_ZN7istream3getERc+0x1e>
  14:	2301      	movs	r3, #1
  16:	6063      	str	r3, [r4, #4]
  18:	7028      	strb	r0, [r5, #0]
  1a:	4620      	mov	r0, r4
  1c:	bd38      	pop	{r3, r4, r5, pc}
  1e:	6823      	ldr	r3, [r4, #0]
  20:	4620      	mov	r0, r4
  22:	f853 3c0c 	ldr.w	r3, [r3, #-12]
  26:	4423      	add	r3, r4
  28:	7c1a      	ldrb	r2, [r3, #16]
  2a:	f042 0204 	orr.w	r2, r2, #4
  2e:	741a      	strb	r2, [r3, #16]
  30:	bd38      	pop	{r3, r4, r5, pc}
  32:	bf00      	nop

Disassembly of section .text._ZN7istream3getEPcyc:

00000000 <_ZN7istream3getEPcyc>:
   0:	e92d 43f0 	stmdb	sp!, {r4, r5, r6, r7, r8, r9, lr}
   4:	2a02      	cmp	r2, #2
   6:	461d      	mov	r5, r3
   8:	b085      	sub	sp, #20
   a:	f04f 0800 	mov.w	r8, #0
   e:	f175 0300 	sbcs.w	r3, r5, #0
  12:	4604      	mov	r4, r0
  14:	4616      	mov	r6, r2
  16:	460f      	mov	r7, r1
  18:	f89d 9030 	ldrb.w	r9, [sp, #48]	; 0x30
  1c:	f8c0 8004 	str.w	r8, [r0, #4]
  20:	d20c      	bcs.n	3c <_ZN7istream3getEPcyc+0x3c>
  22:	e01f      	b.n	64 <_ZN7istream3getEPcyc+0x64>
  24:	4581      	cmp	r9, r0
  26:	d02b      	beq.n	80 <_ZN7istream3getEPcyc+0x80>
  28:	6863      	ldr	r3, [r4, #4]
  2a:	1c5a      	adds	r2, r3, #1
  2c:	6062      	str	r2, [r4, #4]
  2e:	54f8      	strb	r0, [r7, r3]
  30:	6863      	ldr	r3, [r4, #4]
  32:	1c5a      	adds	r2, r3, #1
  34:	42b2      	cmp	r2, r6
  36:	eb78 0205 	sbcs.w	r2, r8, r5
  3a:	d20b      	bcs.n	54 <_ZN7istream3getEPcyc+0x54>
  3c:	6823      	ldr	r3, [r4, #0]
  3e:	4669      	mov	r1, sp
  40:	4620      	mov	r0, r4
  42:	685b      	ldr	r3, [r3, #4]
  44:	4798      	blx	r3
  46:	6823      	ldr	r3, [r4, #0]
  48:	4620      	mov	r0, r4
  4a:	681b      	ldr	r3, [r3, #0]
  4c:	4798      	blx	r3
  4e:	2800      	cmp	r0, #0
  50:	dae8      	bge.n	24 <_ZN7istream3getEPcyc+0x24>
  52:	6863      	ldr	r3, [r4, #4]
  54:	2200      	movs	r2, #0
  56:	54fa      	strb	r2, [r7, r3]
  58:	6863      	ldr	r3, [r4, #4]
  5a:	b12b      	cbz	r3, 68 <_ZN7istream3getEPcyc+0x68>
  5c:	4620      	mov	r0, r4
  5e:	b005      	add	sp, #20
  60:	e8bd 83f0 	ldmia.w	sp!, {r4, r5, r6, r7, r8, r9, pc}
  64:	4315      	orrs	r5, r2
  66:	d112      	bne.n	8e <_ZN7istream3getEPcyc+0x8e>
  68:	6823      	ldr	r3, [r4, #0]
  6a:	4620      	mov	r0, r4
  6c:	f853 3c0c 	ldr.w	r3, [r3, #-12]
  70:	4423      	add	r3, r4
  72:	7c1a      	ldrb	r2, [r3, #16]
  74:	f042 0204 	orr.w	r2, r2, #4
  78:	741a      	strb	r2, [r3, #16]
  7a:	b005      	add	sp, #20
  7c:	e8bd 83f0 	ldmia.w	sp!, {r4, r5, r6, r7, r8, r9, pc}
  80:	6823      	ldr	r3, [r4, #0]
  82:	4669      	mov	r1, sp
  84:	4620      	mov	r0, r4
  86:	691b      	ldr	r3, [r3, #16]
  88:	4798      	blx	r3
  8a:	6863      	ldr	r3, [r4, #4]
  8c:	e7e2      	b.n	54 <_ZN7istream3getEPcyc+0x54>
  8e:	4643      	mov	r3, r8
  90:	e7e0      	b.n	54 <_ZN7istream3getEPcyc+0x54>
  92:	bf00      	nop

Disassembly of section .text._ZN7istream7getlineEPcyc:

00000000 <_ZN7istream7getlineEPcyc>:
   0:	e92d 43f0 	stmdb	sp!, {r4, r5, r6, r7, r8, r9, lr}
   4:	4698      	mov	r8, r3
   6:	4617      	mov	r7, r2
   8:	2300      	movs	r3, #0
   a:	b085      	sub	sp, #20
   c:	ea57 0208 	orrs.w	r2, r7, r8
  10:	4604      	mov	r4, r0
  12:	6043      	str	r3, [r0, #4]
  14:	460d      	mov	r5, r1
  16:	f89d 9030 	ldrb.w	r9, [sp, #48]	; 0x30
  1a:	f04f 0600 	mov.w	r6, #0
  1e:	bf18      	it	ne
  20:	700b      	strbne	r3, [r1, #0]
  22:	e00a      	b.n	3a <_ZN7istream7getlineEPcyc+0x3a>
  24:	4581      	cmp	r9, r0
  26:	d021      	beq.n	6c <_ZN7istream7getlineEPcyc+0x6c>
  28:	1c5a      	adds	r2, r3, #1
  2a:	42ba      	cmp	r2, r7
  2c:	eb76 0108 	sbcs.w	r1, r6, r8
  30:	d21f      	bcs.n	72 <_ZN7istream7getlineEPcyc+0x72>
  32:	6062      	str	r2, [r4, #4]
  34:	54e8      	strb	r0, [r5, r3]
  36:	6863      	ldr	r3, [r4, #4]
  38:	54ee      	strb	r6, [r5, r3]
  3a:	6823      	ldr	r3, [r4, #0]
  3c:	4669      	mov	r1, sp
  3e:	4620      	mov	r0, r4
  40:	685b      	ldr	r3, [r3, #4]
  42:	4798      	blx	r3
  44:	6823      	ldr	r3, [r4, #0]
  46:	4620      	mov	r0, r4
  48:	681b      	ldr	r3, [r3, #0]
  4a:	4798      	blx	r3
  4c:	2800      	cmp	r0, #0
  4e:	6863      	ldr	r3, [r4, #4]
  50:	dae8      	bge.n	24 <_ZN7istream7getlineEPcyc+0x24>
  52:	b93b      	cbnz	r3, 64 <_ZN7istream7getlineEPcyc+0x64>
  54:	6823      	ldr	r3, [r4, #0]
  56:	f853 3c0c 	ldr.w	r3, [r3, #-12]
  5a:	4423      	add	r3, r4
  5c:	7c1a      	ldrb	r2, [r3, #16]
  5e:	f042 0204 	orr.w	r2, r2, #4
  62:	741a      	strb	r2, [r3, #16]
  64:	4620      	mov	r0, r4
  66:	b005      	add	sp, #20
  68:	e8bd 83f0 	ldmia.w	sp!, {r4, r5, r6, r7, r8, r9, pc}
  6c:	3301      	adds	r3, #1
  6e:	6063      	str	r3, [r4, #4]
  70:	e7ef      	b.n	52 <_ZN7istream7getlineEPcyc+0x52>
  72:	6823      	ldr	r3, [r4, #0]
  74:	4669      	mov	r1, sp
  76:	4620      	mov	r0, r4
  78:	691b      	ldr	r3, [r3, #16]
  7a:	4798      	blx	r3
  7c:	6823      	ldr	r3, [r4, #0]
  7e:	f853 3c0c 	ldr.w	r3, [r3, #-12]
  82:	4423      	add	r3, r4
  84:	7c1a      	ldrb	r2, [r3, #16]
  86:	f042 0204 	orr.w	r2, r2, #4
  8a:	741a      	strb	r2, [r3, #16]
  8c:	6863      	ldr	r3, [r4, #4]
  8e:	e7e0      	b.n	52 <_ZN7istream7getlineEPcyc+0x52>

Disassembly of section .text._ZN7istream6ignoreEyi:

00000000 <_ZN7istream6ignoreEyi>:
   0:	e92d 41f0 	stmdb	sp!, {r4, r5, r6, r7, r8, lr}
   4:	2600      	movs	r6, #0
   6:	4680      	mov	r8, r0
   8:	4615      	mov	r5, r2
   a:	461c      	mov	r4, r3
   c:	4631      	mov	r1, r6
   e:	9f06      	ldr	r7, [sp, #24]
  10:	6046      	str	r6, [r0, #4]
  12:	e00e      	b.n	32 <_ZN7istream6ignoreEyi+0x32>
  14:	f8d8 3000 	ldr.w	r3, [r8]
  18:	681b      	ldr	r3, [r3, #0]
  1a:	4798      	blx	r3
  1c:	f1b0 0c00 	subs.w	ip, r0, #0
  20:	db0c      	blt.n	3c <_ZN7istream6ignoreEyi+0x3c>
  22:	f8d8 1004 	ldr.w	r1, [r8, #4]
  26:	45bc      	cmp	ip, r7
  28:	f101 0101 	add.w	r1, r1, #1
  2c:	f8c8 1004 	str.w	r1, [r8, #4]
  30:	d004      	beq.n	3c <_ZN7istream6ignoreEyi+0x3c>
  32:	42a9      	cmp	r1, r5
  34:	4640      	mov	r0, r8
  36:	eb76 0304 	sbcs.w	r3, r6, r4
  3a:	d3eb      	bcc.n	14 <_ZN7istream6ignoreEyi+0x14>
  3c:	4640      	mov	r0, r8
  3e:	e8bd 81f0 	ldmia.w	sp!, {r4, r5, r6, r7, r8, pc}
  42:	bf00      	nop

Disassembly of section .text._ZN7istream4peekEv:

00000000 <_ZN7istream4peekEv>:
   0:	b530      	push	{r4, r5, lr}
   2:	2200      	movs	r2, #0
   4:	b085      	sub	sp, #20
   6:	6803      	ldr	r3, [r0, #0]
   8:	4604      	mov	r4, r0
   a:	6042      	str	r2, [r0, #4]
   c:	4669      	mov	r1, sp
   e:	685b      	ldr	r3, [r3, #4]
  10:	4798      	blx	r3
  12:	6823      	ldr	r3, [r4, #0]
  14:	4620      	mov	r0, r4
  16:	681b      	ldr	r3, [r3, #0]
  18:	4798      	blx	r3
  1a:	1e05      	subs	r5, r0, #0
  1c:	6823      	ldr	r3, [r4, #0]
  1e:	db06      	blt.n	2e <_ZN7istream4peekEv+0x2e>
  20:	4669      	mov	r1, sp
  22:	4620      	mov	r0, r4
  24:	691b      	ldr	r3, [r3, #16]
  26:	4798      	blx	r3
  28:	4628      	mov	r0, r5
  2a:	b005      	add	sp, #20
  2c:	bd30      	pop	{r4, r5, pc}
  2e:	f853 3c0c 	ldr.w	r3, [r3, #-12]
  32:	4423      	add	r3, r4
  34:	7c1a      	ldrb	r2, [r3, #16]
  36:	07d1      	lsls	r1, r2, #31
  38:	d4f6      	bmi.n	28 <_ZN7istream4peekEv+0x28>
  3a:	f042 0202 	orr.w	r2, r2, #2
  3e:	4628      	mov	r0, r5
  40:	741a      	strb	r2, [r3, #16]
  42:	b005      	add	sp, #20
  44:	bd30      	pop	{r4, r5, pc}
  46:	bf00      	nop

Disassembly of section .text._ZN7istream8readSkipEv:

00000000 <_ZN7istream8readSkipEv>:
   0:	b538      	push	{r3, r4, r5, lr}
   2:	6802      	ldr	r2, [r0, #0]
   4:	4604      	mov	r4, r0
   6:	e006      	b.n	16 <_ZN7istream8readSkipEv+0x16>
   8:	6822      	ldr	r2, [r4, #0]
   a:	f852 3c0c 	ldr.w	r3, [r2, #-12]
   e:	4423      	add	r3, r4
  10:	685b      	ldr	r3, [r3, #4]
  12:	04db      	lsls	r3, r3, #19
  14:	d507      	bpl.n	26 <_ZN7istream8readSkipEv+0x26>
  16:	6813      	ldr	r3, [r2, #0]
  18:	4620      	mov	r0, r4
  1a:	4798      	blx	r3
  1c:	4605      	mov	r5, r0
  1e:	f7ff fffe 	bl	0 <isspace>
  22:	2800      	cmp	r0, #0
  24:	d1f0      	bne.n	8 <_ZN7istream8readSkipEv+0x8>
  26:	4628      	mov	r0, r5
  28:	bd38      	pop	{r3, r4, r5, pc}
  2a:	bf00      	nop

Disassembly of section .text._ZN7istream7getCharEPc:

00000000 <_ZN7istream7getCharEPc>:
   0:	b538      	push	{r3, r4, r5, lr}
   2:	4604      	mov	r4, r0
   4:	460d      	mov	r5, r1
   6:	f7ff fffe 	bl	0 <_ZN7istream7getCharEPc>
   a:	2800      	cmp	r0, #0
   c:	db01      	blt.n	12 <_ZN7istream7getCharEPc+0x12>
   e:	7028      	strb	r0, [r5, #0]
  10:	bd38      	pop	{r3, r4, r5, pc}
  12:	6823      	ldr	r3, [r4, #0]
  14:	f853 0c0c 	ldr.w	r0, [r3, #-12]
  18:	4420      	add	r0, r4
  1a:	7c03      	ldrb	r3, [r0, #16]
  1c:	f043 0304 	orr.w	r3, r3, #4
  20:	7403      	strb	r3, [r0, #16]
  22:	bd38      	pop	{r3, r4, r5, pc}

Disassembly of section .text._ZN7istream9getDoubleEPd:

00000000 <_ZN7istream9getDoubleEPd>:
   0:	e92d 4ff0 	stmdb	sp!, {r4, r5, r6, r7, r8, r9, sl, fp, lr}
   4:	6803      	ldr	r3, [r0, #0]
   6:	4604      	mov	r4, r0
   8:	468a      	mov	sl, r1
   a:	685b      	ldr	r3, [r3, #4]
   c:	ed2d 8b02 	vpush	{d8}
  10:	b087      	sub	sp, #28
  12:	a902      	add	r1, sp, #8
  14:	4798      	blx	r3
  16:	4620      	mov	r0, r4
  18:	f7ff fffe 	bl	0 <_ZN7istream9getDoubleEPd>
  1c:	282d      	cmp	r0, #45	; 0x2d
  1e:	4681      	mov	r9, r0
  20:	f000 80a3 	beq.w	16a <_ZN7istream9getDoubleEPd+0x16a>
  24:	282b      	cmp	r0, #43	; 0x2b
  26:	f000 80a0 	beq.w	16a <_ZN7istream9getDoubleEPd+0x16a>
  2a:	2500      	movs	r5, #0
  2c:	f8df 81e0 	ldr.w	r8, [pc, #480]	; 210 <_ZN7istream9getDoubleEPd+0x210>
  30:	462e      	mov	r6, r5
  32:	46ab      	mov	fp, r5
  34:	462f      	mov	r7, r5
  36:	e01b      	b.n	70 <_ZN7istream9getDoubleEPd+0x70>
  38:	4545      	cmp	r5, r8
  3a:	d276      	bcs.n	12a <_ZN7istream9getDoubleEPd+0x12a>
  3c:	eb05 0585 	add.w	r5, r5, r5, lsl #2
  40:	eb00 0045 	add.w	r0, r0, r5, lsl #1
  44:	f1a0 0530 	sub.w	r5, r0, #48	; 0x30
  48:	f1bb 0f00 	cmp.w	fp, #0
  4c:	d006      	beq.n	5c <_ZN7istream9getDoubleEPd+0x5c>
  4e:	3e01      	subs	r6, #1
  50:	b2b3      	uxth	r3, r6
  52:	b236      	sxth	r6, r6
  54:	3364      	adds	r3, #100	; 0x64
  56:	b29b      	uxth	r3, r3
  58:	2bc8      	cmp	r3, #200	; 0xc8
  5a:	d870      	bhi.n	13e <_ZN7istream9getDoubleEPd+0x13e>
  5c:	2701      	movs	r7, #1
  5e:	6823      	ldr	r3, [r4, #0]
  60:	4620      	mov	r0, r4
  62:	a902      	add	r1, sp, #8
  64:	685b      	ldr	r3, [r3, #4]
  66:	4798      	blx	r3
  68:	6823      	ldr	r3, [r4, #0]
  6a:	4620      	mov	r0, r4
  6c:	681b      	ldr	r3, [r3, #0]
  6e:	4798      	blx	r3
  70:	f1a0 0330 	sub.w	r3, r0, #48	; 0x30
  74:	2b09      	cmp	r3, #9
  76:	d9df      	bls.n	38 <_ZN7istream9getDoubleEPd+0x38>
  78:	f08b 0b01 	eor.w	fp, fp, #1
  7c:	282e      	cmp	r0, #46	; 0x2e
  7e:	bf14      	ite	ne
  80:	f04f 0b00 	movne.w	fp, #0
  84:	f00b 0b01 	andeq.w	fp, fp, #1
  88:	f1bb 0f00 	cmp.w	fp, #0
  8c:	d1e7      	bne.n	5e <_ZN7istream9getDoubleEPd+0x5e>
  8e:	2f00      	cmp	r7, #0
  90:	d055      	beq.n	13e <_ZN7istream9getDoubleEPd+0x13e>
  92:	f020 0020 	bic.w	r0, r0, #32
  96:	b200      	sxth	r0, r0
  98:	2845      	cmp	r0, #69	; 0x45
  9a:	d06b      	beq.n	174 <_ZN7istream9getDoubleEPd+0x174>
  9c:	ee07 5a90 	vmov	s15, r5
  a0:	eeb8 8b67 	vcvt.f64.u32	d8, s15
  a4:	44b3      	add	fp, r6
  a6:	fa0f f28b 	sxth.w	r2, fp
  aa:	2a00      	cmp	r2, #0
  ac:	f2c0 8098 	blt.w	1e0 <_ZN7istream9getDoubleEPd+0x1e0>
  b0:	d029      	beq.n	106 <_ZN7istream9getDoubleEPd+0x106>
  b2:	4613      	mov	r3, r2
  b4:	eeb2 7b04 	vmov.f64	d7, #36	; 0x41200000  10.0
  b8:	ed9f 5b51 	vldr	d5, [pc, #324]	; 200 <_ZN7istream9getDoubleEPd+0x200>
  bc:	ed9f 4b52 	vldr	d4, [pc, #328]	; 208 <_ZN7istream9getDoubleEPd+0x208>
  c0:	e00d      	b.n	de <_ZN7istream9getDoubleEPd+0xde>
  c2:	ee85 6b07 	vdiv.f64	d6, d5, d7
  c6:	eeb4 6bc8 	vcmpe.f64	d6, d8
  ca:	eef1 fa10 	vmrs	APSR_nzcv, fpscr
  ce:	d436      	bmi.n	13e <_ZN7istream9getDoubleEPd+0x13e>
  d0:	ee28 8b07 	vmul.f64	d8, d8, d7
  d4:	f343 034f 	sbfx	r3, r3, #1, #16
  d8:	ee27 7b07 	vmul.f64	d7, d7, d7
  dc:	b19b      	cbz	r3, 106 <_ZN7istream9getDoubleEPd+0x106>
  de:	07d9      	lsls	r1, r3, #31
  e0:	d5f8      	bpl.n	d4 <_ZN7istream9getDoubleEPd+0xd4>
  e2:	2a00      	cmp	r2, #0
  e4:	daed      	bge.n	c2 <_ZN7istream9getDoubleEPd+0xc2>
  e6:	ee27 6b04 	vmul.f64	d6, d7, d4
  ea:	eeb4 6b48 	vcmp.f64	d6, d8
  ee:	eef1 fa10 	vmrs	APSR_nzcv, fpscr
  f2:	dd00      	ble.n	f6 <_ZN7istream9getDoubleEPd+0xf6>
  f4:	bb1d      	cbnz	r5, 13e <_ZN7istream9getDoubleEPd+0x13e>
  f6:	f343 034f 	sbfx	r3, r3, #1, #16
  fa:	ee88 8b07 	vdiv.f64	d8, d8, d7
  fe:	ee27 7b07 	vmul.f64	d7, d7, d7
 102:	2b00      	cmp	r3, #0
 104:	d1eb      	bne.n	de <_ZN7istream9getDoubleEPd+0xde>
 106:	6823      	ldr	r3, [r4, #0]
 108:	4620      	mov	r0, r4
 10a:	a902      	add	r1, sp, #8
 10c:	691b      	ldr	r3, [r3, #16]
 10e:	4798      	blx	r3
 110:	f1b9 0f2d 	cmp.w	r9, #45	; 0x2d
 114:	4638      	mov	r0, r7
 116:	bf08      	it	eq
 118:	eeb1 8b48 	vnegeq.f64	d8, d8
 11c:	ed8a 8b00 	vstr	d8, [sl]
 120:	b007      	add	sp, #28
 122:	ecbd 8b02 	vpop	{d8}
 126:	e8bd 8ff0 	ldmia.w	sp!, {r4, r5, r6, r7, r8, r9, sl, fp, pc}
 12a:	f1bb 0f00 	cmp.w	fp, #0
 12e:	d11a      	bne.n	166 <_ZN7istream9getDoubleEPd+0x166>
 130:	3601      	adds	r6, #1
 132:	b2b3      	uxth	r3, r6
 134:	b236      	sxth	r6, r6
 136:	3364      	adds	r3, #100	; 0x64
 138:	b29b      	uxth	r3, r3
 13a:	2bc8      	cmp	r3, #200	; 0xc8
 13c:	d98e      	bls.n	5c <_ZN7istream9getDoubleEPd+0x5c>
 13e:	6823      	ldr	r3, [r4, #0]
 140:	4620      	mov	r0, r4
 142:	a902      	add	r1, sp, #8
 144:	2700      	movs	r7, #0
 146:	691b      	ldr	r3, [r3, #16]
 148:	4798      	blx	r3
 14a:	6823      	ldr	r3, [r4, #0]
 14c:	4638      	mov	r0, r7
 14e:	f853 3c0c 	ldr.w	r3, [r3, #-12]
 152:	4423      	add	r3, r4
 154:	7c1a      	ldrb	r2, [r3, #16]
 156:	f042 0204 	orr.w	r2, r2, #4
 15a:	741a      	strb	r2, [r3, #16]
 15c:	b007      	add	sp, #28
 15e:	ecbd 8b02 	vpop	{d8}
 162:	e8bd 8ff0 	ldmia.w	sp!, {r4, r5, r6, r7, r8, r9, sl, fp, pc}
 166:	465f      	mov	r7, fp
 168:	e779      	b.n	5e <_ZN7istream9getDoubleEPd+0x5e>
 16a:	6823      	ldr	r3, [r4, #0]
 16c:	4620      	mov	r0, r4
 16e:	681b      	ldr	r3, [r3, #0]
 170:	4798      	blx	r3
 172:	e75a      	b.n	2a <_ZN7istream9getDoubleEPd+0x2a>
 174:	6823      	ldr	r3, [r4, #0]
 176:	4620      	mov	r0, r4
 178:	681b      	ldr	r3, [r3, #0]
 17a:	4798      	blx	r3
 17c:	282b      	cmp	r0, #43	; 0x2b
 17e:	9001      	str	r0, [sp, #4]
 180:	d031      	beq.n	1e6 <_ZN7istream9getDoubleEPd+0x1e6>
 182:	282d      	cmp	r0, #45	; 0x2d
 184:	d02f      	beq.n	1e6 <_ZN7istream9getDoubleEPd+0x1e6>
 186:	f1a0 0330 	sub.w	r3, r0, #48	; 0x30
 18a:	2b09      	cmp	r3, #9
 18c:	d886      	bhi.n	9c <_ZN7istream9getDoubleEPd+0x9c>
 18e:	9801      	ldr	r0, [sp, #4]
 190:	3830      	subs	r0, #48	; 0x30
 192:	f04f 0800 	mov.w	r8, #0
 196:	e002      	b.n	19e <_ZN7istream9getDoubleEPd+0x19e>
 198:	f1b8 0f64 	cmp.w	r8, #100	; 0x64
 19c:	dccf      	bgt.n	13e <_ZN7istream9getDoubleEPd+0x13e>
 19e:	eb08 0388 	add.w	r3, r8, r8, lsl #2
 1a2:	6822      	ldr	r2, [r4, #0]
 1a4:	a902      	add	r1, sp, #8
 1a6:	eb00 0043 	add.w	r0, r0, r3, lsl #1
 1aa:	6852      	ldr	r2, [r2, #4]
 1ac:	fa1f fb80 	uxth.w	fp, r0
 1b0:	fa0f f880 	sxth.w	r8, r0
 1b4:	4620      	mov	r0, r4
 1b6:	4790      	blx	r2
 1b8:	6822      	ldr	r2, [r4, #0]
 1ba:	4620      	mov	r0, r4
 1bc:	6812      	ldr	r2, [r2, #0]
 1be:	4790      	blx	r2
 1c0:	3830      	subs	r0, #48	; 0x30
 1c2:	2809      	cmp	r0, #9
 1c4:	d9e8      	bls.n	198 <_ZN7istream9getDoubleEPd+0x198>
 1c6:	9b01      	ldr	r3, [sp, #4]
 1c8:	ee07 5a90 	vmov	s15, r5
 1cc:	2b2d      	cmp	r3, #45	; 0x2d
 1ce:	eeb8 8b67 	vcvt.f64.u32	d8, s15
 1d2:	f47f af67 	bne.w	a4 <_ZN7istream9getDoubleEPd+0xa4>
 1d6:	eba6 0b0b 	sub.w	fp, r6, fp
 1da:	fa0f f28b 	sxth.w	r2, fp
 1de:	e764      	b.n	aa <_ZN7istream9getDoubleEPd+0xaa>
 1e0:	4253      	negs	r3, r2
 1e2:	b21b      	sxth	r3, r3
 1e4:	e766      	b.n	b4 <_ZN7istream9getDoubleEPd+0xb4>
 1e6:	6823      	ldr	r3, [r4, #0]
 1e8:	4620      	mov	r0, r4
 1ea:	681b      	ldr	r3, [r3, #0]
 1ec:	4798      	blx	r3
 1ee:	f1a0 0330 	sub.w	r3, r0, #48	; 0x30
 1f2:	2b09      	cmp	r3, #9
 1f4:	d9cc      	bls.n	190 <_ZN7istream9getDoubleEPd+0x190>
 1f6:	f04f 0b00 	mov.w	fp, #0
 1fa:	e7e4      	b.n	1c6 <_ZN7istream9getDoubleEPd+0x1c6>
 1fc:	f3af 8000 	nop.w
 200:	ffffffff 	.word	0xffffffff
 204:	7fefffff 	.word	0x7fefffff
 208:	00000000 	.word	0x00000000
 20c:	00100000 	.word	0x00100000
 210:	19999999 	.word	0x19999999

Disassembly of section .text._ZN7istream9getNumberEmmPm:

00000000 <_ZN7istream9getNumberEmmPm>:
   0:	e92d 4ff0 	stmdb	sp!, {r4, r5, r6, r7, r8, r9, sl, fp, lr}
   4:	460c      	mov	r4, r1
   6:	6801      	ldr	r1, [r0, #0]
   8:	4690      	mov	r8, r2
   a:	b089      	sub	sp, #36	; 0x24
   c:	f851 2c0c 	ldr.w	r2, [r1, #-12]
  10:	4683      	mov	fp, r0
  12:	9302      	str	r3, [sp, #8]
  14:	4402      	add	r2, r0
  16:	6856      	ldr	r6, [r2, #4]
  18:	f006 0638 	and.w	r6, r6, #56	; 0x38
  1c:	2e20      	cmp	r6, #32
  1e:	f000 80a4 	beq.w	16a <_ZN7istream9getNumberEmmPm+0x16a>
  22:	2e10      	cmp	r6, #16
  24:	d032      	beq.n	8c <_ZN7istream9getNumberEmmPm+0x8c>
  26:	270a      	movs	r7, #10
  28:	2500      	movs	r5, #0
  2a:	463e      	mov	r6, r7
  2c:	684a      	ldr	r2, [r1, #4]
  2e:	4658      	mov	r0, fp
  30:	a904      	add	r1, sp, #16
  32:	4790      	blx	r2
  34:	4658      	mov	r0, fp
  36:	f7ff fffe 	bl	0 <_ZN7istream9getNumberEmmPm>
  3a:	282d      	cmp	r0, #45	; 0x2d
  3c:	4681      	mov	r9, r0
  3e:	f000 808b 	beq.w	158 <_ZN7istream9getNumberEmmPm+0x158>
  42:	2300      	movs	r3, #0
  44:	282b      	cmp	r0, #43	; 0x2b
  46:	9301      	str	r3, [sp, #4]
  48:	f000 8088 	beq.w	15c <_ZN7istream9getNumberEmmPm+0x15c>
  4c:	f1b9 0f30 	cmp.w	r9, #48	; 0x30
  50:	d11f      	bne.n	92 <_ZN7istream9getNumberEmmPm+0x92>
  52:	b1f5      	cbz	r5, 92 <_ZN7istream9getNumberEmmPm+0x92>
  54:	f8db 2000 	ldr.w	r2, [fp]
  58:	a904      	add	r1, sp, #16
  5a:	4658      	mov	r0, fp
  5c:	6852      	ldr	r2, [r2, #4]
  5e:	4790      	blx	r2
  60:	f8db 2000 	ldr.w	r2, [fp]
  64:	4658      	mov	r0, fp
  66:	6812      	ldr	r2, [r2, #0]
  68:	4790      	blx	r2
  6a:	f020 0120 	bic.w	r1, r0, #32
  6e:	4681      	mov	r9, r0
  70:	b209      	sxth	r1, r1
  72:	2958      	cmp	r1, #88	; 0x58
  74:	d17d      	bne.n	172 <_ZN7istream9getNumberEmmPm+0x172>
  76:	f8db 2000 	ldr.w	r2, [fp]
  7a:	4658      	mov	r0, fp
  7c:	f04f 0a00 	mov.w	sl, #0
  80:	6812      	ldr	r2, [r2, #0]
  82:	4790      	blx	r2
  84:	2301      	movs	r3, #1
  86:	4681      	mov	r9, r0
  88:	9303      	str	r3, [sp, #12]
  8a:	e005      	b.n	98 <_ZN7istream9getNumberEmmPm+0x98>
  8c:	4637      	mov	r7, r6
  8e:	2501      	movs	r5, #1
  90:	e7cc      	b.n	2c <_ZN7istream9getNumberEmmPm+0x2c>
  92:	2300      	movs	r3, #0
  94:	469a      	mov	sl, r3
  96:	9303      	str	r3, [sp, #12]
  98:	4643      	mov	r3, r8
  9a:	9a01      	ldr	r2, [sp, #4]
  9c:	2a00      	cmp	r2, #0
  9e:	bf08      	it	eq
  a0:	4623      	moveq	r3, r4
  a2:	2400      	movs	r4, #0
  a4:	fbb3 f8f7 	udiv	r8, r3, r7
  a8:	fb07 3318 	mls	r3, r7, r8, r3
  ac:	9300      	str	r3, [sp, #0]
  ae:	e013      	b.n	d8 <_ZN7istream9getNumberEmmPm+0xd8>
  b0:	4544      	cmp	r4, r8
  b2:	f04f 0a01 	mov.w	sl, #1
  b6:	fb07 3404 	mla	r4, r7, r4, r3
  ba:	d83a      	bhi.n	132 <_ZN7istream9getNumberEmmPm+0x132>
  bc:	d102      	bne.n	c4 <_ZN7istream9getNumberEmmPm+0xc4>
  be:	9a00      	ldr	r2, [sp, #0]
  c0:	4293      	cmp	r3, r2
  c2:	dc36      	bgt.n	132 <_ZN7istream9getNumberEmmPm+0x132>
  c4:	f8db 3000 	ldr.w	r3, [fp]
  c8:	685b      	ldr	r3, [r3, #4]
  ca:	4798      	blx	r3
  cc:	f8db 3000 	ldr.w	r3, [fp]
  d0:	4658      	mov	r0, fp
  d2:	681b      	ldr	r3, [r3, #0]
  d4:	4798      	blx	r3
  d6:	4681      	mov	r9, r0
  d8:	f1a9 0330 	sub.w	r3, r9, #48	; 0x30
  dc:	fa1f f589 	uxth.w	r5, r9
  e0:	4648      	mov	r0, r9
  e2:	2b09      	cmp	r3, #9
  e4:	b21b      	sxth	r3, r3
  e6:	d90c      	bls.n	102 <_ZN7istream9getNumberEmmPm+0x102>
  e8:	f7ff fffe 	bl	0 <isalpha>
  ec:	4603      	mov	r3, r0
  ee:	4648      	mov	r0, r9
  f0:	b15b      	cbz	r3, 10a <_ZN7istream9getNumberEmmPm+0x10a>
  f2:	f7ff fffe 	bl	0 <isupper>
  f6:	2800      	cmp	r0, #0
  f8:	bf14      	ite	ne
  fa:	2337      	movne	r3, #55	; 0x37
  fc:	2357      	moveq	r3, #87	; 0x57
  fe:	1aed      	subs	r5, r5, r3
 100:	b22b      	sxth	r3, r5
 102:	42b3      	cmp	r3, r6
 104:	a904      	add	r1, sp, #16
 106:	4658      	mov	r0, fp
 108:	dbd2      	blt.n	b0 <_ZN7istream9getNumberEmmPm+0xb0>
 10a:	f8db 2000 	ldr.w	r2, [fp]
 10e:	a904      	add	r1, sp, #16
 110:	4658      	mov	r0, fp
 112:	6912      	ldr	r2, [r2, #16]
 114:	4790      	blx	r2
 116:	f1ba 0f00 	cmp.w	sl, #0
 11a:	d101      	bne.n	120 <_ZN7istream9getNumberEmmPm+0x120>
 11c:	9b03      	ldr	r3, [sp, #12]
 11e:	b173      	cbz	r3, 13e <_ZN7istream9getNumberEmmPm+0x13e>
 120:	9b01      	ldr	r3, [sp, #4]
 122:	b103      	cbz	r3, 126 <_ZN7istream9getNumberEmmPm+0x126>
 124:	4264      	negs	r4, r4
 126:	2001      	movs	r0, #1
 128:	9b02      	ldr	r3, [sp, #8]
 12a:	601c      	str	r4, [r3, #0]
 12c:	b009      	add	sp, #36	; 0x24
 12e:	e8bd 8ff0 	ldmia.w	sp!, {r4, r5, r6, r7, r8, r9, sl, fp, pc}
 132:	f8db 2000 	ldr.w	r2, [fp]
 136:	a904      	add	r1, sp, #16
 138:	4658      	mov	r0, fp
 13a:	6912      	ldr	r2, [r2, #16]
 13c:	4790      	blx	r2
 13e:	f8db 2000 	ldr.w	r2, [fp]
 142:	2000      	movs	r0, #0
 144:	f852 3c0c 	ldr.w	r3, [r2, #-12]
 148:	445b      	add	r3, fp
 14a:	7c1a      	ldrb	r2, [r3, #16]
 14c:	f042 0204 	orr.w	r2, r2, #4
 150:	741a      	strb	r2, [r3, #16]
 152:	b009      	add	sp, #36	; 0x24
 154:	e8bd 8ff0 	ldmia.w	sp!, {r4, r5, r6, r7, r8, r9, sl, fp, pc}
 158:	2301      	movs	r3, #1
 15a:	9301      	str	r3, [sp, #4]
 15c:	f8db 2000 	ldr.w	r2, [fp]
 160:	4658      	mov	r0, fp
 162:	6812      	ldr	r2, [r2, #0]
 164:	4790      	blx	r2
 166:	4681      	mov	r9, r0
 168:	e770      	b.n	4c <_ZN7istream9getNumberEmmPm+0x4c>
 16a:	2708      	movs	r7, #8
 16c:	2500      	movs	r5, #0
 16e:	463e      	mov	r6, r7
 170:	e75c      	b.n	2c <_ZN7istream9getNumberEmmPm+0x2c>
 172:	2300      	movs	r3, #0
 174:	f04f 0a01 	mov.w	sl, #1
 178:	9303      	str	r3, [sp, #12]
 17a:	e78d      	b.n	98 <_ZN7istream9getNumberEmmPm+0x98>

Disassembly of section .text._ZN7istream6getStrEPc:

00000000 <_ZN7istream6getStrEPc>:
   0:	6802      	ldr	r2, [r0, #0]
   2:	f852 3c0c 	ldr.w	r3, [r2, #-12]
   6:	4403      	add	r3, r0
   8:	68db      	ldr	r3, [r3, #12]
   a:	e92d 47f0 	stmdb	sp!, {r4, r5, r6, r7, r8, r9, sl, lr}
   e:	4605      	mov	r5, r0
  10:	b084      	sub	sp, #16
  12:	4689      	mov	r9, r1
  14:	2b00      	cmp	r3, #0
  16:	d036      	beq.n	86 <_ZN7istream6getStrEPc+0x86>
  18:	f103 38ff 	add.w	r8, r3, #4294967295	; 0xffffffff
  1c:	fa1f f888 	uxth.w	r8, r8
  20:	f1b8 0f00 	cmp.w	r8, #0
  24:	d032      	beq.n	8c <_ZN7istream6getStrEPc+0x8c>
  26:	6853      	ldr	r3, [r2, #4]
  28:	4628      	mov	r0, r5
  2a:	4669      	mov	r1, sp
  2c:	f109 37ff 	add.w	r7, r9, #4294967295	; 0xffffffff
  30:	4798      	blx	r3
  32:	4628      	mov	r0, r5
  34:	f7ff fffe 	bl	0 <_ZN7istream6getStrEPc>
  38:	f04f 0a00 	mov.w	sl, #0
  3c:	4604      	mov	r4, r0
  3e:	2c00      	cmp	r4, #0
  40:	4620      	mov	r0, r4
  42:	db31      	blt.n	a8 <_ZN7istream6getStrEPc+0xa8>
  44:	f7ff fffe 	bl	0 <isspace>
  48:	4606      	mov	r6, r0
  4a:	f10a 0201 	add.w	r2, sl, #1
  4e:	4669      	mov	r1, sp
  50:	4628      	mov	r0, r5
  52:	bb36      	cbnz	r6, a2 <_ZN7istream6getStrEPc+0xa2>
  54:	f807 4f01 	strb.w	r4, [r7, #1]!
  58:	fa1f fa82 	uxth.w	sl, r2
  5c:	682b      	ldr	r3, [r5, #0]
  5e:	685b      	ldr	r3, [r3, #4]
  60:	4798      	blx	r3
  62:	682b      	ldr	r3, [r5, #0]
  64:	4628      	mov	r0, r5
  66:	681b      	ldr	r3, [r3, #0]
  68:	4798      	blx	r3
  6a:	45d0      	cmp	r8, sl
  6c:	4604      	mov	r4, r0
  6e:	d1e6      	bne.n	3e <_ZN7istream6getStrEPc+0x3e>
  70:	f809 6008 	strb.w	r6, [r9, r8]
  74:	682b      	ldr	r3, [r5, #0]
  76:	2200      	movs	r2, #0
  78:	f853 3c0c 	ldr.w	r3, [r3, #-12]
  7c:	442b      	add	r3, r5
  7e:	60da      	str	r2, [r3, #12]
  80:	b004      	add	sp, #16
  82:	e8bd 87f0 	ldmia.w	sp!, {r4, r5, r6, r7, r8, r9, sl, pc}
  86:	f64f 78fe 	movw	r8, #65534	; 0xfffe
  8a:	e7cc      	b.n	26 <_ZN7istream6getStrEPc+0x26>
  8c:	f881 8000 	strb.w	r8, [r1]
  90:	682b      	ldr	r3, [r5, #0]
  92:	f853 3c0c 	ldr.w	r3, [r3, #-12]
  96:	442b      	add	r3, r5
  98:	7c1a      	ldrb	r2, [r3, #16]
  9a:	f042 0204 	orr.w	r2, r2, #4
  9e:	741a      	strb	r2, [r3, #16]
  a0:	e7e8      	b.n	74 <_ZN7istream6getStrEPc+0x74>
  a2:	682b      	ldr	r3, [r5, #0]
  a4:	691b      	ldr	r3, [r3, #16]
  a6:	4798      	blx	r3
  a8:	2300      	movs	r3, #0
  aa:	f809 300a 	strb.w	r3, [r9, sl]
  ae:	f1ba 0f00 	cmp.w	sl, #0
  b2:	d1df      	bne.n	74 <_ZN7istream6getStrEPc+0x74>
  b4:	e7ec      	b.n	90 <_ZN7istream6getStrEPc+0x90>
  b6:	bf00      	nop

Disassembly of section .text._ZN7istream7getBoolEPb:

00000000 <_ZN7istream7getBoolEPb>:
   0:	6803      	ldr	r3, [r0, #0]
   2:	f853 3c0c 	ldr.w	r3, [r3, #-12]
   6:	4403      	add	r3, r0
   8:	685b      	ldr	r3, [r3, #4]
   a:	05db      	lsls	r3, r3, #23
   c:	e92d 47f0 	stmdb	sp!, {r4, r5, r6, r7, r8, r9, sl, lr}
  10:	4689      	mov	r9, r1
  12:	b082      	sub	sp, #8
  14:	d52e      	bpl.n	74 <_ZN7istream7getBoolEPb+0x74>
  16:	2401      	movs	r4, #1
  18:	4f28      	ldr	r7, [pc, #160]	; (bc <_ZN7istream7getBoolEPb+0xbc>)
  1a:	f8df 80a4 	ldr.w	r8, [pc, #164]	; c0 <_ZN7istream7getBoolEPb+0xc0>
  1e:	4682      	mov	sl, r0
  20:	4625      	mov	r5, r4
  22:	4626      	mov	r6, r4
  24:	f7ff fffe 	bl	0 <_ZN7istream7getBoolEPb>
  28:	1e63      	subs	r3, r4, #1
  2a:	b2db      	uxtb	r3, r3
  2c:	b11d      	cbz	r5, 36 <_ZN7istream7getBoolEPb+0x36>
  2e:	f818 2003 	ldrb.w	r2, [r8, r3]
  32:	4282      	cmp	r2, r0
  34:	d00f      	beq.n	56 <_ZN7istream7getBoolEPb+0x56>
  36:	b116      	cbz	r6, 3e <_ZN7istream7getBoolEPb+0x3e>
  38:	5cfb      	ldrb	r3, [r7, r3]
  3a:	4298      	cmp	r0, r3
  3c:	d016      	beq.n	6c <_ZN7istream7getBoolEPb+0x6c>
  3e:	f8da 3000 	ldr.w	r3, [sl]
  42:	f853 3c0c 	ldr.w	r3, [r3, #-12]
  46:	4453      	add	r3, sl
  48:	7c1a      	ldrb	r2, [r3, #16]
  4a:	f042 0204 	orr.w	r2, r2, #4
  4e:	741a      	strb	r2, [r3, #16]
  50:	b002      	add	sp, #8
  52:	e8bd 87f0 	ldmia.w	sp!, {r4, r5, r6, r7, r8, r9, sl, pc}
  56:	bb5e      	cbnz	r6, b0 <_ZN7istream7getBoolEPb+0xb0>
  58:	2c05      	cmp	r4, #5
  5a:	d023      	beq.n	a4 <_ZN7istream7getBoolEPb+0xa4>
  5c:	f8da 3000 	ldr.w	r3, [sl]
  60:	3401      	adds	r4, #1
  62:	4650      	mov	r0, sl
  64:	681b      	ldr	r3, [r3, #0]
  66:	b2e4      	uxtb	r4, r4
  68:	4798      	blx	r3
  6a:	e7dd      	b.n	28 <_ZN7istream7getBoolEPb+0x28>
  6c:	2c04      	cmp	r4, #4
  6e:	d013      	beq.n	98 <_ZN7istream7getBoolEPb+0x98>
  70:	2500      	movs	r5, #0
  72:	e7f3      	b.n	5c <_ZN7istream7getBoolEPb+0x5c>
  74:	2201      	movs	r2, #1
  76:	ab01      	add	r3, sp, #4
  78:	4611      	mov	r1, r2
  7a:	f7ff fffe 	bl	0 <_ZN7istream7getBoolEPb>
  7e:	2800      	cmp	r0, #0
  80:	d0e6      	beq.n	50 <_ZN7istream7getBoolEPb+0x50>
  82:	9b01      	ldr	r3, [sp, #4]
  84:	3b00      	subs	r3, #0
  86:	bf18      	it	ne
  88:	2301      	movne	r3, #1
  8a:	f889 3000 	strb.w	r3, [r9]
  8e:	b002      	add	sp, #8
  90:	e8bd 87f0 	ldmia.w	sp!, {r4, r5, r6, r7, r8, r9, sl, pc}
  94:	2c04      	cmp	r4, #4
  96:	d1df      	bne.n	58 <_ZN7istream7getBoolEPb+0x58>
  98:	2301      	movs	r3, #1
  9a:	f889 3000 	strb.w	r3, [r9]
  9e:	b002      	add	sp, #8
  a0:	e8bd 87f0 	ldmia.w	sp!, {r4, r5, r6, r7, r8, r9, sl, pc}
  a4:	2300      	movs	r3, #0
  a6:	f889 3000 	strb.w	r3, [r9]
  aa:	b002      	add	sp, #8
  ac:	e8bd 87f0 	ldmia.w	sp!, {r4, r5, r6, r7, r8, r9, sl, pc}
  b0:	5cfb      	ldrb	r3, [r7, r3]
  b2:	4298      	cmp	r0, r3
  b4:	d0ee      	beq.n	94 <_ZN7istream7getBoolEPb+0x94>
  b6:	2600      	movs	r6, #0
  b8:	e7ce      	b.n	58 <_ZN7istream7getBoolEPb+0x58>
  ba:	bf00      	nop
  bc:	00000008 	.word	0x00000008
  c0:	00000000 	.word	0x00000000

Disassembly of section .text._ZN7istream9skipWhiteEv:

00000000 <_ZN7istream9skipWhiteEv>:
   0:	b510      	push	{r4, lr}
   2:	4604      	mov	r4, r0
   4:	b084      	sub	sp, #16
   6:	6823      	ldr	r3, [r4, #0]
   8:	4669      	mov	r1, sp
   a:	4620      	mov	r0, r4
   c:	685b      	ldr	r3, [r3, #4]
   e:	4798      	blx	r3
  10:	6823      	ldr	r3, [r4, #0]
  12:	4620      	mov	r0, r4
  14:	681b      	ldr	r3, [r3, #0]
  16:	4798      	blx	r3
  18:	f7ff fffe 	bl	0 <isspace>
  1c:	2800      	cmp	r0, #0
  1e:	d1f2      	bne.n	6 <_ZN7istream9skipWhiteEv+0x6>
  20:	6823      	ldr	r3, [r4, #0]
  22:	4669      	mov	r1, sp
  24:	4620      	mov	r0, r4
  26:	691b      	ldr	r3, [r3, #16]
  28:	4798      	blx	r3
  2a:	b004      	add	sp, #16
  2c:	bd10      	pop	{r4, pc}
  2e:	bf00      	nop
