
build/./libraries/SdFat/src/iostream/StdioStream.cpp.o:     file format elf32-littlearm

SYMBOL TABLE:
00000000 l    df *ABS*	00000000 StdioStream.cpp
00000000 l    d  .text	00000000 .text
00000000 l    d  .data	00000000 .data
00000000 l    d  .bss	00000000 .bss
00000000 l    d  .text._ZN11StdioStream5fopenEPKcS1_	00000000 .text._ZN11StdioStream5fopenEPKcS1_
00000000 l    d  .text._ZN11StdioStream5ftellEv	00000000 .text._ZN11StdioStream5ftellEv
00000000 l    d  .text._ZN11StdioStream6ungetcEi	00000000 .text._ZN11StdioStream6ungetcEi
00000000 l    d  .text._ZN11StdioStream8flushBufEv	00000000 .text._ZN11StdioStream8flushBufEv
00000000 l    d  .text._ZN11StdioStream6fcloseEv	00000000 .text._ZN11StdioStream6fcloseEv
00000000 l    d  .text._ZN11StdioStream6fflushEv	00000000 .text._ZN11StdioStream6fflushEv
00000000 l    d  .text._ZN11StdioStream5fseekEli	00000000 .text._ZN11StdioStream5fseekEli
00000000 l    d  .text._ZN11StdioStream5writeEPKvj	00000000 .text._ZN11StdioStream5writeEPKvj
00000000 l    d  .text._ZN11StdioStream6fwriteEPKvjj	00000000 .text._ZN11StdioStream6fwriteEPKvjj
00000000 l    d  .text._ZN11StdioStream5fputsEPKc	00000000 .text._ZN11StdioStream5fputsEPKc
00000000 l    d  .text._ZN11StdioStream8printDecEfh	00000000 .text._ZN11StdioStream8printDecEfh
00000000 l    d  .text._ZN11StdioStream8printDecEt	00000000 .text._ZN11StdioStream8printDecEt
00000000 l    d  .text._ZN11StdioStream8printDecEm	00000000 .text._ZN11StdioStream8printDecEm
00000000 l    d  .text._ZN11StdioStream8printHexEm	00000000 .text._ZN11StdioStream8printHexEm
00000000 l    d  .text._ZN11StdioStream6rewindEv	00000000 .text._ZN11StdioStream6rewindEv
00000000 l    d  .text._ZN11StdioStream7fillBufEv	00000000 .text._ZN11StdioStream7fillBufEv
00000000 l    d  .text._ZN11StdioStream5fgetsEPcjPj	00000000 .text._ZN11StdioStream5fgetsEPcjPj
00000000 l    d  .text._ZN11StdioStream5freadEPvjj	00000000 .text._ZN11StdioStream5freadEPvjj
00000000 l    d  .text._ZN11StdioStream7fillGetEv	00000000 .text._ZN11StdioStream7fillGetEv
00000000 l    d  .text._ZN11StdioStream5printEPK19__FlashStringHelper	00000000 .text._ZN11StdioStream5printEPK19__FlashStringHelper
00000000 l    d  .text._ZN11StdioStream8printDecEa	00000000 .text._ZN11StdioStream8printDecEa
00000000 l    d  .text._ZN11StdioStream8printDecEs	00000000 .text._ZN11StdioStream8printDecEs
00000000 l    d  .text._ZN11StdioStream8printDecEl	00000000 .text._ZN11StdioStream8printDecEl
00000000 l    d  .text._ZN11StdioStream8flushPutEh	00000000 .text._ZN11StdioStream8flushPutEh
00000000 l    d  .text._ZN11StdioStream8fmtSpaceEh	00000000 .text._ZN11StdioStream8fmtSpaceEh
00000000 l    d  .comment	00000000 .comment
00000000 l    d  .ARM.attributes	00000000 .ARM.attributes
00000000 g     F .text._ZN11StdioStream5fopenEPKcS1_	0000009c _ZN11StdioStream5fopenEPKcS1_
00000000         *UND*	00000000 _ZN10FsBaseFile4openEP8FsVolumePKci
00000000         *UND*	00000000 _ZN8FsVolume5m_cwvE
00000000 g     F .text._ZN11StdioStream5ftellEv	00000040 _ZN11StdioStream5ftellEv
00000000 g     F .text._ZN11StdioStream6ungetcEi	00000040 _ZN11StdioStream6ungetcEi
00000000 g     F .text._ZN11StdioStream8flushBufEv	00000082 _ZN11StdioStream8flushBufEv
00000000         *UND*	00000000 _ZN7FatFile5writeEPKvj
00000000         *UND*	00000000 _ZN9ExFatFile5writeEPKvj
00000000 g     F .text._ZN11StdioStream6fcloseEv	0000003a _ZN11StdioStream6fcloseEv
00000000         *UND*	00000000 _ZN10FsBaseFile5closeEv
00000000 g     F .text._ZN11StdioStream6fflushEv	0000003c _ZN11StdioStream6fflushEv
00000000         *UND*	00000000 _ZN7FatFile4syncEv
00000000         *UND*	00000000 _ZN9ExFatFile4syncEv
00000000 g     F .text._ZN11StdioStream5fseekEli	000000d4 _ZN11StdioStream5fseekEli
00000000         *UND*	00000000 _ZN7FatFile7seekSetEm
00000000         *UND*	00000000 _ZN9ExFatFile7seekSetEy
00000000 g     F .text._ZN11StdioStream5writeEPKvj	00000062 _ZN11StdioStream5writeEPKvj
00000000         *UND*	00000000 memcpy
00000000 g     F .text._ZN11StdioStream6fwriteEPKvjj	00000018 _ZN11StdioStream6fwriteEPKvjj
00000000 g     F .text._ZN11StdioStream5fputsEPKc	00000028 _ZN11StdioStream5fputsEPKc
00000000         *UND*	00000000 strlen
00000000 g     F .text._ZN11StdioStream8printDecEfh	00000022 _ZN11StdioStream8printDecEfh
00000000         *UND*	00000000 _Z9fmtDoublePcdhb
00000000 g     F .text._ZN11StdioStream8printDecEt	00000020 _ZN11StdioStream8printDecEt
00000000         *UND*	00000000 _Z9fmtBase10Pct
00000000 g     F .text._ZN11StdioStream8printDecEm	00000020 _ZN11StdioStream8printDecEm
00000000         *UND*	00000000 _Z9fmtBase10Pcm
00000000 g     F .text._ZN11StdioStream8printHexEm	0000001e _ZN11StdioStream8printHexEm
00000000         *UND*	00000000 _Z6fmtHexPcm
00000000 g     F .text._ZN11StdioStream6rewindEv	00000036 _ZN11StdioStream6rewindEv
00000000 g     F .text._ZN11StdioStream7fillBufEv	00000094 _ZN11StdioStream7fillBufEv
00000000         *UND*	00000000 _ZN7FatFile4readEPvj
00000000         *UND*	00000000 _ZN9ExFatFile4readEPvj
00000000 g     F .text._ZN11StdioStream5fgetsEPcjPj	000000b4 _ZN11StdioStream5fgetsEPcjPj
00000000         *UND*	00000000 memchr
00000000 g     F .text._ZN11StdioStream5freadEPvjj	0000007c _ZN11StdioStream5freadEPvjj
00000000 g     F .text._ZN11StdioStream7fillGetEv	00000028 _ZN11StdioStream7fillGetEv
00000000 g     F .text._ZN11StdioStream5printEPK19__FlashStringHelper	0000005c _ZN11StdioStream5printEPK19__FlashStringHelper
00000000 g     F .text._ZN11StdioStream8printDecEa	0000006c _ZN11StdioStream8printDecEa
00000000 g     F .text._ZN11StdioStream8printDecEs	00000078 _ZN11StdioStream8printDecEs
00000000 g     F .text._ZN11StdioStream8printDecEl	00000076 _ZN11StdioStream8printDecEl
00000000 g     F .text._ZN11StdioStream8flushPutEh	0000002c _ZN11StdioStream8flushPutEh
00000000 g     F .text._ZN11StdioStream8fmtSpaceEh	00000034 _ZN11StdioStream8fmtSpaceEh


Contents of section .text._ZN11StdioStream5fopenEPKcS1_:
 0000 38b51378 0446722b 40d0772b 06d0612b  8..x.Fr+@.w+..a+
 0010 36d00023 184684f8 803038bd 02234ff0  6..#.F...08..#O.
 0020 010c4ff4 c06084f8 80305378 83b10132  ..O..`...0Sx...2
 0030 4ff0040e 622b07d0 782b1ed0 2b2be8d1  O...b+..x+..++..
 0040 4ff0020c 84f880e0 12f8013f 002bf1d1  O..........?.+..
 0050 114b1d68 002ddcd0 4cea0003 0a462046  .K.h.-..L....F F
 0060 2946fff7 feff0028 d3d00022 04f14003  )F.....(..."..@.
 0070 a4f88820 c4f88430 38bd40f4 0060e3e7  ... ...08.@..`..
 0080 02234ff0 010c4ff4 0270cce7 4ff0000c  .#O...O..p..O...
 0090 01236046 c7e700bf 00000000           .#`F........    
Contents of section .text._ZN11StdioStream5ftellEv:
 0000 836babb1 5b6990f8 8020d107 06d590f8  .k..[i... ......
 0010 88209a42 11d89b1a 18467047 9207fbd5  . .B.....FpG....
 0020 00f14001 d0f88420 521a1344 18467047  ..@.... R..D.FpG
 0030 c36b002b e7d01b68 e5e74ff0 ff307047  .k.+...h..O..0pG
Contents of section .text._ZN11StdioStream6ungetcEi:
 0000 4b1c1ad0 90f88030 da0716d5 d0f88420  K......0....... 
 0010 00f1400c 624510d0 90f888c0 23f01003  ..@.bE......#...
 0020 0cf1010c 80f88030 531e80f8 88c0c0f8  .......0S.......
 0030 8430c8b2 02f8011c 70474ff0 ff307047  .0......pGO..0pG
Contents of section .text._ZN11StdioStream8flushBufEv:
 0000 38b590f8 80300446 9a0717d4 13f00400  8....0.F........
 0010 04d143f0 200384f8 803038bd 23f00103  ..C. ....08.#...
 0020 4ff48041 04f14002 012043f0 0203a4f8  O..A..@.. C.....
 0030 8810c4f8 842084f8 803038bd d0f88450  ..... ...08....P
 0040 00f14001 4023806b 6d1ac4f8 841084f8  ..@.@#.km.......
 0050 8930edb2 60b12a46 fff7feff 85420ed0  .0..`.*F.....B..
 0060 94f88030 002043f0 200384f8 8030d4e7  ...0. C. ....0..
 0070 e06b0028 f2d02a46 fff7feff eee70120  .k.(..*F....... 
 0080 38bd00bf                             8...            
Contents of section .text._ZN11StdioStream6fcloseEv:
 0000 38b590f8 8040acb1 14f00204 05460dd1  8....@.......F..
 0010 2846fff7 feff0023 9842a5f8 883085f8  (F.....#.B...0..
 0020 803008bf 4ff0ff34 204638bd fff7feff  .0..O..4 F8.....
 0030 441eede7 4ff0ff34 f6e700bf           D...O..4....    
Contents of section .text._ZN11StdioStream6fflushEv:
 0000 90f88030 13f0060f 15d0db07 13d410b5  ...0............
 0010 0446fff7 feff58b1 a06b18b1 fff7feff  .F....X..k......
 0020 013810bd e06b18b1 fff7feff 013810bd  .8...k.......8..
 0030 4ff0ff30 10bd4ff0 ff307047           O..0..O..0pG    
Contents of section .text._ZN11StdioStream5fseekEli:
 0000 70b590f8 80300446 0e461546 9b0707d4  p....0.F.F.F....
 0010 012d0bd0 022d24d0 cdb14ff0 ff3070bd  .-...-$...O..0p.
 0020 fff7feff 0028f8d0 012df3d1 2046fff7  .....(...-.. F..
 0030 feff031e f1dba06b 33440028 3dd04169  .......k3D.(=.Ai
 0040 da17c918 42f10002 002ae6d1 12e0a06b  ....B....*.....k
 0050 f31748b3 4ff0ff32 b2429d41 ddd33146  ..H.O..2.B.A..1F
 0060 08e0a06b 98b1c169 f3178919 43f10003  ...k...i....C...
 0070 002bd2d1 fff7feff 0028ced0 002304f1  .+.......(...#..
 0080 40021846 84f88830 c4f88420 70bde06b  @..F...0... p..k
 0090 0028c2d0 d0e90423 b21843eb e673fff7  .(.....#..C..s..
 00a0 feff0028 ead1b8e7 e06b0028 b5d03246  ...(.....k.(..2F
 00b0 fff7feff 0028e1d1 afe7e06b 0028acd0  .....(.....k.(..
 00c0 d0e90021 9a1841eb e373fff7 feff0028  ...!..A..s.....(
 00d0 a3d0d3e7                             ....            
Contents of section .text._ZN11StdioStream5writeEPKvj:
 0000 f8b51746 04460d46 164611e0 d4f88400  ...F.F.F.F......
 0010 fff7feff 94f889c0 d4f88430 20466544  ...........0 FeD
 0020 a6eb0c06 6344c4f8 8430fff7 feffa8b1  ....cD...0......
 0030 94f88920 2946b242 e8d33246 d4f88400  ... )F.B..2F....
 0040 fff7feff d4f88420 94f88930 38463244  ....... ...08F2D
 0050 9b1bc4f8 842084f8 8930f8bd 4ff0ff30  ..... ...0..O..0
 0060 f8bd00bf                             ....            
Contents of section .text._ZN11StdioStream6fwriteEPKvjj:
 0000 10b503fb 02f21c46 fff7feff 0028acbf  .......F.....(..
 0010 20464ff0 ff3010bd                     FO..0..        
Contents of section .text._ZN11StdioStream5fputsEPKc:
 0000 30b583b0 05460846 0191fff7 feff0446  0....F.F.......F
 0010 01992846 2246fff7 feff0028 acbf2046  ..(F"F.....(.. F
 0020 4ff0ff30 03b030bd                    O..0..0.        
Contents of section .text._ZN11StdioStream8printDecEfh:
 0000 10b586b0 b7eec00a 04460022 06a8fff7  .........F."....
 0010 feff06ab 01462046 5a1afff7 feff06b0  .....F FZ.......
 0020 10bd00bf                             ....            
Contents of section .text._ZN11StdioStream8printDecEt:
 0000 30b583b0 05460df1 05042046 fff7feff  0....F.... F....
 0010 01462846 621ad2b2 fff7feff 03b030bd  .F(Fb.........0.
Contents of section .text._ZN11StdioStream8printDecEm:
 0000 30b585b0 05460df1 0e042046 fff7feff  0....F.... F....
 0010 01462846 621ad2b2 fff7feff 05b030bd  .F(Fb.........0.
Contents of section .text._ZN11StdioStream8printHexEm:
 0000 10b582b0 044602a8 fff7feff 02ab0146  .....F.........F
 0010 20465a1a d2b2fff7 feff02b0 10bd00bf   FZ.............
Contents of section .text._ZN11StdioStream6rewindEv:
 0000 10b590f8 80300446 9b0702d5 fff7feff  .....0.F........
 0010 40b1a06b 38b10021 fff7feff 00230120  @..k8..!.....#. 
 0020 84f88830 10bde06b 0028f7d0 00220023  ...0...k.(...".#
 0030 fff7feff f2e700bf                    ........        
Contents of section .text._ZN11StdioStream7fillBufEv:
 0000 38b590f8 80300446 13f00105 04d113f0  8....0.F........
 0010 040226d0 9b072ad4 04f14201 a06bc4f8  ..&...*...B..k..
 0020 841048b1 3e22fff7 feff0346 002b0bdd  ..H.>".....F.+..
 0030 012084f8 883038bd e06b38b3 3e22fff7  . ...08..k8.>"..
 0040 feff0346 002bf3dc 94f88010 0cbf1023  ...F.+.........#
 0050 20230022 0b431046 84f88030 84f88820   #.".C.F...0... 
 0060 38bd43f0 20031046 84f88030 38bdfff7  8.C. ..F...08...
 0070 feff0028 dfd094f8 803084f8 895023f0  ...(.....0...P#.
 0080 020343f0 010384f8 8030c5e7 94f88010  ..C......0......
 0090 2023dee7                              #..            
Contents of section .text._ZN11StdioStream5fgetsEPcjPj:
 0000 2de9f84f 002a4fd0 541e0e46 9b46002c  -..O.*O.T..F.F.,
 0010 4ed08046 90f88820 0d4662b3 a242d8f8  N..F... .Fb..B..
 0020 84704ff0 0a0128bf 22463846 9146fff7  .pO...(."F8F.F..
 0030 feff0346 39464a46 28461bbb fff7feff  ...F9FJF(F......
 0040 98f88820 d8f88430 b4eb0904 a2eb0902  ... ...0........
 0050 4d444b44 d2b2c8f8 843088f8 8820dcd1  MDKD.....0... ..
 0060 00232b70 bbf1000f 02d0ad1b cbf80050  .#+p...........P
 0070 3046bde8 f88f4046 fff7feff 90b198f8  0F....@F........
 0080 8820cbe7 5c1ca4eb 070a5246 5544fff7  . ..\.....RFUD..
 0090 feff98f8 8830c8f8 8440a3eb 0a0388f8  .....0...@......
 00a0 8830dde7 ae42dbd1 00263046 bde8f88f  .0...B...&0F....
 00b0 0d46d5e7                             .F..            
Contents of section .text._ZN11StdioStream5freadEPvjj:
 0000 2de9f84f 03fb02f9 b9f1000f 2cd09046  -..O........,..F
 0010 9a460446 8b464e46 11e0d4f8 8410fff7  .F.F.FNF........
 0020 feff94f8 8850d4f8 84302046 771bab44  .....P...0 Fw..D
 0030 2b44c4f8 8430fff7 feffc0b1 3e4694f8  +D...0......>F..
 0040 88205846 b242e8d3 3246d4f8 8410fff7  . XF.B..2F......
 0050 feff94f8 8820d4f8 8430d146 921b3344  ..... ...0.F..3D
 0060 84f88820 c4f88430 4846bde8 f88f4d44  ... ...0HF....MD
 0070 ad1bb5fb f8f94846 bde8f88f           ......HF....    
Contents of section .text._ZN11StdioStream7fillGetEv:
 0000 10b50446 fff7feff 58b1d4f8 842094f8  ...F....X.... ..
 0010 8830511c 013bc4f8 841084f8 88301078  .0Q..;.......0.x
 0020 10bd4ff0 ff3010bd                    ..O..0..        
Contents of section .text._ZN11StdioStream5printEPK19__FlashStringHelper:
 0000 f8b50d78 45b30f46 04460e46 08e0d4f8  ...xE..F.F.F....
 0010 84305a1c c4f88420 1d7016f8 015fcdb1  .0Z.... .p..._..
 0020 94f88930 5a1e84f8 8920002b efd12046  ...0Z.... .+.. F
 0030 fff7feff 78b194f8 8930d4f8 8420013b  ....x....0... .;
 0040 511c84f8 8930c4f8 84101570 16f8015f  Q....0.....p..._
 0050 002de5d1 f01bf8bd 2846f8bd           .-......(F..    
Contents of section .text._ZN11StdioStream8printDecEa:
 0000 30b50c1e 83b00546 0ddbe1b2 0df10504  0......F........
 0010 2046fff7 feff0146 2846621a d2b2fff7   F.....F(Fb.....
 0020 feff03b0 30bd90f8 89305a1e 80f88920  ....0....0Z.... 
 0030 4bb1d0f8 84302d22 591cc0f8 84101a70  K....0-"Y......p
 0040 6142c9b2 e2e7fff7 feff60b1 95f88930  aB........`....0
 0050 d5f88420 013b511c 85f88930 2d23c5f8  ... .;Q....0-#..
 0060 84101370 ece74ff0 ff30dae7           ...p..O..0..    
Contents of section .text._ZN11StdioStream8printDecEs:
 0000 70b50c1e 82b00646 12dba1b2 00250df1  p......F.....%..
 0010 05042046 fff7feff 01463046 621ad2b2  .. F.....F0Fb...
 0020 fff7feff 10ea2000 38bf2846 02b070bd  ...... .8.(F..p.
 0030 90f88930 5a1e80f8 892053b1 d0f88430  ...0Z.... S....0
 0040 2d22591c c0f88410 1a706142 012589b2  -"Y......paB.%..
 0050 dde7fff7 feff60b1 96f88930 d6f88420  ......`....0... 
 0060 013b511c 86f88930 2d23c6f8 84101370  .;Q....0-#.....p
 0070 ebe74ff0 ff30d9e7                    ..O..0..        
Contents of section .text._ZN11StdioStream8printDecEl:
 0000 002970b5 044686b0 10db0026 0df11605  .)p..F.....&....
 0010 2846fff7 feff0146 20466a1a d2b2fff7  (F.....F Fj.....
 0020 feff0028 24dd3044 06b070bd 90f88930  ...($.0D..p....0
 0030 5a1e80f8 89204bb1 d0f88430 2d22581c  Z.... K....0-"X.
 0040 c4f88400 1a704942 0126dfe7 0191fff7  .....pIB.&......
 0050 feff0199 60b194f8 8930d4f8 8420013b  ....`....0... .;
 0060 501c84f8 89302d23 c4f88400 1370eae7  P....0-#.....p..
 0070 4ff0ff30 d8e700bf                    O..0....        
Contents of section .text._ZN11StdioStream8flushPutEh:
 0000 38b50446 0d46fff7 feff60b1 94f88930  8..F.F....`....0
 0010 2846d4f8 8420013b 511c84f8 8930c4f8  (F... .;Q....0..
 0020 84101570 38bd4ff0 ff3038bd           ...p8.O..08.    
Contents of section .text._ZN11StdioStream8fmtSpaceEh:
 0000 38b590f8 89300446 0d468b42 08d3d4f8  8....0.F.F.B....
 0010 84005b1b 284484f8 8930c4f8 840038bd  ..[.(D...0....8.
 0020 fff7feff 0028fad0 94f88930 ab42eed2  .....(.....0.B..
 0030 002038bd                             . 8.            
Contents of section .comment:
 0000 00474343 3a202841 726d2047 4e552054  .GCC: (Arm GNU T
 0010 6f6f6c63 6861696e 2031312e 332e5265  oolchain 11.3.Re
 0020 6c312920 31312e33 2e312032 30323230  l1) 11.3.1 20220
 0030 37313200                             712.            
Contents of section .ARM.attributes:
 0000 41310000 00616561 62690001 27000000  A1...aeabi..'...
 0010 0537452d 4d00060d 074d0902 0a081204  .7E-M....M......
 0020 14011501 17031801 19011a01 1c011e02  ................
 0030 2201                                 ".              

Disassembly of section .text._ZN11StdioStream5fopenEPKcS1_:

00000000 <_ZN11StdioStream5fopenEPKcS1_>:
   0:	b538      	push	{r3, r4, r5, lr}
   2:	7813      	ldrb	r3, [r2, #0]
   4:	4604      	mov	r4, r0
   6:	2b72      	cmp	r3, #114	; 0x72
   8:	d040      	beq.n	8c <_ZN11StdioStream5fopenEPKcS1_+0x8c>
   a:	2b77      	cmp	r3, #119	; 0x77
   c:	d006      	beq.n	1c <_ZN11StdioStream5fopenEPKcS1_+0x1c>
   e:	2b61      	cmp	r3, #97	; 0x61
  10:	d036      	beq.n	80 <_ZN11StdioStream5fopenEPKcS1_+0x80>
  12:	2300      	movs	r3, #0
  14:	4618      	mov	r0, r3
  16:	f884 3080 	strb.w	r3, [r4, #128]	; 0x80
  1a:	bd38      	pop	{r3, r4, r5, pc}
  1c:	2302      	movs	r3, #2
  1e:	f04f 0c01 	mov.w	ip, #1
  22:	f44f 60c0 	mov.w	r0, #1536	; 0x600
  26:	f884 3080 	strb.w	r3, [r4, #128]	; 0x80
  2a:	7853      	ldrb	r3, [r2, #1]
  2c:	b183      	cbz	r3, 50 <_ZN11StdioStream5fopenEPKcS1_+0x50>
  2e:	3201      	adds	r2, #1
  30:	f04f 0e04 	mov.w	lr, #4
  34:	2b62      	cmp	r3, #98	; 0x62
  36:	d007      	beq.n	48 <_ZN11StdioStream5fopenEPKcS1_+0x48>
  38:	2b78      	cmp	r3, #120	; 0x78
  3a:	d01e      	beq.n	7a <_ZN11StdioStream5fopenEPKcS1_+0x7a>
  3c:	2b2b      	cmp	r3, #43	; 0x2b
  3e:	d1e8      	bne.n	12 <_ZN11StdioStream5fopenEPKcS1_+0x12>
  40:	f04f 0c02 	mov.w	ip, #2
  44:	f884 e080 	strb.w	lr, [r4, #128]	; 0x80
  48:	f812 3f01 	ldrb.w	r3, [r2, #1]!
  4c:	2b00      	cmp	r3, #0
  4e:	d1f1      	bne.n	34 <_ZN11StdioStream5fopenEPKcS1_+0x34>
  50:	4b11      	ldr	r3, [pc, #68]	; (98 <_ZN11StdioStream5fopenEPKcS1_+0x98>)
  52:	681d      	ldr	r5, [r3, #0]
  54:	2d00      	cmp	r5, #0
  56:	d0dc      	beq.n	12 <_ZN11StdioStream5fopenEPKcS1_+0x12>
  58:	ea4c 0300 	orr.w	r3, ip, r0
  5c:	460a      	mov	r2, r1
  5e:	4620      	mov	r0, r4
  60:	4629      	mov	r1, r5
  62:	f7ff fffe 	bl	0 <_ZN10FsBaseFile4openEP8FsVolumePKci>
  66:	2800      	cmp	r0, #0
  68:	d0d3      	beq.n	12 <_ZN11StdioStream5fopenEPKcS1_+0x12>
  6a:	2200      	movs	r2, #0
  6c:	f104 0340 	add.w	r3, r4, #64	; 0x40
  70:	f8a4 2088 	strh.w	r2, [r4, #136]	; 0x88
  74:	f8c4 3084 	str.w	r3, [r4, #132]	; 0x84
  78:	bd38      	pop	{r3, r4, r5, pc}
  7a:	f440 6000 	orr.w	r0, r0, #2048	; 0x800
  7e:	e7e3      	b.n	48 <_ZN11StdioStream5fopenEPKcS1_+0x48>
  80:	2302      	movs	r3, #2
  82:	f04f 0c01 	mov.w	ip, #1
  86:	f44f 7002 	mov.w	r0, #520	; 0x208
  8a:	e7cc      	b.n	26 <_ZN11StdioStream5fopenEPKcS1_+0x26>
  8c:	f04f 0c00 	mov.w	ip, #0
  90:	2301      	movs	r3, #1
  92:	4660      	mov	r0, ip
  94:	e7c7      	b.n	26 <_ZN11StdioStream5fopenEPKcS1_+0x26>
  96:	bf00      	nop
  98:	00000000 	.word	0x00000000

Disassembly of section .text._ZN11StdioStream5ftellEv:

00000000 <_ZN11StdioStream5ftellEv>:
   0:	6b83      	ldr	r3, [r0, #56]	; 0x38
   2:	b1ab      	cbz	r3, 30 <_ZN11StdioStream5ftellEv+0x30>
   4:	695b      	ldr	r3, [r3, #20]
   6:	f890 2080 	ldrb.w	r2, [r0, #128]	; 0x80
   a:	07d1      	lsls	r1, r2, #31
   c:	d506      	bpl.n	1c <_ZN11StdioStream5ftellEv+0x1c>
   e:	f890 2088 	ldrb.w	r2, [r0, #136]	; 0x88
  12:	429a      	cmp	r2, r3
  14:	d811      	bhi.n	3a <_ZN11StdioStream5ftellEv+0x3a>
  16:	1a9b      	subs	r3, r3, r2
  18:	4618      	mov	r0, r3
  1a:	4770      	bx	lr
  1c:	0792      	lsls	r2, r2, #30
  1e:	d5fb      	bpl.n	18 <_ZN11StdioStream5ftellEv+0x18>
  20:	f100 0140 	add.w	r1, r0, #64	; 0x40
  24:	f8d0 2084 	ldr.w	r2, [r0, #132]	; 0x84
  28:	1a52      	subs	r2, r2, r1
  2a:	4413      	add	r3, r2
  2c:	4618      	mov	r0, r3
  2e:	4770      	bx	lr
  30:	6bc3      	ldr	r3, [r0, #60]	; 0x3c
  32:	2b00      	cmp	r3, #0
  34:	d0e7      	beq.n	6 <_ZN11StdioStream5ftellEv+0x6>
  36:	681b      	ldr	r3, [r3, #0]
  38:	e7e5      	b.n	6 <_ZN11StdioStream5ftellEv+0x6>
  3a:	f04f 30ff 	mov.w	r0, #4294967295	; 0xffffffff
  3e:	4770      	bx	lr

Disassembly of section .text._ZN11StdioStream6ungetcEi:

00000000 <_ZN11StdioStream6ungetcEi>:
   0:	1c4b      	adds	r3, r1, #1
   2:	d01a      	beq.n	3a <_ZN11StdioStream6ungetcEi+0x3a>
   4:	f890 3080 	ldrb.w	r3, [r0, #128]	; 0x80
   8:	07da      	lsls	r2, r3, #31
   a:	d516      	bpl.n	3a <_ZN11StdioStream6ungetcEi+0x3a>
   c:	f8d0 2084 	ldr.w	r2, [r0, #132]	; 0x84
  10:	f100 0c40 	add.w	ip, r0, #64	; 0x40
  14:	4562      	cmp	r2, ip
  16:	d010      	beq.n	3a <_ZN11StdioStream6ungetcEi+0x3a>
  18:	f890 c088 	ldrb.w	ip, [r0, #136]	; 0x88
  1c:	f023 0310 	bic.w	r3, r3, #16
  20:	f10c 0c01 	add.w	ip, ip, #1
  24:	f880 3080 	strb.w	r3, [r0, #128]	; 0x80
  28:	1e53      	subs	r3, r2, #1
  2a:	f880 c088 	strb.w	ip, [r0, #136]	; 0x88
  2e:	f8c0 3084 	str.w	r3, [r0, #132]	; 0x84
  32:	b2c8      	uxtb	r0, r1
  34:	f802 1c01 	strb.w	r1, [r2, #-1]
  38:	4770      	bx	lr
  3a:	f04f 30ff 	mov.w	r0, #4294967295	; 0xffffffff
  3e:	4770      	bx	lr

Disassembly of section .text._ZN11StdioStream8flushBufEv:

00000000 <_ZN11StdioStream8flushBufEv>:
   0:	b538      	push	{r3, r4, r5, lr}
   2:	f890 3080 	ldrb.w	r3, [r0, #128]	; 0x80
   6:	4604      	mov	r4, r0
   8:	079a      	lsls	r2, r3, #30
   a:	d417      	bmi.n	3c <_ZN11StdioStream8flushBufEv+0x3c>
   c:	f013 0004 	ands.w	r0, r3, #4
  10:	d104      	bne.n	1c <_ZN11StdioStream8flushBufEv+0x1c>
  12:	f043 0320 	orr.w	r3, r3, #32
  16:	f884 3080 	strb.w	r3, [r4, #128]	; 0x80
  1a:	bd38      	pop	{r3, r4, r5, pc}
  1c:	f023 0301 	bic.w	r3, r3, #1
  20:	f44f 4180 	mov.w	r1, #16384	; 0x4000
  24:	f104 0240 	add.w	r2, r4, #64	; 0x40
  28:	2001      	movs	r0, #1
  2a:	f043 0302 	orr.w	r3, r3, #2
  2e:	f8a4 1088 	strh.w	r1, [r4, #136]	; 0x88
  32:	f8c4 2084 	str.w	r2, [r4, #132]	; 0x84
  36:	f884 3080 	strb.w	r3, [r4, #128]	; 0x80
  3a:	bd38      	pop	{r3, r4, r5, pc}
  3c:	f8d0 5084 	ldr.w	r5, [r0, #132]	; 0x84
  40:	f100 0140 	add.w	r1, r0, #64	; 0x40
  44:	2340      	movs	r3, #64	; 0x40
  46:	6b80      	ldr	r0, [r0, #56]	; 0x38
  48:	1a6d      	subs	r5, r5, r1
  4a:	f8c4 1084 	str.w	r1, [r4, #132]	; 0x84
  4e:	f884 3089 	strb.w	r3, [r4, #137]	; 0x89
  52:	b2ed      	uxtb	r5, r5
  54:	b160      	cbz	r0, 70 <_ZN11StdioStream8flushBufEv+0x70>
  56:	462a      	mov	r2, r5
  58:	f7ff fffe 	bl	0 <_ZN7FatFile5writeEPKvj>
  5c:	4285      	cmp	r5, r0
  5e:	d00e      	beq.n	7e <_ZN11StdioStream8flushBufEv+0x7e>
  60:	f894 3080 	ldrb.w	r3, [r4, #128]	; 0x80
  64:	2000      	movs	r0, #0
  66:	f043 0320 	orr.w	r3, r3, #32
  6a:	f884 3080 	strb.w	r3, [r4, #128]	; 0x80
  6e:	e7d4      	b.n	1a <_ZN11StdioStream8flushBufEv+0x1a>
  70:	6be0      	ldr	r0, [r4, #60]	; 0x3c
  72:	2800      	cmp	r0, #0
  74:	d0f2      	beq.n	5c <_ZN11StdioStream8flushBufEv+0x5c>
  76:	462a      	mov	r2, r5
  78:	f7ff fffe 	bl	0 <_ZN9ExFatFile5writeEPKvj>
  7c:	e7ee      	b.n	5c <_ZN11StdioStream8flushBufEv+0x5c>
  7e:	2001      	movs	r0, #1
  80:	bd38      	pop	{r3, r4, r5, pc}
  82:	bf00      	nop

Disassembly of section .text._ZN11StdioStream6fcloseEv:

00000000 <_ZN11StdioStream6fcloseEv>:
   0:	b538      	push	{r3, r4, r5, lr}
   2:	f890 4080 	ldrb.w	r4, [r0, #128]	; 0x80
   6:	b1ac      	cbz	r4, 34 <_ZN11StdioStream6fcloseEv+0x34>
   8:	f014 0402 	ands.w	r4, r4, #2
   c:	4605      	mov	r5, r0
   e:	d10d      	bne.n	2c <_ZN11StdioStream6fcloseEv+0x2c>
  10:	4628      	mov	r0, r5
  12:	f7ff fffe 	bl	0 <_ZN10FsBaseFile5closeEv>
  16:	2300      	movs	r3, #0
  18:	4298      	cmp	r0, r3
  1a:	f8a5 3088 	strh.w	r3, [r5, #136]	; 0x88
  1e:	f885 3080 	strb.w	r3, [r5, #128]	; 0x80
  22:	bf08      	it	eq
  24:	f04f 34ff 	moveq.w	r4, #4294967295	; 0xffffffff
  28:	4620      	mov	r0, r4
  2a:	bd38      	pop	{r3, r4, r5, pc}
  2c:	f7ff fffe 	bl	0 <_ZN11StdioStream6fcloseEv>
  30:	1e44      	subs	r4, r0, #1
  32:	e7ed      	b.n	10 <_ZN11StdioStream6fcloseEv+0x10>
  34:	f04f 34ff 	mov.w	r4, #4294967295	; 0xffffffff
  38:	e7f6      	b.n	28 <_ZN11StdioStream6fcloseEv+0x28>
  3a:	bf00      	nop

Disassembly of section .text._ZN11StdioStream6fflushEv:

00000000 <_ZN11StdioStream6fflushEv>:
   0:	f890 3080 	ldrb.w	r3, [r0, #128]	; 0x80
   4:	f013 0f06 	tst.w	r3, #6
   8:	d015      	beq.n	36 <_ZN11StdioStream6fflushEv+0x36>
   a:	07db      	lsls	r3, r3, #31
   c:	d413      	bmi.n	36 <_ZN11StdioStream6fflushEv+0x36>
   e:	b510      	push	{r4, lr}
  10:	4604      	mov	r4, r0
  12:	f7ff fffe 	bl	0 <_ZN11StdioStream6fflushEv>
  16:	b158      	cbz	r0, 30 <_ZN11StdioStream6fflushEv+0x30>
  18:	6ba0      	ldr	r0, [r4, #56]	; 0x38
  1a:	b118      	cbz	r0, 24 <_ZN11StdioStream6fflushEv+0x24>
  1c:	f7ff fffe 	bl	0 <_ZN7FatFile4syncEv>
  20:	3801      	subs	r0, #1
  22:	bd10      	pop	{r4, pc}
  24:	6be0      	ldr	r0, [r4, #60]	; 0x3c
  26:	b118      	cbz	r0, 30 <_ZN11StdioStream6fflushEv+0x30>
  28:	f7ff fffe 	bl	0 <_ZN9ExFatFile4syncEv>
  2c:	3801      	subs	r0, #1
  2e:	bd10      	pop	{r4, pc}
  30:	f04f 30ff 	mov.w	r0, #4294967295	; 0xffffffff
  34:	bd10      	pop	{r4, pc}
  36:	f04f 30ff 	mov.w	r0, #4294967295	; 0xffffffff
  3a:	4770      	bx	lr

Disassembly of section .text._ZN11StdioStream5fseekEli:

00000000 <_ZN11StdioStream5fseekEli>:
   0:	b570      	push	{r4, r5, r6, lr}
   2:	f890 3080 	ldrb.w	r3, [r0, #128]	; 0x80
   6:	4604      	mov	r4, r0
   8:	460e      	mov	r6, r1
   a:	4615      	mov	r5, r2
   c:	079b      	lsls	r3, r3, #30
   e:	d407      	bmi.n	20 <_ZN11StdioStream5fseekEli+0x20>
  10:	2d01      	cmp	r5, #1
  12:	d00b      	beq.n	2c <_ZN11StdioStream5fseekEli+0x2c>
  14:	2d02      	cmp	r5, #2
  16:	d024      	beq.n	62 <_ZN11StdioStream5fseekEli+0x62>
  18:	b1cd      	cbz	r5, 4e <_ZN11StdioStream5fseekEli+0x4e>
  1a:	f04f 30ff 	mov.w	r0, #4294967295	; 0xffffffff
  1e:	bd70      	pop	{r4, r5, r6, pc}
  20:	f7ff fffe 	bl	0 <_ZN11StdioStream5fseekEli>
  24:	2800      	cmp	r0, #0
  26:	d0f8      	beq.n	1a <_ZN11StdioStream5fseekEli+0x1a>
  28:	2d01      	cmp	r5, #1
  2a:	d1f3      	bne.n	14 <_ZN11StdioStream5fseekEli+0x14>
  2c:	4620      	mov	r0, r4
  2e:	f7ff fffe 	bl	0 <_ZN11StdioStream5fseekEli>
  32:	1e03      	subs	r3, r0, #0
  34:	dbf1      	blt.n	1a <_ZN11StdioStream5fseekEli+0x1a>
  36:	6ba0      	ldr	r0, [r4, #56]	; 0x38
  38:	4433      	add	r3, r6
  3a:	2800      	cmp	r0, #0
  3c:	d03d      	beq.n	ba <_ZN11StdioStream5fseekEli+0xba>
  3e:	6941      	ldr	r1, [r0, #20]
  40:	17da      	asrs	r2, r3, #31
  42:	18c9      	adds	r1, r1, r3
  44:	f142 0200 	adc.w	r2, r2, #0
  48:	2a00      	cmp	r2, #0
  4a:	d1e6      	bne.n	1a <_ZN11StdioStream5fseekEli+0x1a>
  4c:	e012      	b.n	74 <_ZN11StdioStream5fseekEli+0x74>
  4e:	6ba0      	ldr	r0, [r4, #56]	; 0x38
  50:	17f3      	asrs	r3, r6, #31
  52:	b348      	cbz	r0, a8 <_ZN11StdioStream5fseekEli+0xa8>
  54:	f04f 32ff 	mov.w	r2, #4294967295	; 0xffffffff
  58:	42b2      	cmp	r2, r6
  5a:	419d      	sbcs	r5, r3
  5c:	d3dd      	bcc.n	1a <_ZN11StdioStream5fseekEli+0x1a>
  5e:	4631      	mov	r1, r6
  60:	e008      	b.n	74 <_ZN11StdioStream5fseekEli+0x74>
  62:	6ba0      	ldr	r0, [r4, #56]	; 0x38
  64:	b198      	cbz	r0, 8e <_ZN11StdioStream5fseekEli+0x8e>
  66:	69c1      	ldr	r1, [r0, #28]
  68:	17f3      	asrs	r3, r6, #31
  6a:	1989      	adds	r1, r1, r6
  6c:	f143 0300 	adc.w	r3, r3, #0
  70:	2b00      	cmp	r3, #0
  72:	d1d2      	bne.n	1a <_ZN11StdioStream5fseekEli+0x1a>
  74:	f7ff fffe 	bl	0 <_ZN7FatFile7seekSetEm>
  78:	2800      	cmp	r0, #0
  7a:	d0ce      	beq.n	1a <_ZN11StdioStream5fseekEli+0x1a>
  7c:	2300      	movs	r3, #0
  7e:	f104 0240 	add.w	r2, r4, #64	; 0x40
  82:	4618      	mov	r0, r3
  84:	f884 3088 	strb.w	r3, [r4, #136]	; 0x88
  88:	f8c4 2084 	str.w	r2, [r4, #132]	; 0x84
  8c:	bd70      	pop	{r4, r5, r6, pc}
  8e:	6be0      	ldr	r0, [r4, #60]	; 0x3c
  90:	2800      	cmp	r0, #0
  92:	d0c2      	beq.n	1a <_ZN11StdioStream5fseekEli+0x1a>
  94:	e9d0 2304 	ldrd	r2, r3, [r0, #16]
  98:	18b2      	adds	r2, r6, r2
  9a:	eb43 73e6 	adc.w	r3, r3, r6, asr #31
  9e:	f7ff fffe 	bl	0 <_ZN9ExFatFile7seekSetEy>
  a2:	2800      	cmp	r0, #0
  a4:	d1ea      	bne.n	7c <_ZN11StdioStream5fseekEli+0x7c>
  a6:	e7b8      	b.n	1a <_ZN11StdioStream5fseekEli+0x1a>
  a8:	6be0      	ldr	r0, [r4, #60]	; 0x3c
  aa:	2800      	cmp	r0, #0
  ac:	d0b5      	beq.n	1a <_ZN11StdioStream5fseekEli+0x1a>
  ae:	4632      	mov	r2, r6
  b0:	f7ff fffe 	bl	0 <_ZN9ExFatFile7seekSetEy>
  b4:	2800      	cmp	r0, #0
  b6:	d1e1      	bne.n	7c <_ZN11StdioStream5fseekEli+0x7c>
  b8:	e7af      	b.n	1a <_ZN11StdioStream5fseekEli+0x1a>
  ba:	6be0      	ldr	r0, [r4, #60]	; 0x3c
  bc:	2800      	cmp	r0, #0
  be:	d0ac      	beq.n	1a <_ZN11StdioStream5fseekEli+0x1a>
  c0:	e9d0 2100 	ldrd	r2, r1, [r0]
  c4:	189a      	adds	r2, r3, r2
  c6:	eb41 73e3 	adc.w	r3, r1, r3, asr #31
  ca:	f7ff fffe 	bl	0 <_ZN9ExFatFile7seekSetEy>
  ce:	2800      	cmp	r0, #0
  d0:	d0a3      	beq.n	1a <_ZN11StdioStream5fseekEli+0x1a>
  d2:	e7d3      	b.n	7c <_ZN11StdioStream5fseekEli+0x7c>

Disassembly of section .text._ZN11StdioStream5writeEPKvj:

00000000 <_ZN11StdioStream5writeEPKvj>:
   0:	b5f8      	push	{r3, r4, r5, r6, r7, lr}
   2:	4617      	mov	r7, r2
   4:	4604      	mov	r4, r0
   6:	460d      	mov	r5, r1
   8:	4616      	mov	r6, r2
   a:	e011      	b.n	30 <_ZN11StdioStream5writeEPKvj+0x30>
   c:	f8d4 0084 	ldr.w	r0, [r4, #132]	; 0x84
  10:	f7ff fffe 	bl	0 <memcpy>
  14:	f894 c089 	ldrb.w	ip, [r4, #137]	; 0x89
  18:	f8d4 3084 	ldr.w	r3, [r4, #132]	; 0x84
  1c:	4620      	mov	r0, r4
  1e:	4465      	add	r5, ip
  20:	eba6 060c 	sub.w	r6, r6, ip
  24:	4463      	add	r3, ip
  26:	f8c4 3084 	str.w	r3, [r4, #132]	; 0x84
  2a:	f7ff fffe 	bl	0 <_ZN11StdioStream5writeEPKvj>
  2e:	b1a8      	cbz	r0, 5c <_ZN11StdioStream5writeEPKvj+0x5c>
  30:	f894 2089 	ldrb.w	r2, [r4, #137]	; 0x89
  34:	4629      	mov	r1, r5
  36:	42b2      	cmp	r2, r6
  38:	d3e8      	bcc.n	c <_ZN11StdioStream5writeEPKvj+0xc>
  3a:	4632      	mov	r2, r6
  3c:	f8d4 0084 	ldr.w	r0, [r4, #132]	; 0x84
  40:	f7ff fffe 	bl	0 <memcpy>
  44:	f8d4 2084 	ldr.w	r2, [r4, #132]	; 0x84
  48:	f894 3089 	ldrb.w	r3, [r4, #137]	; 0x89
  4c:	4638      	mov	r0, r7
  4e:	4432      	add	r2, r6
  50:	1b9b      	subs	r3, r3, r6
  52:	f8c4 2084 	str.w	r2, [r4, #132]	; 0x84
  56:	f884 3089 	strb.w	r3, [r4, #137]	; 0x89
  5a:	bdf8      	pop	{r3, r4, r5, r6, r7, pc}
  5c:	f04f 30ff 	mov.w	r0, #4294967295	; 0xffffffff
  60:	bdf8      	pop	{r3, r4, r5, r6, r7, pc}
  62:	bf00      	nop

Disassembly of section .text._ZN11StdioStream6fwriteEPKvjj:

00000000 <_ZN11StdioStream6fwriteEPKvjj>:
   0:	b510      	push	{r4, lr}
   2:	fb03 f202 	mul.w	r2, r3, r2
   6:	461c      	mov	r4, r3
   8:	f7ff fffe 	bl	0 <_ZN11StdioStream6fwriteEPKvjj>
   c:	2800      	cmp	r0, #0
   e:	bfac      	ite	ge
  10:	4620      	movge	r0, r4
  12:	f04f 30ff 	movlt.w	r0, #4294967295	; 0xffffffff
  16:	bd10      	pop	{r4, pc}

Disassembly of section .text._ZN11StdioStream5fputsEPKc:

00000000 <_ZN11StdioStream5fputsEPKc>:
   0:	b530      	push	{r4, r5, lr}
   2:	b083      	sub	sp, #12
   4:	4605      	mov	r5, r0
   6:	4608      	mov	r0, r1
   8:	9101      	str	r1, [sp, #4]
   a:	f7ff fffe 	bl	0 <strlen>
   e:	4604      	mov	r4, r0
  10:	9901      	ldr	r1, [sp, #4]
  12:	4628      	mov	r0, r5
  14:	4622      	mov	r2, r4
  16:	f7ff fffe 	bl	0 <_ZN11StdioStream5fputsEPKc>
  1a:	2800      	cmp	r0, #0
  1c:	bfac      	ite	ge
  1e:	4620      	movge	r0, r4
  20:	f04f 30ff 	movlt.w	r0, #4294967295	; 0xffffffff
  24:	b003      	add	sp, #12
  26:	bd30      	pop	{r4, r5, pc}

Disassembly of section .text._ZN11StdioStream8printDecEfh:

00000000 <_ZN11StdioStream8printDecEfh>:
   0:	b510      	push	{r4, lr}
   2:	b086      	sub	sp, #24
   4:	eeb7 0ac0 	vcvt.f64.f32	d0, s0
   8:	4604      	mov	r4, r0
   a:	2200      	movs	r2, #0
   c:	a806      	add	r0, sp, #24
   e:	f7ff fffe 	bl	0 <_Z9fmtDoublePcdhb>
  12:	ab06      	add	r3, sp, #24
  14:	4601      	mov	r1, r0
  16:	4620      	mov	r0, r4
  18:	1a5a      	subs	r2, r3, r1
  1a:	f7ff fffe 	bl	0 <_ZN11StdioStream8printDecEfh>
  1e:	b006      	add	sp, #24
  20:	bd10      	pop	{r4, pc}
  22:	bf00      	nop

Disassembly of section .text._ZN11StdioStream8printDecEt:

00000000 <_ZN11StdioStream8printDecEt>:
   0:	b530      	push	{r4, r5, lr}
   2:	b083      	sub	sp, #12
   4:	4605      	mov	r5, r0
   6:	f10d 0405 	add.w	r4, sp, #5
   a:	4620      	mov	r0, r4
   c:	f7ff fffe 	bl	0 <_Z9fmtBase10Pct>
  10:	4601      	mov	r1, r0
  12:	4628      	mov	r0, r5
  14:	1a62      	subs	r2, r4, r1
  16:	b2d2      	uxtb	r2, r2
  18:	f7ff fffe 	bl	0 <_ZN11StdioStream8printDecEt>
  1c:	b003      	add	sp, #12
  1e:	bd30      	pop	{r4, r5, pc}

Disassembly of section .text._ZN11StdioStream8printDecEm:

00000000 <_ZN11StdioStream8printDecEm>:
   0:	b530      	push	{r4, r5, lr}
   2:	b085      	sub	sp, #20
   4:	4605      	mov	r5, r0
   6:	f10d 040e 	add.w	r4, sp, #14
   a:	4620      	mov	r0, r4
   c:	f7ff fffe 	bl	0 <_Z9fmtBase10Pcm>
  10:	4601      	mov	r1, r0
  12:	4628      	mov	r0, r5
  14:	1a62      	subs	r2, r4, r1
  16:	b2d2      	uxtb	r2, r2
  18:	f7ff fffe 	bl	0 <_ZN11StdioStream8printDecEm>
  1c:	b005      	add	sp, #20
  1e:	bd30      	pop	{r4, r5, pc}

Disassembly of section .text._ZN11StdioStream8printHexEm:

00000000 <_ZN11StdioStream8printHexEm>:
   0:	b510      	push	{r4, lr}
   2:	b082      	sub	sp, #8
   4:	4604      	mov	r4, r0
   6:	a802      	add	r0, sp, #8
   8:	f7ff fffe 	bl	0 <_Z6fmtHexPcm>
   c:	ab02      	add	r3, sp, #8
   e:	4601      	mov	r1, r0
  10:	4620      	mov	r0, r4
  12:	1a5a      	subs	r2, r3, r1
  14:	b2d2      	uxtb	r2, r2
  16:	f7ff fffe 	bl	0 <_ZN11StdioStream8printHexEm>
  1a:	b002      	add	sp, #8
  1c:	bd10      	pop	{r4, pc}
  1e:	bf00      	nop

Disassembly of section .text._ZN11StdioStream6rewindEv:

00000000 <_ZN11StdioStream6rewindEv>:
   0:	b510      	push	{r4, lr}
   2:	f890 3080 	ldrb.w	r3, [r0, #128]	; 0x80
   6:	4604      	mov	r4, r0
   8:	079b      	lsls	r3, r3, #30
   a:	d502      	bpl.n	12 <_ZN11StdioStream6rewindEv+0x12>
   c:	f7ff fffe 	bl	0 <_ZN11StdioStream6rewindEv>
  10:	b140      	cbz	r0, 24 <_ZN11StdioStream6rewindEv+0x24>
  12:	6ba0      	ldr	r0, [r4, #56]	; 0x38
  14:	b138      	cbz	r0, 26 <_ZN11StdioStream6rewindEv+0x26>
  16:	2100      	movs	r1, #0
  18:	f7ff fffe 	bl	0 <_ZN7FatFile7seekSetEm>
  1c:	2300      	movs	r3, #0
  1e:	2001      	movs	r0, #1
  20:	f884 3088 	strb.w	r3, [r4, #136]	; 0x88
  24:	bd10      	pop	{r4, pc}
  26:	6be0      	ldr	r0, [r4, #60]	; 0x3c
  28:	2800      	cmp	r0, #0
  2a:	d0f7      	beq.n	1c <_ZN11StdioStream6rewindEv+0x1c>
  2c:	2200      	movs	r2, #0
  2e:	2300      	movs	r3, #0
  30:	f7ff fffe 	bl	0 <_ZN9ExFatFile7seekSetEy>
  34:	e7f2      	b.n	1c <_ZN11StdioStream6rewindEv+0x1c>
  36:	bf00      	nop

Disassembly of section .text._ZN11StdioStream7fillBufEv:

00000000 <_ZN11StdioStream7fillBufEv>:
   0:	b538      	push	{r3, r4, r5, lr}
   2:	f890 3080 	ldrb.w	r3, [r0, #128]	; 0x80
   6:	4604      	mov	r4, r0
   8:	f013 0501 	ands.w	r5, r3, #1
   c:	d104      	bne.n	18 <_ZN11StdioStream7fillBufEv+0x18>
   e:	f013 0204 	ands.w	r2, r3, #4
  12:	d026      	beq.n	62 <_ZN11StdioStream7fillBufEv+0x62>
  14:	079b      	lsls	r3, r3, #30
  16:	d42a      	bmi.n	6e <_ZN11StdioStream7fillBufEv+0x6e>
  18:	f104 0142 	add.w	r1, r4, #66	; 0x42
  1c:	6ba0      	ldr	r0, [r4, #56]	; 0x38
  1e:	f8c4 1084 	str.w	r1, [r4, #132]	; 0x84
  22:	b148      	cbz	r0, 38 <_ZN11StdioStream7fillBufEv+0x38>
  24:	223e      	movs	r2, #62	; 0x3e
  26:	f7ff fffe 	bl	0 <_ZN7FatFile4readEPvj>
  2a:	4603      	mov	r3, r0
  2c:	2b00      	cmp	r3, #0
  2e:	dd0b      	ble.n	48 <_ZN11StdioStream7fillBufEv+0x48>
  30:	2001      	movs	r0, #1
  32:	f884 3088 	strb.w	r3, [r4, #136]	; 0x88
  36:	bd38      	pop	{r3, r4, r5, pc}
  38:	6be0      	ldr	r0, [r4, #60]	; 0x3c
  3a:	b338      	cbz	r0, 8c <_ZN11StdioStream7fillBufEv+0x8c>
  3c:	223e      	movs	r2, #62	; 0x3e
  3e:	f7ff fffe 	bl	0 <_ZN9ExFatFile4readEPvj>
  42:	4603      	mov	r3, r0
  44:	2b00      	cmp	r3, #0
  46:	dcf3      	bgt.n	30 <_ZN11StdioStream7fillBufEv+0x30>
  48:	f894 1080 	ldrb.w	r1, [r4, #128]	; 0x80
  4c:	bf0c      	ite	eq
  4e:	2310      	moveq	r3, #16
  50:	2320      	movne	r3, #32
  52:	2200      	movs	r2, #0
  54:	430b      	orrs	r3, r1
  56:	4610      	mov	r0, r2
  58:	f884 3080 	strb.w	r3, [r4, #128]	; 0x80
  5c:	f884 2088 	strb.w	r2, [r4, #136]	; 0x88
  60:	bd38      	pop	{r3, r4, r5, pc}
  62:	f043 0320 	orr.w	r3, r3, #32
  66:	4610      	mov	r0, r2
  68:	f884 3080 	strb.w	r3, [r4, #128]	; 0x80
  6c:	bd38      	pop	{r3, r4, r5, pc}
  6e:	f7ff fffe 	bl	0 <_ZN11StdioStream7fillBufEv>
  72:	2800      	cmp	r0, #0
  74:	d0df      	beq.n	36 <_ZN11StdioStream7fillBufEv+0x36>
  76:	f894 3080 	ldrb.w	r3, [r4, #128]	; 0x80
  7a:	f884 5089 	strb.w	r5, [r4, #137]	; 0x89
  7e:	f023 0302 	bic.w	r3, r3, #2
  82:	f043 0301 	orr.w	r3, r3, #1
  86:	f884 3080 	strb.w	r3, [r4, #128]	; 0x80
  8a:	e7c5      	b.n	18 <_ZN11StdioStream7fillBufEv+0x18>
  8c:	f894 1080 	ldrb.w	r1, [r4, #128]	; 0x80
  90:	2320      	movs	r3, #32
  92:	e7de      	b.n	52 <_ZN11StdioStream7fillBufEv+0x52>

Disassembly of section .text._ZN11StdioStream5fgetsEPcjPj:

00000000 <_ZN11StdioStream5fgetsEPcjPj>:
   0:	e92d 4ff8 	stmdb	sp!, {r3, r4, r5, r6, r7, r8, r9, sl, fp, lr}
   4:	2a00      	cmp	r2, #0
   6:	d04f      	beq.n	a8 <_ZN11StdioStream5fgetsEPcjPj+0xa8>
   8:	1e54      	subs	r4, r2, #1
   a:	460e      	mov	r6, r1
   c:	469b      	mov	fp, r3
   e:	2c00      	cmp	r4, #0
  10:	d04e      	beq.n	b0 <_ZN11StdioStream5fgetsEPcjPj+0xb0>
  12:	4680      	mov	r8, r0
  14:	f890 2088 	ldrb.w	r2, [r0, #136]	; 0x88
  18:	460d      	mov	r5, r1
  1a:	b362      	cbz	r2, 76 <_ZN11StdioStream5fgetsEPcjPj+0x76>
  1c:	42a2      	cmp	r2, r4
  1e:	f8d8 7084 	ldr.w	r7, [r8, #132]	; 0x84
  22:	f04f 010a 	mov.w	r1, #10
  26:	bf28      	it	cs
  28:	4622      	movcs	r2, r4
  2a:	4638      	mov	r0, r7
  2c:	4691      	mov	r9, r2
  2e:	f7ff fffe 	bl	0 <memchr>
  32:	4603      	mov	r3, r0
  34:	4639      	mov	r1, r7
  36:	464a      	mov	r2, r9
  38:	4628      	mov	r0, r5
  3a:	bb1b      	cbnz	r3, 84 <_ZN11StdioStream5fgetsEPcjPj+0x84>
  3c:	f7ff fffe 	bl	0 <memcpy>
  40:	f898 2088 	ldrb.w	r2, [r8, #136]	; 0x88
  44:	f8d8 3084 	ldr.w	r3, [r8, #132]	; 0x84
  48:	ebb4 0409 	subs.w	r4, r4, r9
  4c:	eba2 0209 	sub.w	r2, r2, r9
  50:	444d      	add	r5, r9
  52:	444b      	add	r3, r9
  54:	b2d2      	uxtb	r2, r2
  56:	f8c8 3084 	str.w	r3, [r8, #132]	; 0x84
  5a:	f888 2088 	strb.w	r2, [r8, #136]	; 0x88
  5e:	d1dc      	bne.n	1a <_ZN11StdioStream5fgetsEPcjPj+0x1a>
  60:	2300      	movs	r3, #0
  62:	702b      	strb	r3, [r5, #0]
  64:	f1bb 0f00 	cmp.w	fp, #0
  68:	d002      	beq.n	70 <_ZN11StdioStream5fgetsEPcjPj+0x70>
  6a:	1bad      	subs	r5, r5, r6
  6c:	f8cb 5000 	str.w	r5, [fp]
  70:	4630      	mov	r0, r6
  72:	e8bd 8ff8 	ldmia.w	sp!, {r3, r4, r5, r6, r7, r8, r9, sl, fp, pc}
  76:	4640      	mov	r0, r8
  78:	f7ff fffe 	bl	0 <_ZN11StdioStream5fgetsEPcjPj>
  7c:	b190      	cbz	r0, a4 <_ZN11StdioStream5fgetsEPcjPj+0xa4>
  7e:	f898 2088 	ldrb.w	r2, [r8, #136]	; 0x88
  82:	e7cb      	b.n	1c <_ZN11StdioStream5fgetsEPcjPj+0x1c>
  84:	1c5c      	adds	r4, r3, #1
  86:	eba4 0a07 	sub.w	sl, r4, r7
  8a:	4652      	mov	r2, sl
  8c:	4455      	add	r5, sl
  8e:	f7ff fffe 	bl	0 <memcpy>
  92:	f898 3088 	ldrb.w	r3, [r8, #136]	; 0x88
  96:	f8c8 4084 	str.w	r4, [r8, #132]	; 0x84
  9a:	eba3 030a 	sub.w	r3, r3, sl
  9e:	f888 3088 	strb.w	r3, [r8, #136]	; 0x88
  a2:	e7dd      	b.n	60 <_ZN11StdioStream5fgetsEPcjPj+0x60>
  a4:	42ae      	cmp	r6, r5
  a6:	d1db      	bne.n	60 <_ZN11StdioStream5fgetsEPcjPj+0x60>
  a8:	2600      	movs	r6, #0
  aa:	4630      	mov	r0, r6
  ac:	e8bd 8ff8 	ldmia.w	sp!, {r3, r4, r5, r6, r7, r8, r9, sl, fp, pc}
  b0:	460d      	mov	r5, r1
  b2:	e7d5      	b.n	60 <_ZN11StdioStream5fgetsEPcjPj+0x60>

Disassembly of section .text._ZN11StdioStream5freadEPvjj:

00000000 <_ZN11StdioStream5freadEPvjj>:
   0:	e92d 4ff8 	stmdb	sp!, {r3, r4, r5, r6, r7, r8, r9, sl, fp, lr}
   4:	fb03 f902 	mul.w	r9, r3, r2
   8:	f1b9 0f00 	cmp.w	r9, #0
   c:	d02c      	beq.n	68 <_ZN11StdioStream5freadEPvjj+0x68>
   e:	4690      	mov	r8, r2
  10:	469a      	mov	sl, r3
  12:	4604      	mov	r4, r0
  14:	468b      	mov	fp, r1
  16:	464e      	mov	r6, r9
  18:	e011      	b.n	3e <_ZN11StdioStream5freadEPvjj+0x3e>
  1a:	f8d4 1084 	ldr.w	r1, [r4, #132]	; 0x84
  1e:	f7ff fffe 	bl	0 <memcpy>
  22:	f894 5088 	ldrb.w	r5, [r4, #136]	; 0x88
  26:	f8d4 3084 	ldr.w	r3, [r4, #132]	; 0x84
  2a:	4620      	mov	r0, r4
  2c:	1b77      	subs	r7, r6, r5
  2e:	44ab      	add	fp, r5
  30:	442b      	add	r3, r5
  32:	f8c4 3084 	str.w	r3, [r4, #132]	; 0x84
  36:	f7ff fffe 	bl	0 <_ZN11StdioStream5freadEPvjj>
  3a:	b1c0      	cbz	r0, 6e <_ZN11StdioStream5freadEPvjj+0x6e>
  3c:	463e      	mov	r6, r7
  3e:	f894 2088 	ldrb.w	r2, [r4, #136]	; 0x88
  42:	4658      	mov	r0, fp
  44:	42b2      	cmp	r2, r6
  46:	d3e8      	bcc.n	1a <_ZN11StdioStream5freadEPvjj+0x1a>
  48:	4632      	mov	r2, r6
  4a:	f8d4 1084 	ldr.w	r1, [r4, #132]	; 0x84
  4e:	f7ff fffe 	bl	0 <memcpy>
  52:	f894 2088 	ldrb.w	r2, [r4, #136]	; 0x88
  56:	f8d4 3084 	ldr.w	r3, [r4, #132]	; 0x84
  5a:	46d1      	mov	r9, sl
  5c:	1b92      	subs	r2, r2, r6
  5e:	4433      	add	r3, r6
  60:	f884 2088 	strb.w	r2, [r4, #136]	; 0x88
  64:	f8c4 3084 	str.w	r3, [r4, #132]	; 0x84
  68:	4648      	mov	r0, r9
  6a:	e8bd 8ff8 	ldmia.w	sp!, {r3, r4, r5, r6, r7, r8, r9, sl, fp, pc}
  6e:	444d      	add	r5, r9
  70:	1bad      	subs	r5, r5, r6
  72:	fbb5 f9f8 	udiv	r9, r5, r8
  76:	4648      	mov	r0, r9
  78:	e8bd 8ff8 	ldmia.w	sp!, {r3, r4, r5, r6, r7, r8, r9, sl, fp, pc}

Disassembly of section .text._ZN11StdioStream7fillGetEv:

00000000 <_ZN11StdioStream7fillGetEv>:
   0:	b510      	push	{r4, lr}
   2:	4604      	mov	r4, r0
   4:	f7ff fffe 	bl	0 <_ZN11StdioStream7fillGetEv>
   8:	b158      	cbz	r0, 22 <_ZN11StdioStream7fillGetEv+0x22>
   a:	f8d4 2084 	ldr.w	r2, [r4, #132]	; 0x84
   e:	f894 3088 	ldrb.w	r3, [r4, #136]	; 0x88
  12:	1c51      	adds	r1, r2, #1
  14:	3b01      	subs	r3, #1
  16:	f8c4 1084 	str.w	r1, [r4, #132]	; 0x84
  1a:	f884 3088 	strb.w	r3, [r4, #136]	; 0x88
  1e:	7810      	ldrb	r0, [r2, #0]
  20:	bd10      	pop	{r4, pc}
  22:	f04f 30ff 	mov.w	r0, #4294967295	; 0xffffffff
  26:	bd10      	pop	{r4, pc}

Disassembly of section .text._ZN11StdioStream5printEPK19__FlashStringHelper:

00000000 <_ZN11StdioStream5printEPK19__FlashStringHelper>:
   0:	b5f8      	push	{r3, r4, r5, r6, r7, lr}
   2:	780d      	ldrb	r5, [r1, #0]
   4:	b345      	cbz	r5, 58 <_ZN11StdioStream5printEPK19__FlashStringHelper+0x58>
   6:	460f      	mov	r7, r1
   8:	4604      	mov	r4, r0
   a:	460e      	mov	r6, r1
   c:	e008      	b.n	20 <_ZN11StdioStream5printEPK19__FlashStringHelper+0x20>
   e:	f8d4 3084 	ldr.w	r3, [r4, #132]	; 0x84
  12:	1c5a      	adds	r2, r3, #1
  14:	f8c4 2084 	str.w	r2, [r4, #132]	; 0x84
  18:	701d      	strb	r5, [r3, #0]
  1a:	f816 5f01 	ldrb.w	r5, [r6, #1]!
  1e:	b1cd      	cbz	r5, 54 <_ZN11StdioStream5printEPK19__FlashStringHelper+0x54>
  20:	f894 3089 	ldrb.w	r3, [r4, #137]	; 0x89
  24:	1e5a      	subs	r2, r3, #1
  26:	f884 2089 	strb.w	r2, [r4, #137]	; 0x89
  2a:	2b00      	cmp	r3, #0
  2c:	d1ef      	bne.n	e <_ZN11StdioStream5printEPK19__FlashStringHelper+0xe>
  2e:	4620      	mov	r0, r4
  30:	f7ff fffe 	bl	0 <_ZN11StdioStream5printEPK19__FlashStringHelper>
  34:	b178      	cbz	r0, 56 <_ZN11StdioStream5printEPK19__FlashStringHelper+0x56>
  36:	f894 3089 	ldrb.w	r3, [r4, #137]	; 0x89
  3a:	f8d4 2084 	ldr.w	r2, [r4, #132]	; 0x84
  3e:	3b01      	subs	r3, #1
  40:	1c51      	adds	r1, r2, #1
  42:	f884 3089 	strb.w	r3, [r4, #137]	; 0x89
  46:	f8c4 1084 	str.w	r1, [r4, #132]	; 0x84
  4a:	7015      	strb	r5, [r2, #0]
  4c:	f816 5f01 	ldrb.w	r5, [r6, #1]!
  50:	2d00      	cmp	r5, #0
  52:	d1e5      	bne.n	20 <_ZN11StdioStream5printEPK19__FlashStringHelper+0x20>
  54:	1bf0      	subs	r0, r6, r7
  56:	bdf8      	pop	{r3, r4, r5, r6, r7, pc}
  58:	4628      	mov	r0, r5
  5a:	bdf8      	pop	{r3, r4, r5, r6, r7, pc}

Disassembly of section .text._ZN11StdioStream8printDecEa:

00000000 <_ZN11StdioStream8printDecEa>:
   0:	b530      	push	{r4, r5, lr}
   2:	1e0c      	subs	r4, r1, #0
   4:	b083      	sub	sp, #12
   6:	4605      	mov	r5, r0
   8:	db0d      	blt.n	26 <_ZN11StdioStream8printDecEa+0x26>
   a:	b2e1      	uxtb	r1, r4
   c:	f10d 0405 	add.w	r4, sp, #5
  10:	4620      	mov	r0, r4
  12:	f7ff fffe 	bl	0 <_Z9fmtBase10Pct>
  16:	4601      	mov	r1, r0
  18:	4628      	mov	r0, r5
  1a:	1a62      	subs	r2, r4, r1
  1c:	b2d2      	uxtb	r2, r2
  1e:	f7ff fffe 	bl	0 <_ZN11StdioStream8printDecEa>
  22:	b003      	add	sp, #12
  24:	bd30      	pop	{r4, r5, pc}
  26:	f890 3089 	ldrb.w	r3, [r0, #137]	; 0x89
  2a:	1e5a      	subs	r2, r3, #1
  2c:	f880 2089 	strb.w	r2, [r0, #137]	; 0x89
  30:	b14b      	cbz	r3, 46 <_ZN11StdioStream8printDecEa+0x46>
  32:	f8d0 3084 	ldr.w	r3, [r0, #132]	; 0x84
  36:	222d      	movs	r2, #45	; 0x2d
  38:	1c59      	adds	r1, r3, #1
  3a:	f8c0 1084 	str.w	r1, [r0, #132]	; 0x84
  3e:	701a      	strb	r2, [r3, #0]
  40:	4261      	negs	r1, r4
  42:	b2c9      	uxtb	r1, r1
  44:	e7e2      	b.n	c <_ZN11StdioStream8printDecEa+0xc>
  46:	f7ff fffe 	bl	0 <_ZN11StdioStream8printDecEa>
  4a:	b160      	cbz	r0, 66 <_ZN11StdioStream8printDecEa+0x66>
  4c:	f895 3089 	ldrb.w	r3, [r5, #137]	; 0x89
  50:	f8d5 2084 	ldr.w	r2, [r5, #132]	; 0x84
  54:	3b01      	subs	r3, #1
  56:	1c51      	adds	r1, r2, #1
  58:	f885 3089 	strb.w	r3, [r5, #137]	; 0x89
  5c:	232d      	movs	r3, #45	; 0x2d
  5e:	f8c5 1084 	str.w	r1, [r5, #132]	; 0x84
  62:	7013      	strb	r3, [r2, #0]
  64:	e7ec      	b.n	40 <_ZN11StdioStream8printDecEa+0x40>
  66:	f04f 30ff 	mov.w	r0, #4294967295	; 0xffffffff
  6a:	e7da      	b.n	22 <_ZN11StdioStream8printDecEa+0x22>

Disassembly of section .text._ZN11StdioStream8printDecEs:

00000000 <_ZN11StdioStream8printDecEs>:
   0:	b570      	push	{r4, r5, r6, lr}
   2:	1e0c      	subs	r4, r1, #0
   4:	b082      	sub	sp, #8
   6:	4606      	mov	r6, r0
   8:	db12      	blt.n	30 <_ZN11StdioStream8printDecEs+0x30>
   a:	b2a1      	uxth	r1, r4
   c:	2500      	movs	r5, #0
   e:	f10d 0405 	add.w	r4, sp, #5
  12:	4620      	mov	r0, r4
  14:	f7ff fffe 	bl	0 <_Z9fmtBase10Pct>
  18:	4601      	mov	r1, r0
  1a:	4630      	mov	r0, r6
  1c:	1a62      	subs	r2, r4, r1
  1e:	b2d2      	uxtb	r2, r2
  20:	f7ff fffe 	bl	0 <_ZN11StdioStream8printDecEs>
  24:	ea10 0020 	ands.w	r0, r0, r0, asr #32
  28:	bf38      	it	cc
  2a:	4628      	movcc	r0, r5
  2c:	b002      	add	sp, #8
  2e:	bd70      	pop	{r4, r5, r6, pc}
  30:	f890 3089 	ldrb.w	r3, [r0, #137]	; 0x89
  34:	1e5a      	subs	r2, r3, #1
  36:	f880 2089 	strb.w	r2, [r0, #137]	; 0x89
  3a:	b153      	cbz	r3, 52 <_ZN11StdioStream8printDecEs+0x52>
  3c:	f8d0 3084 	ldr.w	r3, [r0, #132]	; 0x84
  40:	222d      	movs	r2, #45	; 0x2d
  42:	1c59      	adds	r1, r3, #1
  44:	f8c0 1084 	str.w	r1, [r0, #132]	; 0x84
  48:	701a      	strb	r2, [r3, #0]
  4a:	4261      	negs	r1, r4
  4c:	2501      	movs	r5, #1
  4e:	b289      	uxth	r1, r1
  50:	e7dd      	b.n	e <_ZN11StdioStream8printDecEs+0xe>
  52:	f7ff fffe 	bl	0 <_ZN11StdioStream8printDecEs>
  56:	b160      	cbz	r0, 72 <_ZN11StdioStream8printDecEs+0x72>
  58:	f896 3089 	ldrb.w	r3, [r6, #137]	; 0x89
  5c:	f8d6 2084 	ldr.w	r2, [r6, #132]	; 0x84
  60:	3b01      	subs	r3, #1
  62:	1c51      	adds	r1, r2, #1
  64:	f886 3089 	strb.w	r3, [r6, #137]	; 0x89
  68:	232d      	movs	r3, #45	; 0x2d
  6a:	f8c6 1084 	str.w	r1, [r6, #132]	; 0x84
  6e:	7013      	strb	r3, [r2, #0]
  70:	e7eb      	b.n	4a <_ZN11StdioStream8printDecEs+0x4a>
  72:	f04f 30ff 	mov.w	r0, #4294967295	; 0xffffffff
  76:	e7d9      	b.n	2c <_ZN11StdioStream8printDecEs+0x2c>

Disassembly of section .text._ZN11StdioStream8printDecEl:

00000000 <_ZN11StdioStream8printDecEl>:
   0:	2900      	cmp	r1, #0
   2:	b570      	push	{r4, r5, r6, lr}
   4:	4604      	mov	r4, r0
   6:	b086      	sub	sp, #24
   8:	db10      	blt.n	2c <_ZN11StdioStream8printDecEl+0x2c>
   a:	2600      	movs	r6, #0
   c:	f10d 0516 	add.w	r5, sp, #22
  10:	4628      	mov	r0, r5
  12:	f7ff fffe 	bl	0 <_Z9fmtBase10Pcm>
  16:	4601      	mov	r1, r0
  18:	4620      	mov	r0, r4
  1a:	1a6a      	subs	r2, r5, r1
  1c:	b2d2      	uxtb	r2, r2
  1e:	f7ff fffe 	bl	0 <_ZN11StdioStream8printDecEl>
  22:	2800      	cmp	r0, #0
  24:	dd24      	ble.n	70 <_ZN11StdioStream8printDecEl+0x70>
  26:	4430      	add	r0, r6
  28:	b006      	add	sp, #24
  2a:	bd70      	pop	{r4, r5, r6, pc}
  2c:	f890 3089 	ldrb.w	r3, [r0, #137]	; 0x89
  30:	1e5a      	subs	r2, r3, #1
  32:	f880 2089 	strb.w	r2, [r0, #137]	; 0x89
  36:	b14b      	cbz	r3, 4c <_ZN11StdioStream8printDecEl+0x4c>
  38:	f8d0 3084 	ldr.w	r3, [r0, #132]	; 0x84
  3c:	222d      	movs	r2, #45	; 0x2d
  3e:	1c58      	adds	r0, r3, #1
  40:	f8c4 0084 	str.w	r0, [r4, #132]	; 0x84
  44:	701a      	strb	r2, [r3, #0]
  46:	4249      	negs	r1, r1
  48:	2601      	movs	r6, #1
  4a:	e7df      	b.n	c <_ZN11StdioStream8printDecEl+0xc>
  4c:	9101      	str	r1, [sp, #4]
  4e:	f7ff fffe 	bl	0 <_ZN11StdioStream8printDecEl>
  52:	9901      	ldr	r1, [sp, #4]
  54:	b160      	cbz	r0, 70 <_ZN11StdioStream8printDecEl+0x70>
  56:	f894 3089 	ldrb.w	r3, [r4, #137]	; 0x89
  5a:	f8d4 2084 	ldr.w	r2, [r4, #132]	; 0x84
  5e:	3b01      	subs	r3, #1
  60:	1c50      	adds	r0, r2, #1
  62:	f884 3089 	strb.w	r3, [r4, #137]	; 0x89
  66:	232d      	movs	r3, #45	; 0x2d
  68:	f8c4 0084 	str.w	r0, [r4, #132]	; 0x84
  6c:	7013      	strb	r3, [r2, #0]
  6e:	e7ea      	b.n	46 <_ZN11StdioStream8printDecEl+0x46>
  70:	f04f 30ff 	mov.w	r0, #4294967295	; 0xffffffff
  74:	e7d8      	b.n	28 <_ZN11StdioStream8printDecEl+0x28>
  76:	bf00      	nop

Disassembly of section .text._ZN11StdioStream8flushPutEh:

00000000 <_ZN11StdioStream8flushPutEh>:
   0:	b538      	push	{r3, r4, r5, lr}
   2:	4604      	mov	r4, r0
   4:	460d      	mov	r5, r1
   6:	f7ff fffe 	bl	0 <_ZN11StdioStream8flushPutEh>
   a:	b160      	cbz	r0, 26 <_ZN11StdioStream8flushPutEh+0x26>
   c:	f894 3089 	ldrb.w	r3, [r4, #137]	; 0x89
  10:	4628      	mov	r0, r5
  12:	f8d4 2084 	ldr.w	r2, [r4, #132]	; 0x84
  16:	3b01      	subs	r3, #1
  18:	1c51      	adds	r1, r2, #1
  1a:	f884 3089 	strb.w	r3, [r4, #137]	; 0x89
  1e:	f8c4 1084 	str.w	r1, [r4, #132]	; 0x84
  22:	7015      	strb	r5, [r2, #0]
  24:	bd38      	pop	{r3, r4, r5, pc}
  26:	f04f 30ff 	mov.w	r0, #4294967295	; 0xffffffff
  2a:	bd38      	pop	{r3, r4, r5, pc}

Disassembly of section .text._ZN11StdioStream8fmtSpaceEh:

00000000 <_ZN11StdioStream8fmtSpaceEh>:
   0:	b538      	push	{r3, r4, r5, lr}
   2:	f890 3089 	ldrb.w	r3, [r0, #137]	; 0x89
   6:	4604      	mov	r4, r0
   8:	460d      	mov	r5, r1
   a:	428b      	cmp	r3, r1
   c:	d308      	bcc.n	20 <_ZN11StdioStream8fmtSpaceEh+0x20>
   e:	f8d4 0084 	ldr.w	r0, [r4, #132]	; 0x84
  12:	1b5b      	subs	r3, r3, r5
  14:	4428      	add	r0, r5
  16:	f884 3089 	strb.w	r3, [r4, #137]	; 0x89
  1a:	f8c4 0084 	str.w	r0, [r4, #132]	; 0x84
  1e:	bd38      	pop	{r3, r4, r5, pc}
  20:	f7ff fffe 	bl	0 <_ZN11StdioStream8fmtSpaceEh>
  24:	2800      	cmp	r0, #0
  26:	d0fa      	beq.n	1e <_ZN11StdioStream8fmtSpaceEh+0x1e>
  28:	f894 3089 	ldrb.w	r3, [r4, #137]	; 0x89
  2c:	42ab      	cmp	r3, r5
  2e:	d2ee      	bcs.n	e <_ZN11StdioStream8fmtSpaceEh+0xe>
  30:	2000      	movs	r0, #0
  32:	bd38      	pop	{r3, r4, r5, pc}
