
build/./libraries/QNEthernet/src/lwip/apps/mdns/mdns_domain.c.o:     file format elf32-littlearm

SYMBOL TABLE:
00000000 l    df *ABS*	00000000 mdns_domain.c
00000000 l    d  .text	00000000 .text
00000000 l    d  .data	00000000 .data
00000000 l    d  .bss	00000000 .bss
00000000 l    d  .text.mdns_readname_loop	00000000 .text.mdns_readname_loop
00000000 l     F .text.mdns_readname_loop	00000100 mdns_readname_loop
00000000 l    d  .text.mdns_compress_domain.part.0	00000000 .text.mdns_compress_domain.part.0
00000000 l     F .text.mdns_compress_domain.part.0	000000be mdns_compress_domain.part.0
00000000 l    d  .text.mdns_domain_add_label	00000000 .text.mdns_domain_add_label
00000000 l    d  .text.mdns_domain_add_domain	00000000 .text.mdns_domain_add_domain
00000000 l    d  .text.mdns_domain_add_string	00000000 .text.mdns_domain_add_string
00000000 l    d  .text.mdns_readname	00000000 .text.mdns_readname
00000000 l    d  .text.mdns_domain_debug_print	00000000 .text.mdns_domain_debug_print
00000000 l    d  .text.mdns_domain_eq	00000000 .text.mdns_domain_eq
00000000 l    d  .rodata.mdns_build_reverse_v4_domain.str1.4	00000000 .rodata.mdns_build_reverse_v4_domain.str1.4
00000000 l    d  .text.mdns_build_reverse_v4_domain	00000000 .text.mdns_build_reverse_v4_domain
00000000 l    d  .rodata.mdns_build_host_domain.str1.4	00000000 .rodata.mdns_build_host_domain.str1.4
00000000 l    d  .text.mdns_build_host_domain	00000000 .text.mdns_build_host_domain
00000000 l    d  .rodata.mdns_build_dnssd_domain.str1.4	00000000 .rodata.mdns_build_dnssd_domain.str1.4
00000000 l    d  .text.mdns_build_dnssd_domain	00000000 .text.mdns_build_dnssd_domain
00000000 l    d  .text.mdns_build_service_domain	00000000 .text.mdns_build_service_domain
00000000 l    d  .text.mdns_build_request_domain	00000000 .text.mdns_build_request_domain
00000000 l    d  .text.mdns_compress_domain	00000000 .text.mdns_compress_domain
00000000 l    d  .text.mdns_write_domain	00000000 .text.mdns_write_domain
00000000 l    d  .rodata.str1.4	00000000 .rodata.str1.4
00000000 l    d  .rodata.dnssd_protos	00000000 .rodata.dnssd_protos
00000000 l     O .rodata.dnssd_protos	00000008 dnssd_protos
00000000 l    d  .comment	00000000 .comment
00000000 l    d  .ARM.attributes	00000000 .ARM.attributes
00000000         *UND*	00000000 pbuf_get_at
00000000         *UND*	00000000 pbuf_copy_partial
00000000         *UND*	00000000 memset
00000000         *UND*	00000000 memcmp
00000000 g     F .text.mdns_domain_add_label	00000058 mdns_domain_add_label
00000000         *UND*	00000000 memcpy
00000000 g     F .text.mdns_domain_add_domain	00000046 mdns_domain_add_domain
00000000 g     F .text.mdns_domain_add_string	00000076 mdns_domain_add_string
00000000 g     F .text.mdns_readname	00000024 mdns_readname
00000000 g     F .text.mdns_domain_debug_print	0000000e mdns_domain_debug_print
00000000 g     F .text.mdns_domain_eq	00000084 mdns_domain_eq
00000000         *UND*	00000000 lwip_strnicmp
00000000 g     F .text.mdns_build_reverse_v4_domain	000000d0 mdns_build_reverse_v4_domain
00000000         *UND*	00000000 snprintf
00000000         *UND*	00000000 strlen
00000000 g     F .text.mdns_build_host_domain	00000074 mdns_build_host_domain
00000000 g     F .text.mdns_build_dnssd_domain	000000a8 mdns_build_dnssd_domain
00000000 g     F .text.mdns_build_service_domain	000000bc mdns_build_service_domain
00000000 g     F .text.mdns_build_request_domain	000000ac mdns_build_request_domain
00000000 g     F .text.mdns_compress_domain	0000000c mdns_compress_domain
00000000 g     F .text.mdns_write_domain	000000d0 mdns_write_domain
00000000         *UND*	00000000 pbuf_take_at


Contents of section .text.mdns_readname_loop:
 0000 2de9f84f 99468046 8a461646 b9f1060f  -..O.F.F.F.F....
 0010 40465146 39d0fff7 feff0446 0af10105  @FQF9......F....
 0020 404604f0 c001a7b2 adb204f1 010bc029  @F.............)
 0030 3a462b46 3ad03f2c 27d8b6f8 00c104eb  :F+F:.?,'.......
 0040 0c010cf1 010e0beb 0c0a1ffa 8efeff29  ...............)
 0050 06eb0e01 19dcecb1 baf1ff0f 15dc06f8  ................
 0060 0c4005eb 070aa6f8 00e1fff7 feff8742  .@.............B
 0070 1ffa8afa 3cd1b6f8 0031b9f1 060f5146  ....<....1....QF
 0080 40463b44 a6f80031 c5d14ff6 ff752846  @F;D...1..O..u(F
 0090 bde8f88f bcf1ff0f f7d80cf1 010306f8  ................
 00a0 0c402846 a6f80031 bde8f88f b8f80830  .@(F...1.......0
 00b0 ab42ead9 2946fff7 feff2302 03f47c53  .B..)F....#...|S
 00c0 184303b2 81b20b2b dfddb8f8 08308b42  .C.....+.....0.B
 00d0 dbd909f1 01033246 4046fff7 91ff4ff6  ......2F@F....O.
 00e0 ff739842 d1d00af1 020a1ffa 8af5cee7  .s.B............
 00f0 b6f80031 4ff6ff75 013ba6f8 0031c6e7  ...1O..u.;...1..
Contents of section .text.mdns_compress_domain.part.0:
 0000 2de9f04f c7b00d88 93460446 4ff48272  -..O.....F.FO..r
 0010 029105a8 0021cdf8 00b0fff7 feff0023  .....!.........#
 0020 29462046 05aafff7 feff4ff6 ff739842  )F F......O..s.B
 0030 3ed0029b 009e1b88 b6f80081 c01a0393  >...............
 0040 c3b20193 b8f1000f 2ed05ffa 88f9bdf8  .........._.....
 0050 14b10027 abeb090a 3c465ffa 8afa07e0  ...'....<F_.....
 0060 32780132 14441644 e7b24745 3c461bd2  2x.2.D.D..GE<F..
 0070 a9eb0402 d2b2022a f2d90aeb 04055a45  .......*......ZE
 0080 edb2edd8 009ba91c 1819019b 994205ab  .............B..
 0090 03eb0501 08dafff7 feff0028 e0d1039b  ...........(....
 00a0 b846029a 2b441380 404647b0 bde8f08f  .F..+D..@FG.....
 00b0 009bb3f8 00814046 47b0bde8 f08f00bf  ......@FG.......
Contents of section .text.mdns_domain_add_label:
 0000 3f2a23d8 38b51446 0546aab1 b0f80001  ?*#.8..F.F......
 0010 531c50fa 83f3ff2b 1bdc2a54 013080b2  S.P....+..*T.0..
 0020 a5f80001 2844fff7 feffb5f8 00310020  ....(D.......1. 
 0030 2344a5f8 003138bd b0f80031 ff2b08d8  #D...18....1.+..
 0040 5a1cec54 2046a5f8 002138bd 6ff00500  Z..T F...!8.o...
 0050 70476ff0 050038bd                    pGo...8.        
Contents of section .text.mdns_domain_add_domain:
 0000 38b5b1f8 00510446 85b1b0f8 00016b1c  8....Q.F......k.
 0010 0344ff2b 14dc2a46 2044fff7 feffb4f8  .D.+..*F D......
 0020 00310020 1d44a4f8 005138bd b0f80031  .1. .D...Q8....1
 0030 ff2b05d8 5a1cc554 2846a4f8 002138bd  .+..Z..T(F...!8.
 0040 6ff00500 38bd00bf                    o...8...        
Contents of section .text.mdns_domain_add_string:
 0000 b0f80031 70b5c418 00f58075 06460020  ...1p......u.F. 
 0010 04f1010e f0547545 0b7821d9 03b30131  .....TuE.x!....1
 0020 f446a21c 0ee08cf8 0030ae45 23780cf1  .F.......0.E#x..
 0030 010c02f1 010203f1 01032370 11f8013b  ..........#p...;
 0040 0ed26bb1 2e2b9646 edd1ae45 8cf80000  ..k..+.F...E....
 0050 644611f8 013b0cf1 010c02f1 0102f0d3  dF...;..........
 0060 754505d0 aeeb060e 0020a6f8 00e170bd  uE....... ....p.
 0070 6ff00500 70bd00bf                    o...p...        
Contents of section .text.mdns_readname:
 0000 70b51446 05460e46 4ff48272 00212046  p..F.F.FO..r.! F
 0010 fff7feff 22463146 28460023 bde87040  ...."F1F(F.#..p@
 0020 fff7febf                             ....            
Contents of section .text.mdns_domain_debug_print:
 0000 01e00133 18440378 002bfad1 704700bf  ...3.D.x.+..pG..
Contents of section .text.mdns_domain_eq:
 0000 2de9f843 b0f800e1 b1f80031 9e452bd1  -..C.......1.E+.
 0010 04780646 03468c46 9cb90f78 bc4226d1  .x.F.F.F...x.B&.
 0020 0120bde8 f8834b45 f8d2a742 1cd1fff7  . ....KE...B....
 0030 feff2b19 08eb040c b0b92c5d fcb1b6f8  ..+.......,]....
 0040 00e15d1c 0cf10108 9cf80070 06eb0e09  ..]........p....
 0050 22464146 2846002f e5d17644 b34234bf  "FAF(F./..vD.B4.
 0060 00200120 bde8f883 0020bde8 f883b6f8  . . ..... ......
 0070 00e17644 b34234bf 00200120 f2e79cf8  ..vD.B4.. . ....
 0080 0070cbe7                             .p..            
Contents of section .rodata.mdns_build_reverse_v4_domain.str1.4:
 0000 25640000 696e2d61 64647200 61727061  %d..in-addr.arpa
 0010 00                                   .               
Contents of section .text.mdns_build_reverse_v4_domain:
 0000 00285bd0 f0b50e46 b1fa81f1 83b04909  .([....F......I.
 0010 002e50d0 351d2b4f 4ff48272 0446fff7  ..P.5.+OO..r.F..
 0020 feff0421 15f8013d 3a460deb 0100fff7  ...!...=:F......
 0030 feff01a8 fff7feff 024601a9 2046d2b2  .........F.. F..
 0040 fff7feff 034680bb b542ead1 b4f80011  .....F...B......
 0050 f7292dd8 07204a1c 605492b2 1a49a4f8  .)-.. J.`T...I..
 0060 0021a518 0868a050 8a88aa80 8a79aa71  .!...h.P.....y.q
 0070 b4f80011 ca1d92b2 fa2aa4f8 002117d8  .........*...!..
 0080 04200831 a05489b2 104aa4f8 00111068  . .1.T...J.....h
 0090 6050b4f8 00110a1d 92b2ff2a a4f80021  `P.........*...!
 00a0 06d80531 a354a4f8 00111846 03b0f0bd  ...1.T.....F....
 00b0 6ff00503 f9e76ff0 0f03f6e7 6ff00f03  o.....o.....o...
 00c0 18467047 00000000 04000000 0c000000  .FpG............
Contents of section .rodata.mdns_build_host_domain.str1.4:
 0000 6c6f6361 6c00                        local.          
Contents of section .text.mdns_build_host_domain:
 0000 38b50d46 4ff48272 00210446 fff7feff  8..FO..r.!.F....
 0010 55b32846 fff7feff 02462946 2046d2b2  U.(F.....F)F F..
 0020 fff7feff 034608b1 184638bd b4f80011  .....F...F8.....
 0030 f92919d8 05204a1c 605492b2 0c49a4f8  .)... J.`T...I..
 0040 0021a518 0868a050 0a792a71 b4f80011  .!...h.P.y*q....
 0050 4a1d92b2 ff2aa4f8 002105d8 0631a354  J....*...!...1.T
 0060 1846a4f8 001138bd 6ff00503 dce700bf  .F....8.o.......
 0070 00000000                             ....            
Contents of section .rodata.mdns_build_dnssd_domain.str1.4:
 0000 5f736572 76696365 73000000 5f646e73  _services..._dns
 0010 2d736400 5f756470 00                 -sd._udp.       
Contents of section .text.mdns_build_dnssd_domain:
 0000 38b50446 4ff48272 0021234d fff7feff  8..FO..r.!#M....
 0010 22460921 214b02f8 011b03cb c4f80100  "F.!!K..........
 0020 93f800c0 07232868 516082f8 08c00422  .....#(hQ`....."
 0030 a979c4f8 0b00a372 1223a888 6174a4f8  .y.....r.#..at..
 0040 0f002046 a4f80031 1549fff7 feff0346  .. F...1.I.....F
 0050 08b11846 38bdb4f8 0011f929 18d80520  ...F8......)... 
 0060 4a1c6054 92b20f49 a4f80021 a5180868  J.`T...I...!...h
 0070 a0500a79 2a71b4f8 00114a1d 92b2ff2a  .P.y*q....J....*
 0080 a4f80021 04d80631 a354a4f8 0011e0e7  ...!...1.T......
 0090 6ff00503 dde700bf 0c000000 00000000  o...............
 00a0 14000000 00000000                    ........        
Contents of section .text.mdns_build_service_domain:
 0000 70b51446 82b00e46 4ff48272 00210546  p..F...FO..r.!.F
 0010 fff7feff 64b106f5 82710846 0191fff7  ....d....q.F....
 0020 feff0199 c2b22846 fff7feff 034660b9  ......(F.....F`.
 0030 06f5a271 08460191 fff7feff 0199c2b2  ...q.F..........
 0040 2846fff7 feff0346 10b11846 02b070bd  (F.....F...F..p.
 0050 b6f88c21 174b53f8 22100846 0191fff7  ...!.KS."..F....
 0060 feff0246 01992846 d2b2fff7 feff0346  ...F..(F.......F
 0070 0028ead1 b5f80011 f92918d8 05204a1c  .(.......)... J.
 0080 685492b2 0c49a5f8 0021ac18 0868a850  hT...I...!...h.P
 0090 0a792271 b5f80011 4a1d92b2 ff2aa5f8  .y"q....J....*..
 00a0 002104d8 0631ab54 a5f80011 cde76ff0  .!...1.T......o.
 00b0 0503cae7 00000000 00000000           ............    
Contents of section .text.mdns_build_request_domain:
 0000 70b51546 82b00c46 4ff48272 00210646  p..F...FO..r.!.F
 0010 fff7feff 55b12046 fff7feff 02462146  ....U. F.....F!F
 0020 3046d2b2 fff7feff 034630b9 04f14001  0F.......F0...@.
 0030 3046fff7 feff0346 10b11846 02b070bd  0F.....F...F..p.
 0040 b4f84c21 174b53f8 22100846 0191fff7  ..L!.KS."..F....
 0050 feff0246 01993046 d2b2fff7 feff0346  ...F..0F.......F
 0060 0028ead1 b6f80011 f92918d8 05204a1c  .(.......)... J.
 0070 705492b2 0c49a6f8 0021b418 0868b050  pT...I...!...h.P
 0080 0a792271 b6f80011 4a1d92b2 ff2aa6f8  .y"q....J....*..
 0090 002104d8 0631b354 a6f80011 cde76ff0  .!...1.T......o.
 00a0 0503cae7 00000000 00000000           ............    
Contents of section .text.mdns_compress_domain:
 0000 08b1fff7 febfb2f8 00017047           ..........pG    
Contents of section .text.mdns_write_domain:
 0000 2de9f043 91f80231 83b00e46 0546b1f8  -..C...1...F.F..
 0010 00712bb1 002f3ad1 002003b0 bde8f083  .q+../:.. ......
 0020 00f10c04 984600f1 200908e0 fff7feff  .....F.. .......
 0030 b84202d2 bdf80680 07464c45 0ed034f8  .B.......FLE..4.
 0040 023fadf8 0630002b f7d02868 32460df1  .?...0.+..(h2F..
 0050 06010028 ead1b6f8 0001e9e7 cfb9b8f1  ...(............
 0060 000fd9d0 19490222 ab8848ea 01012868  .....I."..H...(h
 0070 49baadf8 06100df1 0601fff7 feff0028  I..............(
 0080 cbd1ab88 0233ab80 03b0bde8 f0834ff0  .....3........O.
 0090 0008ab88 31463a46 2868fff7 feff0028  ....1F:F(h.....(
 00a0 bbd105f1 0c0333f8 022f4ab1 01300a28  ......3../J..0.(
 00b0 f9d1ab88 1f44af80 b8f1000f d2d1abe7  .....D..........
 00c0 ab8805eb 4000c381 f4e700bf 00c0ffff  ....@...........
Contents of section .rodata.str1.4:
 0000 5f746370 00                          _tcp.           
Contents of section .rodata.dnssd_protos:
 0000 14000000 00000000                    ........        
Contents of section .comment:
 0000 00474343 3a202841 726d2047 4e552054  .GCC: (Arm GNU T
 0010 6f6f6c63 6861696e 2031312e 332e5265  oolchain 11.3.Re
 0020 6c312920 31312e33 2e312032 30323230  l1) 11.3.1 20220
 0030 37313200                             712.            
Contents of section .ARM.attributes:
 0000 41310000 00616561 62690001 27000000  A1...aeabi..'...
 0010 0537452d 4d00060d 074d0902 0a081204  .7E-M....M......
 0020 14011501 17031801 19011a01 1c011e02  ................
 0030 2201                                 ".              

Disassembly of section .text.mdns_readname_loop:

00000000 <mdns_readname_loop>:
   0:	e92d 4ff8 	stmdb	sp!, {r3, r4, r5, r6, r7, r8, r9, sl, fp, lr}
   4:	4699      	mov	r9, r3
   6:	4680      	mov	r8, r0
   8:	468a      	mov	sl, r1
   a:	4616      	mov	r6, r2
   c:	f1b9 0f06 	cmp.w	r9, #6
  10:	4640      	mov	r0, r8
  12:	4651      	mov	r1, sl
  14:	d039      	beq.n	8a <mdns_readname_loop+0x8a>
  16:	f7ff fffe 	bl	0 <pbuf_get_at>
  1a:	4604      	mov	r4, r0
  1c:	f10a 0501 	add.w	r5, sl, #1
  20:	4640      	mov	r0, r8
  22:	f004 01c0 	and.w	r1, r4, #192	; 0xc0
  26:	b2a7      	uxth	r7, r4
  28:	b2ad      	uxth	r5, r5
  2a:	f104 0b01 	add.w	fp, r4, #1
  2e:	29c0      	cmp	r1, #192	; 0xc0
  30:	463a      	mov	r2, r7
  32:	462b      	mov	r3, r5
  34:	d03a      	beq.n	ac <mdns_readname_loop+0xac>
  36:	2c3f      	cmp	r4, #63	; 0x3f
  38:	d827      	bhi.n	8a <mdns_readname_loop+0x8a>
  3a:	f8b6 c100 	ldrh.w	ip, [r6, #256]	; 0x100
  3e:	eb04 010c 	add.w	r1, r4, ip
  42:	f10c 0e01 	add.w	lr, ip, #1
  46:	eb0b 0a0c 	add.w	sl, fp, ip
  4a:	fa1f fe8e 	uxth.w	lr, lr
  4e:	29ff      	cmp	r1, #255	; 0xff
  50:	eb06 010e 	add.w	r1, r6, lr
  54:	dc19      	bgt.n	8a <mdns_readname_loop+0x8a>
  56:	b1ec      	cbz	r4, 94 <mdns_readname_loop+0x94>
  58:	f1ba 0fff 	cmp.w	sl, #255	; 0xff
  5c:	dc15      	bgt.n	8a <mdns_readname_loop+0x8a>
  5e:	f806 400c 	strb.w	r4, [r6, ip]
  62:	eb05 0a07 	add.w	sl, r5, r7
  66:	f8a6 e100 	strh.w	lr, [r6, #256]	; 0x100
  6a:	f7ff fffe 	bl	0 <pbuf_copy_partial>
  6e:	4287      	cmp	r7, r0
  70:	fa1f fa8a 	uxth.w	sl, sl
  74:	d13c      	bne.n	f0 <mdns_readname_loop+0xf0>
  76:	f8b6 3100 	ldrh.w	r3, [r6, #256]	; 0x100
  7a:	f1b9 0f06 	cmp.w	r9, #6
  7e:	4651      	mov	r1, sl
  80:	4640      	mov	r0, r8
  82:	443b      	add	r3, r7
  84:	f8a6 3100 	strh.w	r3, [r6, #256]	; 0x100
  88:	d1c5      	bne.n	16 <mdns_readname_loop+0x16>
  8a:	f64f 75ff 	movw	r5, #65535	; 0xffff
  8e:	4628      	mov	r0, r5
  90:	e8bd 8ff8 	ldmia.w	sp!, {r3, r4, r5, r6, r7, r8, r9, sl, fp, pc}
  94:	f1bc 0fff 	cmp.w	ip, #255	; 0xff
  98:	d8f7      	bhi.n	8a <mdns_readname_loop+0x8a>
  9a:	f10c 0301 	add.w	r3, ip, #1
  9e:	f806 400c 	strb.w	r4, [r6, ip]
  a2:	4628      	mov	r0, r5
  a4:	f8a6 3100 	strh.w	r3, [r6, #256]	; 0x100
  a8:	e8bd 8ff8 	ldmia.w	sp!, {r3, r4, r5, r6, r7, r8, r9, sl, fp, pc}
  ac:	f8b8 3008 	ldrh.w	r3, [r8, #8]
  b0:	42ab      	cmp	r3, r5
  b2:	d9ea      	bls.n	8a <mdns_readname_loop+0x8a>
  b4:	4629      	mov	r1, r5
  b6:	f7ff fffe 	bl	0 <pbuf_get_at>
  ba:	0223      	lsls	r3, r4, #8
  bc:	f403 537c 	and.w	r3, r3, #16128	; 0x3f00
  c0:	4318      	orrs	r0, r3
  c2:	b203      	sxth	r3, r0
  c4:	b281      	uxth	r1, r0
  c6:	2b0b      	cmp	r3, #11
  c8:	dddf      	ble.n	8a <mdns_readname_loop+0x8a>
  ca:	f8b8 3008 	ldrh.w	r3, [r8, #8]
  ce:	428b      	cmp	r3, r1
  d0:	d9db      	bls.n	8a <mdns_readname_loop+0x8a>
  d2:	f109 0301 	add.w	r3, r9, #1
  d6:	4632      	mov	r2, r6
  d8:	4640      	mov	r0, r8
  da:	f7ff ff91 	bl	0 <mdns_readname_loop>
  de:	f64f 73ff 	movw	r3, #65535	; 0xffff
  e2:	4298      	cmp	r0, r3
  e4:	d0d1      	beq.n	8a <mdns_readname_loop+0x8a>
  e6:	f10a 0a02 	add.w	sl, sl, #2
  ea:	fa1f f58a 	uxth.w	r5, sl
  ee:	e7ce      	b.n	8e <mdns_readname_loop+0x8e>
  f0:	f8b6 3100 	ldrh.w	r3, [r6, #256]	; 0x100
  f4:	f64f 75ff 	movw	r5, #65535	; 0xffff
  f8:	3b01      	subs	r3, #1
  fa:	f8a6 3100 	strh.w	r3, [r6, #256]	; 0x100
  fe:	e7c6      	b.n	8e <mdns_readname_loop+0x8e>

Disassembly of section .text.mdns_compress_domain.part.0:

00000000 <mdns_compress_domain.part.0>:
   0:	e92d 4ff0 	stmdb	sp!, {r4, r5, r6, r7, r8, r9, sl, fp, lr}
   4:	b0c7      	sub	sp, #284	; 0x11c
   6:	880d      	ldrh	r5, [r1, #0]
   8:	4693      	mov	fp, r2
   a:	4604      	mov	r4, r0
   c:	f44f 7282 	mov.w	r2, #260	; 0x104
  10:	9102      	str	r1, [sp, #8]
  12:	a805      	add	r0, sp, #20
  14:	2100      	movs	r1, #0
  16:	f8cd b000 	str.w	fp, [sp]
  1a:	f7ff fffe 	bl	0 <memset>
  1e:	2300      	movs	r3, #0
  20:	4629      	mov	r1, r5
  22:	4620      	mov	r0, r4
  24:	aa05      	add	r2, sp, #20
  26:	f7ff fffe 	bl	0 <mdns_compress_domain.part.0>
  2a:	f64f 73ff 	movw	r3, #65535	; 0xffff
  2e:	4298      	cmp	r0, r3
  30:	d03e      	beq.n	b0 <mdns_compress_domain.part.0+0xb0>
  32:	9b02      	ldr	r3, [sp, #8]
  34:	9e00      	ldr	r6, [sp, #0]
  36:	881b      	ldrh	r3, [r3, #0]
  38:	f8b6 8100 	ldrh.w	r8, [r6, #256]	; 0x100
  3c:	1ac0      	subs	r0, r0, r3
  3e:	9303      	str	r3, [sp, #12]
  40:	b2c3      	uxtb	r3, r0
  42:	9301      	str	r3, [sp, #4]
  44:	f1b8 0f00 	cmp.w	r8, #0
  48:	d02e      	beq.n	a8 <mdns_compress_domain.part.0+0xa8>
  4a:	fa5f f988 	uxtb.w	r9, r8
  4e:	f8bd b114 	ldrh.w	fp, [sp, #276]	; 0x114
  52:	2700      	movs	r7, #0
  54:	ebab 0a09 	sub.w	sl, fp, r9
  58:	463c      	mov	r4, r7
  5a:	fa5f fa8a 	uxtb.w	sl, sl
  5e:	e007      	b.n	70 <mdns_compress_domain.part.0+0x70>
  60:	7832      	ldrb	r2, [r6, #0]
  62:	3201      	adds	r2, #1
  64:	4414      	add	r4, r2
  66:	4416      	add	r6, r2
  68:	b2e7      	uxtb	r7, r4
  6a:	4547      	cmp	r7, r8
  6c:	463c      	mov	r4, r7
  6e:	d21b      	bcs.n	a8 <mdns_compress_domain.part.0+0xa8>
  70:	eba9 0204 	sub.w	r2, r9, r4
  74:	b2d2      	uxtb	r2, r2
  76:	2a02      	cmp	r2, #2
  78:	d9f2      	bls.n	60 <mdns_compress_domain.part.0+0x60>
  7a:	eb0a 0504 	add.w	r5, sl, r4
  7e:	455a      	cmp	r2, fp
  80:	b2ed      	uxtb	r5, r5
  82:	d8ed      	bhi.n	60 <mdns_compress_domain.part.0+0x60>
  84:	9b00      	ldr	r3, [sp, #0]
  86:	1ca9      	adds	r1, r5, #2
  88:	1918      	adds	r0, r3, r4
  8a:	9b01      	ldr	r3, [sp, #4]
  8c:	4299      	cmp	r1, r3
  8e:	ab05      	add	r3, sp, #20
  90:	eb03 0105 	add.w	r1, r3, r5
  94:	da08      	bge.n	a8 <mdns_compress_domain.part.0+0xa8>
  96:	f7ff fffe 	bl	0 <memcmp>
  9a:	2800      	cmp	r0, #0
  9c:	d1e0      	bne.n	60 <mdns_compress_domain.part.0+0x60>
  9e:	9b03      	ldr	r3, [sp, #12]
  a0:	46b8      	mov	r8, r7
  a2:	9a02      	ldr	r2, [sp, #8]
  a4:	442b      	add	r3, r5
  a6:	8013      	strh	r3, [r2, #0]
  a8:	4640      	mov	r0, r8
  aa:	b047      	add	sp, #284	; 0x11c
  ac:	e8bd 8ff0 	ldmia.w	sp!, {r4, r5, r6, r7, r8, r9, sl, fp, pc}
  b0:	9b00      	ldr	r3, [sp, #0]
  b2:	f8b3 8100 	ldrh.w	r8, [r3, #256]	; 0x100
  b6:	4640      	mov	r0, r8
  b8:	b047      	add	sp, #284	; 0x11c
  ba:	e8bd 8ff0 	ldmia.w	sp!, {r4, r5, r6, r7, r8, r9, sl, fp, pc}
  be:	bf00      	nop

Disassembly of section .text.mdns_domain_add_label:

00000000 <mdns_domain_add_label>:
   0:	2a3f      	cmp	r2, #63	; 0x3f
   2:	d823      	bhi.n	4c <mdns_domain_add_label+0x4c>
   4:	b538      	push	{r3, r4, r5, lr}
   6:	4614      	mov	r4, r2
   8:	4605      	mov	r5, r0
   a:	b1aa      	cbz	r2, 38 <mdns_domain_add_label+0x38>
   c:	f8b0 0100 	ldrh.w	r0, [r0, #256]	; 0x100
  10:	1c53      	adds	r3, r2, #1
  12:	fa50 f383 	uxtab	r3, r0, r3
  16:	2bff      	cmp	r3, #255	; 0xff
  18:	dc1b      	bgt.n	52 <mdns_domain_add_label+0x52>
  1a:	542a      	strb	r2, [r5, r0]
  1c:	3001      	adds	r0, #1
  1e:	b280      	uxth	r0, r0
  20:	f8a5 0100 	strh.w	r0, [r5, #256]	; 0x100
  24:	4428      	add	r0, r5
  26:	f7ff fffe 	bl	0 <memcpy>
  2a:	f8b5 3100 	ldrh.w	r3, [r5, #256]	; 0x100
  2e:	2000      	movs	r0, #0
  30:	4423      	add	r3, r4
  32:	f8a5 3100 	strh.w	r3, [r5, #256]	; 0x100
  36:	bd38      	pop	{r3, r4, r5, pc}
  38:	f8b0 3100 	ldrh.w	r3, [r0, #256]	; 0x100
  3c:	2bff      	cmp	r3, #255	; 0xff
  3e:	d808      	bhi.n	52 <mdns_domain_add_label+0x52>
  40:	1c5a      	adds	r2, r3, #1
  42:	54ec      	strb	r4, [r5, r3]
  44:	4620      	mov	r0, r4
  46:	f8a5 2100 	strh.w	r2, [r5, #256]	; 0x100
  4a:	bd38      	pop	{r3, r4, r5, pc}
  4c:	f06f 0005 	mvn.w	r0, #5
  50:	4770      	bx	lr
  52:	f06f 0005 	mvn.w	r0, #5
  56:	bd38      	pop	{r3, r4, r5, pc}

Disassembly of section .text.mdns_domain_add_domain:

00000000 <mdns_domain_add_domain>:
   0:	b538      	push	{r3, r4, r5, lr}
   2:	f8b1 5100 	ldrh.w	r5, [r1, #256]	; 0x100
   6:	4604      	mov	r4, r0
   8:	b185      	cbz	r5, 2c <mdns_domain_add_domain+0x2c>
   a:	f8b0 0100 	ldrh.w	r0, [r0, #256]	; 0x100
   e:	1c6b      	adds	r3, r5, #1
  10:	4403      	add	r3, r0
  12:	2bff      	cmp	r3, #255	; 0xff
  14:	dc14      	bgt.n	40 <mdns_domain_add_domain+0x40>
  16:	462a      	mov	r2, r5
  18:	4420      	add	r0, r4
  1a:	f7ff fffe 	bl	0 <memcpy>
  1e:	f8b4 3100 	ldrh.w	r3, [r4, #256]	; 0x100
  22:	2000      	movs	r0, #0
  24:	441d      	add	r5, r3
  26:	f8a4 5100 	strh.w	r5, [r4, #256]	; 0x100
  2a:	bd38      	pop	{r3, r4, r5, pc}
  2c:	f8b0 3100 	ldrh.w	r3, [r0, #256]	; 0x100
  30:	2bff      	cmp	r3, #255	; 0xff
  32:	d805      	bhi.n	40 <mdns_domain_add_domain+0x40>
  34:	1c5a      	adds	r2, r3, #1
  36:	54c5      	strb	r5, [r0, r3]
  38:	4628      	mov	r0, r5
  3a:	f8a4 2100 	strh.w	r2, [r4, #256]	; 0x100
  3e:	bd38      	pop	{r3, r4, r5, pc}
  40:	f06f 0005 	mvn.w	r0, #5
  44:	bd38      	pop	{r3, r4, r5, pc}
  46:	bf00      	nop

Disassembly of section .text.mdns_domain_add_string:

00000000 <mdns_domain_add_string>:
   0:	f8b0 3100 	ldrh.w	r3, [r0, #256]	; 0x100
   4:	b570      	push	{r4, r5, r6, lr}
   6:	18c4      	adds	r4, r0, r3
   8:	f500 7580 	add.w	r5, r0, #256	; 0x100
   c:	4606      	mov	r6, r0
   e:	2000      	movs	r0, #0
  10:	f104 0e01 	add.w	lr, r4, #1
  14:	54f0      	strb	r0, [r6, r3]
  16:	4575      	cmp	r5, lr
  18:	780b      	ldrb	r3, [r1, #0]
  1a:	d921      	bls.n	60 <mdns_domain_add_string+0x60>
  1c:	b303      	cbz	r3, 60 <mdns_domain_add_string+0x60>
  1e:	3101      	adds	r1, #1
  20:	46f4      	mov	ip, lr
  22:	1ca2      	adds	r2, r4, #2
  24:	e00e      	b.n	44 <mdns_domain_add_string+0x44>
  26:	f88c 3000 	strb.w	r3, [ip]
  2a:	45ae      	cmp	lr, r5
  2c:	7823      	ldrb	r3, [r4, #0]
  2e:	f10c 0c01 	add.w	ip, ip, #1
  32:	f102 0201 	add.w	r2, r2, #1
  36:	f103 0301 	add.w	r3, r3, #1
  3a:	7023      	strb	r3, [r4, #0]
  3c:	f811 3b01 	ldrb.w	r3, [r1], #1
  40:	d20e      	bcs.n	60 <mdns_domain_add_string+0x60>
  42:	b16b      	cbz	r3, 60 <mdns_domain_add_string+0x60>
  44:	2b2e      	cmp	r3, #46	; 0x2e
  46:	4696      	mov	lr, r2
  48:	d1ed      	bne.n	26 <mdns_domain_add_string+0x26>
  4a:	45ae      	cmp	lr, r5
  4c:	f88c 0000 	strb.w	r0, [ip]
  50:	4664      	mov	r4, ip
  52:	f811 3b01 	ldrb.w	r3, [r1], #1
  56:	f10c 0c01 	add.w	ip, ip, #1
  5a:	f102 0201 	add.w	r2, r2, #1
  5e:	d3f0      	bcc.n	42 <mdns_domain_add_string+0x42>
  60:	4575      	cmp	r5, lr
  62:	d005      	beq.n	70 <mdns_domain_add_string+0x70>
  64:	ebae 0e06 	sub.w	lr, lr, r6
  68:	2000      	movs	r0, #0
  6a:	f8a6 e100 	strh.w	lr, [r6, #256]	; 0x100
  6e:	bd70      	pop	{r4, r5, r6, pc}
  70:	f06f 0005 	mvn.w	r0, #5
  74:	bd70      	pop	{r4, r5, r6, pc}
  76:	bf00      	nop

Disassembly of section .text.mdns_readname:

00000000 <mdns_readname>:
   0:	b570      	push	{r4, r5, r6, lr}
   2:	4614      	mov	r4, r2
   4:	4605      	mov	r5, r0
   6:	460e      	mov	r6, r1
   8:	f44f 7282 	mov.w	r2, #260	; 0x104
   c:	2100      	movs	r1, #0
   e:	4620      	mov	r0, r4
  10:	f7ff fffe 	bl	0 <memset>
  14:	4622      	mov	r2, r4
  16:	4631      	mov	r1, r6
  18:	4628      	mov	r0, r5
  1a:	2300      	movs	r3, #0
  1c:	e8bd 4070 	ldmia.w	sp!, {r4, r5, r6, lr}
  20:	f7ff bffe 	b.w	0 <mdns_readname>

Disassembly of section .text.mdns_domain_debug_print:

00000000 <mdns_domain_debug_print>:
   0:	e001      	b.n	6 <mdns_domain_debug_print+0x6>
   2:	3301      	adds	r3, #1
   4:	4418      	add	r0, r3
   6:	7803      	ldrb	r3, [r0, #0]
   8:	2b00      	cmp	r3, #0
   a:	d1fa      	bne.n	2 <mdns_domain_debug_print+0x2>
   c:	4770      	bx	lr
   e:	bf00      	nop

Disassembly of section .text.mdns_domain_eq:

00000000 <mdns_domain_eq>:
   0:	e92d 43f8 	stmdb	sp!, {r3, r4, r5, r6, r7, r8, r9, lr}
   4:	f8b0 e100 	ldrh.w	lr, [r0, #256]	; 0x100
   8:	f8b1 3100 	ldrh.w	r3, [r1, #256]	; 0x100
   c:	459e      	cmp	lr, r3
   e:	d12b      	bne.n	68 <mdns_domain_eq+0x68>
  10:	7804      	ldrb	r4, [r0, #0]
  12:	4606      	mov	r6, r0
  14:	4603      	mov	r3, r0
  16:	468c      	mov	ip, r1
  18:	b99c      	cbnz	r4, 42 <mdns_domain_eq+0x42>
  1a:	780f      	ldrb	r7, [r1, #0]
  1c:	42bc      	cmp	r4, r7
  1e:	d126      	bne.n	6e <mdns_domain_eq+0x6e>
  20:	2001      	movs	r0, #1
  22:	e8bd 83f8 	ldmia.w	sp!, {r3, r4, r5, r6, r7, r8, r9, pc}
  26:	454b      	cmp	r3, r9
  28:	d2f8      	bcs.n	1c <mdns_domain_eq+0x1c>
  2a:	42a7      	cmp	r7, r4
  2c:	d11c      	bne.n	68 <mdns_domain_eq+0x68>
  2e:	f7ff fffe 	bl	0 <lwip_strnicmp>
  32:	192b      	adds	r3, r5, r4
  34:	eb08 0c04 	add.w	ip, r8, r4
  38:	b9b0      	cbnz	r0, 68 <mdns_domain_eq+0x68>
  3a:	5d2c      	ldrb	r4, [r5, r4]
  3c:	b1fc      	cbz	r4, 7e <mdns_domain_eq+0x7e>
  3e:	f8b6 e100 	ldrh.w	lr, [r6, #256]	; 0x100
  42:	1c5d      	adds	r5, r3, #1
  44:	f10c 0801 	add.w	r8, ip, #1
  48:	f89c 7000 	ldrb.w	r7, [ip]
  4c:	eb06 090e 	add.w	r9, r6, lr
  50:	4622      	mov	r2, r4
  52:	4641      	mov	r1, r8
  54:	4628      	mov	r0, r5
  56:	2f00      	cmp	r7, #0
  58:	d1e5      	bne.n	26 <mdns_domain_eq+0x26>
  5a:	4476      	add	r6, lr
  5c:	42b3      	cmp	r3, r6
  5e:	bf34      	ite	cc
  60:	2000      	movcc	r0, #0
  62:	2001      	movcs	r0, #1
  64:	e8bd 83f8 	ldmia.w	sp!, {r3, r4, r5, r6, r7, r8, r9, pc}
  68:	2000      	movs	r0, #0
  6a:	e8bd 83f8 	ldmia.w	sp!, {r3, r4, r5, r6, r7, r8, r9, pc}
  6e:	f8b6 e100 	ldrh.w	lr, [r6, #256]	; 0x100
  72:	4476      	add	r6, lr
  74:	42b3      	cmp	r3, r6
  76:	bf34      	ite	cc
  78:	2000      	movcc	r0, #0
  7a:	2001      	movcs	r0, #1
  7c:	e7f2      	b.n	64 <mdns_domain_eq+0x64>
  7e:	f89c 7000 	ldrb.w	r7, [ip]
  82:	e7cb      	b.n	1c <mdns_domain_eq+0x1c>

Disassembly of section .text.mdns_build_reverse_v4_domain:

00000000 <mdns_build_reverse_v4_domain>:
   0:	2800      	cmp	r0, #0
   2:	d05b      	beq.n	bc <mdns_build_reverse_v4_domain+0xbc>
   4:	b5f0      	push	{r4, r5, r6, r7, lr}
   6:	460e      	mov	r6, r1
   8:	fab1 f181 	clz	r1, r1
   c:	b083      	sub	sp, #12
   e:	0949      	lsrs	r1, r1, #5
  10:	2e00      	cmp	r6, #0
  12:	d050      	beq.n	b6 <mdns_build_reverse_v4_domain+0xb6>
  14:	1d35      	adds	r5, r6, #4
  16:	4f2b      	ldr	r7, [pc, #172]	; (c4 <mdns_build_reverse_v4_domain+0xc4>)
  18:	f44f 7282 	mov.w	r2, #260	; 0x104
  1c:	4604      	mov	r4, r0
  1e:	f7ff fffe 	bl	0 <memset>
  22:	2104      	movs	r1, #4
  24:	f815 3d01 	ldrb.w	r3, [r5, #-1]!
  28:	463a      	mov	r2, r7
  2a:	eb0d 0001 	add.w	r0, sp, r1
  2e:	f7ff fffe 	bl	0 <snprintf>
  32:	a801      	add	r0, sp, #4
  34:	f7ff fffe 	bl	0 <strlen>
  38:	4602      	mov	r2, r0
  3a:	a901      	add	r1, sp, #4
  3c:	4620      	mov	r0, r4
  3e:	b2d2      	uxtb	r2, r2
  40:	f7ff fffe 	bl	0 <mdns_build_reverse_v4_domain>
  44:	4603      	mov	r3, r0
  46:	bb80      	cbnz	r0, aa <mdns_build_reverse_v4_domain+0xaa>
  48:	42b5      	cmp	r5, r6
  4a:	d1ea      	bne.n	22 <mdns_build_reverse_v4_domain+0x22>
  4c:	f8b4 1100 	ldrh.w	r1, [r4, #256]	; 0x100
  50:	29f7      	cmp	r1, #247	; 0xf7
  52:	d82d      	bhi.n	b0 <mdns_build_reverse_v4_domain+0xb0>
  54:	2007      	movs	r0, #7
  56:	1c4a      	adds	r2, r1, #1
  58:	5460      	strb	r0, [r4, r1]
  5a:	b292      	uxth	r2, r2
  5c:	491a      	ldr	r1, [pc, #104]	; (c8 <mdns_build_reverse_v4_domain+0xc8>)
  5e:	f8a4 2100 	strh.w	r2, [r4, #256]	; 0x100
  62:	18a5      	adds	r5, r4, r2
  64:	6808      	ldr	r0, [r1, #0]
  66:	50a0      	str	r0, [r4, r2]
  68:	888a      	ldrh	r2, [r1, #4]
  6a:	80aa      	strh	r2, [r5, #4]
  6c:	798a      	ldrb	r2, [r1, #6]
  6e:	71aa      	strb	r2, [r5, #6]
  70:	f8b4 1100 	ldrh.w	r1, [r4, #256]	; 0x100
  74:	1dca      	adds	r2, r1, #7
  76:	b292      	uxth	r2, r2
  78:	2afa      	cmp	r2, #250	; 0xfa
  7a:	f8a4 2100 	strh.w	r2, [r4, #256]	; 0x100
  7e:	d817      	bhi.n	b0 <mdns_build_reverse_v4_domain+0xb0>
  80:	2004      	movs	r0, #4
  82:	3108      	adds	r1, #8
  84:	54a0      	strb	r0, [r4, r2]
  86:	b289      	uxth	r1, r1
  88:	4a10      	ldr	r2, [pc, #64]	; (cc <mdns_build_reverse_v4_domain+0xcc>)
  8a:	f8a4 1100 	strh.w	r1, [r4, #256]	; 0x100
  8e:	6810      	ldr	r0, [r2, #0]
  90:	5060      	str	r0, [r4, r1]
  92:	f8b4 1100 	ldrh.w	r1, [r4, #256]	; 0x100
  96:	1d0a      	adds	r2, r1, #4
  98:	b292      	uxth	r2, r2
  9a:	2aff      	cmp	r2, #255	; 0xff
  9c:	f8a4 2100 	strh.w	r2, [r4, #256]	; 0x100
  a0:	d806      	bhi.n	b0 <mdns_build_reverse_v4_domain+0xb0>
  a2:	3105      	adds	r1, #5
  a4:	54a3      	strb	r3, [r4, r2]
  a6:	f8a4 1100 	strh.w	r1, [r4, #256]	; 0x100
  aa:	4618      	mov	r0, r3
  ac:	b003      	add	sp, #12
  ae:	bdf0      	pop	{r4, r5, r6, r7, pc}
  b0:	f06f 0305 	mvn.w	r3, #5
  b4:	e7f9      	b.n	aa <mdns_build_reverse_v4_domain+0xaa>
  b6:	f06f 030f 	mvn.w	r3, #15
  ba:	e7f6      	b.n	aa <mdns_build_reverse_v4_domain+0xaa>
  bc:	f06f 030f 	mvn.w	r3, #15
  c0:	4618      	mov	r0, r3
  c2:	4770      	bx	lr
  c4:	00000000 	.word	0x00000000
  c8:	00000004 	.word	0x00000004
  cc:	0000000c 	.word	0x0000000c

Disassembly of section .text.mdns_build_host_domain:

00000000 <mdns_build_host_domain>:
   0:	b538      	push	{r3, r4, r5, lr}
   2:	460d      	mov	r5, r1
   4:	f44f 7282 	mov.w	r2, #260	; 0x104
   8:	2100      	movs	r1, #0
   a:	4604      	mov	r4, r0
   c:	f7ff fffe 	bl	0 <memset>
  10:	b355      	cbz	r5, 68 <mdns_build_host_domain+0x68>
  12:	4628      	mov	r0, r5
  14:	f7ff fffe 	bl	0 <strlen>
  18:	4602      	mov	r2, r0
  1a:	4629      	mov	r1, r5
  1c:	4620      	mov	r0, r4
  1e:	b2d2      	uxtb	r2, r2
  20:	f7ff fffe 	bl	0 <mdns_build_host_domain>
  24:	4603      	mov	r3, r0
  26:	b108      	cbz	r0, 2c <mdns_build_host_domain+0x2c>
  28:	4618      	mov	r0, r3
  2a:	bd38      	pop	{r3, r4, r5, pc}
  2c:	f8b4 1100 	ldrh.w	r1, [r4, #256]	; 0x100
  30:	29f9      	cmp	r1, #249	; 0xf9
  32:	d819      	bhi.n	68 <mdns_build_host_domain+0x68>
  34:	2005      	movs	r0, #5
  36:	1c4a      	adds	r2, r1, #1
  38:	5460      	strb	r0, [r4, r1]
  3a:	b292      	uxth	r2, r2
  3c:	490c      	ldr	r1, [pc, #48]	; (70 <mdns_build_host_domain+0x70>)
  3e:	f8a4 2100 	strh.w	r2, [r4, #256]	; 0x100
  42:	18a5      	adds	r5, r4, r2
  44:	6808      	ldr	r0, [r1, #0]
  46:	50a0      	str	r0, [r4, r2]
  48:	790a      	ldrb	r2, [r1, #4]
  4a:	712a      	strb	r2, [r5, #4]
  4c:	f8b4 1100 	ldrh.w	r1, [r4, #256]	; 0x100
  50:	1d4a      	adds	r2, r1, #5
  52:	b292      	uxth	r2, r2
  54:	2aff      	cmp	r2, #255	; 0xff
  56:	f8a4 2100 	strh.w	r2, [r4, #256]	; 0x100
  5a:	d805      	bhi.n	68 <mdns_build_host_domain+0x68>
  5c:	3106      	adds	r1, #6
  5e:	54a3      	strb	r3, [r4, r2]
  60:	4618      	mov	r0, r3
  62:	f8a4 1100 	strh.w	r1, [r4, #256]	; 0x100
  66:	bd38      	pop	{r3, r4, r5, pc}
  68:	f06f 0305 	mvn.w	r3, #5
  6c:	e7dc      	b.n	28 <mdns_build_host_domain+0x28>
  6e:	bf00      	nop
  70:	00000000 	.word	0x00000000

Disassembly of section .text.mdns_build_dnssd_domain:

00000000 <mdns_build_dnssd_domain>:
   0:	b538      	push	{r3, r4, r5, lr}
   2:	4604      	mov	r4, r0
   4:	f44f 7282 	mov.w	r2, #260	; 0x104
   8:	2100      	movs	r1, #0
   a:	4d23      	ldr	r5, [pc, #140]	; (98 <mdns_build_dnssd_domain+0x98>)
   c:	f7ff fffe 	bl	0 <memset>
  10:	4622      	mov	r2, r4
  12:	2109      	movs	r1, #9
  14:	4b21      	ldr	r3, [pc, #132]	; (9c <mdns_build_dnssd_domain+0x9c>)
  16:	f802 1b01 	strb.w	r1, [r2], #1
  1a:	cb03      	ldmia	r3!, {r0, r1}
  1c:	f8c4 0001 	str.w	r0, [r4, #1]
  20:	f893 c000 	ldrb.w	ip, [r3]
  24:	2307      	movs	r3, #7
  26:	6828      	ldr	r0, [r5, #0]
  28:	6051      	str	r1, [r2, #4]
  2a:	f882 c008 	strb.w	ip, [r2, #8]
  2e:	2204      	movs	r2, #4
  30:	79a9      	ldrb	r1, [r5, #6]
  32:	f8c4 000b 	str.w	r0, [r4, #11]
  36:	72a3      	strb	r3, [r4, #10]
  38:	2312      	movs	r3, #18
  3a:	88a8      	ldrh	r0, [r5, #4]
  3c:	7461      	strb	r1, [r4, #17]
  3e:	f8a4 000f 	strh.w	r0, [r4, #15]
  42:	4620      	mov	r0, r4
  44:	f8a4 3100 	strh.w	r3, [r4, #256]	; 0x100
  48:	4915      	ldr	r1, [pc, #84]	; (a0 <mdns_build_dnssd_domain+0xa0>)
  4a:	f7ff fffe 	bl	0 <mdns_build_dnssd_domain>
  4e:	4603      	mov	r3, r0
  50:	b108      	cbz	r0, 56 <mdns_build_dnssd_domain+0x56>
  52:	4618      	mov	r0, r3
  54:	bd38      	pop	{r3, r4, r5, pc}
  56:	f8b4 1100 	ldrh.w	r1, [r4, #256]	; 0x100
  5a:	29f9      	cmp	r1, #249	; 0xf9
  5c:	d818      	bhi.n	90 <mdns_build_dnssd_domain+0x90>
  5e:	2005      	movs	r0, #5
  60:	1c4a      	adds	r2, r1, #1
  62:	5460      	strb	r0, [r4, r1]
  64:	b292      	uxth	r2, r2
  66:	490f      	ldr	r1, [pc, #60]	; (a4 <mdns_build_dnssd_domain+0xa4>)
  68:	f8a4 2100 	strh.w	r2, [r4, #256]	; 0x100
  6c:	18a5      	adds	r5, r4, r2
  6e:	6808      	ldr	r0, [r1, #0]
  70:	50a0      	str	r0, [r4, r2]
  72:	790a      	ldrb	r2, [r1, #4]
  74:	712a      	strb	r2, [r5, #4]
  76:	f8b4 1100 	ldrh.w	r1, [r4, #256]	; 0x100
  7a:	1d4a      	adds	r2, r1, #5
  7c:	b292      	uxth	r2, r2
  7e:	2aff      	cmp	r2, #255	; 0xff
  80:	f8a4 2100 	strh.w	r2, [r4, #256]	; 0x100
  84:	d804      	bhi.n	90 <mdns_build_dnssd_domain+0x90>
  86:	3106      	adds	r1, #6
  88:	54a3      	strb	r3, [r4, r2]
  8a:	f8a4 1100 	strh.w	r1, [r4, #256]	; 0x100
  8e:	e7e0      	b.n	52 <mdns_build_dnssd_domain+0x52>
  90:	f06f 0305 	mvn.w	r3, #5
  94:	e7dd      	b.n	52 <mdns_build_dnssd_domain+0x52>
  96:	bf00      	nop
  98:	0000000c 	.word	0x0000000c
  9c:	00000000 	.word	0x00000000
  a0:	00000014 	.word	0x00000014
  a4:	00000000 	.word	0x00000000

Disassembly of section .text.mdns_build_service_domain:

00000000 <mdns_build_service_domain>:
   0:	b570      	push	{r4, r5, r6, lr}
   2:	4614      	mov	r4, r2
   4:	b082      	sub	sp, #8
   6:	460e      	mov	r6, r1
   8:	f44f 7282 	mov.w	r2, #260	; 0x104
   c:	2100      	movs	r1, #0
   e:	4605      	mov	r5, r0
  10:	f7ff fffe 	bl	0 <memset>
  14:	b164      	cbz	r4, 30 <mdns_build_service_domain+0x30>
  16:	f506 7182 	add.w	r1, r6, #260	; 0x104
  1a:	4608      	mov	r0, r1
  1c:	9101      	str	r1, [sp, #4]
  1e:	f7ff fffe 	bl	0 <strlen>
  22:	9901      	ldr	r1, [sp, #4]
  24:	b2c2      	uxtb	r2, r0
  26:	4628      	mov	r0, r5
  28:	f7ff fffe 	bl	0 <mdns_build_service_domain>
  2c:	4603      	mov	r3, r0
  2e:	b960      	cbnz	r0, 4a <mdns_build_service_domain+0x4a>
  30:	f506 71a2 	add.w	r1, r6, #324	; 0x144
  34:	4608      	mov	r0, r1
  36:	9101      	str	r1, [sp, #4]
  38:	f7ff fffe 	bl	0 <strlen>
  3c:	9901      	ldr	r1, [sp, #4]
  3e:	b2c2      	uxtb	r2, r0
  40:	4628      	mov	r0, r5
  42:	f7ff fffe 	bl	0 <mdns_build_service_domain>
  46:	4603      	mov	r3, r0
  48:	b110      	cbz	r0, 50 <mdns_build_service_domain+0x50>
  4a:	4618      	mov	r0, r3
  4c:	b002      	add	sp, #8
  4e:	bd70      	pop	{r4, r5, r6, pc}
  50:	f8b6 218c 	ldrh.w	r2, [r6, #396]	; 0x18c
  54:	4b17      	ldr	r3, [pc, #92]	; (b4 <mdns_build_service_domain+0xb4>)
  56:	f853 1022 	ldr.w	r1, [r3, r2, lsl #2]
  5a:	4608      	mov	r0, r1
  5c:	9101      	str	r1, [sp, #4]
  5e:	f7ff fffe 	bl	0 <strlen>
  62:	4602      	mov	r2, r0
  64:	9901      	ldr	r1, [sp, #4]
  66:	4628      	mov	r0, r5
  68:	b2d2      	uxtb	r2, r2
  6a:	f7ff fffe 	bl	0 <mdns_build_service_domain>
  6e:	4603      	mov	r3, r0
  70:	2800      	cmp	r0, #0
  72:	d1ea      	bne.n	4a <mdns_build_service_domain+0x4a>
  74:	f8b5 1100 	ldrh.w	r1, [r5, #256]	; 0x100
  78:	29f9      	cmp	r1, #249	; 0xf9
  7a:	d818      	bhi.n	ae <mdns_build_service_domain+0xae>
  7c:	2005      	movs	r0, #5
  7e:	1c4a      	adds	r2, r1, #1
  80:	5468      	strb	r0, [r5, r1]
  82:	b292      	uxth	r2, r2
  84:	490c      	ldr	r1, [pc, #48]	; (b8 <mdns_build_service_domain+0xb8>)
  86:	f8a5 2100 	strh.w	r2, [r5, #256]	; 0x100
  8a:	18ac      	adds	r4, r5, r2
  8c:	6808      	ldr	r0, [r1, #0]
  8e:	50a8      	str	r0, [r5, r2]
  90:	790a      	ldrb	r2, [r1, #4]
  92:	7122      	strb	r2, [r4, #4]
  94:	f8b5 1100 	ldrh.w	r1, [r5, #256]	; 0x100
  98:	1d4a      	adds	r2, r1, #5
  9a:	b292      	uxth	r2, r2
  9c:	2aff      	cmp	r2, #255	; 0xff
  9e:	f8a5 2100 	strh.w	r2, [r5, #256]	; 0x100
  a2:	d804      	bhi.n	ae <mdns_build_service_domain+0xae>
  a4:	3106      	adds	r1, #6
  a6:	54ab      	strb	r3, [r5, r2]
  a8:	f8a5 1100 	strh.w	r1, [r5, #256]	; 0x100
  ac:	e7cd      	b.n	4a <mdns_build_service_domain+0x4a>
  ae:	f06f 0305 	mvn.w	r3, #5
  b2:	e7ca      	b.n	4a <mdns_build_service_domain+0x4a>
  b4:	00000000 	.word	0x00000000
  b8:	00000000 	.word	0x00000000

Disassembly of section .text.mdns_build_request_domain:

00000000 <mdns_build_request_domain>:
   0:	b570      	push	{r4, r5, r6, lr}
   2:	4615      	mov	r5, r2
   4:	b082      	sub	sp, #8
   6:	460c      	mov	r4, r1
   8:	f44f 7282 	mov.w	r2, #260	; 0x104
   c:	2100      	movs	r1, #0
   e:	4606      	mov	r6, r0
  10:	f7ff fffe 	bl	0 <memset>
  14:	b155      	cbz	r5, 2c <mdns_build_request_domain+0x2c>
  16:	4620      	mov	r0, r4
  18:	f7ff fffe 	bl	0 <strlen>
  1c:	4602      	mov	r2, r0
  1e:	4621      	mov	r1, r4
  20:	4630      	mov	r0, r6
  22:	b2d2      	uxtb	r2, r2
  24:	f7ff fffe 	bl	0 <mdns_build_request_domain>
  28:	4603      	mov	r3, r0
  2a:	b930      	cbnz	r0, 3a <mdns_build_request_domain+0x3a>
  2c:	f104 0140 	add.w	r1, r4, #64	; 0x40
  30:	4630      	mov	r0, r6
  32:	f7ff fffe 	bl	0 <mdns_build_request_domain>
  36:	4603      	mov	r3, r0
  38:	b110      	cbz	r0, 40 <mdns_build_request_domain+0x40>
  3a:	4618      	mov	r0, r3
  3c:	b002      	add	sp, #8
  3e:	bd70      	pop	{r4, r5, r6, pc}
  40:	f8b4 214c 	ldrh.w	r2, [r4, #332]	; 0x14c
  44:	4b17      	ldr	r3, [pc, #92]	; (a4 <mdns_build_request_domain+0xa4>)
  46:	f853 1022 	ldr.w	r1, [r3, r2, lsl #2]
  4a:	4608      	mov	r0, r1
  4c:	9101      	str	r1, [sp, #4]
  4e:	f7ff fffe 	bl	0 <strlen>
  52:	4602      	mov	r2, r0
  54:	9901      	ldr	r1, [sp, #4]
  56:	4630      	mov	r0, r6
  58:	b2d2      	uxtb	r2, r2
  5a:	f7ff fffe 	bl	0 <mdns_build_request_domain>
  5e:	4603      	mov	r3, r0
  60:	2800      	cmp	r0, #0
  62:	d1ea      	bne.n	3a <mdns_build_request_domain+0x3a>
  64:	f8b6 1100 	ldrh.w	r1, [r6, #256]	; 0x100
  68:	29f9      	cmp	r1, #249	; 0xf9
  6a:	d818      	bhi.n	9e <mdns_build_request_domain+0x9e>
  6c:	2005      	movs	r0, #5
  6e:	1c4a      	adds	r2, r1, #1
  70:	5470      	strb	r0, [r6, r1]
  72:	b292      	uxth	r2, r2
  74:	490c      	ldr	r1, [pc, #48]	; (a8 <mdns_build_request_domain+0xa8>)
  76:	f8a6 2100 	strh.w	r2, [r6, #256]	; 0x100
  7a:	18b4      	adds	r4, r6, r2
  7c:	6808      	ldr	r0, [r1, #0]
  7e:	50b0      	str	r0, [r6, r2]
  80:	790a      	ldrb	r2, [r1, #4]
  82:	7122      	strb	r2, [r4, #4]
  84:	f8b6 1100 	ldrh.w	r1, [r6, #256]	; 0x100
  88:	1d4a      	adds	r2, r1, #5
  8a:	b292      	uxth	r2, r2
  8c:	2aff      	cmp	r2, #255	; 0xff
  8e:	f8a6 2100 	strh.w	r2, [r6, #256]	; 0x100
  92:	d804      	bhi.n	9e <mdns_build_request_domain+0x9e>
  94:	3106      	adds	r1, #6
  96:	54b3      	strb	r3, [r6, r2]
  98:	f8a6 1100 	strh.w	r1, [r6, #256]	; 0x100
  9c:	e7cd      	b.n	3a <mdns_build_request_domain+0x3a>
  9e:	f06f 0305 	mvn.w	r3, #5
  a2:	e7ca      	b.n	3a <mdns_build_request_domain+0x3a>
  a4:	00000000 	.word	0x00000000
  a8:	00000000 	.word	0x00000000

Disassembly of section .text.mdns_compress_domain:

00000000 <mdns_compress_domain>:
   0:	b108      	cbz	r0, 6 <mdns_compress_domain+0x6>
   2:	f7ff bffe 	b.w	0 <mdns_compress_domain>
   6:	f8b2 0100 	ldrh.w	r0, [r2, #256]	; 0x100
   a:	4770      	bx	lr

Disassembly of section .text.mdns_write_domain:

00000000 <mdns_write_domain>:
   0:	e92d 43f0 	stmdb	sp!, {r4, r5, r6, r7, r8, r9, lr}
   4:	f891 3102 	ldrb.w	r3, [r1, #258]	; 0x102
   8:	b083      	sub	sp, #12
   a:	460e      	mov	r6, r1
   c:	4605      	mov	r5, r0
   e:	f8b1 7100 	ldrh.w	r7, [r1, #256]	; 0x100
  12:	b12b      	cbz	r3, 20 <mdns_write_domain+0x20>
  14:	2f00      	cmp	r7, #0
  16:	d13a      	bne.n	8e <mdns_write_domain+0x8e>
  18:	2000      	movs	r0, #0
  1a:	b003      	add	sp, #12
  1c:	e8bd 83f0 	ldmia.w	sp!, {r4, r5, r6, r7, r8, r9, pc}
  20:	f100 040c 	add.w	r4, r0, #12
  24:	4698      	mov	r8, r3
  26:	f100 0920 	add.w	r9, r0, #32
  2a:	e008      	b.n	3e <mdns_write_domain+0x3e>
  2c:	f7ff fffe 	bl	0 <mdns_write_domain>
  30:	42b8      	cmp	r0, r7
  32:	d202      	bcs.n	3a <mdns_write_domain+0x3a>
  34:	f8bd 8006 	ldrh.w	r8, [sp, #6]
  38:	4607      	mov	r7, r0
  3a:	454c      	cmp	r4, r9
  3c:	d00e      	beq.n	5c <mdns_write_domain+0x5c>
  3e:	f834 3f02 	ldrh.w	r3, [r4, #2]!
  42:	f8ad 3006 	strh.w	r3, [sp, #6]
  46:	2b00      	cmp	r3, #0
  48:	d0f7      	beq.n	3a <mdns_write_domain+0x3a>
  4a:	6828      	ldr	r0, [r5, #0]
  4c:	4632      	mov	r2, r6
  4e:	f10d 0106 	add.w	r1, sp, #6
  52:	2800      	cmp	r0, #0
  54:	d1ea      	bne.n	2c <mdns_write_domain+0x2c>
  56:	f8b6 0100 	ldrh.w	r0, [r6, #256]	; 0x100
  5a:	e7e9      	b.n	30 <mdns_write_domain+0x30>
  5c:	b9cf      	cbnz	r7, 92 <mdns_write_domain+0x92>
  5e:	f1b8 0f00 	cmp.w	r8, #0
  62:	d0d9      	beq.n	18 <mdns_write_domain+0x18>
  64:	4919      	ldr	r1, [pc, #100]	; (cc <mdns_write_domain+0xcc>)
  66:	2202      	movs	r2, #2
  68:	88ab      	ldrh	r3, [r5, #4]
  6a:	ea48 0101 	orr.w	r1, r8, r1
  6e:	6828      	ldr	r0, [r5, #0]
  70:	ba49      	rev16	r1, r1
  72:	f8ad 1006 	strh.w	r1, [sp, #6]
  76:	f10d 0106 	add.w	r1, sp, #6
  7a:	f7ff fffe 	bl	0 <pbuf_take_at>
  7e:	2800      	cmp	r0, #0
  80:	d1cb      	bne.n	1a <mdns_write_domain+0x1a>
  82:	88ab      	ldrh	r3, [r5, #4]
  84:	3302      	adds	r3, #2
  86:	80ab      	strh	r3, [r5, #4]
  88:	b003      	add	sp, #12
  8a:	e8bd 83f0 	ldmia.w	sp!, {r4, r5, r6, r7, r8, r9, pc}
  8e:	f04f 0800 	mov.w	r8, #0
  92:	88ab      	ldrh	r3, [r5, #4]
  94:	4631      	mov	r1, r6
  96:	463a      	mov	r2, r7
  98:	6828      	ldr	r0, [r5, #0]
  9a:	f7ff fffe 	bl	0 <pbuf_take_at>
  9e:	2800      	cmp	r0, #0
  a0:	d1bb      	bne.n	1a <mdns_write_domain+0x1a>
  a2:	f105 030c 	add.w	r3, r5, #12
  a6:	f833 2f02 	ldrh.w	r2, [r3, #2]!
  aa:	b14a      	cbz	r2, c0 <mdns_write_domain+0xc0>
  ac:	3001      	adds	r0, #1
  ae:	280a      	cmp	r0, #10
  b0:	d1f9      	bne.n	a6 <mdns_write_domain+0xa6>
  b2:	88ab      	ldrh	r3, [r5, #4]
  b4:	441f      	add	r7, r3
  b6:	80af      	strh	r7, [r5, #4]
  b8:	f1b8 0f00 	cmp.w	r8, #0
  bc:	d1d2      	bne.n	64 <mdns_write_domain+0x64>
  be:	e7ab      	b.n	18 <mdns_write_domain+0x18>
  c0:	88ab      	ldrh	r3, [r5, #4]
  c2:	eb05 0040 	add.w	r0, r5, r0, lsl #1
  c6:	81c3      	strh	r3, [r0, #14]
  c8:	e7f4      	b.n	b4 <mdns_write_domain+0xb4>
  ca:	bf00      	nop
  cc:	ffffc000 	.word	0xffffc000
