
build/./libraries/QNEthernet/src/lwip/apps/mdns/mdns.c.o:     file format elf32-littlearm

SYMBOL TABLE:
00000000 l    df *ABS*	00000000 mdns.c
00000000 l    d  .text	00000000 .text
00000000 l    d  .data	00000000 .data
00000000 l    d  .bss	00000000 .bss
00000000 l    d  .text.mdns_add_msg_to_delayed	00000000 .text.mdns_add_msg_to_delayed
00000000 l     F .text.mdns_add_msg_to_delayed	0000005c mdns_add_msg_to_delayed
00000000 l    d  .text.mdns_define_probe_rrs_to_send	00000000 .text.mdns_define_probe_rrs_to_send
00000000 l     F .text.mdns_define_probe_rrs_to_send	0000006c mdns_define_probe_rrs_to_send
00000000 l    d  .text.mdns_read_rr_info	00000000 .text.mdns_read_rr_info
00000000 l     F .text.mdns_read_rr_info	0000006c mdns_read_rr_info
00000000 l    d  .text.mdns_read_answer	00000000 .text.mdns_read_answer
00000000 l     F .text.mdns_read_answer	000000a6 mdns_read_answer
00000000 l    d  .text.check_request	00000000 .text.check_request
00000000 l     F .text.check_request	0000008e check_request
00000000 l    d  .text.mdns_conflict_save_time	00000000 .text.mdns_conflict_save_time
00000000 l     F .text.mdns_conflict_save_time	00000080 mdns_conflict_save_time
00000000 l    d  .text.mdns_read_question	00000000 .text.mdns_read_question
00000000 l     F .text.mdns_read_question	0000004c mdns_read_question
00000000 l    d  .text.mdns_lexicographical_comparison.part.0	00000000 .text.mdns_lexicographical_comparison.part.0
00000000 l     F .text.mdns_lexicographical_comparison.part.0	0000015a mdns_lexicographical_comparison.part.0
00000000 l    d  .text.check_host.part.0	00000000 .text.check_host.part.0
00000000 l     F .text.check_host.part.0	00000080 check_host.part.0
00000000 l    d  .text.check_service.part.0	00000000 .text.check_service.part.0
00000000 l     F .text.check_service.part.0	000000b0 check_service.part.0
00000000 l    d  .text.mdns_parse_pkt_known_answers	00000000 .text.mdns_parse_pkt_known_answers
00000000 l     F .text.mdns_parse_pkt_known_answers	000002b0 mdns_parse_pkt_known_answers
00000000 l    d  .text.mdns_push_answer_to_sorted_list	00000000 .text.mdns_push_answer_to_sorted_list
00000000 l     F .text.mdns_push_answer_to_sorted_list	000000c2 mdns_push_answer_to_sorted_list
00000000 l    d  .text.netif_mdns_data	00000000 .text.netif_mdns_data
00000000 l    d  .text.get_mdns_pcb	00000000 .text.get_mdns_pcb
00000000 l    d  .rodata.mdns_resp_remove_netif.str1.4	00000000 .rodata.mdns_resp_remove_netif.str1.4
00000000 l    d  .text.mdns_resp_remove_netif	00000000 .text.mdns_resp_remove_netif
00000000 l     F .text.mdns_probe_and_announce	000000e8 mdns_probe_and_announce
00000000 l    d  .text.mdns_resp_netif_active	00000000 .text.mdns_resp_netif_active
00000000 l    d  .rodata.mdns_resp_del_service.str1.4	00000000 .rodata.mdns_resp_del_service.str1.4
00000000 l    d  .text.mdns_resp_del_service	00000000 .text.mdns_resp_del_service
00000000 l    d  .rodata.mdns_resp_add_service_txtitem.str1.4	00000000 .rodata.mdns_resp_add_service_txtitem.str1.4
00000000 l    d  .text.mdns_resp_add_service_txtitem	00000000 .text.mdns_resp_add_service_txtitem
00000000 l    d  .rodata.mdns_search_stop.str1.4	00000000 .rodata.mdns_search_stop.str1.4
00000000 l    d  .text.mdns_search_stop	00000000 .text.mdns_search_stop
00000000 l    d  .rodata.mdns_search_service.str1.4	00000000 .rodata.mdns_search_service.str1.4
00000000 l    d  .text.mdns_search_service	00000000 .text.mdns_search_service
00000000 l    d  .text.mdns_resp_announce	00000000 .text.mdns_resp_announce
00000000 l    d  .text.mdns_probe_and_announce	00000000 .text.mdns_probe_and_announce
00000000 l    d  .text.mdns_resp_register_name_result_cb	00000000 .text.mdns_resp_register_name_result_cb
00000000 l    d  .text.mdns_resp_restart_delay	00000000 .text.mdns_resp_restart_delay
00000000 l    d  .text.mdns_resp_rename_netif	00000000 .text.mdns_resp_rename_netif
00000000 l    d  .rodata.mdns_resp_rename_service.str1.4	00000000 .rodata.mdns_resp_rename_service.str1.4
00000000 l    d  .text.mdns_resp_rename_service	00000000 .text.mdns_resp_rename_service
00000000 l    d  .text.mdns_handle_probe_tiebreaking	00000000 .text.mdns_handle_probe_tiebreaking
00000000 l     F .text.mdns_handle_probe_tiebreaking	0000027a mdns_handle_probe_tiebreaking
00000000 l    d  .text.mdns_handle_question	00000000 .text.mdns_handle_question
00000000 l     F .text.mdns_handle_question	00000384 mdns_handle_question
00000000 l    d  .rodata.mdns_handle_tc_question.str1.4	00000000 .rodata.mdns_handle_tc_question.str1.4
00000000 l    d  .text.mdns_handle_tc_question	00000000 .text.mdns_handle_tc_question
00000000 l     F .text.mdns_handle_tc_question	00000098 mdns_handle_tc_question
00000000 l    d  .rodata.mdns_resp_add_service.str1.4	00000000 .rodata.mdns_resp_add_service.str1.4
00000000 l    d  .text.mdns_resp_add_service	00000000 .text.mdns_resp_add_service
00000000 l    d  .rodata.mdns_resp_add_netif.str1.4	00000000 .rodata.mdns_resp_add_netif.str1.4
00000000 l    d  .text.mdns_resp_add_netif	00000000 .text.mdns_resp_add_netif
00000000 l    d  .text.mdns_netif_ext_status_callback	00000000 .text.mdns_netif_ext_status_callback
00000000 l     F .text.mdns_netif_ext_status_callback	00000090 mdns_netif_ext_status_callback
00000000 l    d  .text.mdns_handle_response	00000000 .text.mdns_handle_response
00000000 l     F .text.mdns_handle_response	00000500 mdns_handle_response
00000000 l    d  .text.mdns_recv	00000000 .text.mdns_recv
00000000 l     F .text.mdns_recv	000001bc mdns_recv
00000000 l    d  .text.mdns_resp_restart	00000000 .text.mdns_resp_restart
00000000 l    d  .rodata.mdns_resp_init.str1.4	00000000 .rodata.mdns_resp_init.str1.4
00000000 l    d  .text.mdns_resp_init	00000000 .text.mdns_resp_init
00000000 l    d  .rodata.mdns_get_service_txt_userdata.str1.4	00000000 .rodata.mdns_get_service_txt_userdata.str1.4
00000000 l    d  .text.mdns_get_service_txt_userdata	00000000 .text.mdns_get_service_txt_userdata
00000000 l    d  .bss.mdns_name_result_cb	00000000 .bss.mdns_name_result_cb
00000000 l     O .bss.mdns_name_result_cb	00000004 mdns_name_result_cb
00000000 l    d  .bss.mdns_netif_client_id	00000000 .bss.mdns_netif_client_id
00000000 l     O .bss.mdns_netif_client_id	00000001 mdns_netif_client_id
00000000 l    d  .bss.mdns_pcb	00000000 .bss.mdns_pcb
00000000 l     O .bss.mdns_pcb	00000004 mdns_pcb
00000000 l    d  .bss.mdns_requests	00000000 .bss.mdns_requests
00000000 l     O .bss.mdns_requests	000002a8 mdns_requests
00000000 l    d  .bss.memp_tab_MDNS_PKTS	00000000 .bss.memp_tab_MDNS_PKTS
00000000 l     O .bss.memp_tab_MDNS_PKTS	00000004 memp_tab_MDNS_PKTS
00000000 l    d  .bss.netif_callback	00000000 .bss.netif_callback
00000000 l     O .bss.netif_callback	00000008 netif_callback
00000000 l    d  .bss.pending_tc_questions	00000000 .bss.pending_tc_questions
00000000 l     O .bss.pending_tc_questions	00000004 pending_tc_questions
00000000 l    d  .dmabuffers	00000000 .dmabuffers
00000000 l    d  .rodata.__FUNCTION__.0	00000000 .rodata.__FUNCTION__.0
00000000 l     O .rodata.__FUNCTION__.0	00000018 __FUNCTION__.0
00000000 l    d  .rodata.__FUNCTION__.1	00000000 .rodata.__FUNCTION__.1
00000000 l     O .rodata.__FUNCTION__.1	00000013 __FUNCTION__.1
00000000 l    d  .rodata.__FUNCTION__.2	00000000 .rodata.__FUNCTION__.2
00000000 l     O .rodata.__FUNCTION__.2	0000001e __FUNCTION__.2
00000000 l    d  .rodata.__FUNCTION__.3	00000000 .rodata.__FUNCTION__.3
00000000 l     O .rodata.__FUNCTION__.3	00000019 __FUNCTION__.3
00000000 l    d  .rodata.__FUNCTION__.4	00000000 .rodata.__FUNCTION__.4
00000000 l     O .rodata.__FUNCTION__.4	00000016 __FUNCTION__.4
00000000 l    d  .rodata.__FUNCTION__.5	00000000 .rodata.__FUNCTION__.5
00000000 l     O .rodata.__FUNCTION__.5	00000017 __FUNCTION__.5
00000000 l    d  .rodata.__FUNCTION__.6	00000000 .rodata.__FUNCTION__.6
00000000 l     O .rodata.__FUNCTION__.6	00000017 __FUNCTION__.6
00000000 l    d  .rodata.__FUNCTION__.7	00000000 .rodata.__FUNCTION__.7
00000000 l     O .rodata.__FUNCTION__.7	00000014 __FUNCTION__.7
00000000 l    d  .rodata.memp_MDNS_PKTS	00000000 .rodata.memp_MDNS_PKTS
00000000 l    d  .rodata.v4group	00000000 .rodata.v4group
00000000 l     O .rodata.v4group	00000004 v4group
00000000 l    d  .comment	00000000 .comment
00000000 l    d  .ARM.attributes	00000000 .ARM.attributes
00000000         *UND*	00000000 mdns_readname
00000000         *UND*	00000000 pbuf_copy_partial
00000000         *UND*	00000000 memset
00000000         *UND*	00000000 mdns_build_request_domain
00000000         *UND*	00000000 mdns_domain_eq
00000000         *UND*	00000000 sys_now
00000000         *UND*	00000000 pbuf_get_at
00000000         *UND*	00000000 mdns_domain_debug_print
00000000         *UND*	00000000 mdns_build_host_domain
00000000         *UND*	00000000 mdns_build_reverse_v4_domain
00000000         *UND*	00000000 mdns_build_dnssd_domain
00000000         *UND*	00000000 mdns_build_service_domain
00000000         *UND*	00000000 mdns_prepare_txtdata
00000000         *UND*	00000000 pbuf_memcmp
00000000         *UND*	00000000 memmove
00000000 g     F .text.netif_mdns_data	00000010 netif_mdns_data
00000000 g     F .text.get_mdns_pcb	0000000c get_mdns_pcb
00000000 g     F .text.mdns_resp_remove_netif	000000a4 mdns_resp_remove_netif
00000000         *UND*	00000000 qnethernet_hal_check_core_locking
00000000         *UND*	00000000 sys_untimeout
00000000         *UND*	00000000 mem_free
00000000         *UND*	00000000 igmp_leavegroup_netif
00000000         *UND*	00000000 printf
00000000         *UND*	00000000 fflush
00000000         *UND*	00000000 qnethernet_hal_stdio_flush
00000000         *UND*	00000000 abort
00000000 g     F .text.mdns_resp_netif_active	00000018 mdns_resp_netif_active
00000000 g     F .text.mdns_resp_del_service	00000064 mdns_resp_del_service
00000000 g     F .text.mdns_resp_add_service_txtitem	00000054 mdns_resp_add_service_txtitem
00000000         *UND*	00000000 mdns_domain_add_label
00000000 g     F .text.mdns_search_stop	0000004c mdns_search_stop
00000000 g     F .text.mdns_search_service	000000ec mdns_search_service
00000000         *UND*	00000000 strlen
00000000         *UND*	00000000 strcmp
00000000         *UND*	00000000 mdns_domain_add_string
00000000         *UND*	00000000 memcpy
00000000         *UND*	00000000 mdns_send_request
00000000 g     F .text.mdns_resp_announce	000000a0 mdns_resp_announce
00000000         *UND*	00000000 mdns_send_outpacket
00000000         *UND*	00000000 mdns_start_multicast_timeouts_ipv4
00000000         *UND*	00000000 sys_timeout
00000000 g     F .text.mdns_resp_register_name_result_cb	0000000c mdns_resp_register_name_result_cb
00000000 g     F .text.mdns_resp_restart_delay	00000064 mdns_resp_restart_delay
00000000 g     F .text.mdns_resp_rename_netif	00000060 mdns_resp_rename_netif
00000000 g     F .text.mdns_resp_rename_service	000000a4 mdns_resp_rename_service
00000000         *UND*	00000000 mdns_create_outpacket
00000000         *UND*	00000000 pbuf_free
00000000         *UND*	00000000 qnethernet_hal_rand
00000000         *UND*	00000000 mdns_set_timeout
00000000         *UND*	00000000 mdns_send_unicast_msg_delayed_ipv4
00000000         *UND*	00000000 mdns_send_multicast_msg_delayed_ipv4
00000000         *UND*	00000000 netif_get_by_index
00000000         *UND*	00000000 memp_free_pool
00000000 g     F .text.mdns_resp_add_service	00000128 mdns_resp_add_service
00000000         *UND*	00000000 mem_calloc
00000000 g     F .text.mdns_resp_add_netif	000000f8 mdns_resp_add_netif
00000000         *UND*	00000000 igmp_joingroup_netif
00000000         *UND*	00000000 memcmp
00000000         *UND*	00000000 pbuf_skip
00000000         *UND*	00000000 memp_malloc_pool
00000000         *UND*	00000000 ip_data
00000000 g     F .text.mdns_resp_restart	00000028 mdns_resp_restart
00000000 g     F .text.mdns_resp_init	000000a8 mdns_resp_init
00000000         *UND*	00000000 memp_init_pool
00000000         *UND*	00000000 udp_new_ip_type
00000000         *UND*	00000000 udp_bind
00000000         *UND*	00000000 udp_recv
00000000         *UND*	00000000 netif_alloc_client_data_id
00000000         *UND*	00000000 netif_add_ext_callback
00000000         *UND*	00000000 ip_addr_any
00000000 g     F .text.mdns_get_service_txt_userdata	0000004c mdns_get_service_txt_userdata
00000000 g     O .rodata.memp_MDNS_PKTS	0000000c memp_MDNS_PKTS
00000000 g     O .dmabuffers	000000a0 memp_memory_MDNS_PKTS_base


Contents of section .text.mdns_add_msg_to_delayed:
 0000 30b5827b 01f10e0e 8c7b00f1 130c837c  0..{.....{.....|
 0010 00f11105 22438273 8c7cc27c 23438374  ...."C.s.|.|#C.t
 0020 00f10e03 cc7c2243 c2741ef8 014f13f8  .....|"C.t...O..
 0030 012f2243 ab421a70 1cf8012f 9ef80540  ./"C.B.p.../...@
 0040 42ea0402 8cf80020 efd18b78 83708b7a  B...... ...x.p.z
 0050 83720b88 03800b7b 037330bd           .r.....{.s0.    
Contents of section .text.mdns_define_probe_rrs_to_send:
 0000 194a0023 4ff0100c 10b41278 00eb8202  .J.#O......x....
 0010 d269cb60 8b608b61 81f80ec0 c1e90033  .i.`.`.a.......3
 0020 c1e90433 136c0bb1 81f80fc0 546c1cb1  ...3.l......Tl..
 0030 4ff0100c 81f810c0 946c1cb1 4ff0100c  O........l..O...
 0040 81f811c0 006808b1 01208874 0bb14023  .....h... .t..@#
 0050 0b75536c 0bb14023 4b75936c 0bb14023  .uSl..@#Ku.l..@#
 0060 8b755df8 044b7047 00000000           .u]..KpG....    
Contents of section .text.mdns_read_rr_info:
 0000 30b50d46 04468189 83b02a46 8068fff7  0..F.F....*F.h..
 0010 feff4ff6 ff72a081 904224d0 03460222  ..O..r...B$..F."
 0020 a0680df1 0601fff7 feff0228 02461ad1  .h.........(.F..
 0030 a3890df1 0601bdf8 06000233 40ba9bb2  ...........3@...
 0040 a381a5f8 0401a068 fff7feff 02280ad1  .......h.....(..
 0050 a2890020 bdf80630 02325bba a281a5f8  ... ...0.2[.....
 0060 063103b0 30bd6ff0 0500fae7           .1..0.o.....    
Contents of section .text.mdns_read_answer:
 0000 70b50d46 418a82b0 51bb0446 83681889  p..FA...Q..F.h..
 0010 a3899842 24d31388 13b3013b 28461380  ...B$......;(F..
 0020 4ff48a72 fff7feff 29462046 fff7feff  O..r....)F F....
 0030 064610b1 304602b0 70bdb5f8 0631a068  .F..0F..p....1.h
 0040 c3f30e02 03f40041 a389a5f8 06210422  .......A.....!."
 0050 a5f80811 0deb0201 fff7feff 042804d0  .............(..
 0060 6ff00506 304602b0 70bda389 019a0433  o...0F..p......3
 0070 a06812ba 9bb2a381 c5f80c21 02220deb  .h.........!."..
 0080 0201fff7 feff0228 ead1a289 bdf80230  .......(.......0
 0090 02325bba 92b2a5f8 103112fa 83f3a5f8  .2[......1......
 00a0 1221a381 c6e700bf                    .!......        
Contents of section .text.check_request:
 0000 b1f80631 012b70b5 0c46c2b0 054605d0  ...1.+p..F...F..
 0010 ff2b03d0 00263046 42b070bd 00222946  .+...&0FB.p..")F
 0020 01a8fff7 fefff8b1 00260122 294601a8  .........&.")F..
 0030 fff7feff 0028eed1 01a92046 fff7feff  .....(.... F....
 0040 0028e8d0 b4f80431 a3f1ff02 212bb2fa  .(.....1....!+..
 0050 82f24fea 521217d0 b2b9102b 01d0002a  ..O.R......+...*
 0060 d9d046f0 8006d6e7 01a92046 fff7feff  ..F....... F....
 0070 0028d9d0 b4f80461 ff2e18bf 0c2e0cbf  .(.....a........
 0080 01260026 3601d0e7 46f04006 e5e700bf  .&.&6...F.@.....
Contents of section .text.mdns_conflict_save_time:
 0000 38b51d4b 1b7800eb 8300c469 94f8ce30  8..K.x.....i...0
 0010 94f8cd50 01332435 84f8ce30 fff7feff  ...P.3$5...0....
 0020 44f82500 94f8ce30 94f8cd20 0e2b134b  D.%....0... .+.K
 0030 09d80132 a3fb0213 db08c3eb 0313d31a  ...2............
 0040 84f8cd30 38bd511c 2432a3fb 010354f8  ...08.Q.$2....T.
 0050 2220db08 c3eb0313 cb1a42f2 0f7103f1  " ........B..q..
 0060 240054f8 2000121a 8a42e9d8 012284f8  $.T. ....B..."..
 0070 cd3084f8 cc2038bd 00000000 89888888  .0... 8.........
Contents of section .text.mdns_read_question:
 0000 826838b5 12898389 9a421cd3 438a0446  .h8......B..C..F
 0010 cbb10d46 013b0021 4ff48572 43822846  ...F.;.!O..rC.(F
 0020 fff7feff 29462046 fff7feff 00b138bd  ....)F F......8.
 0030 b5f80631 03f40042 c3f30e03 a5f80821  ...1...B.......!
 0040 a5f80631 38bd6ff0 050038bd           ...18.o...8.    
Contents of section .text.mdns_lexicographical_comparison.part.0:
 0000 2de9f04f 1e461546 b2f80431 adf5037d  -..O.F.F...1...}
 0010 b6f80421 934213d0 0ad80123 8c9a0020  ...!.B.....#... 
 0020 13700df5 037dbde8 f08fae42 3ad0f4d2  .p...}.....B:...
 0030 02230020 8c9a1370 0df5037d bde8f08f  .#. ...p...}....
 0040 212b0746 884632d0 b6f81031 b5f81021  !+.F.F2....1...!
 0050 99469342 28bf9146 b9f1000f 20d04ff0  .F.B(..F.... .O.
 0060 000a01e0 d14517d0 1ffa8af4 b5f81231  .....E.........1
 0070 b8680af1 010ae118 89b2fff7 feffb6f8  .h..............
 0080 12318346 d8f80800 1c44a1b2 fff7feff  .1.F.....D......
 0090 8345e7d0 c1d9cbe7 b5f81021 b6f81031  .E.........!...1
 00a0 9a42b9d1 00238c9a 18461370 b9e74ff0  .B...#...F.p..O.
 00b0 00091ffa 89f4b5f8 1231b868 09f10109  .........1.h....
 00c0 e11889b2 fff7feff b6f81231 8246d8f8  ...........1.F..
 00d0 0800e118 89b2fff7 feff8245 9cd1b9f1  ...........E....
 00e0 060fe6d1 b5f81211 4ff6ff74 b8686a46  ........O..t.hjF
 00f0 063189b2 fff7feff a0422bd0 b6f81211  .1.......B+.....
 0100 41aad8f8 08000631 89b2fff7 feffa042  A......1.......B
 0110 20d06846 fff7feff 41a8fff7 feffbdf8   .hF....A.......
 0120 0462bdf8 00513446 ae4228bf 2c46002c  .b...Q4F.B(.,F.,
 0130 3ff47baf 6b4641aa 1c4402e0 a3423ff4  ?.{.kFA..D...B?.
 0140 74af13f8 010b12f8 011b8842 f6d07ff6  t..........B....
 0150 64af6de7 6ff00500 63e700bf           d.m.o...c...    
Contents of section .text.check_host.part.0:
 0000 b1f80431 0c2bf0b5 0d46c3b0 04460fd0  ...1.+...F...F..
 0010 ff2b0dd0 01ae0027 184b3046 1b7804eb  .+.....'.K0F.x..
 0020 8303d969 fff7feff a8b13846 43b0f0bd  ...i......8FC...
 0030 2368002b eed001ae 21463046 fff7feff  #h.+....!F0F....
 0040 0028e8d1 31462846 fff7feff 003818bf  .(..1F(F.....8..
 0050 01204700 e0e73146 2846fff7 feff0028  . G...1F(F.....(
 0060 e3d02368 002be0d0 b5f80431 012b01d0  ..#h.+.....1.+..
 0070 ff2bdad1 47f00107 d7e700bf 00000000  .+..G...........
Contents of section .text.check_service.part.0:
 0000 70b5c2b0 04460e46 01a8fff7 feff78b1  p....F.F......x.
 0010 00222146 01a80025 fff7feff f0b10122  ."!F...%......."
 0020 214601a8 fff7feff 38b32846 42b070bd  !F......8.(FB.p.
 0030 01a93046 fff7feff 0028e9d0 b6f80451  ..0F.....(.....Q
 0040 00222146 01a8ff2d 18bf0c2d 0cbf0125  ."!F...-...-...%
 0050 00252d01 fff7feff 0028e0d1 01a93046  .%-......(....0F
 0060 fff7feff 0028dad0 b6f80431 0c2b01d0  .....(.....1.+..
 0070 ff2bd4d1 45f02005 d1e701a9 3046fff7  .+..E. .....0F..
 0080 feff0028 d1d0b6f8 0431a3f1 ff02212b  ...(.....1....!+
 0090 b2fa82f2 4fea5212 07d032b9 102b01d0  ....O.R...2..+..
 00a0 002ac2d0 45f08005 bfe745f0 4005f5e7  .*..E.....E.@...
Contents of section .text.mdns_parse_pkt_known_answers:
 0000 aa4b2de9 f04f1b78 adf54d7d 9346ca8a  .K-..O.x..M}.F..
 0010 00eb8303 0d460290 db690193 002a45d0  .....F...i...*E.
 0020 019b01f1 160903f1 480a02e0 eb8a002b  ........H......+
 0030 3cd04a46 87a92846 fff7feff 002836d1  <.JF..(F.....(6.
 0040 87a8fff7 feffbdf8 2033ff2b eed0bdf8  ........ 3.+....
 0050 2233ff2b ead0012b 9bf81240 0fd187a9  "3.+...+...@....
 0060 0298fff7 feff0440 09d0ca9b 3c2b06d9  .......@....<+..
 0070 bdf82033 0c2b00f0 db80e307 4fd4019b  .. 3.+......O...
 0080 0bf11406 03f13c04 78230093 54f8047f  ......<.x#..T...
 0090 2fb1bdf8 2233012b 0dd0ff2b 0bd05445  /..."3.+...+..TE
 00a0 06f10106 f2d1eb8a 002bc2d1 00200df5  .........+... ..
 00b0 4d7dbde8 f08f96f8 008087a9 3846fff7  M}..........8F..
 00c0 feff08ea 000818f0 100300f0 e78041f2  ..............A.
 00d0 941140f6 ca020091 ca999142 dfd9bdf8  ..@........B....
 00e0 20230c2a 7dd018f0 400f2bd1 18f0800f   #.*}...@.+.....
 00f0 d5d03846 fff7feff bdf82c23 b7f80031  ..8F......,#...1
 0100 9342ccd1 3a46bdf8 2e13a868 fff7feff  .B..:F.....h....
 0110 0028c4d1 337803f0 7f033370 bfe7bdf8  .(..3x....3p....
 0120 2c33042b abd1029a bdf82e13 a868fff7  ,3.+.........h..
 0130 feff0028 a3d19bf8 123023f0 01038bf8  ...(.....0#.....
 0140 12309ce7 bdf82e83 02220df1 1201a868  .0.......".....h
 0150 4346fff7 feff0228 a1d1bdf8 1230002b  CF.....(.....0.+
 0160 9dd108f1 02030246 0df11201 a8689bb2  .......F.....h..
 0170 fff7feff 022892d1 bdf81230 002b8ed1  .....(.....0.+..
 0180 08f10403 02460df1 1201a868 9bb2fff7  .....F.....h....
 0190 feff0228 83d1bdf8 1230b7f8 8e215bba  ...(.....0...![.
 01a0 9bb29a42 7ff47baf 08f10601 05aaa868  ...B..{........h
 01b0 89b2fff7 feff0199 074646a8 fff7feff  .........FF.....
 01c0 4ff6ff73 9f423ff4 6aaf46a9 05a8fff7  O..s.B?.j.F.....
 01d0 feff0028 3ff463af 337823f0 40033370  ...(?.c.3x#.@.3p
 01e0 5de705aa bdf82e13 a8680393 fff7feff  ]........h......
 01f0 4ff6ff72 90423ff4 52af039b 002b3bd1  O..r.B?.R....+;.
 0200 18f0200f 3ff44baf 39460122 46a8fff7  .. .?.K.9F."F...
 0210 feff0028 7ff443af 46a905a8 fff7feff  ...(..C.F.......
 0220 00283ff4 3caf3378 23f02003 337036e7  .(?.<.3x#. .3p6.
 0230 bdf82e13 05aaa868 fff7feff 01990646  .......h.......F
 0240 46a8fff7 feff4ff6 ff739e42 3ff417af  F.....O..s.B?...
 0250 00287ff4 14af46a9 05a8fff7 feff0028  .(....F........(
 0260 3ff40daf a2077ff5 0aaf9bf8 123023f0  ?............0#.
 0270 02038bf8 123002e7 00223946 46a8fff7  .....0..."9FF...
 0280 feff0028 bcd146a9 05a8fff7 feff0028  ...(..F........(
 0290 b6d03378 23f01003 3370b1e7 b8f1000f  ..3x#...3p......
 02a0 3ff4fdae 009a5208 16e700bf 00000000  ?.....R.........
Contents of section .text.mdns_push_answer_to_sorted_list:
 0000 2de9f04f 1f46cbb0 0b8bb0f8 0aa0adf8  -..O.F..........
 0010 1230baf1 030f8b89 03934fd8 0d460646  .0........O..F.F
 0020 9346baf1 000f47d0 00240df1 11084ff0  .F....G..$....O.
 0030 010936f8 14300df1 120205a9 2846ab81  ..6..0......(F..
 0040 fff7feff 80bbbdf8 1a21b7f8 06319a42  .........!...1.B
 0050 12d02cd9 02238df8 11307389 5f1ca742  ..,..#...0s._..B
 0060 28dd3a1b 601c06eb 4401a246 520006eb  (.:.`...D..FR...
 0070 4000fff7 feff11e0 3b4605aa 29462846  @.......;F..)F(F
 0080 cdf80080 fff7feff 70b998f8 0030022b  ........p....0.+
 0090 e3d00134 7389a342 cbdc5f1c 039b0020  ...4s..B.._.... 
 00a0 26f81ab0 7781ab81 4bb0bde8 f08f88f8  &...w...K.......
 00b0 0090eee7 a246f1e7 0127efe7 4ff0ff30  .....F...'..O..0
 00c0 f2e700bf                             ....            
Contents of section .text.netif_mdns_data:
 0000 024b1b78 00eb8300 c0697047 00000000  .K.x.....ipG....
Contents of section .text.get_mdns_pcb:
 0000 014b1868 704700bf 00000000           .K.hpG......    
Contents of section .rodata.mdns_resp_remove_netif.str1.4:
 0000 6c696272 61726965 732f514e 45746865  libraries/QNEthe
 0010 726e6574 2f737263 2f6c7769 702f6170  rnet/src/lwip/ap
 0020 70732f6d 646e732f 6d646e73 2e630000  ps/mdns/mdns.c..
 0030 6d646e73 5f726573 705f7265 6d6f7665  mdns_resp_remove
 0040 5f6e6574 69663a20 4e756c6c 20706f69  _netif: Null poi
 0050 6e746572 00000000 41737365 7274696f  nter....Assertio
 0060 6e202225 73222066 61696c65 64206174  n "%s" failed at
 0070 206c696e 65202564 20696e20 25730a00   line %d in %s..
Contents of section .text.mdns_resp_remove_netif:
 0000 2de9f041 0446204a 40f68311 1f48fff7  -..A.F J@....H..
 0010 feff54b3 dff88880 98f80030 04eb8303  ..T........0....
 0020 de69feb1 06f13c05 06f14807 21461848  .i....<...H.!F.H
 0030 fff7feff 55f8040f 08b1fff7 feffbd42  ....U..........B
 0040 f8d11449 2046fff7 feff3046 fff7feff  ...I F....0F....
 0050 98f80030 00220633 104604eb 83046260  ...0.".3.F....b`
 0060 bde8f081 6ff00500 fae7084b 40f68412  ....o......K@...
 0070 09490a48 fff7feff 2046fff7 feff0120  .I.H.... F..... 
 0080 fff7feff fff7feff 00000000 00000000  ................
 0090 00000000 00000000 30000000 58000000  ........0...X...
 00a0 00000000                             ....            
Contents of section .text.mdns_resp_netif_active:
 0000 044b1b78 00eb8300 c0690038 18bf0120  .K.x.....i.8... 
 0010 704700bf 00000000                    pG......        
Contents of section .rodata.mdns_resp_del_service.str1.4:
 0000 6d646e73 5f726573 705f6465 6c5f7365  mdns_resp_del_se
 0010 72766963 653a206e 65746966 20213d20  rvice: netif != 
 0020 4e554c4c 00                          NULL.           
Contents of section .text.mdns_resp_del_service:
 0000 10b50446 b0b1134b 02291b78 00eb8304  ...F...K.).x....
 0010 e3690cd8 b3fa83f4 640943b1 03eb8101  .i......d.C.....
 0020 086c20b1 0c64fff7 feff2046 10bd6ff0  .l ..d.... F..o.
 0030 050010bd 084b40f6 0a220849 0848fff7  .....K@..".I.H..
 0040 feff2046 fff7feff 0120fff7 fefffff7  .. F..... ......
 0050 feff00bf 00000000 00000000 00000000  ................
 0060 58000000                             X...            
Contents of section .rodata.mdns_resp_add_service_txtitem.str1.4:
 0000 6d646e73 5f726573 705f6164 645f7365  mdns_resp_add_se
 0010 72766963 655f7478 74697465 6d3a2073  rvice_txtitem: s
 0020 65727669 63652021 3d204e55 4c4c00    ervice != NULL. 
Contents of section .text.mdns_resp_add_service_txtitem:
 0000 70b50446 0d461646 40f64421 0d4a0e48  p..F.F.F@.D!.J.H
 0010 fff7feff 34b13246 29462046 bde87040  ....4.2F)F F..p@
 0020 fff7febf 084b40f6 45220849 0848fff7  .....K@.E".I.H..
 0030 feff2046 fff7feff 0120fff7 fefffff7  .. F..... ......
 0040 feff00bf 00000000 00000000 00000000  ................
 0050 58000000                             X...            
Contents of section .rodata.mdns_search_stop.str1.4:
 0000 6d646e73 5f736561 7263685f 73746f70  mdns_search_stop
 0010 3a206261 64207265 71756573 745f6964  : bad request_id
 0020 00                                   .               
Contents of section .text.mdns_search_stop:
 0000 012808b5 0bd84ff4 aa720c4b 02fb0033  .(....O..r.K...3
 0010 d3f84421 12b10022 c3f84421 08bd084b  ..D!..."..D!...K
 0020 40f65522 07490848 fff7feff 0020fff7  @.U".I.H..... ..
 0030 feff0120 fff7feff fff7feff 00000000  ... ............
 0040 00000000 00000000 58000000           ........X...    
Contents of section .rodata.mdns_search_service.str1.4:
 0000 5f736572 76696365 732e5f64 6e732d73  _services._dns-s
 0010 6400                                 d.              
Contents of section .text.mdns_search_service:
 0000 2de9f04f 0f4683b0 16469846 054618b1  -..O.F...F.F.F..
 0010 fff7feff 3f2860d8 3846fff7 feff0e9b  ....?(`.8F......
 0020 b3fa83f3 5b09012e 88bf43f0 0103002b  ....[.....C....+
 0030 53d1ff28 51d8dff8 b0a0daf8 444144b1  S..(Q.......DAD.
 0040 daf89822 002a41d0 4ff0ff30 03b0bde8  ...".*A.O..0....
 0050 f08fd146 4ff0400b 01944ff4 aa720021  ...FO.@...O..r.!
 0060 484602fb 04a4fff7 feff0c9b 0c22a4f8  HF..........."..
 0070 4c61c4f8 44310d9b 84f84e21 c4f84831  La..D1....N!..H1
 0080 3eb91749 3846fff7 feff10b9 0122a4f8  >..I8F......."..
 0090 50210aeb 0b003946 fff7feff 55b12846  P!....9F....U.(F
 00a0 fff7feff 3f280246 294628bf 3f224846  ....?(.F)F(.?"HF
 00b0 fff7feff 0e9b4146 019c4846 094a1c70  ......AF..HF.J.p
 00c0 fff7feff 002003b0 bde8f08f 01240af5  ..... .......$..
 00d0 aa794ff4 ca7b0194 bfe76ff0 0500b5e7  .yO..{....o.....
 00e0 00000000 00000000 00000000           ............    
Contents of section .text.mdns_resp_announce:
 0000 10b50446 88b0224a 40f6a421 2148fff7  ...F.."J@..!!H..
 0010 feff5cb1 204b1b78 04eb8303 db692bb1  ..\. K.x.....i+.
 0020 93f84d20 032a01d9 22680ab9 08b010bd  ..M .*.."h......
 0030 00220321 01200592 8df81610 196c0392  .".!. .......l..
 0040 01928df8 0e000292 0492cde9 062211b1  ............."..
 0050 f0228df8 18205a6c 12b1f022 8df81920  ."... Zl..."... 
 0060 9b6c13b1 f0238df8 1a3041f2 e9410b4a  .l...#...0A..A.J
 0070 842301a8 adf80c10 21460292 8df80630  .#......!F.....0
 0080 fff7feff 204608b0 bde81040 fff7febf  .... F.....@....
 0090 00000000 00000000 00000000 e00000fb  ................
Contents of section .text.mdns_probe_and_announce:
 0000 354b30b5 1b7889b0 044600eb 8303dd69  5K0..x...F.....i
 0010 95f84d30 022b20d9 033b012b 1bd895f8  ..M0.+ ..;.+....
 0020 4c204ab9 042385f8 cc2085f8 4d302b4b  L J..#... ..M0+K
 0030 1b680bb1 01219847 2046fff7 feff95f8  .h...!.G F......
 0040 4c300133 dbb2012b 85f84c30 39d94ff4  L0.3...+..L09.O.
 0050 a063a5f8 4c3009b0 30bd0368 abb995f8  .c..L0..0..h....
 0060 4c30022b 0cd81bb1 95f8cc30 012b2dd0  L0.+.......0.+-.
 0070 22461b49 fa2009b0 bde83040 fff7febf  "F.I. ....0@....
 0080 4ff44073 a5f84c30 f2e701a9 fff7feff  O.@s..L0........
 0090 41f2e943 00220846 adf80c30 2146114b  A..C.".F...0!F.K
 00a0 adf80420 0293fff7 feff95f8 4c300028  ... ........L0.(
 00b0 d7d10133 0222dbb2 85f84d20 85f84c30  ...3."....M ..L0
 00c0 cfe72246 06494ff4 7a70d4e7 22460449  .."F.IO.zp.."F.I
 00d0 41f28830 cfe700bf 00000000 00000000  A..0............
 00e0 00000000 e00000fb                    ........        
Contents of section .text.mdns_resp_register_name_result_cb:
 0000 014b1860 704700bf 00000000           .K.`pG......    
Contents of section .text.mdns_resp_restart_delay:
 0000 70b50446 0d46134a 4ff42d61 1248fff7  p..F.F.JO.-a.H..
 0010 feffc4b1 114b1b78 04eb8303 de6996b1  .....K.x.....i..
 0020 21460f48 fff7feff 96f8cc30 4ff48072  !F.H.......0O..r
 0030 0b49012b a6f84c20 224605d0 2846bde8  .I.+..L "F..(F..
 0040 7040fff7 febf70bd 41f28830 bde87040  p@....p.A..0..p@
 0050 fff7febf 00000000 00000000 00000000  ................
 0060 00000000                             ....            
Contents of section .text.mdns_resp_rename_netif:
 0000 f8b50f46 0446134a 40f6ad11 1248fff7  ...F.F.J@....H..
 0010 feff3846 fff7feff c4b13f28 054694bf  ..8F......?(.F..
 0020 00260126 96b90d4b 1b7804eb 8303db69  .&.&...K.x.....i
 0030 63b10246 39461846 fff7feff 0346fa21  c..F9F.F.....F.!
 0040 20465e55 fff7feff 3046f8bd 6ff00500   F^U....0F..o...
 0050 f8bd00bf 00000000 00000000 00000000  ................
Contents of section .rodata.mdns_resp_rename_service.str1.4:
 0000 6d646e73 5f726573 705f7265 6e616d65  mdns_resp_rename
 0010 5f736572 76696365 3a206e65 74696620  _service: netif 
 0020 213d204e 554c4c00                    != NULL.        
Contents of section .text.mdns_resp_rename_service:
 0000 2de9f041 90460646 0c462148 214a40f6  -..A.F.F.F!H!J@.
 0010 2521fff7 feff4046 fff7feff 4eb31e4b  %!....@F....N..K
 0020 1b7806eb 8303da69 b2fa82f3 5b09022c  .x.....i....[..,
 0030 88bf43f0 0103cbb9 3f280746 94bf0025  ..C.....?(.F...%
 0040 01259db9 103452f8 24407cb1 024604f5  .%...4R.$@|..F..
 0050 82703c44 4146fff7 feff3046 fa2184f8  .p<DAF....0F.!..
 0060 0451fff7 feff2846 bde8f081 6ff00500  .Q....(F....o...
 0070 fae7074b 40f62722 08490948 fff7feff  ...K@.'".I.H....
 0080 3046fff7 feff0120 fff7feff fff7feff  0F..... ........
 0090 00000000 00000000 00000000 00000000  ................
 00a0 58000000                             X...            
Contents of section .text.mdns_handle_probe_tiebreaking:
 0000 2de9f04f adf2ec5d 0c460546 0da9fff7  -..O...].F.F....
 0010 feff2422 002114a8 fff7feff 28220021  ..$".!......(".!
 0020 1da8fff7 feff14aa 0da92846 fff7feff  ..........(F....
 0030 002851d1 bdf85820 bdf85630 adf88a20  .(Q...X ..V0... 
 0040 adf88820 bdf85c20 bdf85a10 1498adf8  ... ..\ ..Z.....
 0050 9220adf8 90200c22 1f90adf8 8630adf8  . ... .".....0..
 0060 8430adf8 8e10adf8 8c10adf8 802083b3  .0........... ..
 0070 6aa91da8 fff7feff 50bbb4f8 0c80bdf8  j.......P.......
 0080 8070bdf8 86600ee0 fff7feff 03466aa9  .p...`.......Fj.
 0090 27a8ebb9 bdf8a231 012b01d0 ff2b17d1  '......1.+...+..
 00a0 fff7feff 00bb638a 27a92046 002bebd1  ......c.'. F.+..
 00b0 238aa4f8 0c806382 238badf8 80706383  #.....c.#....pc.
 00c0 bdf88c30 adf88660 adf88e30 002ecfd1  ...0...`...0....
 00d0 1f9808b1 fff7feff 0df2ec5d bde8f08f  ...........]....
 00e0 fff7feff 0028f3d1 638aada9 2046002b  .....(..c... F.+
 00f0 f6d13346 05e0fff7 feff0028 e8d1bdf8  ..3F.......(....
 0100 8630ada9 1da8002b f5d1cde9 0a330c93  .0.....+.....3..
 0110 bdf88e30 1bb30df2 d4410df1 8e021da8  ...0.....A......
 0120 bdf88090 fff7feff 0df2d441 0028cfd1  ...........A.(..
 0130 bdf8ac32 ff2b03d0 bdf8d825 9a42e7d1  ...2.+.....%.B..
 0140 6aa8fff7 feff0028 e2d04a46 0df2d443  j......(..JF...C
 0150 1da90aa8 fff7feff 0028d9d0 b8e70023  .........(.....#
 0160 04f11a09 cde90733 0993638b fbb1f0a9  .......3..c.....
 0170 4a462046 b4f80ca0 fff7feff f0a90028  JF F...........(
 0180 a6d1bdf8 ac32ff2b 03d0bdf8 c4249a42  .....2.+.....$.B
 0190 ebd16aa8 fff7feff 0028e6d0 5246f0ab  ..j......(..RF..
 01a0 214607a8 fff7feff 0028ded0 90e7bdf8  !F.......(......
 01b0 2620bdf8 3210bdf8 8c308a42 0392adf8  & ..2....0.B....
 01c0 8e30238b 04916383 134628bf 0b46002b  .0#...c..F(..F.+
 01d0 4bd00df1 28090596 0df11c0a 04f11a0b  K...(...........
 01e0 09eb4303 1e4639f8 023b0df1 8e020df2  ..C..F9..;......
 01f0 d4411da8 adf88030 fff7feff 00287ff4  .A.....0.....(..
 0200 67af3af8 023b5a46 f0a92046 a381fff7  g.:..;ZF.. F....
 0210 feff0028 7ff45caf bdf8da25 bdf8c634  ...(..\....%...4
 0220 9a420bd0 3ff654af 2846fff7 feff2846  .B..?.T.(F....(F
 0230 4ff47a71 fff7feff 1f984ae7 0df11b03  O.zq......J.....
 0240 0df2d442 21461da8 0093f0ab fff7feff  ...B!F..........
 0250 00287ff4 3daf9df8 1b30022b 3ff438af  .(..=....0.+?.8.
 0260 012be1d0 4e45bed1 059edde9 03329342  .+..NE.......2.B
 0270 3ff41eaf fff42caf d6e700bf           ?.....,.....    
Contents of section .text.mdns_handle_question:
 0000 2de9f04f dff878a3 cfb00e46 05469af8  -..O..x....F.F..
 0010 003001eb 8303db69 009393f8 4d309a1e  .0.....i....M0..
 0020 012a40f2 a980043b 012b00f2 a9809af8  .*@....;.+......
 0030 003006eb 8303d3f8 1c900023 cde90233  .0.........#...3
 0040 cde90433 cde90633 08936b8a 002b39d0  ...3...3..k..+9.
 0050 09ac2146 2846fff7 feff0028 40f09080  ..!F(F.....(@...
 0060 2046fff7 feffb4f8 08311bb1 4ff00103   F.......1..O...
 0070 8df81330 b4f80631 012b00f0 8880ff2b  ...0...1.+.....+
 0080 00f08580 00209df8 1a3009f1 3c0807af  ..... ...0..<...
 0090 09f1480b 18438df8 1a0058f8 040f50b1  ..H..C....X...P.
 00a0 b4f80621 21460023 012a6cd0 ff2a6ad0  ...!!F.#.*l..*j.
 00b0 3a781343 3b70c345 07f10107 edd16b8a  :x.C;p.E......k.
 00c0 002bc6d1 02aa2946 3046fff7 feff0028  .+....)F0F.....(
 00d0 56d12c6a 4cb12146 02aa3046 fff7feff  V.,jL.!F..0F....
 00e0 00284dd1 246a002c f5d19af8 003006eb  .(M.$j.,.....0..
 00f0 8303db69 01936b8b 002b66d0 019b05f1  ...i..k..+f.....
 0100 1a0909ac 03f1480a 02e06b8b 002b5cd0  ......H...k..+\.
 0110 4a462146 2846fff7 feff88bb 2046fff7  JF!F(F...... F..
 0120 feffb4f8 0431ff2b efd0b4f8 0671ff2f  .....1.+.....q./
 0130 ebd0012f 9df81a80 08d12146 3046fff7  .../......!F0F..
 0140 feff18ea 000f18bf 8df81570 019b0df1  ...........p....
 0150 1c0803f1 3c0757f8 040f40b1 b4f80631  ....<.W...@....1
 0160 214698f8 00b0012b 25d0ff2b 23d05745  !F.....+%..+#.WE
 0170 08f10108 efd1c8e7 038a0bb1 838a63b1  ..............c.
 0180 4fb0bde8 f08ffff7 feffc3b2 90e72146  O.............!F
 0190 3046fff7 feffc0b2 75e7038b 002befd0  0F......u....+..
 01a0 838b002b ecd10146 3046fff7 feff009b  ...+...F0F......
 01b0 93f84d30 37e7fff7 feff1bea 000fd6d0  ..M07...........
 01c0 4ff00103 8df81530 d1e79df8 16209df8  O......0..... ..
 01d0 1a309df8 1c001343 9df81720 9df81810  .0.....C... ....
 01e0 03439df8 19401343 9df81d20 13430b43  .C...@.C... .C.C
 01f0 9df81e10 0b432343 c2d08423 ac888df8  .....C#C...#....
 0200 0a3041f2 e9439c42 5ad02b8a 012bb7d1  .0A..C.BZ.+..+..
 0210 b5f80ec0 8df81430 adf808c0 4ff0000c  .......0....O...
 0220 8df812c0 02430a43 12f0300f 01d1012b  .....C.C..0....+
 0230 4bd09df8 15100029 4cd10123 009a92f8  K......)L..#....
 0240 70109df8 132009b1 a2b91146 e88888b9  p.... .....F....
 0250 9df81400 70b90029 6bd05ab9 002b57d0  ....p..)k.Z..+W.
 0260 009c02a9 04f15400 fff7feff 012384f8  ......T......#..
 0270 503085e7 002b35d0 009b93f8 7130002b  P0...+5.....q0.+
 0280 7ff47eaf 009a02a9 2b686424 02f17400  ..~.....+hd$..t.
 0290 9367ab88 1546a2f8 7c30fff7 fefffff7  .g...F..|0......
 02a0 feff3349 024605f1 71033046 a1fb0251  ..3I.F..q.0F...Q
 02b0 490904fb 11212f4a 1431fff7 feff5fe7  I....!/J.1...._.
 02c0 01238df8 12302b8a ace79df8 1530002b  .#...0+......0.+
 02d0 b4d01946 9df81320 6ab1009b 93f87030  ...F... j.....p0
 02e0 002bb3d0 2b683146 02a8adf8 10400393  .+..+h1F.....@..
 02f0 fff7feff 44e7009b 93f85230 003b18bf  ....D.....R0.;..
 0300 0123a3e7 009b93f8 5130002b 7ff438af  .#......Q0.+..8.
 0310 194a41f2 e9433146 02a80392 adf81030  .JA..C1F.......0
 0320 fff7feff 00287ff4 2baf3046 fff7feff  .....(..+.0F....
 0330 26e7002b e6d0009b 93f85130 002b7ff4  &..+......Q0.+..
 0340 1faf009c 02a904f1 5400fff7 fefffff7  ........T.......
 0350 feff6421 024604f1 50033046 b2fbf1f4  ..d!.F..P.0F....
 0360 04fb1121 054a1431 fff7feff 08e700bf  ...!.J.1........
 0370 1f85eb51 00000000 e00000fb 00000000  ...Q............
 0380 00000000                             ....            
Contents of section .rodata.mdns_handle_tc_question.str1.4:
 0000 706b7420 6e6f7420 666f756e 6420696e  pkt not found in
 0010 2070656e 64696e67 5f74635f 71756573   pending_tc_ques
 0020 74696f6e 73206c69 737400             tions list.     
Contents of section .text.mdns_handle_tc_question:
 0000 836870b5 0546d87b fff7feff 01462846  .hp..F.{.....F(F
 0010 fff7feff 1b4b1c68 ac422fd0 2cb1636a  .....K.h.B/.,.cj
 0020 ab4211d0 1c46002c f9d1174b 40f2b662  .B...F.,...K@..b
 0030 16491748 fff7feff 2046fff7 feff0120  .I.H.... F..... 
 0040 fff7feff fff7feff 6b6a6362 2c6a64b1  ........kjcb,jd.
 0050 104e236a a0682b62 fff7feff 21463046  .N#j.h+b....!F0F
 0060 fff7feff 2c6a002c f3d1a868 fff7feff  ....,j.,...h....
 0070 29460848 bde87040 fff7febf 6a6a1a60  )F.H..p@....jj.`
 0080 e4e700bf 00000000 00000000 00000000  ................
 0090 58000000 00000000                    X.......        
Contents of section .rodata.mdns_resp_add_service.str1.4:
 0000 6d646e73 5f726573 705f6164 645f7365  mdns_resp_add_se
 0010 72766963 653a206e 65746966 20213d20  rvice: netif != 
 0020 4e554c4c 00                          NULL.           
Contents of section .text.mdns_resp_add_service:
 0000 2de9f84f 06460f46 904640f6 dd11404a  -..O.F.F.F@...@J
 0010 9a464048 bdf828b0 fff7feff 002e67d0  .F@H..(.......g.
 0020 3d4b1b78 06eb8303 d3f81c90 b9f1000f  =K.x............
 0030 5bd03846 fff7feff 3f2856d8 4046fff7  [.8F....?(V.@F..
 0040 feffbaf1 010f50d8 3f284ed8 d9f84050  ......P.?(N...@P
 0050 5db1d9f8 44303bb1 d9f84830 002b42d0  ]...D0;...H0.+B.
 0060 4ff0ff30 bde8f88f 01254ff4 c8710120  O..0.....%O..q. 
 0070 fff7feff 04460028 f2d03846 fff7feff  .....F.(..8F....
 0080 3f280246 394628bf 3f2204f5 8270fff7  ?(.F9F(.?"...p..
 0090 feff4046 fff7feff 3f280246 414628bf  ..@F....?(.FAF(.
 00a0 3f2204f5 a270fff7 feff0b9b a4f88ca1  ?"...p..........
 00b0 c4f88431 0c9ba4f8 8eb1c4f8 883105f1  ...1.........1..
 00c0 100349f8 2340fff7 feff144b 0146fa22  ..I.#@.....K.F."
 00d0 3046a3fb 01431b09 02fb1311 fff7feff  0F...C..........
 00e0 68b2bde8 f88f0225 bfe76ff0 0500b9e7  h......%..o.....
 00f0 084b40f6 de120a49 0a48fff7 feff3046  .K@....I.H....0F
 0100 fff7feff 0120fff7 fefffff7 feff00bf  ..... ..........
 0110 00000000 00000000 00000000 d34d6210  .............Mb.
 0120 00000000 58000000                    ....X...        
Contents of section .rodata.mdns_resp_add_netif.str1.4:
 0000 6d646e73 5f726573 705f6164 645f6e65  mdns_resp_add_ne
 0010 7469663a 20446f75 626c6520 61646400  tif: Double add.
Contents of section .text.mdns_resp_add_netif:
 0000 2de9f041 05460e46 334a40f6 45113348  -..A.F.F3J@.E.3H
 0010 fff7feff 002d49d0 3046fff7 feff3f28  .....-I.0F....?(
 0020 44d82f4f 3b7805eb 8303d3f8 1c80b8f1  D./O;x..........
 0030 000f41d1 d0210120 fff7feff 0446c0b3  ..A..!. .....F..
 0040 3b7805eb 8303d861 3046fff7 feff3f28  ;x.....a0F....?(
 0050 02463146 28bf3f22 2046fff7 feff41f2  .F1F(.?" F....A.
 0060 e9432049 2846a4f8 5c301f4b a365fff7  .C I(F..\0.K.e..
 0070 feff0646 78b9fff7 feff1c4b 0146fa22  ...Fx......K.F."
 0080 2846a3fb 01431b09 02fb1311 fff7feff  (F...C..........
 0090 3046bde8 f0812046 fff7feff 3b783046  0F.... F....;x0F
 00a0 05eb8303 c3f81c80 bde8f081 6ff00506  ............o...
 00b0 eee74ff0 ff36ebe7 084b40f6 49120c49  ..O..6...K@.I..I
 00c0 0c48fff7 feff0020 fff7feff 0120fff7  .H..... ..... ..
 00d0 fefffff7 feff00bf 00000000 00000000  ................
 00e0 00000000 00000000 e00000fb d34d6210  .............Mb.
 00f0 00000000 58000000                    ....X...        
Contents of section .text.mdns_netif_ext_status_callback:
 0000 214b1b78 00eb8303 db69002b 3ad070b5  !K.x.....i.+:.p.
 0010 15460a07 06460c46 11d52b78 1bb914f4  .F...F.F..+x....
 0020 7c7f20d1 70bdfff7 feff184b fa21a3fb  |. .p......K.!..
 0030 00231b09 01fb1301 3046fff7 feff6307  .#......0F....c.
 0040 edd52b78 002bead0 fff7feff 0f4bfa21  ..+x.+.......K.!
 0050 a3fb0023 1b0901fb 13013046 fff7feff  ...#......0F....
 0060 14f47c7f ded0fff7 feff084b 0146fa22  ..|........K.F."
 0070 3046a3fb 01431b09 bde87040 02fb1311  0F...C....p@....
 0080 fff7febf 704700bf 00000000 d34d6210  ....pG.......Mb.
Contents of section .text.mdns_handle_response:
 0000 2de9f04f b04b0546 41f2e942 08462ded  -..O.K.FA..B.F-.
 0010 028badf2 4c4d1b78 049100eb 8303a988  ....LM.x........
 0020 df699142 24d16e8a 46b3dff8 ac82cdac  .i.B$.n.F.......
 0030 08f5aa79 16e0d8f8 443133b1 21464046  ...y....D13.!F@F
 0040 fff7feff 002840f0 9881d8f8 983233b1  .....(@......23.
 0050 21464846 fff7feff 002840f0 90810026  !FHF.....(@....&
 0060 6b8a5bb1 21462846 fff7feff 0028e2d0  k.[.!F(F.....(..
 0070 0df24c4d bdec028b bde8f08f 6a8beb8a  ..LM........j...
 0080 1344ea8b 13449bb2 adf81c30 002b00f0  .D...D.....0.+..
 0090 b7800123 cdacdff8 40b20393 02973fe0  ...#....@.....?.
 00a0 b6f84021 214606f1 4000fff7 feff0028  ..@!!F..@......(
 00b0 5cd1d6f8 44312bb3 b8f10c0f 2cd14ff0  \...D1+.....,.O.
 00c0 0308b4f8 121149aa a868fff7 feff8246  ......I..h.....F
 00d0 0028cdd0 b4f80431 0c2b00f0 9b80212b  .(.....1.+....!+
 00e0 00f09880 41682046 bdf82431 d6f84821  ....Ah F..$1..H!
 00f0 19444346 0092b4f8 1021d6f8 4471b847  .DCF.....!..Dq.G
 0100 00230393 029b93f8 4d309a1e 012a49d9  .#......M0...*I.
 0110 043b012b 40f2e280 bdf81c30 002b6fd0  .;.+@......0.+o.
 0120 07aa2146 2846fff7 feff0028 a0d12046  ..!F(F.....(.. F
 0130 fff7feff b4f80481 b8f1ff0f ecd0b4f8  ................
 0140 0631012b e8d18eb1 b6f85031 002ba7d1  .1.+......P1.+..
 0150 d6f84431 002bd5d0 bdf81c80 039bb8fa  ..D1.+..........
 0160 88f84fea 581843ea 4808aae7 dbf84431  ..O.X.C.H.....D1
 0170 33b12146 5846fff7 feff0028 40f04081  3.!FXF.....(@.@.
 0180 dbf89862 002ebdd0 21465048 fff7feff  ...b....!FPH....
 0190 002840f0 4481029b 064693f8 4d309a1e  .(@.D....F..M0..
 01a0 012ab5d8 0df50a79 02994846 fff7feff  .*.....y..HF....
 01b0 80460028 70d0029b 08ee104a 37464c46  .F.(p......J7FLF
 01c0 03f13c0a 4ff00008 99465646 56f8041f  ..<.O....FVFV...
 01d0 01222046 21b1fff7 feff8246 002841d0  ." F!......F.(A.
 01e0 08f10108 5ffa88f8 b8f1030f eed1bdf8  ...._...........
 01f0 1c303e46 18ee104a cdf80890 002b8fd1  .0>F...J.....+..
 0200 0023eb82 6b83eb83 0df24c4d bdec028b  .#..k.....LM....
 0210 bde8f08f 212bb4f8 12110df2 2e22a868  ....!+.......".h
 0220 0cbf0623 00230df5 0a791944 039389b2  ...#.#...y.D....
 0230 fff7feff 4ff6ff72 039b9042 00f0b280  ....O..r...B....
 0240 b4f80431 212b00f0 9c80b9f8 06210df2  ...1!+.......!..
 0250 2e21d6f8 48014346 00902046 d6f84471  .!..H.CF.. F..Dq
 0260 b8474de7 214618ee 100afff7 feff0028  .GM.!F.........(
 0270 b6d0049c 2046fff7 feff2146 1448fff7  .... F....!F.H..
 0280 feff144b 1b68002b bad008f1 01025146  ...K.h.+......QF
 0290 204652b2 9847b3e7 49462046 fff7feff   FR..G..IF F....
 02a0 002888d0 049c2046 fff7feff 21460848  .(.... F....!F.H
 02b0 fff7feff 074b1b68 002ba1d0 42464146  .....K.h.+..BFAF
 02c0 20469847 9ce700bf 00000000 54010000   F.G........T...
 02d0 00000000 00000000 00000000 029908a8  ................
 02e0 fff7feff 00286ed0 00230593 029fb146  .....(n..#.....F
 02f0 4ff00108 07f13c0a 5af8046f 2eb10122  O.....<.Z..o..."
 0300 314608a8 fff7feff 88b1b8f1 030f20d0  1F............ .
 0310 08f10108 5af8046f 5ffa88f8 002ef4d0  ....Z..o_.......
 0320 01223146 08a8fff7 feff0028 edd108a9  ."1F.......(....
 0330 2046fff7 feff0028 e7d0b4f8 0431212b   F.....(.....1!+
 0340 4fd0102b 6dd0b8f1 030f08d0 01230593  O..+m........#..
 0350 dee7059b 4e460297 002b3ff4 ddaefff7  ....NF...+?.....
 0360 feff654b 0246fa21 0498a3fb 02431b09  ..eK.F.!.....C..
 0370 01fb1321 fff7feff 42e74646 70e64e46  ...!....B.FFp.NF
 0380 6ee6daf8 0430bdf8 2411b9f8 06215858  n....0..$....!XX
 0390 0b440632 4946c9f8 00009b88 92b2a9f8  .D.2IF..........
 03a0 043056e7 b4f81021 0df22e20 bdf82411  .0V....!... ..$.
 03b0 d21a0b44 daf80410 92b21944 a9f80621  ...D.......D...!
 03c0 fff7feff 3ce708a9 2046fff7 feff0028  ....<... F.....(
 03d0 8ad0b4f8 04a1baf1 010f36d0 01230593  ..........6..#..
 03e0 84e7b4f8 12310222 0df11e01 a8680293  .....1.".....h..
 03f0 fff7feff 02280246 2ed00123 059384e7  .....(.F...#....
 0400 5e46d6f8 4431002b 3ff47cae b6f85031  ^F..D1.+?.|...P1
 0410 bdf81c20 002b68d0 b4f80481 4ce6374e  ... .+h.....L.7N
 0420 efe73046 fff7feff b4f81021 b6f80031  ..0F.......!...1
 0430 934288d1 3246b4f8 1211a868 fff7feff  .B..2F.....h....
 0440 031e18bf 01230593 5fe7b4f8 1031042b  .....#.._....1.+
 0450 40d0cdf8 14a049e7 bdf81e30 002bccd1  @.....I....0.+..
 0460 029b0df1 1e01a868 02339bb2 fff7feff  .......h.3......
 0470 02280246 c1d1bdf8 1e30002b bdd1029b  .(.F.....0.+....
 0480 0df11e01 a8680433 9bb2fff7 feff0228  .....h.3.......(
 0490 b3d1bdf8 1e30b6f8 8e215bba 9bb29a42  .....0...![....B
 04a0 abd10299 49aaa868 063189b2 fff7feff  ....I..h.1......
 04b0 39460646 8aa8fff7 feff4ff6 ff739e42  9F.F......O..s.B
 04c0 9bd08aa9 49a8fff7 feffb0fa 80f35b09  ....I.........[.
 04d0 05931ae7 049ab4f8 1211a868 fff7feff  ...........h....
 04e0 031e18bf 01230593 00e7b2fa 82f2039b  .....#..........
 04f0 520943ea 4208e4e5 d34d6210 54010000  R.C.B....Mb.T...
Contents of section .text.mdns_recv:
 0000 2de9f043 66498fb0 664f1446 09787e68  -..CfI..fO.F.x~h
 0010 bdf85880 06eb8101 ca69002a 56d01d46  ..X......i.*V..F
 0020 0c220023 01a92046 fff7feff 0b284dd9  .".#.. F.....(M.
 0030 9df80690 19f0780f c9f3c301 46d12422  ......x.....F.$"
 0040 05a8fff7 feffbdf8 0c10bdf8 043049ba  .............0I.
 0050 28685bba 544dadf8 2a10adf8 2810bdf8  (h[.TM..*...(...
 0060 0e10adf8 1e3049ba bdf80830 adf81480  .....0I....0....
 0070 5bbaadf8 2e10adf8 2c100c21 9ab2adf8  [.......,..!....
 0080 2230adf8 2030adf8 1c10bdf8 0a307969  "0.. 0.......0yi
 0090 5bba0694 a9420490 adf82630 adf82430  [....B....&0..$0
 00a0 9bb208d0 31683d69 4d400121 adf81610  ....1h=iM@.!....
 00b0 71680d42 0ad119f0 800f6cd1 62b119f0  qh.B......l.b...
 00c0 020f39d1 314604a8 fff7feff 2046fff7  ..9.1F...... F..
 00d0 feff0fb0 bde8f083 002bf3d0 334b1d68  .........+..3K.h
 00e0 1db9efe7 6d6a002d ecd0ab88 4345f9d1  ....mj.-....CE..
 00f0 2b688342 f6d12e48 fff7feff 84460028  +h.B...H.....F.(
 0100 e4d004af 66460df1 300e3c46 10361037  ....fF..0.<F.6.7
 0110 0fcc7445 46f8100c 46f80c1c 46f8082c  ..tEF...F...F..,
 0120 46f8043c f1d103cf 30607160 2b6accf8  F..<....0`q`+j..
 0130 2030c5f8 20c0cce7 1d48fff7 feff0746   0.. ....H.....F
 0140 0028c3d0 04ae0546 0df1300c 34461035  .(.....F..0.4F.5
 0150 10360fcc 644545f8 100c45f8 0c1c45f8  .6..dEE...E...E.
 0160 082c45f8 043cf1d1 104b6424 03ce6960  .,E..<...Kd$..i`
 0170 28601a68 1f607a62 fff7feff 0d4b3a46  (`.h.`zb.....K:F
 0180 0d49a3fb 00535b09 04fb1300 00f5c870  .I...S[........p
 0190 fff7feff 9de73146 04a8fff7 feff95e7  ......1F........
 01a0 00000000 00000000 e00000fb 00000000  ................
 01b0 00000000 1f85eb51 00000000           .......Q....    
Contents of section .text.mdns_resp_restart:
 0000 10b50446 fff7feff 064b0146 2046fa22  ...F.....K.F F."
 0010 a3fb0143 1b09bde8 104002fb 1311fff7  ...C.....@......
 0020 febf00bf d34d6210                    .....Mb.        
Contents of section .rodata.mdns_resp_init.str1.4:
 0000 4661696c 65642074 6f20616c 6c6f6361  Failed to alloca
 0010 74652070 63620000 4661696c 65642074  te pcb..Failed t
 0020 6f206269 6e642070 636200             o bind pcb.     
Contents of section .text.mdns_resp_init:
 0000 38b54ff4 2a720021 1b48fff7 feff1b4d  8.O.*r.!.H.....M
 0010 1b48fff7 feff2e20 fff7feff 2860b8b1  .H..... ....(`..
 0020 ff2341f2 e9421749 4377fff7 feff0246  .#A..B.ICw.....F
 0030 e8b91549 2868fff7 fefffff7 feff134b  ...I(h.........K
 0040 02461349 13481a70 bde83840 fff7febf  .F.I.H.p..8@....
 0050 114b40f6 05321149 1148fff7 feff0020  .K@..2.I.H..... 
 0060 fff7feff 0120fff7 fefffff7 feff0a4b  ..... .........K
 0070 40f60d32 0b49efe7 00000000 00000000  @..2.I..........
 0080 00000000 00000000 00000000 00000000  ................
 0090 00000000 00000000 00000000 00000000  ................
 00a0 58000000 18000000                    X.......        
Contents of section .rodata.mdns_get_service_txt_userdata.str1.4:
 0000 6d646e73 5f676574 5f736572 76696365  mdns_get_service
 0010 5f747874 5f757365 72646174 613a2069  _txt_userdata: i
 0020 6e646578 206f7574 206f6620 72616e67  ndex out of rang
 0030 6500                                 e.              
Contents of section .text.mdns_get_service_txt_userdata:
 0000 08b50e4b 02291b78 00eb8300 c36906dc  ...K.).x.....i..
 0010 103153f8 210008b1 d0f88801 08bd084b  .1S.!..........K
 0020 40f62232 07490848 fff7feff 0020fff7  @."2.I.H..... ..
 0030 feff0120 fff7feff fff7feff 00000000  ... ............
 0040 00000000 00000000 58000000           ........X...    
Contents of section .dmabuffers:
 0000 00000000 00000000 00000000 00000000  ................
 0010 00000000 00000000 00000000 00000000  ................
 0020 00000000 00000000 00000000 00000000  ................
 0030 00000000 00000000 00000000 00000000  ................
 0040 00000000 00000000 00000000 00000000  ................
 0050 00000000 00000000 00000000 00000000  ................
 0060 00000000 00000000 00000000 00000000  ................
 0070 00000000 00000000 00000000 00000000  ................
 0080 00000000 00000000 00000000 00000000  ................
 0090 00000000 00000000 00000000 00000000  ................
Contents of section .rodata.__FUNCTION__.0:
 0000 6d646e73 5f726573 705f7265 73746172  mdns_resp_restar
 0010 745f6465 6c617900                    t_delay.        
Contents of section .rodata.__FUNCTION__.1:
 0000 6d646e73 5f726573 705f616e 6e6f756e  mdns_resp_announ
 0010 636500                               ce.             
Contents of section .rodata.__FUNCTION__.2:
 0000 6d646e73 5f726573 705f6164 645f7365  mdns_resp_add_se
 0010 72766963 655f7478 74697465 6d00      rvice_txtitem.  
Contents of section .rodata.__FUNCTION__.3:
 0000 6d646e73 5f726573 705f7265 6e616d65  mdns_resp_rename
 0010 5f736572 76696365 00                 _service.       
Contents of section .rodata.__FUNCTION__.4:
 0000 6d646e73 5f726573 705f6164 645f7365  mdns_resp_add_se
 0010 72766963 6500                        rvice.          
Contents of section .rodata.__FUNCTION__.5:
 0000 6d646e73 5f726573 705f7265 6e616d65  mdns_resp_rename
 0010 5f6e6574 696600                      _netif.         
Contents of section .rodata.__FUNCTION__.6:
 0000 6d646e73 5f726573 705f7265 6d6f7665  mdns_resp_remove
 0010 5f6e6574 696600                      _netif.         
Contents of section .rodata.__FUNCTION__.7:
 0000 6d646e73 5f726573 705f6164 645f6e65  mdns_resp_add_ne
 0010 74696600                             tif.            
Contents of section .rodata.memp_MDNS_PKTS:
 0000 28000400 00000000 00000000           (...........    
Contents of section .rodata.v4group:
 0000 e00000fb                             ....            
Contents of section .comment:
 0000 00474343 3a202841 726d2047 4e552054  .GCC: (Arm GNU T
 0010 6f6f6c63 6861696e 2031312e 332e5265  oolchain 11.3.Re
 0020 6c312920 31312e33 2e312032 30323230  l1) 11.3.1 20220
 0030 37313200                             712.            
Contents of section .ARM.attributes:
 0000 41310000 00616561 62690001 27000000  A1...aeabi..'...
 0010 0537452d 4d00060d 074d0902 0a081204  .7E-M....M......
 0020 14011501 17031801 19011a01 1c011e02  ................
 0030 2201                                 ".              

Disassembly of section .text.mdns_add_msg_to_delayed:

00000000 <mdns_add_msg_to_delayed>:
   0:	b530      	push	{r4, r5, lr}
   2:	7b82      	ldrb	r2, [r0, #14]
   4:	f101 0e0e 	add.w	lr, r1, #14
   8:	7b8c      	ldrb	r4, [r1, #14]
   a:	f100 0c13 	add.w	ip, r0, #19
   e:	7c83      	ldrb	r3, [r0, #18]
  10:	f100 0511 	add.w	r5, r0, #17
  14:	4322      	orrs	r2, r4
  16:	7382      	strb	r2, [r0, #14]
  18:	7c8c      	ldrb	r4, [r1, #18]
  1a:	7cc2      	ldrb	r2, [r0, #19]
  1c:	4323      	orrs	r3, r4
  1e:	7483      	strb	r3, [r0, #18]
  20:	f100 030e 	add.w	r3, r0, #14
  24:	7ccc      	ldrb	r4, [r1, #19]
  26:	4322      	orrs	r2, r4
  28:	74c2      	strb	r2, [r0, #19]
  2a:	f81e 4f01 	ldrb.w	r4, [lr, #1]!
  2e:	f813 2f01 	ldrb.w	r2, [r3, #1]!
  32:	4322      	orrs	r2, r4
  34:	42ab      	cmp	r3, r5
  36:	701a      	strb	r2, [r3, #0]
  38:	f81c 2f01 	ldrb.w	r2, [ip, #1]!
  3c:	f89e 4005 	ldrb.w	r4, [lr, #5]
  40:	ea42 0204 	orr.w	r2, r2, r4
  44:	f88c 2000 	strb.w	r2, [ip]
  48:	d1ef      	bne.n	2a <mdns_add_msg_to_delayed+0x2a>
  4a:	788b      	ldrb	r3, [r1, #2]
  4c:	7083      	strb	r3, [r0, #2]
  4e:	7a8b      	ldrb	r3, [r1, #10]
  50:	7283      	strb	r3, [r0, #10]
  52:	880b      	ldrh	r3, [r1, #0]
  54:	8003      	strh	r3, [r0, #0]
  56:	7b0b      	ldrb	r3, [r1, #12]
  58:	7303      	strb	r3, [r0, #12]
  5a:	bd30      	pop	{r4, r5, pc}

Disassembly of section .text.mdns_define_probe_rrs_to_send:

00000000 <mdns_define_probe_rrs_to_send>:
   0:	4a19      	ldr	r2, [pc, #100]	; (68 <mdns_define_probe_rrs_to_send+0x68>)
   2:	2300      	movs	r3, #0
   4:	f04f 0c10 	mov.w	ip, #16
   8:	b410      	push	{r4}
   a:	7812      	ldrb	r2, [r2, #0]
   c:	eb00 0282 	add.w	r2, r0, r2, lsl #2
  10:	69d2      	ldr	r2, [r2, #28]
  12:	60cb      	str	r3, [r1, #12]
  14:	608b      	str	r3, [r1, #8]
  16:	618b      	str	r3, [r1, #24]
  18:	f881 c00e 	strb.w	ip, [r1, #14]
  1c:	e9c1 3300 	strd	r3, r3, [r1]
  20:	e9c1 3304 	strd	r3, r3, [r1, #16]
  24:	6c13      	ldr	r3, [r2, #64]	; 0x40
  26:	b10b      	cbz	r3, 2c <mdns_define_probe_rrs_to_send+0x2c>
  28:	f881 c00f 	strb.w	ip, [r1, #15]
  2c:	6c54      	ldr	r4, [r2, #68]	; 0x44
  2e:	b11c      	cbz	r4, 38 <mdns_define_probe_rrs_to_send+0x38>
  30:	f04f 0c10 	mov.w	ip, #16
  34:	f881 c010 	strb.w	ip, [r1, #16]
  38:	6c94      	ldr	r4, [r2, #72]	; 0x48
  3a:	b11c      	cbz	r4, 44 <mdns_define_probe_rrs_to_send+0x44>
  3c:	f04f 0c10 	mov.w	ip, #16
  40:	f881 c011 	strb.w	ip, [r1, #17]
  44:	6800      	ldr	r0, [r0, #0]
  46:	b108      	cbz	r0, 4c <mdns_define_probe_rrs_to_send+0x4c>
  48:	2001      	movs	r0, #1
  4a:	7488      	strb	r0, [r1, #18]
  4c:	b10b      	cbz	r3, 52 <mdns_define_probe_rrs_to_send+0x52>
  4e:	2340      	movs	r3, #64	; 0x40
  50:	750b      	strb	r3, [r1, #20]
  52:	6c53      	ldr	r3, [r2, #68]	; 0x44
  54:	b10b      	cbz	r3, 5a <mdns_define_probe_rrs_to_send+0x5a>
  56:	2340      	movs	r3, #64	; 0x40
  58:	754b      	strb	r3, [r1, #21]
  5a:	6c93      	ldr	r3, [r2, #72]	; 0x48
  5c:	b10b      	cbz	r3, 62 <mdns_define_probe_rrs_to_send+0x62>
  5e:	2340      	movs	r3, #64	; 0x40
  60:	758b      	strb	r3, [r1, #22]
  62:	f85d 4b04 	ldr.w	r4, [sp], #4
  66:	4770      	bx	lr
  68:	00000000 	.word	0x00000000

Disassembly of section .text.mdns_read_rr_info:

00000000 <mdns_read_rr_info>:
   0:	b530      	push	{r4, r5, lr}
   2:	460d      	mov	r5, r1
   4:	4604      	mov	r4, r0
   6:	8981      	ldrh	r1, [r0, #12]
   8:	b083      	sub	sp, #12
   a:	462a      	mov	r2, r5
   c:	6880      	ldr	r0, [r0, #8]
   e:	f7ff fffe 	bl	0 <mdns_readname>
  12:	f64f 72ff 	movw	r2, #65535	; 0xffff
  16:	81a0      	strh	r0, [r4, #12]
  18:	4290      	cmp	r0, r2
  1a:	d024      	beq.n	66 <mdns_read_rr_info+0x66>
  1c:	4603      	mov	r3, r0
  1e:	2202      	movs	r2, #2
  20:	68a0      	ldr	r0, [r4, #8]
  22:	f10d 0106 	add.w	r1, sp, #6
  26:	f7ff fffe 	bl	0 <pbuf_copy_partial>
  2a:	2802      	cmp	r0, #2
  2c:	4602      	mov	r2, r0
  2e:	d11a      	bne.n	66 <mdns_read_rr_info+0x66>
  30:	89a3      	ldrh	r3, [r4, #12]
  32:	f10d 0106 	add.w	r1, sp, #6
  36:	f8bd 0006 	ldrh.w	r0, [sp, #6]
  3a:	3302      	adds	r3, #2
  3c:	ba40      	rev16	r0, r0
  3e:	b29b      	uxth	r3, r3
  40:	81a3      	strh	r3, [r4, #12]
  42:	f8a5 0104 	strh.w	r0, [r5, #260]	; 0x104
  46:	68a0      	ldr	r0, [r4, #8]
  48:	f7ff fffe 	bl	0 <pbuf_copy_partial>
  4c:	2802      	cmp	r0, #2
  4e:	d10a      	bne.n	66 <mdns_read_rr_info+0x66>
  50:	89a2      	ldrh	r2, [r4, #12]
  52:	2000      	movs	r0, #0
  54:	f8bd 3006 	ldrh.w	r3, [sp, #6]
  58:	3202      	adds	r2, #2
  5a:	ba5b      	rev16	r3, r3
  5c:	81a2      	strh	r2, [r4, #12]
  5e:	f8a5 3106 	strh.w	r3, [r5, #262]	; 0x106
  62:	b003      	add	sp, #12
  64:	bd30      	pop	{r4, r5, pc}
  66:	f06f 0005 	mvn.w	r0, #5
  6a:	e7fa      	b.n	62 <mdns_read_rr_info+0x62>

Disassembly of section .text.mdns_read_answer:

00000000 <mdns_read_answer>:
   0:	b570      	push	{r4, r5, r6, lr}
   2:	460d      	mov	r5, r1
   4:	8a41      	ldrh	r1, [r0, #18]
   6:	b082      	sub	sp, #8
   8:	bb51      	cbnz	r1, 60 <mdns_read_answer+0x60>
   a:	4604      	mov	r4, r0
   c:	6883      	ldr	r3, [r0, #8]
   e:	8918      	ldrh	r0, [r3, #8]
  10:	89a3      	ldrh	r3, [r4, #12]
  12:	4298      	cmp	r0, r3
  14:	d324      	bcc.n	60 <mdns_read_answer+0x60>
  16:	8813      	ldrh	r3, [r2, #0]
  18:	b313      	cbz	r3, 60 <mdns_read_answer+0x60>
  1a:	3b01      	subs	r3, #1
  1c:	4628      	mov	r0, r5
  1e:	8013      	strh	r3, [r2, #0]
  20:	f44f 728a 	mov.w	r2, #276	; 0x114
  24:	f7ff fffe 	bl	0 <memset>
  28:	4629      	mov	r1, r5
  2a:	4620      	mov	r0, r4
  2c:	f7ff fffe 	bl	0 <mdns_read_answer>
  30:	4606      	mov	r6, r0
  32:	b110      	cbz	r0, 3a <mdns_read_answer+0x3a>
  34:	4630      	mov	r0, r6
  36:	b002      	add	sp, #8
  38:	bd70      	pop	{r4, r5, r6, pc}
  3a:	f8b5 3106 	ldrh.w	r3, [r5, #262]	; 0x106
  3e:	68a0      	ldr	r0, [r4, #8]
  40:	f3c3 020e 	ubfx	r2, r3, #0, #15
  44:	f403 4100 	and.w	r1, r3, #32768	; 0x8000
  48:	89a3      	ldrh	r3, [r4, #12]
  4a:	f8a5 2106 	strh.w	r2, [r5, #262]	; 0x106
  4e:	2204      	movs	r2, #4
  50:	f8a5 1108 	strh.w	r1, [r5, #264]	; 0x108
  54:	eb0d 0102 	add.w	r1, sp, r2
  58:	f7ff fffe 	bl	0 <pbuf_copy_partial>
  5c:	2804      	cmp	r0, #4
  5e:	d004      	beq.n	6a <mdns_read_answer+0x6a>
  60:	f06f 0605 	mvn.w	r6, #5
  64:	4630      	mov	r0, r6
  66:	b002      	add	sp, #8
  68:	bd70      	pop	{r4, r5, r6, pc}
  6a:	89a3      	ldrh	r3, [r4, #12]
  6c:	9a01      	ldr	r2, [sp, #4]
  6e:	3304      	adds	r3, #4
  70:	68a0      	ldr	r0, [r4, #8]
  72:	ba12      	rev	r2, r2
  74:	b29b      	uxth	r3, r3
  76:	81a3      	strh	r3, [r4, #12]
  78:	f8c5 210c 	str.w	r2, [r5, #268]	; 0x10c
  7c:	2202      	movs	r2, #2
  7e:	eb0d 0102 	add.w	r1, sp, r2
  82:	f7ff fffe 	bl	0 <pbuf_copy_partial>
  86:	2802      	cmp	r0, #2
  88:	d1ea      	bne.n	60 <mdns_read_answer+0x60>
  8a:	89a2      	ldrh	r2, [r4, #12]
  8c:	f8bd 3002 	ldrh.w	r3, [sp, #2]
  90:	3202      	adds	r2, #2
  92:	ba5b      	rev16	r3, r3
  94:	b292      	uxth	r2, r2
  96:	f8a5 3110 	strh.w	r3, [r5, #272]	; 0x110
  9a:	fa12 f383 	uxtah	r3, r2, r3
  9e:	f8a5 2112 	strh.w	r2, [r5, #274]	; 0x112
  a2:	81a3      	strh	r3, [r4, #12]
  a4:	e7c6      	b.n	34 <mdns_read_answer+0x34>
  a6:	bf00      	nop

Disassembly of section .text.check_request:

00000000 <check_request>:
   0:	f8b1 3106 	ldrh.w	r3, [r1, #262]	; 0x106
   4:	2b01      	cmp	r3, #1
   6:	b570      	push	{r4, r5, r6, lr}
   8:	460c      	mov	r4, r1
   a:	b0c2      	sub	sp, #264	; 0x108
   c:	4605      	mov	r5, r0
   e:	d005      	beq.n	1c <check_request+0x1c>
  10:	2bff      	cmp	r3, #255	; 0xff
  12:	d003      	beq.n	1c <check_request+0x1c>
  14:	2600      	movs	r6, #0
  16:	4630      	mov	r0, r6
  18:	b042      	add	sp, #264	; 0x108
  1a:	bd70      	pop	{r4, r5, r6, pc}
  1c:	2200      	movs	r2, #0
  1e:	4629      	mov	r1, r5
  20:	a801      	add	r0, sp, #4
  22:	f7ff fffe 	bl	0 <mdns_build_request_domain>
  26:	b1f8      	cbz	r0, 68 <check_request+0x68>
  28:	2600      	movs	r6, #0
  2a:	2201      	movs	r2, #1
  2c:	4629      	mov	r1, r5
  2e:	a801      	add	r0, sp, #4
  30:	f7ff fffe 	bl	0 <mdns_build_request_domain>
  34:	2800      	cmp	r0, #0
  36:	d1ee      	bne.n	16 <check_request+0x16>
  38:	a901      	add	r1, sp, #4
  3a:	4620      	mov	r0, r4
  3c:	f7ff fffe 	bl	0 <mdns_domain_eq>
  40:	2800      	cmp	r0, #0
  42:	d0e8      	beq.n	16 <check_request+0x16>
  44:	f8b4 3104 	ldrh.w	r3, [r4, #260]	; 0x104
  48:	f1a3 02ff 	sub.w	r2, r3, #255	; 0xff
  4c:	2b21      	cmp	r3, #33	; 0x21
  4e:	fab2 f282 	clz	r2, r2
  52:	ea4f 1252 	mov.w	r2, r2, lsr #5
  56:	d017      	beq.n	88 <check_request+0x88>
  58:	b9b2      	cbnz	r2, 88 <check_request+0x88>
  5a:	2b10      	cmp	r3, #16
  5c:	d001      	beq.n	62 <check_request+0x62>
  5e:	2a00      	cmp	r2, #0
  60:	d0d9      	beq.n	16 <check_request+0x16>
  62:	f046 0680 	orr.w	r6, r6, #128	; 0x80
  66:	e7d6      	b.n	16 <check_request+0x16>
  68:	a901      	add	r1, sp, #4
  6a:	4620      	mov	r0, r4
  6c:	f7ff fffe 	bl	0 <mdns_domain_eq>
  70:	2800      	cmp	r0, #0
  72:	d0d9      	beq.n	28 <check_request+0x28>
  74:	f8b4 6104 	ldrh.w	r6, [r4, #260]	; 0x104
  78:	2eff      	cmp	r6, #255	; 0xff
  7a:	bf18      	it	ne
  7c:	2e0c      	cmpne	r6, #12
  7e:	bf0c      	ite	eq
  80:	2601      	moveq	r6, #1
  82:	2600      	movne	r6, #0
  84:	0136      	lsls	r6, r6, #4
  86:	e7d0      	b.n	2a <check_request+0x2a>
  88:	f046 0640 	orr.w	r6, r6, #64	; 0x40
  8c:	e7e5      	b.n	5a <check_request+0x5a>
  8e:	bf00      	nop

Disassembly of section .text.mdns_conflict_save_time:

00000000 <mdns_conflict_save_time>:
   0:	b538      	push	{r3, r4, r5, lr}
   2:	4b1d      	ldr	r3, [pc, #116]	; (78 <mdns_conflict_save_time+0x78>)
   4:	781b      	ldrb	r3, [r3, #0]
   6:	eb00 0083 	add.w	r0, r0, r3, lsl #2
   a:	69c4      	ldr	r4, [r0, #28]
   c:	f894 30ce 	ldrb.w	r3, [r4, #206]	; 0xce
  10:	f894 50cd 	ldrb.w	r5, [r4, #205]	; 0xcd
  14:	3301      	adds	r3, #1
  16:	3524      	adds	r5, #36	; 0x24
  18:	f884 30ce 	strb.w	r3, [r4, #206]	; 0xce
  1c:	f7ff fffe 	bl	0 <sys_now>
  20:	f844 0025 	str.w	r0, [r4, r5, lsl #2]
  24:	f894 30ce 	ldrb.w	r3, [r4, #206]	; 0xce
  28:	f894 20cd 	ldrb.w	r2, [r4, #205]	; 0xcd
  2c:	2b0e      	cmp	r3, #14
  2e:	4b13      	ldr	r3, [pc, #76]	; (7c <mdns_conflict_save_time+0x7c>)
  30:	d809      	bhi.n	46 <mdns_conflict_save_time+0x46>
  32:	3201      	adds	r2, #1
  34:	fba3 1302 	umull	r1, r3, r3, r2
  38:	08db      	lsrs	r3, r3, #3
  3a:	ebc3 1303 	rsb	r3, r3, r3, lsl #4
  3e:	1ad3      	subs	r3, r2, r3
  40:	f884 30cd 	strb.w	r3, [r4, #205]	; 0xcd
  44:	bd38      	pop	{r3, r4, r5, pc}
  46:	1c51      	adds	r1, r2, #1
  48:	3224      	adds	r2, #36	; 0x24
  4a:	fba3 0301 	umull	r0, r3, r3, r1
  4e:	f854 2022 	ldr.w	r2, [r4, r2, lsl #2]
  52:	08db      	lsrs	r3, r3, #3
  54:	ebc3 1303 	rsb	r3, r3, r3, lsl #4
  58:	1acb      	subs	r3, r1, r3
  5a:	f242 710f 	movw	r1, #9999	; 0x270f
  5e:	f103 0024 	add.w	r0, r3, #36	; 0x24
  62:	f854 0020 	ldr.w	r0, [r4, r0, lsl #2]
  66:	1a12      	subs	r2, r2, r0
  68:	428a      	cmp	r2, r1
  6a:	d8e9      	bhi.n	40 <mdns_conflict_save_time+0x40>
  6c:	2201      	movs	r2, #1
  6e:	f884 30cd 	strb.w	r3, [r4, #205]	; 0xcd
  72:	f884 20cc 	strb.w	r2, [r4, #204]	; 0xcc
  76:	bd38      	pop	{r3, r4, r5, pc}
  78:	00000000 	.word	0x00000000
  7c:	88888889 	.word	0x88888889

Disassembly of section .text.mdns_read_question:

00000000 <mdns_read_question>:
   0:	6882      	ldr	r2, [r0, #8]
   2:	b538      	push	{r3, r4, r5, lr}
   4:	8912      	ldrh	r2, [r2, #8]
   6:	8983      	ldrh	r3, [r0, #12]
   8:	429a      	cmp	r2, r3
   a:	d31c      	bcc.n	46 <mdns_read_question+0x46>
   c:	8a43      	ldrh	r3, [r0, #18]
   e:	4604      	mov	r4, r0
  10:	b1cb      	cbz	r3, 46 <mdns_read_question+0x46>
  12:	460d      	mov	r5, r1
  14:	3b01      	subs	r3, #1
  16:	2100      	movs	r1, #0
  18:	f44f 7285 	mov.w	r2, #266	; 0x10a
  1c:	8243      	strh	r3, [r0, #18]
  1e:	4628      	mov	r0, r5
  20:	f7ff fffe 	bl	0 <memset>
  24:	4629      	mov	r1, r5
  26:	4620      	mov	r0, r4
  28:	f7ff fffe 	bl	0 <mdns_read_question>
  2c:	b100      	cbz	r0, 30 <mdns_read_question+0x30>
  2e:	bd38      	pop	{r3, r4, r5, pc}
  30:	f8b5 3106 	ldrh.w	r3, [r5, #262]	; 0x106
  34:	f403 4200 	and.w	r2, r3, #32768	; 0x8000
  38:	f3c3 030e 	ubfx	r3, r3, #0, #15
  3c:	f8a5 2108 	strh.w	r2, [r5, #264]	; 0x108
  40:	f8a5 3106 	strh.w	r3, [r5, #262]	; 0x106
  44:	bd38      	pop	{r3, r4, r5, pc}
  46:	f06f 0005 	mvn.w	r0, #5
  4a:	bd38      	pop	{r3, r4, r5, pc}

Disassembly of section .text.mdns_lexicographical_comparison.part.0:

00000000 <mdns_lexicographical_comparison.part.0>:
   0:	e92d 4ff0 	stmdb	sp!, {r4, r5, r6, r7, r8, r9, sl, fp, lr}
   4:	461e      	mov	r6, r3
   6:	4615      	mov	r5, r2
   8:	f8b2 3104 	ldrh.w	r3, [r2, #260]	; 0x104
   c:	f5ad 7d03 	sub.w	sp, sp, #524	; 0x20c
  10:	f8b6 2104 	ldrh.w	r2, [r6, #260]	; 0x104
  14:	4293      	cmp	r3, r2
  16:	d013      	beq.n	40 <mdns_lexicographical_comparison.part.0+0x40>
  18:	d80a      	bhi.n	30 <mdns_lexicographical_comparison.part.0+0x30>
  1a:	2301      	movs	r3, #1
  1c:	9a8c      	ldr	r2, [sp, #560]	; 0x230
  1e:	2000      	movs	r0, #0
  20:	7013      	strb	r3, [r2, #0]
  22:	f50d 7d03 	add.w	sp, sp, #524	; 0x20c
  26:	e8bd 8ff0 	ldmia.w	sp!, {r4, r5, r6, r7, r8, r9, sl, fp, pc}
  2a:	42ae      	cmp	r6, r5
  2c:	d03a      	beq.n	a4 <mdns_lexicographical_comparison.part.0+0xa4>
  2e:	d2f4      	bcs.n	1a <mdns_lexicographical_comparison.part.0+0x1a>
  30:	2302      	movs	r3, #2
  32:	2000      	movs	r0, #0
  34:	9a8c      	ldr	r2, [sp, #560]	; 0x230
  36:	7013      	strb	r3, [r2, #0]
  38:	f50d 7d03 	add.w	sp, sp, #524	; 0x20c
  3c:	e8bd 8ff0 	ldmia.w	sp!, {r4, r5, r6, r7, r8, r9, sl, fp, pc}
  40:	2b21      	cmp	r3, #33	; 0x21
  42:	4607      	mov	r7, r0
  44:	4688      	mov	r8, r1
  46:	d032      	beq.n	ae <mdns_lexicographical_comparison.part.0+0xae>
  48:	f8b6 3110 	ldrh.w	r3, [r6, #272]	; 0x110
  4c:	f8b5 2110 	ldrh.w	r2, [r5, #272]	; 0x110
  50:	4699      	mov	r9, r3
  52:	4293      	cmp	r3, r2
  54:	bf28      	it	cs
  56:	4691      	movcs	r9, r2
  58:	f1b9 0f00 	cmp.w	r9, #0
  5c:	d020      	beq.n	a0 <mdns_lexicographical_comparison.part.0+0xa0>
  5e:	f04f 0a00 	mov.w	sl, #0
  62:	e001      	b.n	68 <mdns_lexicographical_comparison.part.0+0x68>
  64:	45d1      	cmp	r9, sl
  66:	d017      	beq.n	98 <mdns_lexicographical_comparison.part.0+0x98>
  68:	fa1f f48a 	uxth.w	r4, sl
  6c:	f8b5 3112 	ldrh.w	r3, [r5, #274]	; 0x112
  70:	68b8      	ldr	r0, [r7, #8]
  72:	f10a 0a01 	add.w	sl, sl, #1
  76:	18e1      	adds	r1, r4, r3
  78:	b289      	uxth	r1, r1
  7a:	f7ff fffe 	bl	0 <pbuf_get_at>
  7e:	f8b6 3112 	ldrh.w	r3, [r6, #274]	; 0x112
  82:	4683      	mov	fp, r0
  84:	f8d8 0008 	ldr.w	r0, [r8, #8]
  88:	441c      	add	r4, r3
  8a:	b2a1      	uxth	r1, r4
  8c:	f7ff fffe 	bl	0 <pbuf_get_at>
  90:	4583      	cmp	fp, r0
  92:	d0e7      	beq.n	64 <mdns_lexicographical_comparison.part.0+0x64>
  94:	d9c1      	bls.n	1a <mdns_lexicographical_comparison.part.0+0x1a>
  96:	e7cb      	b.n	30 <mdns_lexicographical_comparison.part.0+0x30>
  98:	f8b5 2110 	ldrh.w	r2, [r5, #272]	; 0x110
  9c:	f8b6 3110 	ldrh.w	r3, [r6, #272]	; 0x110
  a0:	429a      	cmp	r2, r3
  a2:	d1b9      	bne.n	18 <mdns_lexicographical_comparison.part.0+0x18>
  a4:	2300      	movs	r3, #0
  a6:	9a8c      	ldr	r2, [sp, #560]	; 0x230
  a8:	4618      	mov	r0, r3
  aa:	7013      	strb	r3, [r2, #0]
  ac:	e7b9      	b.n	22 <mdns_lexicographical_comparison.part.0+0x22>
  ae:	f04f 0900 	mov.w	r9, #0
  b2:	fa1f f489 	uxth.w	r4, r9
  b6:	f8b5 3112 	ldrh.w	r3, [r5, #274]	; 0x112
  ba:	68b8      	ldr	r0, [r7, #8]
  bc:	f109 0901 	add.w	r9, r9, #1
  c0:	18e1      	adds	r1, r4, r3
  c2:	b289      	uxth	r1, r1
  c4:	f7ff fffe 	bl	0 <pbuf_get_at>
  c8:	f8b6 3112 	ldrh.w	r3, [r6, #274]	; 0x112
  cc:	4682      	mov	sl, r0
  ce:	f8d8 0008 	ldr.w	r0, [r8, #8]
  d2:	18e1      	adds	r1, r4, r3
  d4:	b289      	uxth	r1, r1
  d6:	f7ff fffe 	bl	0 <pbuf_get_at>
  da:	4582      	cmp	sl, r0
  dc:	d19c      	bne.n	18 <mdns_lexicographical_comparison.part.0+0x18>
  de:	f1b9 0f06 	cmp.w	r9, #6
  e2:	d1e6      	bne.n	b2 <mdns_lexicographical_comparison.part.0+0xb2>
  e4:	f8b5 1112 	ldrh.w	r1, [r5, #274]	; 0x112
  e8:	f64f 74ff 	movw	r4, #65535	; 0xffff
  ec:	68b8      	ldr	r0, [r7, #8]
  ee:	466a      	mov	r2, sp
  f0:	3106      	adds	r1, #6
  f2:	b289      	uxth	r1, r1
  f4:	f7ff fffe 	bl	0 <mdns_readname>
  f8:	42a0      	cmp	r0, r4
  fa:	d02b      	beq.n	154 <mdns_lexicographical_comparison.part.0+0x154>
  fc:	f8b6 1112 	ldrh.w	r1, [r6, #274]	; 0x112
 100:	aa41      	add	r2, sp, #260	; 0x104
 102:	f8d8 0008 	ldr.w	r0, [r8, #8]
 106:	3106      	adds	r1, #6
 108:	b289      	uxth	r1, r1
 10a:	f7ff fffe 	bl	0 <mdns_readname>
 10e:	42a0      	cmp	r0, r4
 110:	d020      	beq.n	154 <mdns_lexicographical_comparison.part.0+0x154>
 112:	4668      	mov	r0, sp
 114:	f7ff fffe 	bl	0 <mdns_domain_debug_print>
 118:	a841      	add	r0, sp, #260	; 0x104
 11a:	f7ff fffe 	bl	0 <mdns_domain_debug_print>
 11e:	f8bd 6204 	ldrh.w	r6, [sp, #516]	; 0x204
 122:	f8bd 5100 	ldrh.w	r5, [sp, #256]	; 0x100
 126:	4634      	mov	r4, r6
 128:	42ae      	cmp	r6, r5
 12a:	bf28      	it	cs
 12c:	462c      	movcs	r4, r5
 12e:	2c00      	cmp	r4, #0
 130:	f43f af7b 	beq.w	2a <mdns_lexicographical_comparison.part.0+0x2a>
 134:	466b      	mov	r3, sp
 136:	aa41      	add	r2, sp, #260	; 0x104
 138:	441c      	add	r4, r3
 13a:	e002      	b.n	142 <mdns_lexicographical_comparison.part.0+0x142>
 13c:	42a3      	cmp	r3, r4
 13e:	f43f af74 	beq.w	2a <mdns_lexicographical_comparison.part.0+0x2a>
 142:	f813 0b01 	ldrb.w	r0, [r3], #1
 146:	f812 1b01 	ldrb.w	r1, [r2], #1
 14a:	4288      	cmp	r0, r1
 14c:	d0f6      	beq.n	13c <mdns_lexicographical_comparison.part.0+0x13c>
 14e:	f67f af64 	bls.w	1a <mdns_lexicographical_comparison.part.0+0x1a>
 152:	e76d      	b.n	30 <mdns_lexicographical_comparison.part.0+0x30>
 154:	f06f 0005 	mvn.w	r0, #5
 158:	e763      	b.n	22 <mdns_lexicographical_comparison.part.0+0x22>
 15a:	bf00      	nop

Disassembly of section .text.check_host.part.0:

00000000 <check_host.part.0>:
   0:	f8b1 3104 	ldrh.w	r3, [r1, #260]	; 0x104
   4:	2b0c      	cmp	r3, #12
   6:	b5f0      	push	{r4, r5, r6, r7, lr}
   8:	460d      	mov	r5, r1
   a:	b0c3      	sub	sp, #268	; 0x10c
   c:	4604      	mov	r4, r0
   e:	d00f      	beq.n	30 <check_host.part.0+0x30>
  10:	2bff      	cmp	r3, #255	; 0xff
  12:	d00d      	beq.n	30 <check_host.part.0+0x30>
  14:	ae01      	add	r6, sp, #4
  16:	2700      	movs	r7, #0
  18:	4b18      	ldr	r3, [pc, #96]	; (7c <check_host.part.0+0x7c>)
  1a:	4630      	mov	r0, r6
  1c:	781b      	ldrb	r3, [r3, #0]
  1e:	eb04 0383 	add.w	r3, r4, r3, lsl #2
  22:	69d9      	ldr	r1, [r3, #28]
  24:	f7ff fffe 	bl	0 <mdns_build_host_domain>
  28:	b1a8      	cbz	r0, 56 <check_host.part.0+0x56>
  2a:	4638      	mov	r0, r7
  2c:	b043      	add	sp, #268	; 0x10c
  2e:	bdf0      	pop	{r4, r5, r6, r7, pc}
  30:	6823      	ldr	r3, [r4, #0]
  32:	2b00      	cmp	r3, #0
  34:	d0ee      	beq.n	14 <check_host.part.0+0x14>
  36:	ae01      	add	r6, sp, #4
  38:	4621      	mov	r1, r4
  3a:	4630      	mov	r0, r6
  3c:	f7ff fffe 	bl	0 <mdns_build_reverse_v4_domain>
  40:	2800      	cmp	r0, #0
  42:	d1e8      	bne.n	16 <check_host.part.0+0x16>
  44:	4631      	mov	r1, r6
  46:	4628      	mov	r0, r5
  48:	f7ff fffe 	bl	0 <mdns_domain_eq>
  4c:	3800      	subs	r0, #0
  4e:	bf18      	it	ne
  50:	2001      	movne	r0, #1
  52:	0047      	lsls	r7, r0, #1
  54:	e7e0      	b.n	18 <check_host.part.0+0x18>
  56:	4631      	mov	r1, r6
  58:	4628      	mov	r0, r5
  5a:	f7ff fffe 	bl	0 <mdns_domain_eq>
  5e:	2800      	cmp	r0, #0
  60:	d0e3      	beq.n	2a <check_host.part.0+0x2a>
  62:	6823      	ldr	r3, [r4, #0]
  64:	2b00      	cmp	r3, #0
  66:	d0e0      	beq.n	2a <check_host.part.0+0x2a>
  68:	f8b5 3104 	ldrh.w	r3, [r5, #260]	; 0x104
  6c:	2b01      	cmp	r3, #1
  6e:	d001      	beq.n	74 <check_host.part.0+0x74>
  70:	2bff      	cmp	r3, #255	; 0xff
  72:	d1da      	bne.n	2a <check_host.part.0+0x2a>
  74:	f047 0701 	orr.w	r7, r7, #1
  78:	e7d7      	b.n	2a <check_host.part.0+0x2a>
  7a:	bf00      	nop
  7c:	00000000 	.word	0x00000000

Disassembly of section .text.check_service.part.0:

00000000 <check_service.part.0>:
   0:	b570      	push	{r4, r5, r6, lr}
   2:	b0c2      	sub	sp, #264	; 0x108
   4:	4604      	mov	r4, r0
   6:	460e      	mov	r6, r1
   8:	a801      	add	r0, sp, #4
   a:	f7ff fffe 	bl	0 <mdns_build_dnssd_domain>
   e:	b178      	cbz	r0, 30 <check_service.part.0+0x30>
  10:	2200      	movs	r2, #0
  12:	4621      	mov	r1, r4
  14:	a801      	add	r0, sp, #4
  16:	2500      	movs	r5, #0
  18:	f7ff fffe 	bl	0 <mdns_build_service_domain>
  1c:	b1f0      	cbz	r0, 5c <check_service.part.0+0x5c>
  1e:	2201      	movs	r2, #1
  20:	4621      	mov	r1, r4
  22:	a801      	add	r0, sp, #4
  24:	f7ff fffe 	bl	0 <mdns_build_service_domain>
  28:	b338      	cbz	r0, 7a <check_service.part.0+0x7a>
  2a:	4628      	mov	r0, r5
  2c:	b042      	add	sp, #264	; 0x108
  2e:	bd70      	pop	{r4, r5, r6, pc}
  30:	a901      	add	r1, sp, #4
  32:	4630      	mov	r0, r6
  34:	f7ff fffe 	bl	0 <mdns_domain_eq>
  38:	2800      	cmp	r0, #0
  3a:	d0e9      	beq.n	10 <check_service.part.0+0x10>
  3c:	f8b6 5104 	ldrh.w	r5, [r6, #260]	; 0x104
  40:	2200      	movs	r2, #0
  42:	4621      	mov	r1, r4
  44:	a801      	add	r0, sp, #4
  46:	2dff      	cmp	r5, #255	; 0xff
  48:	bf18      	it	ne
  4a:	2d0c      	cmpne	r5, #12
  4c:	bf0c      	ite	eq
  4e:	2501      	moveq	r5, #1
  50:	2500      	movne	r5, #0
  52:	012d      	lsls	r5, r5, #4
  54:	f7ff fffe 	bl	0 <mdns_build_service_domain>
  58:	2800      	cmp	r0, #0
  5a:	d1e0      	bne.n	1e <check_service.part.0+0x1e>
  5c:	a901      	add	r1, sp, #4
  5e:	4630      	mov	r0, r6
  60:	f7ff fffe 	bl	0 <mdns_domain_eq>
  64:	2800      	cmp	r0, #0
  66:	d0da      	beq.n	1e <check_service.part.0+0x1e>
  68:	f8b6 3104 	ldrh.w	r3, [r6, #260]	; 0x104
  6c:	2b0c      	cmp	r3, #12
  6e:	d001      	beq.n	74 <check_service.part.0+0x74>
  70:	2bff      	cmp	r3, #255	; 0xff
  72:	d1d4      	bne.n	1e <check_service.part.0+0x1e>
  74:	f045 0520 	orr.w	r5, r5, #32
  78:	e7d1      	b.n	1e <check_service.part.0+0x1e>
  7a:	a901      	add	r1, sp, #4
  7c:	4630      	mov	r0, r6
  7e:	f7ff fffe 	bl	0 <mdns_domain_eq>
  82:	2800      	cmp	r0, #0
  84:	d0d1      	beq.n	2a <check_service.part.0+0x2a>
  86:	f8b6 3104 	ldrh.w	r3, [r6, #260]	; 0x104
  8a:	f1a3 02ff 	sub.w	r2, r3, #255	; 0xff
  8e:	2b21      	cmp	r3, #33	; 0x21
  90:	fab2 f282 	clz	r2, r2
  94:	ea4f 1252 	mov.w	r2, r2, lsr #5
  98:	d007      	beq.n	aa <check_service.part.0+0xaa>
  9a:	b932      	cbnz	r2, aa <check_service.part.0+0xaa>
  9c:	2b10      	cmp	r3, #16
  9e:	d001      	beq.n	a4 <check_service.part.0+0xa4>
  a0:	2a00      	cmp	r2, #0
  a2:	d0c2      	beq.n	2a <check_service.part.0+0x2a>
  a4:	f045 0580 	orr.w	r5, r5, #128	; 0x80
  a8:	e7bf      	b.n	2a <check_service.part.0+0x2a>
  aa:	f045 0540 	orr.w	r5, r5, #64	; 0x40
  ae:	e7f5      	b.n	9c <check_service.part.0+0x9c>

Disassembly of section .text.mdns_parse_pkt_known_answers:

00000000 <mdns_parse_pkt_known_answers>:
   0:	4baa      	ldr	r3, [pc, #680]	; (2ac <mdns_parse_pkt_known_answers+0x2ac>)
   2:	e92d 4ff0 	stmdb	sp!, {r4, r5, r6, r7, r8, r9, sl, fp, lr}
   6:	781b      	ldrb	r3, [r3, #0]
   8:	f5ad 7d4d 	sub.w	sp, sp, #820	; 0x334
   c:	4693      	mov	fp, r2
   e:	8aca      	ldrh	r2, [r1, #22]
  10:	eb00 0383 	add.w	r3, r0, r3, lsl #2
  14:	460d      	mov	r5, r1
  16:	9002      	str	r0, [sp, #8]
  18:	69db      	ldr	r3, [r3, #28]
  1a:	9301      	str	r3, [sp, #4]
  1c:	2a00      	cmp	r2, #0
  1e:	d045      	beq.n	ac <mdns_parse_pkt_known_answers+0xac>
  20:	9b01      	ldr	r3, [sp, #4]
  22:	f101 0916 	add.w	r9, r1, #22
  26:	f103 0a48 	add.w	sl, r3, #72	; 0x48
  2a:	e002      	b.n	32 <mdns_parse_pkt_known_answers+0x32>
  2c:	8aeb      	ldrh	r3, [r5, #22]
  2e:	2b00      	cmp	r3, #0
  30:	d03c      	beq.n	ac <mdns_parse_pkt_known_answers+0xac>
  32:	464a      	mov	r2, r9
  34:	a987      	add	r1, sp, #540	; 0x21c
  36:	4628      	mov	r0, r5
  38:	f7ff fffe 	bl	0 <mdns_parse_pkt_known_answers>
  3c:	2800      	cmp	r0, #0
  3e:	d136      	bne.n	ae <mdns_parse_pkt_known_answers+0xae>
  40:	a887      	add	r0, sp, #540	; 0x21c
  42:	f7ff fffe 	bl	0 <mdns_domain_debug_print>
  46:	f8bd 3320 	ldrh.w	r3, [sp, #800]	; 0x320
  4a:	2bff      	cmp	r3, #255	; 0xff
  4c:	d0ee      	beq.n	2c <mdns_parse_pkt_known_answers+0x2c>
  4e:	f8bd 3322 	ldrh.w	r3, [sp, #802]	; 0x322
  52:	2bff      	cmp	r3, #255	; 0xff
  54:	d0ea      	beq.n	2c <mdns_parse_pkt_known_answers+0x2c>
  56:	2b01      	cmp	r3, #1
  58:	f89b 4012 	ldrb.w	r4, [fp, #18]
  5c:	d10f      	bne.n	7e <mdns_parse_pkt_known_answers+0x7e>
  5e:	a987      	add	r1, sp, #540	; 0x21c
  60:	9802      	ldr	r0, [sp, #8]
  62:	f7ff fffe 	bl	0 <mdns_parse_pkt_known_answers>
  66:	4004      	ands	r4, r0
  68:	d009      	beq.n	7e <mdns_parse_pkt_known_answers+0x7e>
  6a:	9bca      	ldr	r3, [sp, #808]	; 0x328
  6c:	2b3c      	cmp	r3, #60	; 0x3c
  6e:	d906      	bls.n	7e <mdns_parse_pkt_known_answers+0x7e>
  70:	f8bd 3320 	ldrh.w	r3, [sp, #800]	; 0x320
  74:	2b0c      	cmp	r3, #12
  76:	f000 80db 	beq.w	230 <mdns_parse_pkt_known_answers+0x230>
  7a:	07e3      	lsls	r3, r4, #31
  7c:	d44f      	bmi.n	11e <mdns_parse_pkt_known_answers+0x11e>
  7e:	9b01      	ldr	r3, [sp, #4]
  80:	f10b 0614 	add.w	r6, fp, #20
  84:	f103 043c 	add.w	r4, r3, #60	; 0x3c
  88:	2378      	movs	r3, #120	; 0x78
  8a:	9300      	str	r3, [sp, #0]
  8c:	f854 7f04 	ldr.w	r7, [r4, #4]!
  90:	b12f      	cbz	r7, 9e <mdns_parse_pkt_known_answers+0x9e>
  92:	f8bd 3322 	ldrh.w	r3, [sp, #802]	; 0x322
  96:	2b01      	cmp	r3, #1
  98:	d00d      	beq.n	b6 <mdns_parse_pkt_known_answers+0xb6>
  9a:	2bff      	cmp	r3, #255	; 0xff
  9c:	d00b      	beq.n	b6 <mdns_parse_pkt_known_answers+0xb6>
  9e:	4554      	cmp	r4, sl
  a0:	f106 0601 	add.w	r6, r6, #1
  a4:	d1f2      	bne.n	8c <mdns_parse_pkt_known_answers+0x8c>
  a6:	8aeb      	ldrh	r3, [r5, #22]
  a8:	2b00      	cmp	r3, #0
  aa:	d1c2      	bne.n	32 <mdns_parse_pkt_known_answers+0x32>
  ac:	2000      	movs	r0, #0
  ae:	f50d 7d4d 	add.w	sp, sp, #820	; 0x334
  b2:	e8bd 8ff0 	ldmia.w	sp!, {r4, r5, r6, r7, r8, r9, sl, fp, pc}
  b6:	f896 8000 	ldrb.w	r8, [r6]
  ba:	a987      	add	r1, sp, #540	; 0x21c
  bc:	4638      	mov	r0, r7
  be:	f7ff fffe 	bl	0 <mdns_parse_pkt_known_answers>
  c2:	ea08 0800 	and.w	r8, r8, r0
  c6:	f018 0310 	ands.w	r3, r8, #16
  ca:	f000 80e7 	beq.w	29c <mdns_parse_pkt_known_answers+0x29c>
  ce:	f241 1194 	movw	r1, #4500	; 0x1194
  d2:	f640 02ca 	movw	r2, #2250	; 0x8ca
  d6:	9100      	str	r1, [sp, #0]
  d8:	99ca      	ldr	r1, [sp, #808]	; 0x328
  da:	4291      	cmp	r1, r2
  dc:	d9df      	bls.n	9e <mdns_parse_pkt_known_answers+0x9e>
  de:	f8bd 2320 	ldrh.w	r2, [sp, #800]	; 0x320
  e2:	2a0c      	cmp	r2, #12
  e4:	d07d      	beq.n	1e2 <mdns_parse_pkt_known_answers+0x1e2>
  e6:	f018 0f40 	tst.w	r8, #64	; 0x40
  ea:	d12b      	bne.n	144 <mdns_parse_pkt_known_answers+0x144>
  ec:	f018 0f80 	tst.w	r8, #128	; 0x80
  f0:	d0d5      	beq.n	9e <mdns_parse_pkt_known_answers+0x9e>
  f2:	4638      	mov	r0, r7
  f4:	f7ff fffe 	bl	0 <mdns_prepare_txtdata>
  f8:	f8bd 232c 	ldrh.w	r2, [sp, #812]	; 0x32c
  fc:	f8b7 3100 	ldrh.w	r3, [r7, #256]	; 0x100
 100:	4293      	cmp	r3, r2
 102:	d1cc      	bne.n	9e <mdns_parse_pkt_known_answers+0x9e>
 104:	463a      	mov	r2, r7
 106:	f8bd 132e 	ldrh.w	r1, [sp, #814]	; 0x32e
 10a:	68a8      	ldr	r0, [r5, #8]
 10c:	f7ff fffe 	bl	0 <pbuf_memcmp>
 110:	2800      	cmp	r0, #0
 112:	d1c4      	bne.n	9e <mdns_parse_pkt_known_answers+0x9e>
 114:	7833      	ldrb	r3, [r6, #0]
 116:	f003 037f 	and.w	r3, r3, #127	; 0x7f
 11a:	7033      	strb	r3, [r6, #0]
 11c:	e7bf      	b.n	9e <mdns_parse_pkt_known_answers+0x9e>
 11e:	f8bd 332c 	ldrh.w	r3, [sp, #812]	; 0x32c
 122:	2b04      	cmp	r3, #4
 124:	d1ab      	bne.n	7e <mdns_parse_pkt_known_answers+0x7e>
 126:	9a02      	ldr	r2, [sp, #8]
 128:	f8bd 132e 	ldrh.w	r1, [sp, #814]	; 0x32e
 12c:	68a8      	ldr	r0, [r5, #8]
 12e:	f7ff fffe 	bl	0 <pbuf_memcmp>
 132:	2800      	cmp	r0, #0
 134:	d1a3      	bne.n	7e <mdns_parse_pkt_known_answers+0x7e>
 136:	f89b 3012 	ldrb.w	r3, [fp, #18]
 13a:	f023 0301 	bic.w	r3, r3, #1
 13e:	f88b 3012 	strb.w	r3, [fp, #18]
 142:	e79c      	b.n	7e <mdns_parse_pkt_known_answers+0x7e>
 144:	f8bd 832e 	ldrh.w	r8, [sp, #814]	; 0x32e
 148:	2202      	movs	r2, #2
 14a:	f10d 0112 	add.w	r1, sp, #18
 14e:	68a8      	ldr	r0, [r5, #8]
 150:	4643      	mov	r3, r8
 152:	f7ff fffe 	bl	0 <pbuf_copy_partial>
 156:	2802      	cmp	r0, #2
 158:	d1a1      	bne.n	9e <mdns_parse_pkt_known_answers+0x9e>
 15a:	f8bd 3012 	ldrh.w	r3, [sp, #18]
 15e:	2b00      	cmp	r3, #0
 160:	d19d      	bne.n	9e <mdns_parse_pkt_known_answers+0x9e>
 162:	f108 0302 	add.w	r3, r8, #2
 166:	4602      	mov	r2, r0
 168:	f10d 0112 	add.w	r1, sp, #18
 16c:	68a8      	ldr	r0, [r5, #8]
 16e:	b29b      	uxth	r3, r3
 170:	f7ff fffe 	bl	0 <pbuf_copy_partial>
 174:	2802      	cmp	r0, #2
 176:	d192      	bne.n	9e <mdns_parse_pkt_known_answers+0x9e>
 178:	f8bd 3012 	ldrh.w	r3, [sp, #18]
 17c:	2b00      	cmp	r3, #0
 17e:	d18e      	bne.n	9e <mdns_parse_pkt_known_answers+0x9e>
 180:	f108 0304 	add.w	r3, r8, #4
 184:	4602      	mov	r2, r0
 186:	f10d 0112 	add.w	r1, sp, #18
 18a:	68a8      	ldr	r0, [r5, #8]
 18c:	b29b      	uxth	r3, r3
 18e:	f7ff fffe 	bl	0 <pbuf_copy_partial>
 192:	2802      	cmp	r0, #2
 194:	d183      	bne.n	9e <mdns_parse_pkt_known_answers+0x9e>
 196:	f8bd 3012 	ldrh.w	r3, [sp, #18]
 19a:	f8b7 218e 	ldrh.w	r2, [r7, #398]	; 0x18e
 19e:	ba5b      	rev16	r3, r3
 1a0:	b29b      	uxth	r3, r3
 1a2:	429a      	cmp	r2, r3
 1a4:	f47f af7b 	bne.w	9e <mdns_parse_pkt_known_answers+0x9e>
 1a8:	f108 0106 	add.w	r1, r8, #6
 1ac:	aa05      	add	r2, sp, #20
 1ae:	68a8      	ldr	r0, [r5, #8]
 1b0:	b289      	uxth	r1, r1
 1b2:	f7ff fffe 	bl	0 <mdns_readname>
 1b6:	9901      	ldr	r1, [sp, #4]
 1b8:	4607      	mov	r7, r0
 1ba:	a846      	add	r0, sp, #280	; 0x118
 1bc:	f7ff fffe 	bl	0 <mdns_build_host_domain>
 1c0:	f64f 73ff 	movw	r3, #65535	; 0xffff
 1c4:	429f      	cmp	r7, r3
 1c6:	f43f af6a 	beq.w	9e <mdns_parse_pkt_known_answers+0x9e>
 1ca:	a946      	add	r1, sp, #280	; 0x118
 1cc:	a805      	add	r0, sp, #20
 1ce:	f7ff fffe 	bl	0 <mdns_domain_eq>
 1d2:	2800      	cmp	r0, #0
 1d4:	f43f af63 	beq.w	9e <mdns_parse_pkt_known_answers+0x9e>
 1d8:	7833      	ldrb	r3, [r6, #0]
 1da:	f023 0340 	bic.w	r3, r3, #64	; 0x40
 1de:	7033      	strb	r3, [r6, #0]
 1e0:	e75d      	b.n	9e <mdns_parse_pkt_known_answers+0x9e>
 1e2:	aa05      	add	r2, sp, #20
 1e4:	f8bd 132e 	ldrh.w	r1, [sp, #814]	; 0x32e
 1e8:	68a8      	ldr	r0, [r5, #8]
 1ea:	9303      	str	r3, [sp, #12]
 1ec:	f7ff fffe 	bl	0 <mdns_readname>
 1f0:	f64f 72ff 	movw	r2, #65535	; 0xffff
 1f4:	4290      	cmp	r0, r2
 1f6:	f43f af52 	beq.w	9e <mdns_parse_pkt_known_answers+0x9e>
 1fa:	9b03      	ldr	r3, [sp, #12]
 1fc:	2b00      	cmp	r3, #0
 1fe:	d13b      	bne.n	278 <mdns_parse_pkt_known_answers+0x278>
 200:	f018 0f20 	tst.w	r8, #32
 204:	f43f af4b 	beq.w	9e <mdns_parse_pkt_known_answers+0x9e>
 208:	4639      	mov	r1, r7
 20a:	2201      	movs	r2, #1
 20c:	a846      	add	r0, sp, #280	; 0x118
 20e:	f7ff fffe 	bl	0 <mdns_build_service_domain>
 212:	2800      	cmp	r0, #0
 214:	f47f af43 	bne.w	9e <mdns_parse_pkt_known_answers+0x9e>
 218:	a946      	add	r1, sp, #280	; 0x118
 21a:	a805      	add	r0, sp, #20
 21c:	f7ff fffe 	bl	0 <mdns_domain_eq>
 220:	2800      	cmp	r0, #0
 222:	f43f af3c 	beq.w	9e <mdns_parse_pkt_known_answers+0x9e>
 226:	7833      	ldrb	r3, [r6, #0]
 228:	f023 0320 	bic.w	r3, r3, #32
 22c:	7033      	strb	r3, [r6, #0]
 22e:	e736      	b.n	9e <mdns_parse_pkt_known_answers+0x9e>
 230:	f8bd 132e 	ldrh.w	r1, [sp, #814]	; 0x32e
 234:	aa05      	add	r2, sp, #20
 236:	68a8      	ldr	r0, [r5, #8]
 238:	f7ff fffe 	bl	0 <mdns_readname>
 23c:	9901      	ldr	r1, [sp, #4]
 23e:	4606      	mov	r6, r0
 240:	a846      	add	r0, sp, #280	; 0x118
 242:	f7ff fffe 	bl	0 <mdns_build_host_domain>
 246:	f64f 73ff 	movw	r3, #65535	; 0xffff
 24a:	429e      	cmp	r6, r3
 24c:	f43f af17 	beq.w	7e <mdns_parse_pkt_known_answers+0x7e>
 250:	2800      	cmp	r0, #0
 252:	f47f af14 	bne.w	7e <mdns_parse_pkt_known_answers+0x7e>
 256:	a946      	add	r1, sp, #280	; 0x118
 258:	a805      	add	r0, sp, #20
 25a:	f7ff fffe 	bl	0 <mdns_domain_eq>
 25e:	2800      	cmp	r0, #0
 260:	f43f af0d 	beq.w	7e <mdns_parse_pkt_known_answers+0x7e>
 264:	07a2      	lsls	r2, r4, #30
 266:	f57f af0a 	bpl.w	7e <mdns_parse_pkt_known_answers+0x7e>
 26a:	f89b 3012 	ldrb.w	r3, [fp, #18]
 26e:	f023 0302 	bic.w	r3, r3, #2
 272:	f88b 3012 	strb.w	r3, [fp, #18]
 276:	e702      	b.n	7e <mdns_parse_pkt_known_answers+0x7e>
 278:	2200      	movs	r2, #0
 27a:	4639      	mov	r1, r7
 27c:	a846      	add	r0, sp, #280	; 0x118
 27e:	f7ff fffe 	bl	0 <mdns_build_service_domain>
 282:	2800      	cmp	r0, #0
 284:	d1bc      	bne.n	200 <mdns_parse_pkt_known_answers+0x200>
 286:	a946      	add	r1, sp, #280	; 0x118
 288:	a805      	add	r0, sp, #20
 28a:	f7ff fffe 	bl	0 <mdns_domain_eq>
 28e:	2800      	cmp	r0, #0
 290:	d0b6      	beq.n	200 <mdns_parse_pkt_known_answers+0x200>
 292:	7833      	ldrb	r3, [r6, #0]
 294:	f023 0310 	bic.w	r3, r3, #16
 298:	7033      	strb	r3, [r6, #0]
 29a:	e7b1      	b.n	200 <mdns_parse_pkt_known_answers+0x200>
 29c:	f1b8 0f00 	cmp.w	r8, #0
 2a0:	f43f aefd 	beq.w	9e <mdns_parse_pkt_known_answers+0x9e>
 2a4:	9a00      	ldr	r2, [sp, #0]
 2a6:	0852      	lsrs	r2, r2, #1
 2a8:	e716      	b.n	d8 <mdns_parse_pkt_known_answers+0xd8>
 2aa:	bf00      	nop
 2ac:	00000000 	.word	0x00000000

Disassembly of section .text.mdns_push_answer_to_sorted_list:

00000000 <mdns_push_answer_to_sorted_list>:
   0:	e92d 4ff0 	stmdb	sp!, {r4, r5, r6, r7, r8, r9, sl, fp, lr}
   4:	461f      	mov	r7, r3
   6:	b0cb      	sub	sp, #300	; 0x12c
   8:	8b0b      	ldrh	r3, [r1, #24]
   a:	f8b0 a00a 	ldrh.w	sl, [r0, #10]
   e:	f8ad 3012 	strh.w	r3, [sp, #18]
  12:	f1ba 0f03 	cmp.w	sl, #3
  16:	898b      	ldrh	r3, [r1, #12]
  18:	9303      	str	r3, [sp, #12]
  1a:	d84f      	bhi.n	bc <mdns_push_answer_to_sorted_list+0xbc>
  1c:	460d      	mov	r5, r1
  1e:	4606      	mov	r6, r0
  20:	4693      	mov	fp, r2
  22:	f1ba 0f00 	cmp.w	sl, #0
  26:	d047      	beq.n	b8 <mdns_push_answer_to_sorted_list+0xb8>
  28:	2400      	movs	r4, #0
  2a:	f10d 0811 	add.w	r8, sp, #17
  2e:	f04f 0901 	mov.w	r9, #1
  32:	f836 3014 	ldrh.w	r3, [r6, r4, lsl #1]
  36:	f10d 0212 	add.w	r2, sp, #18
  3a:	a905      	add	r1, sp, #20
  3c:	4628      	mov	r0, r5
  3e:	81ab      	strh	r3, [r5, #12]
  40:	f7ff fffe 	bl	0 <mdns_push_answer_to_sorted_list>
  44:	bb80      	cbnz	r0, a8 <mdns_push_answer_to_sorted_list+0xa8>
  46:	f8bd 211a 	ldrh.w	r2, [sp, #282]	; 0x11a
  4a:	f8b7 3106 	ldrh.w	r3, [r7, #262]	; 0x106
  4e:	429a      	cmp	r2, r3
  50:	d012      	beq.n	78 <mdns_push_answer_to_sorted_list+0x78>
  52:	d92c      	bls.n	ae <mdns_push_answer_to_sorted_list+0xae>
  54:	2302      	movs	r3, #2
  56:	f88d 3011 	strb.w	r3, [sp, #17]
  5a:	8973      	ldrh	r3, [r6, #10]
  5c:	1c5f      	adds	r7, r3, #1
  5e:	42a7      	cmp	r7, r4
  60:	dd28      	ble.n	b4 <mdns_push_answer_to_sorted_list+0xb4>
  62:	1b3a      	subs	r2, r7, r4
  64:	1c60      	adds	r0, r4, #1
  66:	eb06 0144 	add.w	r1, r6, r4, lsl #1
  6a:	46a2      	mov	sl, r4
  6c:	0052      	lsls	r2, r2, #1
  6e:	eb06 0040 	add.w	r0, r6, r0, lsl #1
  72:	f7ff fffe 	bl	0 <memmove>
  76:	e011      	b.n	9c <mdns_push_answer_to_sorted_list+0x9c>
  78:	463b      	mov	r3, r7
  7a:	aa05      	add	r2, sp, #20
  7c:	4629      	mov	r1, r5
  7e:	4628      	mov	r0, r5
  80:	f8cd 8000 	str.w	r8, [sp]
  84:	f7ff fffe 	bl	0 <mdns_push_answer_to_sorted_list>
  88:	b970      	cbnz	r0, a8 <mdns_push_answer_to_sorted_list+0xa8>
  8a:	f898 3000 	ldrb.w	r3, [r8]
  8e:	2b02      	cmp	r3, #2
  90:	d0e3      	beq.n	5a <mdns_push_answer_to_sorted_list+0x5a>
  92:	3401      	adds	r4, #1
  94:	8973      	ldrh	r3, [r6, #10]
  96:	42a3      	cmp	r3, r4
  98:	dccb      	bgt.n	32 <mdns_push_answer_to_sorted_list+0x32>
  9a:	1c5f      	adds	r7, r3, #1
  9c:	9b03      	ldr	r3, [sp, #12]
  9e:	2000      	movs	r0, #0
  a0:	f826 b01a 	strh.w	fp, [r6, sl, lsl #1]
  a4:	8177      	strh	r7, [r6, #10]
  a6:	81ab      	strh	r3, [r5, #12]
  a8:	b04b      	add	sp, #300	; 0x12c
  aa:	e8bd 8ff0 	ldmia.w	sp!, {r4, r5, r6, r7, r8, r9, sl, fp, pc}
  ae:	f888 9000 	strb.w	r9, [r8]
  b2:	e7ee      	b.n	92 <mdns_push_answer_to_sorted_list+0x92>
  b4:	46a2      	mov	sl, r4
  b6:	e7f1      	b.n	9c <mdns_push_answer_to_sorted_list+0x9c>
  b8:	2701      	movs	r7, #1
  ba:	e7ef      	b.n	9c <mdns_push_answer_to_sorted_list+0x9c>
  bc:	f04f 30ff 	mov.w	r0, #4294967295	; 0xffffffff
  c0:	e7f2      	b.n	a8 <mdns_push_answer_to_sorted_list+0xa8>
  c2:	bf00      	nop

Disassembly of section .text.netif_mdns_data:

00000000 <netif_mdns_data>:
   0:	4b02      	ldr	r3, [pc, #8]	; (c <netif_mdns_data+0xc>)
   2:	781b      	ldrb	r3, [r3, #0]
   4:	eb00 0083 	add.w	r0, r0, r3, lsl #2
   8:	69c0      	ldr	r0, [r0, #28]
   a:	4770      	bx	lr
   c:	00000000 	.word	0x00000000

Disassembly of section .text.get_mdns_pcb:

00000000 <get_mdns_pcb>:
   0:	4b01      	ldr	r3, [pc, #4]	; (8 <get_mdns_pcb+0x8>)
   2:	6818      	ldr	r0, [r3, #0]
   4:	4770      	bx	lr
   6:	bf00      	nop
   8:	00000000 	.word	0x00000000

Disassembly of section .text.mdns_resp_remove_netif:

00000000 <mdns_resp_remove_netif>:
   0:	e92d 41f0 	stmdb	sp!, {r4, r5, r6, r7, r8, lr}
   4:	4604      	mov	r4, r0
   6:	4a20      	ldr	r2, [pc, #128]	; (88 <mdns_resp_remove_netif+0x88>)
   8:	f640 1183 	movw	r1, #2435	; 0x983
   c:	481f      	ldr	r0, [pc, #124]	; (8c <mdns_resp_remove_netif+0x8c>)
   e:	f7ff fffe 	bl	0 <qnethernet_hal_check_core_locking>
  12:	b354      	cbz	r4, 6a <mdns_resp_remove_netif+0x6a>
  14:	f8df 8088 	ldr.w	r8, [pc, #136]	; a0 <mdns_resp_remove_netif+0xa0>
  18:	f898 3000 	ldrb.w	r3, [r8]
  1c:	eb04 0383 	add.w	r3, r4, r3, lsl #2
  20:	69de      	ldr	r6, [r3, #28]
  22:	b1fe      	cbz	r6, 64 <mdns_resp_remove_netif+0x64>
  24:	f106 053c 	add.w	r5, r6, #60	; 0x3c
  28:	f106 0748 	add.w	r7, r6, #72	; 0x48
  2c:	4621      	mov	r1, r4
  2e:	4818      	ldr	r0, [pc, #96]	; (90 <mdns_resp_remove_netif+0x90>)
  30:	f7ff fffe 	bl	0 <sys_untimeout>
  34:	f855 0f04 	ldr.w	r0, [r5, #4]!
  38:	b108      	cbz	r0, 3e <mdns_resp_remove_netif+0x3e>
  3a:	f7ff fffe 	bl	0 <mem_free>
  3e:	42bd      	cmp	r5, r7
  40:	d1f8      	bne.n	34 <mdns_resp_remove_netif+0x34>
  42:	4914      	ldr	r1, [pc, #80]	; (94 <mdns_resp_remove_netif+0x94>)
  44:	4620      	mov	r0, r4
  46:	f7ff fffe 	bl	0 <igmp_leavegroup_netif>
  4a:	4630      	mov	r0, r6
  4c:	f7ff fffe 	bl	0 <mem_free>
  50:	f898 3000 	ldrb.w	r3, [r8]
  54:	2200      	movs	r2, #0
  56:	3306      	adds	r3, #6
  58:	4610      	mov	r0, r2
  5a:	eb04 0483 	add.w	r4, r4, r3, lsl #2
  5e:	6062      	str	r2, [r4, #4]
  60:	e8bd 81f0 	ldmia.w	sp!, {r4, r5, r6, r7, r8, pc}
  64:	f06f 0005 	mvn.w	r0, #5
  68:	e7fa      	b.n	60 <mdns_resp_remove_netif+0x60>
  6a:	4b08      	ldr	r3, [pc, #32]	; (8c <mdns_resp_remove_netif+0x8c>)
  6c:	f640 1284 	movw	r2, #2436	; 0x984
  70:	4909      	ldr	r1, [pc, #36]	; (98 <mdns_resp_remove_netif+0x98>)
  72:	480a      	ldr	r0, [pc, #40]	; (9c <mdns_resp_remove_netif+0x9c>)
  74:	f7ff fffe 	bl	0 <printf>
  78:	4620      	mov	r0, r4
  7a:	f7ff fffe 	bl	0 <fflush>
  7e:	2001      	movs	r0, #1
  80:	f7ff fffe 	bl	0 <qnethernet_hal_stdio_flush>
  84:	f7ff fffe 	bl	0 <abort>
  88:	00000000 	.word	0x00000000
  8c:	00000000 	.word	0x00000000
  90:	00000000 	.word	0x00000000
  94:	00000000 	.word	0x00000000
  98:	00000030 	.word	0x00000030
  9c:	00000058 	.word	0x00000058
  a0:	00000000 	.word	0x00000000

Disassembly of section .text.mdns_resp_netif_active:

00000000 <mdns_resp_netif_active>:
   0:	4b04      	ldr	r3, [pc, #16]	; (14 <mdns_resp_netif_active+0x14>)
   2:	781b      	ldrb	r3, [r3, #0]
   4:	eb00 0083 	add.w	r0, r0, r3, lsl #2
   8:	69c0      	ldr	r0, [r0, #28]
   a:	3800      	subs	r0, #0
   c:	bf18      	it	ne
   e:	2001      	movne	r0, #1
  10:	4770      	bx	lr
  12:	bf00      	nop
  14:	00000000 	.word	0x00000000

Disassembly of section .text.mdns_resp_del_service:

00000000 <mdns_resp_del_service>:
   0:	b510      	push	{r4, lr}
   2:	4604      	mov	r4, r0
   4:	b1b0      	cbz	r0, 34 <mdns_resp_del_service+0x34>
   6:	4b13      	ldr	r3, [pc, #76]	; (54 <mdns_resp_del_service+0x54>)
   8:	2902      	cmp	r1, #2
   a:	781b      	ldrb	r3, [r3, #0]
   c:	eb00 0483 	add.w	r4, r0, r3, lsl #2
  10:	69e3      	ldr	r3, [r4, #28]
  12:	d80c      	bhi.n	2e <mdns_resp_del_service+0x2e>
  14:	fab3 f483 	clz	r4, r3
  18:	0964      	lsrs	r4, r4, #5
  1a:	b143      	cbz	r3, 2e <mdns_resp_del_service+0x2e>
  1c:	eb03 0181 	add.w	r1, r3, r1, lsl #2
  20:	6c08      	ldr	r0, [r1, #64]	; 0x40
  22:	b120      	cbz	r0, 2e <mdns_resp_del_service+0x2e>
  24:	640c      	str	r4, [r1, #64]	; 0x40
  26:	f7ff fffe 	bl	0 <mem_free>
  2a:	4620      	mov	r0, r4
  2c:	bd10      	pop	{r4, pc}
  2e:	f06f 0005 	mvn.w	r0, #5
  32:	bd10      	pop	{r4, pc}
  34:	4b08      	ldr	r3, [pc, #32]	; (58 <mdns_resp_del_service+0x58>)
  36:	f640 220a 	movw	r2, #2570	; 0xa0a
  3a:	4908      	ldr	r1, [pc, #32]	; (5c <mdns_resp_del_service+0x5c>)
  3c:	4808      	ldr	r0, [pc, #32]	; (60 <mdns_resp_del_service+0x60>)
  3e:	f7ff fffe 	bl	0 <printf>
  42:	4620      	mov	r0, r4
  44:	f7ff fffe 	bl	0 <fflush>
  48:	2001      	movs	r0, #1
  4a:	f7ff fffe 	bl	0 <qnethernet_hal_stdio_flush>
  4e:	f7ff fffe 	bl	0 <abort>
  52:	bf00      	nop
  54:	00000000 	.word	0x00000000
  58:	00000000 	.word	0x00000000
  5c:	00000000 	.word	0x00000000
  60:	00000058 	.word	0x00000058

Disassembly of section .text.mdns_resp_add_service_txtitem:

00000000 <mdns_resp_add_service_txtitem>:
   0:	b570      	push	{r4, r5, r6, lr}
   2:	4604      	mov	r4, r0
   4:	460d      	mov	r5, r1
   6:	4616      	mov	r6, r2
   8:	f640 2144 	movw	r1, #2628	; 0xa44
   c:	4a0d      	ldr	r2, [pc, #52]	; (44 <mdns_resp_add_service_txtitem+0x44>)
   e:	480e      	ldr	r0, [pc, #56]	; (48 <mdns_resp_add_service_txtitem+0x48>)
  10:	f7ff fffe 	bl	0 <qnethernet_hal_check_core_locking>
  14:	b134      	cbz	r4, 24 <mdns_resp_add_service_txtitem+0x24>
  16:	4632      	mov	r2, r6
  18:	4629      	mov	r1, r5
  1a:	4620      	mov	r0, r4
  1c:	e8bd 4070 	ldmia.w	sp!, {r4, r5, r6, lr}
  20:	f7ff bffe 	b.w	0 <mdns_domain_add_label>
  24:	4b08      	ldr	r3, [pc, #32]	; (48 <mdns_resp_add_service_txtitem+0x48>)
  26:	f640 2245 	movw	r2, #2629	; 0xa45
  2a:	4908      	ldr	r1, [pc, #32]	; (4c <mdns_resp_add_service_txtitem+0x4c>)
  2c:	4808      	ldr	r0, [pc, #32]	; (50 <mdns_resp_add_service_txtitem+0x50>)
  2e:	f7ff fffe 	bl	0 <printf>
  32:	4620      	mov	r0, r4
  34:	f7ff fffe 	bl	0 <fflush>
  38:	2001      	movs	r0, #1
  3a:	f7ff fffe 	bl	0 <qnethernet_hal_stdio_flush>
  3e:	f7ff fffe 	bl	0 <abort>
  42:	bf00      	nop
  44:	00000000 	.word	0x00000000
  48:	00000000 	.word	0x00000000
  4c:	00000000 	.word	0x00000000
  50:	00000058 	.word	0x00000058

Disassembly of section .text.mdns_search_stop:

00000000 <mdns_search_stop>:
   0:	2801      	cmp	r0, #1
   2:	b508      	push	{r3, lr}
   4:	d80b      	bhi.n	1e <mdns_search_stop+0x1e>
   6:	f44f 72aa 	mov.w	r2, #340	; 0x154
   a:	4b0c      	ldr	r3, [pc, #48]	; (3c <mdns_search_stop+0x3c>)
   c:	fb02 3300 	mla	r3, r2, r0, r3
  10:	f8d3 2144 	ldr.w	r2, [r3, #324]	; 0x144
  14:	b112      	cbz	r2, 1c <mdns_search_stop+0x1c>
  16:	2200      	movs	r2, #0
  18:	f8c3 2144 	str.w	r2, [r3, #324]	; 0x144
  1c:	bd08      	pop	{r3, pc}
  1e:	4b08      	ldr	r3, [pc, #32]	; (40 <mdns_search_stop+0x40>)
  20:	f640 2255 	movw	r2, #2645	; 0xa55
  24:	4907      	ldr	r1, [pc, #28]	; (44 <mdns_search_stop+0x44>)
  26:	4808      	ldr	r0, [pc, #32]	; (48 <mdns_search_stop+0x48>)
  28:	f7ff fffe 	bl	0 <printf>
  2c:	2000      	movs	r0, #0
  2e:	f7ff fffe 	bl	0 <fflush>
  32:	2001      	movs	r0, #1
  34:	f7ff fffe 	bl	0 <qnethernet_hal_stdio_flush>
  38:	f7ff fffe 	bl	0 <abort>
  3c:	00000000 	.word	0x00000000
  40:	00000000 	.word	0x00000000
  44:	00000000 	.word	0x00000000
  48:	00000058 	.word	0x00000058

Disassembly of section .text.mdns_search_service:

00000000 <mdns_search_service>:
   0:	e92d 4ff0 	stmdb	sp!, {r4, r5, r6, r7, r8, r9, sl, fp, lr}
   4:	460f      	mov	r7, r1
   6:	b083      	sub	sp, #12
   8:	4616      	mov	r6, r2
   a:	4698      	mov	r8, r3
   c:	4605      	mov	r5, r0
   e:	b118      	cbz	r0, 18 <mdns_search_service+0x18>
  10:	f7ff fffe 	bl	0 <strlen>
  14:	283f      	cmp	r0, #63	; 0x3f
  16:	d860      	bhi.n	da <mdns_search_service+0xda>
  18:	4638      	mov	r0, r7
  1a:	f7ff fffe 	bl	0 <strlen>
  1e:	9b0e      	ldr	r3, [sp, #56]	; 0x38
  20:	fab3 f383 	clz	r3, r3
  24:	095b      	lsrs	r3, r3, #5
  26:	2e01      	cmp	r6, #1
  28:	bf88      	it	hi
  2a:	f043 0301 	orrhi.w	r3, r3, #1
  2e:	2b00      	cmp	r3, #0
  30:	d153      	bne.n	da <mdns_search_service+0xda>
  32:	28ff      	cmp	r0, #255	; 0xff
  34:	d851      	bhi.n	da <mdns_search_service+0xda>
  36:	f8df a0b0 	ldr.w	sl, [pc, #176]	; e8 <mdns_search_service+0xe8>
  3a:	f8da 4144 	ldr.w	r4, [sl, #324]	; 0x144
  3e:	b144      	cbz	r4, 52 <mdns_search_service+0x52>
  40:	f8da 2298 	ldr.w	r2, [sl, #664]	; 0x298
  44:	2a00      	cmp	r2, #0
  46:	d041      	beq.n	cc <mdns_search_service+0xcc>
  48:	f04f 30ff 	mov.w	r0, #4294967295	; 0xffffffff
  4c:	b003      	add	sp, #12
  4e:	e8bd 8ff0 	ldmia.w	sp!, {r4, r5, r6, r7, r8, r9, sl, fp, pc}
  52:	46d1      	mov	r9, sl
  54:	f04f 0b40 	mov.w	fp, #64	; 0x40
  58:	9401      	str	r4, [sp, #4]
  5a:	f44f 72aa 	mov.w	r2, #340	; 0x154
  5e:	2100      	movs	r1, #0
  60:	4648      	mov	r0, r9
  62:	fb02 a404 	mla	r4, r2, r4, sl
  66:	f7ff fffe 	bl	0 <memset>
  6a:	9b0c      	ldr	r3, [sp, #48]	; 0x30
  6c:	220c      	movs	r2, #12
  6e:	f8a4 614c 	strh.w	r6, [r4, #332]	; 0x14c
  72:	f8c4 3144 	str.w	r3, [r4, #324]	; 0x144
  76:	9b0d      	ldr	r3, [sp, #52]	; 0x34
  78:	f884 214e 	strb.w	r2, [r4, #334]	; 0x14e
  7c:	f8c4 3148 	str.w	r3, [r4, #328]	; 0x148
  80:	b93e      	cbnz	r6, 92 <mdns_search_service+0x92>
  82:	4917      	ldr	r1, [pc, #92]	; (e0 <mdns_search_service+0xe0>)
  84:	4638      	mov	r0, r7
  86:	f7ff fffe 	bl	0 <strcmp>
  8a:	b910      	cbnz	r0, 92 <mdns_search_service+0x92>
  8c:	2201      	movs	r2, #1
  8e:	f8a4 2150 	strh.w	r2, [r4, #336]	; 0x150
  92:	eb0a 000b 	add.w	r0, sl, fp
  96:	4639      	mov	r1, r7
  98:	f7ff fffe 	bl	0 <mdns_domain_add_string>
  9c:	b155      	cbz	r5, b4 <mdns_search_service+0xb4>
  9e:	4628      	mov	r0, r5
  a0:	f7ff fffe 	bl	0 <strlen>
  a4:	283f      	cmp	r0, #63	; 0x3f
  a6:	4602      	mov	r2, r0
  a8:	4629      	mov	r1, r5
  aa:	bf28      	it	cs
  ac:	223f      	movcs	r2, #63	; 0x3f
  ae:	4648      	mov	r0, r9
  b0:	f7ff fffe 	bl	0 <memcpy>
  b4:	9b0e      	ldr	r3, [sp, #56]	; 0x38
  b6:	4641      	mov	r1, r8
  b8:	9c01      	ldr	r4, [sp, #4]
  ba:	4648      	mov	r0, r9
  bc:	4a09      	ldr	r2, [pc, #36]	; (e4 <mdns_search_service+0xe4>)
  be:	701c      	strb	r4, [r3, #0]
  c0:	f7ff fffe 	bl	0 <mdns_send_request>
  c4:	2000      	movs	r0, #0
  c6:	b003      	add	sp, #12
  c8:	e8bd 8ff0 	ldmia.w	sp!, {r4, r5, r6, r7, r8, r9, sl, fp, pc}
  cc:	2401      	movs	r4, #1
  ce:	f50a 79aa 	add.w	r9, sl, #340	; 0x154
  d2:	f44f 7bca 	mov.w	fp, #404	; 0x194
  d6:	9401      	str	r4, [sp, #4]
  d8:	e7bf      	b.n	5a <mdns_search_service+0x5a>
  da:	f06f 0005 	mvn.w	r0, #5
  de:	e7b5      	b.n	4c <mdns_search_service+0x4c>
  e0:	00000000 	.word	0x00000000
  e4:	00000000 	.word	0x00000000
  e8:	00000000 	.word	0x00000000

Disassembly of section .text.mdns_resp_announce:

00000000 <mdns_resp_announce>:
   0:	b510      	push	{r4, lr}
   2:	4604      	mov	r4, r0
   4:	b088      	sub	sp, #32
   6:	4a22      	ldr	r2, [pc, #136]	; (90 <mdns_resp_announce+0x90>)
   8:	f640 21a4 	movw	r1, #2724	; 0xaa4
   c:	4821      	ldr	r0, [pc, #132]	; (94 <mdns_resp_announce+0x94>)
   e:	f7ff fffe 	bl	0 <qnethernet_hal_check_core_locking>
  12:	b15c      	cbz	r4, 2c <mdns_resp_announce+0x2c>
  14:	4b20      	ldr	r3, [pc, #128]	; (98 <mdns_resp_announce+0x98>)
  16:	781b      	ldrb	r3, [r3, #0]
  18:	eb04 0383 	add.w	r3, r4, r3, lsl #2
  1c:	69db      	ldr	r3, [r3, #28]
  1e:	b12b      	cbz	r3, 2c <mdns_resp_announce+0x2c>
  20:	f893 204d 	ldrb.w	r2, [r3, #77]	; 0x4d
  24:	2a03      	cmp	r2, #3
  26:	d901      	bls.n	2c <mdns_resp_announce+0x2c>
  28:	6822      	ldr	r2, [r4, #0]
  2a:	b90a      	cbnz	r2, 30 <mdns_resp_announce+0x30>
  2c:	b008      	add	sp, #32
  2e:	bd10      	pop	{r4, pc}
  30:	2200      	movs	r2, #0
  32:	2103      	movs	r1, #3
  34:	2001      	movs	r0, #1
  36:	9205      	str	r2, [sp, #20]
  38:	f88d 1016 	strb.w	r1, [sp, #22]
  3c:	6c19      	ldr	r1, [r3, #64]	; 0x40
  3e:	9203      	str	r2, [sp, #12]
  40:	9201      	str	r2, [sp, #4]
  42:	f88d 000e 	strb.w	r0, [sp, #14]
  46:	9202      	str	r2, [sp, #8]
  48:	9204      	str	r2, [sp, #16]
  4a:	e9cd 2206 	strd	r2, r2, [sp, #24]
  4e:	b111      	cbz	r1, 56 <mdns_resp_announce+0x56>
  50:	22f0      	movs	r2, #240	; 0xf0
  52:	f88d 2018 	strb.w	r2, [sp, #24]
  56:	6c5a      	ldr	r2, [r3, #68]	; 0x44
  58:	b112      	cbz	r2, 60 <mdns_resp_announce+0x60>
  5a:	22f0      	movs	r2, #240	; 0xf0
  5c:	f88d 2019 	strb.w	r2, [sp, #25]
  60:	6c9b      	ldr	r3, [r3, #72]	; 0x48
  62:	b113      	cbz	r3, 6a <mdns_resp_announce+0x6a>
  64:	23f0      	movs	r3, #240	; 0xf0
  66:	f88d 301a 	strb.w	r3, [sp, #26]
  6a:	f241 41e9 	movw	r1, #5353	; 0x14e9
  6e:	4a0b      	ldr	r2, [pc, #44]	; (9c <mdns_resp_announce+0x9c>)
  70:	2384      	movs	r3, #132	; 0x84
  72:	a801      	add	r0, sp, #4
  74:	f8ad 100c 	strh.w	r1, [sp, #12]
  78:	4621      	mov	r1, r4
  7a:	9202      	str	r2, [sp, #8]
  7c:	f88d 3006 	strb.w	r3, [sp, #6]
  80:	f7ff fffe 	bl	0 <mdns_send_outpacket>
  84:	4620      	mov	r0, r4
  86:	b008      	add	sp, #32
  88:	e8bd 4010 	ldmia.w	sp!, {r4, lr}
  8c:	f7ff bffe 	b.w	0 <mdns_start_multicast_timeouts_ipv4>
  90:	00000000 	.word	0x00000000
  94:	00000000 	.word	0x00000000
  98:	00000000 	.word	0x00000000
  9c:	fb0000e0 	.word	0xfb0000e0

Disassembly of section .text.mdns_probe_and_announce:

00000000 <mdns_probe_and_announce>:
   0:	4b35      	ldr	r3, [pc, #212]	; (d8 <mdns_probe_and_announce+0xd8>)
   2:	b530      	push	{r4, r5, lr}
   4:	781b      	ldrb	r3, [r3, #0]
   6:	b089      	sub	sp, #36	; 0x24
   8:	4604      	mov	r4, r0
   a:	eb00 0383 	add.w	r3, r0, r3, lsl #2
   e:	69dd      	ldr	r5, [r3, #28]
  10:	f895 304d 	ldrb.w	r3, [r5, #77]	; 0x4d
  14:	2b02      	cmp	r3, #2
  16:	d920      	bls.n	5a <mdns_probe_and_announce+0x5a>
  18:	3b03      	subs	r3, #3
  1a:	2b01      	cmp	r3, #1
  1c:	d81b      	bhi.n	56 <mdns_probe_and_announce+0x56>
  1e:	f895 204c 	ldrb.w	r2, [r5, #76]	; 0x4c
  22:	b94a      	cbnz	r2, 38 <mdns_probe_and_announce+0x38>
  24:	2304      	movs	r3, #4
  26:	f885 20cc 	strb.w	r2, [r5, #204]	; 0xcc
  2a:	f885 304d 	strb.w	r3, [r5, #77]	; 0x4d
  2e:	4b2b      	ldr	r3, [pc, #172]	; (dc <mdns_probe_and_announce+0xdc>)
  30:	681b      	ldr	r3, [r3, #0]
  32:	b10b      	cbz	r3, 38 <mdns_probe_and_announce+0x38>
  34:	2101      	movs	r1, #1
  36:	4798      	blx	r3
  38:	4620      	mov	r0, r4
  3a:	f7ff fffe 	bl	0 <mdns_probe_and_announce>
  3e:	f895 304c 	ldrb.w	r3, [r5, #76]	; 0x4c
  42:	3301      	adds	r3, #1
  44:	b2db      	uxtb	r3, r3
  46:	2b01      	cmp	r3, #1
  48:	f885 304c 	strb.w	r3, [r5, #76]	; 0x4c
  4c:	d939      	bls.n	c2 <mdns_probe_and_announce+0xc2>
  4e:	f44f 63a0 	mov.w	r3, #1280	; 0x500
  52:	f8a5 304c 	strh.w	r3, [r5, #76]	; 0x4c
  56:	b009      	add	sp, #36	; 0x24
  58:	bd30      	pop	{r4, r5, pc}
  5a:	6803      	ldr	r3, [r0, #0]
  5c:	b9ab      	cbnz	r3, 8a <mdns_probe_and_announce+0x8a>
  5e:	f895 304c 	ldrb.w	r3, [r5, #76]	; 0x4c
  62:	2b02      	cmp	r3, #2
  64:	d80c      	bhi.n	80 <mdns_probe_and_announce+0x80>
  66:	b11b      	cbz	r3, 70 <mdns_probe_and_announce+0x70>
  68:	f895 30cc 	ldrb.w	r3, [r5, #204]	; 0xcc
  6c:	2b01      	cmp	r3, #1
  6e:	d02d      	beq.n	cc <mdns_probe_and_announce+0xcc>
  70:	4622      	mov	r2, r4
  72:	491b      	ldr	r1, [pc, #108]	; (e0 <mdns_probe_and_announce+0xe0>)
  74:	20fa      	movs	r0, #250	; 0xfa
  76:	b009      	add	sp, #36	; 0x24
  78:	e8bd 4030 	ldmia.w	sp!, {r4, r5, lr}
  7c:	f7ff bffe 	b.w	0 <sys_timeout>
  80:	f44f 7340 	mov.w	r3, #768	; 0x300
  84:	f8a5 304c 	strh.w	r3, [r5, #76]	; 0x4c
  88:	e7f2      	b.n	70 <mdns_probe_and_announce+0x70>
  8a:	a901      	add	r1, sp, #4
  8c:	f7ff fffe 	bl	0 <mdns_probe_and_announce>
  90:	f241 43e9 	movw	r3, #5353	; 0x14e9
  94:	2200      	movs	r2, #0
  96:	4608      	mov	r0, r1
  98:	f8ad 300c 	strh.w	r3, [sp, #12]
  9c:	4621      	mov	r1, r4
  9e:	4b11      	ldr	r3, [pc, #68]	; (e4 <mdns_probe_and_announce+0xe4>)
  a0:	f8ad 2004 	strh.w	r2, [sp, #4]
  a4:	9302      	str	r3, [sp, #8]
  a6:	f7ff fffe 	bl	0 <mdns_send_outpacket>
  aa:	f895 304c 	ldrb.w	r3, [r5, #76]	; 0x4c
  ae:	2800      	cmp	r0, #0
  b0:	d1d7      	bne.n	62 <mdns_probe_and_announce+0x62>
  b2:	3301      	adds	r3, #1
  b4:	2202      	movs	r2, #2
  b6:	b2db      	uxtb	r3, r3
  b8:	f885 204d 	strb.w	r2, [r5, #77]	; 0x4d
  bc:	f885 304c 	strb.w	r3, [r5, #76]	; 0x4c
  c0:	e7cf      	b.n	62 <mdns_probe_and_announce+0x62>
  c2:	4622      	mov	r2, r4
  c4:	4906      	ldr	r1, [pc, #24]	; (e0 <mdns_probe_and_announce+0xe0>)
  c6:	f44f 707a 	mov.w	r0, #1000	; 0x3e8
  ca:	e7d4      	b.n	76 <mdns_probe_and_announce+0x76>
  cc:	4622      	mov	r2, r4
  ce:	4904      	ldr	r1, [pc, #16]	; (e0 <mdns_probe_and_announce+0xe0>)
  d0:	f241 3088 	movw	r0, #5000	; 0x1388
  d4:	e7cf      	b.n	76 <mdns_probe_and_announce+0x76>
  d6:	bf00      	nop
  d8:	00000000 	.word	0x00000000
  dc:	00000000 	.word	0x00000000
  e0:	00000000 	.word	0x00000000
  e4:	fb0000e0 	.word	0xfb0000e0

Disassembly of section .text.mdns_resp_register_name_result_cb:

00000000 <mdns_resp_register_name_result_cb>:
   0:	4b01      	ldr	r3, [pc, #4]	; (8 <mdns_resp_register_name_result_cb+0x8>)
   2:	6018      	str	r0, [r3, #0]
   4:	4770      	bx	lr
   6:	bf00      	nop
   8:	00000000 	.word	0x00000000

Disassembly of section .text.mdns_resp_restart_delay:

00000000 <mdns_resp_restart_delay>:
   0:	b570      	push	{r4, r5, r6, lr}
   2:	4604      	mov	r4, r0
   4:	460d      	mov	r5, r1
   6:	4a13      	ldr	r2, [pc, #76]	; (54 <mdns_resp_restart_delay+0x54>)
   8:	f44f 612d 	mov.w	r1, #2768	; 0xad0
   c:	4812      	ldr	r0, [pc, #72]	; (58 <mdns_resp_restart_delay+0x58>)
   e:	f7ff fffe 	bl	0 <qnethernet_hal_check_core_locking>
  12:	b1c4      	cbz	r4, 46 <mdns_resp_restart_delay+0x46>
  14:	4b11      	ldr	r3, [pc, #68]	; (5c <mdns_resp_restart_delay+0x5c>)
  16:	781b      	ldrb	r3, [r3, #0]
  18:	eb04 0383 	add.w	r3, r4, r3, lsl #2
  1c:	69de      	ldr	r6, [r3, #28]
  1e:	b196      	cbz	r6, 46 <mdns_resp_restart_delay+0x46>
  20:	4621      	mov	r1, r4
  22:	480f      	ldr	r0, [pc, #60]	; (60 <mdns_resp_restart_delay+0x60>)
  24:	f7ff fffe 	bl	0 <sys_untimeout>
  28:	f896 30cc 	ldrb.w	r3, [r6, #204]	; 0xcc
  2c:	f44f 7280 	mov.w	r2, #256	; 0x100
  30:	490b      	ldr	r1, [pc, #44]	; (60 <mdns_resp_restart_delay+0x60>)
  32:	2b01      	cmp	r3, #1
  34:	f8a6 204c 	strh.w	r2, [r6, #76]	; 0x4c
  38:	4622      	mov	r2, r4
  3a:	d005      	beq.n	48 <mdns_resp_restart_delay+0x48>
  3c:	4628      	mov	r0, r5
  3e:	e8bd 4070 	ldmia.w	sp!, {r4, r5, r6, lr}
  42:	f7ff bffe 	b.w	0 <sys_timeout>
  46:	bd70      	pop	{r4, r5, r6, pc}
  48:	f241 3088 	movw	r0, #5000	; 0x1388
  4c:	e8bd 4070 	ldmia.w	sp!, {r4, r5, r6, lr}
  50:	f7ff bffe 	b.w	0 <sys_timeout>
  54:	00000000 	.word	0x00000000
  58:	00000000 	.word	0x00000000
  5c:	00000000 	.word	0x00000000
  60:	00000000 	.word	0x00000000

Disassembly of section .text.mdns_resp_rename_netif:

00000000 <mdns_resp_rename_netif>:
   0:	b5f8      	push	{r3, r4, r5, r6, r7, lr}
   2:	460f      	mov	r7, r1
   4:	4604      	mov	r4, r0
   6:	4a13      	ldr	r2, [pc, #76]	; (54 <mdns_resp_rename_netif+0x54>)
   8:	f640 11ad 	movw	r1, #2477	; 0x9ad
   c:	4812      	ldr	r0, [pc, #72]	; (58 <mdns_resp_rename_netif+0x58>)
   e:	f7ff fffe 	bl	0 <qnethernet_hal_check_core_locking>
  12:	4638      	mov	r0, r7
  14:	f7ff fffe 	bl	0 <strlen>
  18:	b1c4      	cbz	r4, 4c <mdns_resp_rename_netif+0x4c>
  1a:	283f      	cmp	r0, #63	; 0x3f
  1c:	4605      	mov	r5, r0
  1e:	bf94      	ite	ls
  20:	2600      	movls	r6, #0
  22:	2601      	movhi	r6, #1
  24:	b996      	cbnz	r6, 4c <mdns_resp_rename_netif+0x4c>
  26:	4b0d      	ldr	r3, [pc, #52]	; (5c <mdns_resp_rename_netif+0x5c>)
  28:	781b      	ldrb	r3, [r3, #0]
  2a:	eb04 0383 	add.w	r3, r4, r3, lsl #2
  2e:	69db      	ldr	r3, [r3, #28]
  30:	b163      	cbz	r3, 4c <mdns_resp_rename_netif+0x4c>
  32:	4602      	mov	r2, r0
  34:	4639      	mov	r1, r7
  36:	4618      	mov	r0, r3
  38:	f7ff fffe 	bl	0 <memcpy>
  3c:	4603      	mov	r3, r0
  3e:	21fa      	movs	r1, #250	; 0xfa
  40:	4620      	mov	r0, r4
  42:	555e      	strb	r6, [r3, r5]
  44:	f7ff fffe 	bl	0 <mdns_resp_rename_netif>
  48:	4630      	mov	r0, r6
  4a:	bdf8      	pop	{r3, r4, r5, r6, r7, pc}
  4c:	f06f 0005 	mvn.w	r0, #5
  50:	bdf8      	pop	{r3, r4, r5, r6, r7, pc}
  52:	bf00      	nop
  54:	00000000 	.word	0x00000000
  58:	00000000 	.word	0x00000000
  5c:	00000000 	.word	0x00000000

Disassembly of section .text.mdns_resp_rename_service:

00000000 <mdns_resp_rename_service>:
   0:	e92d 41f0 	stmdb	sp!, {r4, r5, r6, r7, r8, lr}
   4:	4690      	mov	r8, r2
   6:	4606      	mov	r6, r0
   8:	460c      	mov	r4, r1
   a:	4821      	ldr	r0, [pc, #132]	; (90 <mdns_resp_rename_service+0x90>)
   c:	4a21      	ldr	r2, [pc, #132]	; (94 <mdns_resp_rename_service+0x94>)
   e:	f640 2125 	movw	r1, #2597	; 0xa25
  12:	f7ff fffe 	bl	0 <qnethernet_hal_check_core_locking>
  16:	4640      	mov	r0, r8
  18:	f7ff fffe 	bl	0 <strlen>
  1c:	b34e      	cbz	r6, 72 <mdns_resp_rename_service+0x72>
  1e:	4b1e      	ldr	r3, [pc, #120]	; (98 <mdns_resp_rename_service+0x98>)
  20:	781b      	ldrb	r3, [r3, #0]
  22:	eb06 0383 	add.w	r3, r6, r3, lsl #2
  26:	69da      	ldr	r2, [r3, #28]
  28:	fab2 f382 	clz	r3, r2
  2c:	095b      	lsrs	r3, r3, #5
  2e:	2c02      	cmp	r4, #2
  30:	bf88      	it	hi
  32:	f043 0301 	orrhi.w	r3, r3, #1
  36:	b9cb      	cbnz	r3, 6c <mdns_resp_rename_service+0x6c>
  38:	283f      	cmp	r0, #63	; 0x3f
  3a:	4607      	mov	r7, r0
  3c:	bf94      	ite	ls
  3e:	2500      	movls	r5, #0
  40:	2501      	movhi	r5, #1
  42:	b99d      	cbnz	r5, 6c <mdns_resp_rename_service+0x6c>
  44:	3410      	adds	r4, #16
  46:	f852 4024 	ldr.w	r4, [r2, r4, lsl #2]
  4a:	b17c      	cbz	r4, 6c <mdns_resp_rename_service+0x6c>
  4c:	4602      	mov	r2, r0
  4e:	f504 7082 	add.w	r0, r4, #260	; 0x104
  52:	443c      	add	r4, r7
  54:	4641      	mov	r1, r8
  56:	f7ff fffe 	bl	0 <memcpy>
  5a:	4630      	mov	r0, r6
  5c:	21fa      	movs	r1, #250	; 0xfa
  5e:	f884 5104 	strb.w	r5, [r4, #260]	; 0x104
  62:	f7ff fffe 	bl	0 <mdns_resp_rename_service>
  66:	4628      	mov	r0, r5
  68:	e8bd 81f0 	ldmia.w	sp!, {r4, r5, r6, r7, r8, pc}
  6c:	f06f 0005 	mvn.w	r0, #5
  70:	e7fa      	b.n	68 <mdns_resp_rename_service+0x68>
  72:	4b07      	ldr	r3, [pc, #28]	; (90 <mdns_resp_rename_service+0x90>)
  74:	f640 2227 	movw	r2, #2599	; 0xa27
  78:	4908      	ldr	r1, [pc, #32]	; (9c <mdns_resp_rename_service+0x9c>)
  7a:	4809      	ldr	r0, [pc, #36]	; (a0 <mdns_resp_rename_service+0xa0>)
  7c:	f7ff fffe 	bl	0 <printf>
  80:	4630      	mov	r0, r6
  82:	f7ff fffe 	bl	0 <fflush>
  86:	2001      	movs	r0, #1
  88:	f7ff fffe 	bl	0 <qnethernet_hal_stdio_flush>
  8c:	f7ff fffe 	bl	0 <abort>
  90:	00000000 	.word	0x00000000
  94:	00000000 	.word	0x00000000
  98:	00000000 	.word	0x00000000
  9c:	00000000 	.word	0x00000000
  a0:	00000058 	.word	0x00000058

Disassembly of section .text.mdns_handle_probe_tiebreaking:

00000000 <mdns_handle_probe_tiebreaking>:
   0:	e92d 4ff0 	stmdb	sp!, {r4, r5, r6, r7, r8, r9, sl, fp, lr}
   4:	f2ad 5dec 	subw	sp, sp, #1516	; 0x5ec
   8:	460c      	mov	r4, r1
   a:	4605      	mov	r5, r0
   c:	a90d      	add	r1, sp, #52	; 0x34
   e:	f7ff fffe 	bl	0 <mdns_handle_probe_tiebreaking>
  12:	2224      	movs	r2, #36	; 0x24
  14:	2100      	movs	r1, #0
  16:	a814      	add	r0, sp, #80	; 0x50
  18:	f7ff fffe 	bl	0 <memset>
  1c:	2228      	movs	r2, #40	; 0x28
  1e:	2100      	movs	r1, #0
  20:	a81d      	add	r0, sp, #116	; 0x74
  22:	f7ff fffe 	bl	0 <memset>
  26:	aa14      	add	r2, sp, #80	; 0x50
  28:	a90d      	add	r1, sp, #52	; 0x34
  2a:	4628      	mov	r0, r5
  2c:	f7ff fffe 	bl	0 <mdns_create_outpacket>
  30:	2800      	cmp	r0, #0
  32:	d151      	bne.n	d8 <mdns_handle_probe_tiebreaking+0xd8>
  34:	f8bd 2058 	ldrh.w	r2, [sp, #88]	; 0x58
  38:	f8bd 3056 	ldrh.w	r3, [sp, #86]	; 0x56
  3c:	f8ad 208a 	strh.w	r2, [sp, #138]	; 0x8a
  40:	f8ad 2088 	strh.w	r2, [sp, #136]	; 0x88
  44:	f8bd 205c 	ldrh.w	r2, [sp, #92]	; 0x5c
  48:	f8bd 105a 	ldrh.w	r1, [sp, #90]	; 0x5a
  4c:	9814      	ldr	r0, [sp, #80]	; 0x50
  4e:	f8ad 2092 	strh.w	r2, [sp, #146]	; 0x92
  52:	f8ad 2090 	strh.w	r2, [sp, #144]	; 0x90
  56:	220c      	movs	r2, #12
  58:	901f      	str	r0, [sp, #124]	; 0x7c
  5a:	f8ad 3086 	strh.w	r3, [sp, #134]	; 0x86
  5e:	f8ad 3084 	strh.w	r3, [sp, #132]	; 0x84
  62:	f8ad 108e 	strh.w	r1, [sp, #142]	; 0x8e
  66:	f8ad 108c 	strh.w	r1, [sp, #140]	; 0x8c
  6a:	f8ad 2080 	strh.w	r2, [sp, #128]	; 0x80
  6e:	b383      	cbz	r3, d2 <mdns_handle_probe_tiebreaking+0xd2>
  70:	a96a      	add	r1, sp, #424	; 0x1a8
  72:	a81d      	add	r0, sp, #116	; 0x74
  74:	f7ff fffe 	bl	0 <mdns_handle_probe_tiebreaking>
  78:	bb50      	cbnz	r0, d0 <mdns_handle_probe_tiebreaking+0xd0>
  7a:	f8b4 800c 	ldrh.w	r8, [r4, #12]
  7e:	f8bd 7080 	ldrh.w	r7, [sp, #128]	; 0x80
  82:	f8bd 6086 	ldrh.w	r6, [sp, #134]	; 0x86
  86:	e00e      	b.n	a6 <mdns_handle_probe_tiebreaking+0xa6>
  88:	f7ff fffe 	bl	0 <mdns_handle_probe_tiebreaking>
  8c:	4603      	mov	r3, r0
  8e:	a96a      	add	r1, sp, #424	; 0x1a8
  90:	a827      	add	r0, sp, #156	; 0x9c
  92:	b9eb      	cbnz	r3, d0 <mdns_handle_probe_tiebreaking+0xd0>
  94:	f8bd 31a2 	ldrh.w	r3, [sp, #418]	; 0x1a2
  98:	2b01      	cmp	r3, #1
  9a:	d001      	beq.n	a0 <mdns_handle_probe_tiebreaking+0xa0>
  9c:	2bff      	cmp	r3, #255	; 0xff
  9e:	d117      	bne.n	d0 <mdns_handle_probe_tiebreaking+0xd0>
  a0:	f7ff fffe 	bl	0 <mdns_domain_eq>
  a4:	bb00      	cbnz	r0, e8 <mdns_handle_probe_tiebreaking+0xe8>
  a6:	8a63      	ldrh	r3, [r4, #18]
  a8:	a927      	add	r1, sp, #156	; 0x9c
  aa:	4620      	mov	r0, r4
  ac:	2b00      	cmp	r3, #0
  ae:	d1eb      	bne.n	88 <mdns_handle_probe_tiebreaking+0x88>
  b0:	8a23      	ldrh	r3, [r4, #16]
  b2:	f8a4 800c 	strh.w	r8, [r4, #12]
  b6:	8263      	strh	r3, [r4, #18]
  b8:	8b23      	ldrh	r3, [r4, #24]
  ba:	f8ad 7080 	strh.w	r7, [sp, #128]	; 0x80
  be:	8363      	strh	r3, [r4, #26]
  c0:	f8bd 308c 	ldrh.w	r3, [sp, #140]	; 0x8c
  c4:	f8ad 6086 	strh.w	r6, [sp, #134]	; 0x86
  c8:	f8ad 308e 	strh.w	r3, [sp, #142]	; 0x8e
  cc:	2e00      	cmp	r6, #0
  ce:	d1cf      	bne.n	70 <mdns_handle_probe_tiebreaking+0x70>
  d0:	981f      	ldr	r0, [sp, #124]	; 0x7c
  d2:	b108      	cbz	r0, d8 <mdns_handle_probe_tiebreaking+0xd8>
  d4:	f7ff fffe 	bl	0 <pbuf_free>
  d8:	f20d 5dec 	addw	sp, sp, #1516	; 0x5ec
  dc:	e8bd 8ff0 	ldmia.w	sp!, {r4, r5, r6, r7, r8, r9, sl, fp, pc}
  e0:	f7ff fffe 	bl	0 <mdns_handle_probe_tiebreaking>
  e4:	2800      	cmp	r0, #0
  e6:	d1f3      	bne.n	d0 <mdns_handle_probe_tiebreaking+0xd0>
  e8:	8a63      	ldrh	r3, [r4, #18]
  ea:	a9ad      	add	r1, sp, #692	; 0x2b4
  ec:	4620      	mov	r0, r4
  ee:	2b00      	cmp	r3, #0
  f0:	d1f6      	bne.n	e0 <mdns_handle_probe_tiebreaking+0xe0>
  f2:	4633      	mov	r3, r6
  f4:	e005      	b.n	102 <mdns_handle_probe_tiebreaking+0x102>
  f6:	f7ff fffe 	bl	0 <mdns_handle_probe_tiebreaking>
  fa:	2800      	cmp	r0, #0
  fc:	d1e8      	bne.n	d0 <mdns_handle_probe_tiebreaking+0xd0>
  fe:	f8bd 3086 	ldrh.w	r3, [sp, #134]	; 0x86
 102:	a9ad      	add	r1, sp, #692	; 0x2b4
 104:	a81d      	add	r0, sp, #116	; 0x74
 106:	2b00      	cmp	r3, #0
 108:	d1f5      	bne.n	f6 <mdns_handle_probe_tiebreaking+0xf6>
 10a:	e9cd 330a 	strd	r3, r3, [sp, #40]	; 0x28
 10e:	930c      	str	r3, [sp, #48]	; 0x30
 110:	f8bd 308e 	ldrh.w	r3, [sp, #142]	; 0x8e
 114:	b31b      	cbz	r3, 15e <mdns_handle_probe_tiebreaking+0x15e>
 116:	f20d 41d4 	addw	r1, sp, #1236	; 0x4d4
 11a:	f10d 028e 	add.w	r2, sp, #142	; 0x8e
 11e:	a81d      	add	r0, sp, #116	; 0x74
 120:	f8bd 9080 	ldrh.w	r9, [sp, #128]	; 0x80
 124:	f7ff fffe 	bl	0 <mdns_handle_probe_tiebreaking>
 128:	f20d 41d4 	addw	r1, sp, #1236	; 0x4d4
 12c:	2800      	cmp	r0, #0
 12e:	d1cf      	bne.n	d0 <mdns_handle_probe_tiebreaking+0xd0>
 130:	f8bd 32ac 	ldrh.w	r3, [sp, #684]	; 0x2ac
 134:	2bff      	cmp	r3, #255	; 0xff
 136:	d003      	beq.n	140 <mdns_handle_probe_tiebreaking+0x140>
 138:	f8bd 25d8 	ldrh.w	r2, [sp, #1496]	; 0x5d8
 13c:	429a      	cmp	r2, r3
 13e:	d1e7      	bne.n	110 <mdns_handle_probe_tiebreaking+0x110>
 140:	a86a      	add	r0, sp, #424	; 0x1a8
 142:	f7ff fffe 	bl	0 <mdns_domain_eq>
 146:	2800      	cmp	r0, #0
 148:	d0e2      	beq.n	110 <mdns_handle_probe_tiebreaking+0x110>
 14a:	464a      	mov	r2, r9
 14c:	f20d 43d4 	addw	r3, sp, #1236	; 0x4d4
 150:	a91d      	add	r1, sp, #116	; 0x74
 152:	a80a      	add	r0, sp, #40	; 0x28
 154:	f7ff fffe 	bl	0 <mdns_handle_probe_tiebreaking>
 158:	2800      	cmp	r0, #0
 15a:	d0d9      	beq.n	110 <mdns_handle_probe_tiebreaking+0x110>
 15c:	e7b8      	b.n	d0 <mdns_handle_probe_tiebreaking+0xd0>
 15e:	2300      	movs	r3, #0
 160:	f104 091a 	add.w	r9, r4, #26
 164:	e9cd 3307 	strd	r3, r3, [sp, #28]
 168:	9309      	str	r3, [sp, #36]	; 0x24
 16a:	8b63      	ldrh	r3, [r4, #26]
 16c:	b1fb      	cbz	r3, 1ae <mdns_handle_probe_tiebreaking+0x1ae>
 16e:	a9f0      	add	r1, sp, #960	; 0x3c0
 170:	464a      	mov	r2, r9
 172:	4620      	mov	r0, r4
 174:	f8b4 a00c 	ldrh.w	sl, [r4, #12]
 178:	f7ff fffe 	bl	0 <mdns_handle_probe_tiebreaking>
 17c:	a9f0      	add	r1, sp, #960	; 0x3c0
 17e:	2800      	cmp	r0, #0
 180:	d1a6      	bne.n	d0 <mdns_handle_probe_tiebreaking+0xd0>
 182:	f8bd 32ac 	ldrh.w	r3, [sp, #684]	; 0x2ac
 186:	2bff      	cmp	r3, #255	; 0xff
 188:	d003      	beq.n	192 <mdns_handle_probe_tiebreaking+0x192>
 18a:	f8bd 24c4 	ldrh.w	r2, [sp, #1220]	; 0x4c4
 18e:	429a      	cmp	r2, r3
 190:	d1eb      	bne.n	16a <mdns_handle_probe_tiebreaking+0x16a>
 192:	a86a      	add	r0, sp, #424	; 0x1a8
 194:	f7ff fffe 	bl	0 <mdns_domain_eq>
 198:	2800      	cmp	r0, #0
 19a:	d0e6      	beq.n	16a <mdns_handle_probe_tiebreaking+0x16a>
 19c:	4652      	mov	r2, sl
 19e:	abf0      	add	r3, sp, #960	; 0x3c0
 1a0:	4621      	mov	r1, r4
 1a2:	a807      	add	r0, sp, #28
 1a4:	f7ff fffe 	bl	0 <mdns_handle_probe_tiebreaking>
 1a8:	2800      	cmp	r0, #0
 1aa:	d0de      	beq.n	16a <mdns_handle_probe_tiebreaking+0x16a>
 1ac:	e790      	b.n	d0 <mdns_handle_probe_tiebreaking+0xd0>
 1ae:	f8bd 2026 	ldrh.w	r2, [sp, #38]	; 0x26
 1b2:	f8bd 1032 	ldrh.w	r1, [sp, #50]	; 0x32
 1b6:	f8bd 308c 	ldrh.w	r3, [sp, #140]	; 0x8c
 1ba:	428a      	cmp	r2, r1
 1bc:	9203      	str	r2, [sp, #12]
 1be:	f8ad 308e 	strh.w	r3, [sp, #142]	; 0x8e
 1c2:	8b23      	ldrh	r3, [r4, #24]
 1c4:	9104      	str	r1, [sp, #16]
 1c6:	8363      	strh	r3, [r4, #26]
 1c8:	4613      	mov	r3, r2
 1ca:	bf28      	it	cs
 1cc:	460b      	movcs	r3, r1
 1ce:	2b00      	cmp	r3, #0
 1d0:	d04b      	beq.n	26a <mdns_handle_probe_tiebreaking+0x26a>
 1d2:	f10d 0928 	add.w	r9, sp, #40	; 0x28
 1d6:	9605      	str	r6, [sp, #20]
 1d8:	f10d 0a1c 	add.w	sl, sp, #28
 1dc:	f104 0b1a 	add.w	fp, r4, #26
 1e0:	eb09 0343 	add.w	r3, r9, r3, lsl #1
 1e4:	461e      	mov	r6, r3
 1e6:	f839 3b02 	ldrh.w	r3, [r9], #2
 1ea:	f10d 028e 	add.w	r2, sp, #142	; 0x8e
 1ee:	f20d 41d4 	addw	r1, sp, #1236	; 0x4d4
 1f2:	a81d      	add	r0, sp, #116	; 0x74
 1f4:	f8ad 3080 	strh.w	r3, [sp, #128]	; 0x80
 1f8:	f7ff fffe 	bl	0 <mdns_handle_probe_tiebreaking>
 1fc:	2800      	cmp	r0, #0
 1fe:	f47f af67 	bne.w	d0 <mdns_handle_probe_tiebreaking+0xd0>
 202:	f83a 3b02 	ldrh.w	r3, [sl], #2
 206:	465a      	mov	r2, fp
 208:	a9f0      	add	r1, sp, #960	; 0x3c0
 20a:	4620      	mov	r0, r4
 20c:	81a3      	strh	r3, [r4, #12]
 20e:	f7ff fffe 	bl	0 <mdns_handle_probe_tiebreaking>
 212:	2800      	cmp	r0, #0
 214:	f47f af5c 	bne.w	d0 <mdns_handle_probe_tiebreaking+0xd0>
 218:	f8bd 25da 	ldrh.w	r2, [sp, #1498]	; 0x5da
 21c:	f8bd 34c6 	ldrh.w	r3, [sp, #1222]	; 0x4c6
 220:	429a      	cmp	r2, r3
 222:	d00b      	beq.n	23c <mdns_handle_probe_tiebreaking+0x23c>
 224:	f63f af54 	bhi.w	d0 <mdns_handle_probe_tiebreaking+0xd0>
 228:	4628      	mov	r0, r5
 22a:	f7ff fffe 	bl	0 <mdns_handle_probe_tiebreaking>
 22e:	4628      	mov	r0, r5
 230:	f44f 717a 	mov.w	r1, #1000	; 0x3e8
 234:	f7ff fffe 	bl	0 <mdns_handle_probe_tiebreaking>
 238:	981f      	ldr	r0, [sp, #124]	; 0x7c
 23a:	e74a      	b.n	d2 <mdns_handle_probe_tiebreaking+0xd2>
 23c:	f10d 031b 	add.w	r3, sp, #27
 240:	f20d 42d4 	addw	r2, sp, #1236	; 0x4d4
 244:	4621      	mov	r1, r4
 246:	a81d      	add	r0, sp, #116	; 0x74
 248:	9300      	str	r3, [sp, #0]
 24a:	abf0      	add	r3, sp, #960	; 0x3c0
 24c:	f7ff fffe 	bl	0 <mdns_handle_probe_tiebreaking>
 250:	2800      	cmp	r0, #0
 252:	f47f af3d 	bne.w	d0 <mdns_handle_probe_tiebreaking+0xd0>
 256:	f89d 301b 	ldrb.w	r3, [sp, #27]
 25a:	2b02      	cmp	r3, #2
 25c:	f43f af38 	beq.w	d0 <mdns_handle_probe_tiebreaking+0xd0>
 260:	2b01      	cmp	r3, #1
 262:	d0e1      	beq.n	228 <mdns_handle_probe_tiebreaking+0x228>
 264:	454e      	cmp	r6, r9
 266:	d1be      	bne.n	1e6 <mdns_handle_probe_tiebreaking+0x1e6>
 268:	9e05      	ldr	r6, [sp, #20]
 26a:	e9dd 3203 	ldrd	r3, r2, [sp, #12]
 26e:	4293      	cmp	r3, r2
 270:	f43f af1e 	beq.w	b0 <mdns_handle_probe_tiebreaking+0xb0>
 274:	f4ff af2c 	bcc.w	d0 <mdns_handle_probe_tiebreaking+0xd0>
 278:	e7d6      	b.n	228 <mdns_handle_probe_tiebreaking+0x228>
 27a:	bf00      	nop

Disassembly of section .text.mdns_handle_question:

00000000 <mdns_handle_question>:
   0:	e92d 4ff0 	stmdb	sp!, {r4, r5, r6, r7, r8, r9, sl, fp, lr}
   4:	f8df a378 	ldr.w	sl, [pc, #888]	; 380 <mdns_handle_question+0x380>
   8:	b0cf      	sub	sp, #316	; 0x13c
   a:	460e      	mov	r6, r1
   c:	4605      	mov	r5, r0
   e:	f89a 3000 	ldrb.w	r3, [sl]
  12:	eb01 0383 	add.w	r3, r1, r3, lsl #2
  16:	69db      	ldr	r3, [r3, #28]
  18:	9300      	str	r3, [sp, #0]
  1a:	f893 304d 	ldrb.w	r3, [r3, #77]	; 0x4d
  1e:	1e9a      	subs	r2, r3, #2
  20:	2a01      	cmp	r2, #1
  22:	f240 80a9 	bls.w	178 <mdns_handle_question+0x178>
  26:	3b04      	subs	r3, #4
  28:	2b01      	cmp	r3, #1
  2a:	f200 80a9 	bhi.w	180 <mdns_handle_question+0x180>
  2e:	f89a 3000 	ldrb.w	r3, [sl]
  32:	eb06 0383 	add.w	r3, r6, r3, lsl #2
  36:	f8d3 901c 	ldr.w	r9, [r3, #28]
  3a:	2300      	movs	r3, #0
  3c:	e9cd 3302 	strd	r3, r3, [sp, #8]
  40:	e9cd 3304 	strd	r3, r3, [sp, #16]
  44:	e9cd 3306 	strd	r3, r3, [sp, #24]
  48:	9308      	str	r3, [sp, #32]
  4a:	8a6b      	ldrh	r3, [r5, #18]
  4c:	2b00      	cmp	r3, #0
  4e:	d039      	beq.n	c4 <mdns_handle_question+0xc4>
  50:	ac09      	add	r4, sp, #36	; 0x24
  52:	4621      	mov	r1, r4
  54:	4628      	mov	r0, r5
  56:	f7ff fffe 	bl	0 <mdns_handle_question>
  5a:	2800      	cmp	r0, #0
  5c:	f040 8090 	bne.w	180 <mdns_handle_question+0x180>
  60:	4620      	mov	r0, r4
  62:	f7ff fffe 	bl	0 <mdns_domain_debug_print>
  66:	f8b4 3108 	ldrh.w	r3, [r4, #264]	; 0x108
  6a:	b11b      	cbz	r3, 74 <mdns_handle_question+0x74>
  6c:	f04f 0301 	mov.w	r3, #1
  70:	f88d 3013 	strb.w	r3, [sp, #19]
  74:	f8b4 3106 	ldrh.w	r3, [r4, #262]	; 0x106
  78:	2b01      	cmp	r3, #1
  7a:	f000 8088 	beq.w	18e <mdns_handle_question+0x18e>
  7e:	2bff      	cmp	r3, #255	; 0xff
  80:	f000 8085 	beq.w	18e <mdns_handle_question+0x18e>
  84:	2000      	movs	r0, #0
  86:	f89d 301a 	ldrb.w	r3, [sp, #26]
  8a:	f109 083c 	add.w	r8, r9, #60	; 0x3c
  8e:	af07      	add	r7, sp, #28
  90:	f109 0b48 	add.w	fp, r9, #72	; 0x48
  94:	4318      	orrs	r0, r3
  96:	f88d 001a 	strb.w	r0, [sp, #26]
  9a:	f858 0f04 	ldr.w	r0, [r8, #4]!
  9e:	b150      	cbz	r0, b6 <mdns_handle_question+0xb6>
  a0:	f8b4 2106 	ldrh.w	r2, [r4, #262]	; 0x106
  a4:	4621      	mov	r1, r4
  a6:	2300      	movs	r3, #0
  a8:	2a01      	cmp	r2, #1
  aa:	d06c      	beq.n	186 <mdns_handle_question+0x186>
  ac:	2aff      	cmp	r2, #255	; 0xff
  ae:	d06a      	beq.n	186 <mdns_handle_question+0x186>
  b0:	783a      	ldrb	r2, [r7, #0]
  b2:	4313      	orrs	r3, r2
  b4:	703b      	strb	r3, [r7, #0]
  b6:	45c3      	cmp	fp, r8
  b8:	f107 0701 	add.w	r7, r7, #1
  bc:	d1ed      	bne.n	9a <mdns_handle_question+0x9a>
  be:	8a6b      	ldrh	r3, [r5, #18]
  c0:	2b00      	cmp	r3, #0
  c2:	d1c6      	bne.n	52 <mdns_handle_question+0x52>
  c4:	aa02      	add	r2, sp, #8
  c6:	4629      	mov	r1, r5
  c8:	4630      	mov	r0, r6
  ca:	f7ff fffe 	bl	0 <mdns_handle_question>
  ce:	2800      	cmp	r0, #0
  d0:	d156      	bne.n	180 <mdns_handle_question+0x180>
  d2:	6a2c      	ldr	r4, [r5, #32]
  d4:	b14c      	cbz	r4, ea <mdns_handle_question+0xea>
  d6:	4621      	mov	r1, r4
  d8:	aa02      	add	r2, sp, #8
  da:	4630      	mov	r0, r6
  dc:	f7ff fffe 	bl	0 <mdns_handle_question>
  e0:	2800      	cmp	r0, #0
  e2:	d14d      	bne.n	180 <mdns_handle_question+0x180>
  e4:	6a24      	ldr	r4, [r4, #32]
  e6:	2c00      	cmp	r4, #0
  e8:	d1f5      	bne.n	d6 <mdns_handle_question+0xd6>
  ea:	f89a 3000 	ldrb.w	r3, [sl]
  ee:	eb06 0383 	add.w	r3, r6, r3, lsl #2
  f2:	69db      	ldr	r3, [r3, #28]
  f4:	9301      	str	r3, [sp, #4]
  f6:	8b6b      	ldrh	r3, [r5, #26]
  f8:	2b00      	cmp	r3, #0
  fa:	d066      	beq.n	1ca <mdns_handle_question+0x1ca>
  fc:	9b01      	ldr	r3, [sp, #4]
  fe:	f105 091a 	add.w	r9, r5, #26
 102:	ac09      	add	r4, sp, #36	; 0x24
 104:	f103 0a48 	add.w	sl, r3, #72	; 0x48
 108:	e002      	b.n	110 <mdns_handle_question+0x110>
 10a:	8b6b      	ldrh	r3, [r5, #26]
 10c:	2b00      	cmp	r3, #0
 10e:	d05c      	beq.n	1ca <mdns_handle_question+0x1ca>
 110:	464a      	mov	r2, r9
 112:	4621      	mov	r1, r4
 114:	4628      	mov	r0, r5
 116:	f7ff fffe 	bl	0 <mdns_handle_question>
 11a:	bb88      	cbnz	r0, 180 <mdns_handle_question+0x180>
 11c:	4620      	mov	r0, r4
 11e:	f7ff fffe 	bl	0 <mdns_domain_debug_print>
 122:	f8b4 3104 	ldrh.w	r3, [r4, #260]	; 0x104
 126:	2bff      	cmp	r3, #255	; 0xff
 128:	d0ef      	beq.n	10a <mdns_handle_question+0x10a>
 12a:	f8b4 7106 	ldrh.w	r7, [r4, #262]	; 0x106
 12e:	2fff      	cmp	r7, #255	; 0xff
 130:	d0eb      	beq.n	10a <mdns_handle_question+0x10a>
 132:	2f01      	cmp	r7, #1
 134:	f89d 801a 	ldrb.w	r8, [sp, #26]
 138:	d108      	bne.n	14c <mdns_handle_question+0x14c>
 13a:	4621      	mov	r1, r4
 13c:	4630      	mov	r0, r6
 13e:	f7ff fffe 	bl	0 <mdns_handle_question>
 142:	ea18 0f00 	tst.w	r8, r0
 146:	bf18      	it	ne
 148:	f88d 7015 	strbne.w	r7, [sp, #21]
 14c:	9b01      	ldr	r3, [sp, #4]
 14e:	f10d 081c 	add.w	r8, sp, #28
 152:	f103 073c 	add.w	r7, r3, #60	; 0x3c
 156:	f857 0f04 	ldr.w	r0, [r7, #4]!
 15a:	b140      	cbz	r0, 16e <mdns_handle_question+0x16e>
 15c:	f8b4 3106 	ldrh.w	r3, [r4, #262]	; 0x106
 160:	4621      	mov	r1, r4
 162:	f898 b000 	ldrb.w	fp, [r8]
 166:	2b01      	cmp	r3, #1
 168:	d025      	beq.n	1b6 <mdns_handle_question+0x1b6>
 16a:	2bff      	cmp	r3, #255	; 0xff
 16c:	d023      	beq.n	1b6 <mdns_handle_question+0x1b6>
 16e:	4557      	cmp	r7, sl
 170:	f108 0801 	add.w	r8, r8, #1
 174:	d1ef      	bne.n	156 <mdns_handle_question+0x156>
 176:	e7c8      	b.n	10a <mdns_handle_question+0x10a>
 178:	8a03      	ldrh	r3, [r0, #16]
 17a:	b10b      	cbz	r3, 180 <mdns_handle_question+0x180>
 17c:	8a83      	ldrh	r3, [r0, #20]
 17e:	b163      	cbz	r3, 19a <mdns_handle_question+0x19a>
 180:	b04f      	add	sp, #316	; 0x13c
 182:	e8bd 8ff0 	ldmia.w	sp!, {r4, r5, r6, r7, r8, r9, sl, fp, pc}
 186:	f7ff fffe 	bl	0 <mdns_handle_question>
 18a:	b2c3      	uxtb	r3, r0
 18c:	e790      	b.n	b0 <mdns_handle_question+0xb0>
 18e:	4621      	mov	r1, r4
 190:	4630      	mov	r0, r6
 192:	f7ff fffe 	bl	0 <mdns_handle_question>
 196:	b2c0      	uxtb	r0, r0
 198:	e775      	b.n	86 <mdns_handle_question+0x86>
 19a:	8b03      	ldrh	r3, [r0, #24]
 19c:	2b00      	cmp	r3, #0
 19e:	d0ef      	beq.n	180 <mdns_handle_question+0x180>
 1a0:	8b83      	ldrh	r3, [r0, #28]
 1a2:	2b00      	cmp	r3, #0
 1a4:	d1ec      	bne.n	180 <mdns_handle_question+0x180>
 1a6:	4601      	mov	r1, r0
 1a8:	4630      	mov	r0, r6
 1aa:	f7ff fffe 	bl	0 <mdns_handle_question>
 1ae:	9b00      	ldr	r3, [sp, #0]
 1b0:	f893 304d 	ldrb.w	r3, [r3, #77]	; 0x4d
 1b4:	e737      	b.n	26 <mdns_handle_question+0x26>
 1b6:	f7ff fffe 	bl	0 <mdns_handle_question>
 1ba:	ea1b 0f00 	tst.w	fp, r0
 1be:	d0d6      	beq.n	16e <mdns_handle_question+0x16e>
 1c0:	f04f 0301 	mov.w	r3, #1
 1c4:	f88d 3015 	strb.w	r3, [sp, #21]
 1c8:	e7d1      	b.n	16e <mdns_handle_question+0x16e>
 1ca:	f89d 2016 	ldrb.w	r2, [sp, #22]
 1ce:	f89d 301a 	ldrb.w	r3, [sp, #26]
 1d2:	f89d 001c 	ldrb.w	r0, [sp, #28]
 1d6:	4313      	orrs	r3, r2
 1d8:	f89d 2017 	ldrb.w	r2, [sp, #23]
 1dc:	f89d 1018 	ldrb.w	r1, [sp, #24]
 1e0:	4303      	orrs	r3, r0
 1e2:	f89d 4019 	ldrb.w	r4, [sp, #25]
 1e6:	4313      	orrs	r3, r2
 1e8:	f89d 201d 	ldrb.w	r2, [sp, #29]
 1ec:	4313      	orrs	r3, r2
 1ee:	430b      	orrs	r3, r1
 1f0:	f89d 101e 	ldrb.w	r1, [sp, #30]
 1f4:	430b      	orrs	r3, r1
 1f6:	4323      	orrs	r3, r4
 1f8:	d0c2      	beq.n	180 <mdns_handle_question+0x180>
 1fa:	2384      	movs	r3, #132	; 0x84
 1fc:	88ac      	ldrh	r4, [r5, #4]
 1fe:	f88d 300a 	strb.w	r3, [sp, #10]
 202:	f241 43e9 	movw	r3, #5353	; 0x14e9
 206:	429c      	cmp	r4, r3
 208:	d05a      	beq.n	2c0 <mdns_handle_question+0x2c0>
 20a:	8a2b      	ldrh	r3, [r5, #16]
 20c:	2b01      	cmp	r3, #1
 20e:	d1b7      	bne.n	180 <mdns_handle_question+0x180>
 210:	f8b5 c00e 	ldrh.w	ip, [r5, #14]
 214:	f88d 3014 	strb.w	r3, [sp, #20]
 218:	f8ad c008 	strh.w	ip, [sp, #8]
 21c:	f04f 0c00 	mov.w	ip, #0
 220:	f88d c012 	strb.w	ip, [sp, #18]
 224:	4302      	orrs	r2, r0
 226:	430a      	orrs	r2, r1
 228:	f012 0f30 	tst.w	r2, #48	; 0x30
 22c:	d101      	bne.n	232 <mdns_handle_question+0x232>
 22e:	2b01      	cmp	r3, #1
 230:	d04b      	beq.n	2ca <mdns_handle_question+0x2ca>
 232:	f89d 1015 	ldrb.w	r1, [sp, #21]
 236:	2900      	cmp	r1, #0
 238:	d14c      	bne.n	2d4 <mdns_handle_question+0x2d4>
 23a:	2301      	movs	r3, #1
 23c:	9a00      	ldr	r2, [sp, #0]
 23e:	f892 1070 	ldrb.w	r1, [r2, #112]	; 0x70
 242:	f89d 2013 	ldrb.w	r2, [sp, #19]
 246:	b109      	cbz	r1, 24c <mdns_handle_question+0x24c>
 248:	b9a2      	cbnz	r2, 274 <mdns_handle_question+0x274>
 24a:	4611      	mov	r1, r2
 24c:	88e8      	ldrh	r0, [r5, #6]
 24e:	b988      	cbnz	r0, 274 <mdns_handle_question+0x274>
 250:	f89d 0014 	ldrb.w	r0, [sp, #20]
 254:	b970      	cbnz	r0, 274 <mdns_handle_question+0x274>
 256:	2900      	cmp	r1, #0
 258:	d06b      	beq.n	332 <mdns_handle_question+0x332>
 25a:	b95a      	cbnz	r2, 274 <mdns_handle_question+0x274>
 25c:	2b00      	cmp	r3, #0
 25e:	d057      	beq.n	310 <mdns_handle_question+0x310>
 260:	9c00      	ldr	r4, [sp, #0]
 262:	a902      	add	r1, sp, #8
 264:	f104 0054 	add.w	r0, r4, #84	; 0x54
 268:	f7ff fffe 	bl	0 <mdns_handle_question>
 26c:	2301      	movs	r3, #1
 26e:	f884 3050 	strb.w	r3, [r4, #80]	; 0x50
 272:	e785      	b.n	180 <mdns_handle_question+0x180>
 274:	2b00      	cmp	r3, #0
 276:	d035      	beq.n	2e4 <mdns_handle_question+0x2e4>
 278:	9b00      	ldr	r3, [sp, #0]
 27a:	f893 3071 	ldrb.w	r3, [r3, #113]	; 0x71
 27e:	2b00      	cmp	r3, #0
 280:	f47f af7e 	bne.w	180 <mdns_handle_question+0x180>
 284:	9a00      	ldr	r2, [sp, #0]
 286:	a902      	add	r1, sp, #8
 288:	682b      	ldr	r3, [r5, #0]
 28a:	2464      	movs	r4, #100	; 0x64
 28c:	f102 0074 	add.w	r0, r2, #116	; 0x74
 290:	6793      	str	r3, [r2, #120]	; 0x78
 292:	88ab      	ldrh	r3, [r5, #4]
 294:	4615      	mov	r5, r2
 296:	f8a2 307c 	strh.w	r3, [r2, #124]	; 0x7c
 29a:	f7ff fffe 	bl	0 <mdns_handle_question>
 29e:	f7ff fffe 	bl	0 <qnethernet_hal_rand>
 2a2:	4933      	ldr	r1, [pc, #204]	; (370 <mdns_handle_question+0x370>)
 2a4:	4602      	mov	r2, r0
 2a6:	f105 0371 	add.w	r3, r5, #113	; 0x71
 2aa:	4630      	mov	r0, r6
 2ac:	fba1 5102 	umull	r5, r1, r1, r2
 2b0:	0949      	lsrs	r1, r1, #5
 2b2:	fb04 2111 	mls	r1, r4, r1, r2
 2b6:	4a2f      	ldr	r2, [pc, #188]	; (374 <mdns_handle_question+0x374>)
 2b8:	3114      	adds	r1, #20
 2ba:	f7ff fffe 	bl	0 <mdns_set_timeout>
 2be:	e75f      	b.n	180 <mdns_handle_question+0x180>
 2c0:	2301      	movs	r3, #1
 2c2:	f88d 3012 	strb.w	r3, [sp, #18]
 2c6:	8a2b      	ldrh	r3, [r5, #16]
 2c8:	e7ac      	b.n	224 <mdns_handle_question+0x224>
 2ca:	f89d 3015 	ldrb.w	r3, [sp, #21]
 2ce:	2b00      	cmp	r3, #0
 2d0:	d0b4      	beq.n	23c <mdns_handle_question+0x23c>
 2d2:	4619      	mov	r1, r3
 2d4:	f89d 2013 	ldrb.w	r2, [sp, #19]
 2d8:	b16a      	cbz	r2, 2f6 <mdns_handle_question+0x2f6>
 2da:	9b00      	ldr	r3, [sp, #0]
 2dc:	f893 3070 	ldrb.w	r3, [r3, #112]	; 0x70
 2e0:	2b00      	cmp	r3, #0
 2e2:	d0b3      	beq.n	24c <mdns_handle_question+0x24c>
 2e4:	682b      	ldr	r3, [r5, #0]
 2e6:	4631      	mov	r1, r6
 2e8:	a802      	add	r0, sp, #8
 2ea:	f8ad 4010 	strh.w	r4, [sp, #16]
 2ee:	9303      	str	r3, [sp, #12]
 2f0:	f7ff fffe 	bl	0 <mdns_send_outpacket>
 2f4:	e744      	b.n	180 <mdns_handle_question+0x180>
 2f6:	9b00      	ldr	r3, [sp, #0]
 2f8:	f893 3052 	ldrb.w	r3, [r3, #82]	; 0x52
 2fc:	3b00      	subs	r3, #0
 2fe:	bf18      	it	ne
 300:	2301      	movne	r3, #1
 302:	e7a3      	b.n	24c <mdns_handle_question+0x24c>
 304:	9b00      	ldr	r3, [sp, #0]
 306:	f893 3051 	ldrb.w	r3, [r3, #81]	; 0x51
 30a:	2b00      	cmp	r3, #0
 30c:	f47f af38 	bne.w	180 <mdns_handle_question+0x180>
 310:	4a19      	ldr	r2, [pc, #100]	; (378 <mdns_handle_question+0x378>)
 312:	f241 43e9 	movw	r3, #5353	; 0x14e9
 316:	4631      	mov	r1, r6
 318:	a802      	add	r0, sp, #8
 31a:	9203      	str	r2, [sp, #12]
 31c:	f8ad 3010 	strh.w	r3, [sp, #16]
 320:	f7ff fffe 	bl	0 <mdns_send_outpacket>
 324:	2800      	cmp	r0, #0
 326:	f47f af2b 	bne.w	180 <mdns_handle_question+0x180>
 32a:	4630      	mov	r0, r6
 32c:	f7ff fffe 	bl	0 <mdns_start_multicast_timeouts_ipv4>
 330:	e726      	b.n	180 <mdns_handle_question+0x180>
 332:	2b00      	cmp	r3, #0
 334:	d0e6      	beq.n	304 <mdns_handle_question+0x304>
 336:	9b00      	ldr	r3, [sp, #0]
 338:	f893 3051 	ldrb.w	r3, [r3, #81]	; 0x51
 33c:	2b00      	cmp	r3, #0
 33e:	f47f af1f 	bne.w	180 <mdns_handle_question+0x180>
 342:	9c00      	ldr	r4, [sp, #0]
 344:	a902      	add	r1, sp, #8
 346:	f104 0054 	add.w	r0, r4, #84	; 0x54
 34a:	f7ff fffe 	bl	0 <mdns_handle_question>
 34e:	f7ff fffe 	bl	0 <qnethernet_hal_rand>
 352:	2164      	movs	r1, #100	; 0x64
 354:	4602      	mov	r2, r0
 356:	f104 0350 	add.w	r3, r4, #80	; 0x50
 35a:	4630      	mov	r0, r6
 35c:	fbb2 f4f1 	udiv	r4, r2, r1
 360:	fb04 2111 	mls	r1, r4, r1, r2
 364:	4a05      	ldr	r2, [pc, #20]	; (37c <mdns_handle_question+0x37c>)
 366:	3114      	adds	r1, #20
 368:	f7ff fffe 	bl	0 <mdns_set_timeout>
 36c:	e708      	b.n	180 <mdns_handle_question+0x180>
 36e:	bf00      	nop
 370:	51eb851f 	.word	0x51eb851f
 374:	00000000 	.word	0x00000000
 378:	fb0000e0 	.word	0xfb0000e0
 37c:	00000000 	.word	0x00000000
 380:	00000000 	.word	0x00000000

Disassembly of section .text.mdns_handle_tc_question:

00000000 <mdns_handle_tc_question>:
   0:	6883      	ldr	r3, [r0, #8]
   2:	b570      	push	{r4, r5, r6, lr}
   4:	4605      	mov	r5, r0
   6:	7bd8      	ldrb	r0, [r3, #15]
   8:	f7ff fffe 	bl	0 <netif_get_by_index>
   c:	4601      	mov	r1, r0
   e:	4628      	mov	r0, r5
  10:	f7ff fffe 	bl	0 <mdns_handle_tc_question>
  14:	4b1b      	ldr	r3, [pc, #108]	; (84 <mdns_handle_tc_question+0x84>)
  16:	681c      	ldr	r4, [r3, #0]
  18:	42ac      	cmp	r4, r5
  1a:	d02f      	beq.n	7c <mdns_handle_tc_question+0x7c>
  1c:	b12c      	cbz	r4, 2a <mdns_handle_tc_question+0x2a>
  1e:	6a63      	ldr	r3, [r4, #36]	; 0x24
  20:	42ab      	cmp	r3, r5
  22:	d011      	beq.n	48 <mdns_handle_tc_question+0x48>
  24:	461c      	mov	r4, r3
  26:	2c00      	cmp	r4, #0
  28:	d1f9      	bne.n	1e <mdns_handle_tc_question+0x1e>
  2a:	4b17      	ldr	r3, [pc, #92]	; (88 <mdns_handle_tc_question+0x88>)
  2c:	f240 62b6 	movw	r2, #1718	; 0x6b6
  30:	4916      	ldr	r1, [pc, #88]	; (8c <mdns_handle_tc_question+0x8c>)
  32:	4817      	ldr	r0, [pc, #92]	; (90 <mdns_handle_tc_question+0x90>)
  34:	f7ff fffe 	bl	0 <printf>
  38:	4620      	mov	r0, r4
  3a:	f7ff fffe 	bl	0 <fflush>
  3e:	2001      	movs	r0, #1
  40:	f7ff fffe 	bl	0 <qnethernet_hal_stdio_flush>
  44:	f7ff fffe 	bl	0 <abort>
  48:	6a6b      	ldr	r3, [r5, #36]	; 0x24
  4a:	6263      	str	r3, [r4, #36]	; 0x24
  4c:	6a2c      	ldr	r4, [r5, #32]
  4e:	b164      	cbz	r4, 6a <mdns_handle_tc_question+0x6a>
  50:	4e10      	ldr	r6, [pc, #64]	; (94 <mdns_handle_tc_question+0x94>)
  52:	6a23      	ldr	r3, [r4, #32]
  54:	68a0      	ldr	r0, [r4, #8]
  56:	622b      	str	r3, [r5, #32]
  58:	f7ff fffe 	bl	0 <pbuf_free>
  5c:	4621      	mov	r1, r4
  5e:	4630      	mov	r0, r6
  60:	f7ff fffe 	bl	0 <memp_free_pool>
  64:	6a2c      	ldr	r4, [r5, #32]
  66:	2c00      	cmp	r4, #0
  68:	d1f3      	bne.n	52 <mdns_handle_tc_question+0x52>
  6a:	68a8      	ldr	r0, [r5, #8]
  6c:	f7ff fffe 	bl	0 <pbuf_free>
  70:	4629      	mov	r1, r5
  72:	4808      	ldr	r0, [pc, #32]	; (94 <mdns_handle_tc_question+0x94>)
  74:	e8bd 4070 	ldmia.w	sp!, {r4, r5, r6, lr}
  78:	f7ff bffe 	b.w	0 <memp_free_pool>
  7c:	6a6a      	ldr	r2, [r5, #36]	; 0x24
  7e:	601a      	str	r2, [r3, #0]
  80:	e7e4      	b.n	4c <mdns_handle_tc_question+0x4c>
  82:	bf00      	nop
  84:	00000000 	.word	0x00000000
  88:	00000000 	.word	0x00000000
  8c:	00000000 	.word	0x00000000
  90:	00000058 	.word	0x00000058
  94:	00000000 	.word	0x00000000

Disassembly of section .text.mdns_resp_add_service:

00000000 <mdns_resp_add_service>:
   0:	e92d 4ff8 	stmdb	sp!, {r3, r4, r5, r6, r7, r8, r9, sl, fp, lr}
   4:	4606      	mov	r6, r0
   6:	460f      	mov	r7, r1
   8:	4690      	mov	r8, r2
   a:	f640 11dd 	movw	r1, #2525	; 0x9dd
   e:	4a40      	ldr	r2, [pc, #256]	; (110 <mdns_resp_add_service+0x110>)
  10:	469a      	mov	sl, r3
  12:	4840      	ldr	r0, [pc, #256]	; (114 <mdns_resp_add_service+0x114>)
  14:	f8bd b028 	ldrh.w	fp, [sp, #40]	; 0x28
  18:	f7ff fffe 	bl	0 <qnethernet_hal_check_core_locking>
  1c:	2e00      	cmp	r6, #0
  1e:	d067      	beq.n	f0 <mdns_resp_add_service+0xf0>
  20:	4b3d      	ldr	r3, [pc, #244]	; (118 <mdns_resp_add_service+0x118>)
  22:	781b      	ldrb	r3, [r3, #0]
  24:	eb06 0383 	add.w	r3, r6, r3, lsl #2
  28:	f8d3 901c 	ldr.w	r9, [r3, #28]
  2c:	f1b9 0f00 	cmp.w	r9, #0
  30:	d05b      	beq.n	ea <mdns_resp_add_service+0xea>
  32:	4638      	mov	r0, r7
  34:	f7ff fffe 	bl	0 <strlen>
  38:	283f      	cmp	r0, #63	; 0x3f
  3a:	d856      	bhi.n	ea <mdns_resp_add_service+0xea>
  3c:	4640      	mov	r0, r8
  3e:	f7ff fffe 	bl	0 <strlen>
  42:	f1ba 0f01 	cmp.w	sl, #1
  46:	d850      	bhi.n	ea <mdns_resp_add_service+0xea>
  48:	283f      	cmp	r0, #63	; 0x3f
  4a:	d84e      	bhi.n	ea <mdns_resp_add_service+0xea>
  4c:	f8d9 5040 	ldr.w	r5, [r9, #64]	; 0x40
  50:	b15d      	cbz	r5, 6a <mdns_resp_add_service+0x6a>
  52:	f8d9 3044 	ldr.w	r3, [r9, #68]	; 0x44
  56:	b13b      	cbz	r3, 68 <mdns_resp_add_service+0x68>
  58:	f8d9 3048 	ldr.w	r3, [r9, #72]	; 0x48
  5c:	2b00      	cmp	r3, #0
  5e:	d042      	beq.n	e6 <mdns_resp_add_service+0xe6>
  60:	f04f 30ff 	mov.w	r0, #4294967295	; 0xffffffff
  64:	e8bd 8ff8 	ldmia.w	sp!, {r3, r4, r5, r6, r7, r8, r9, sl, fp, pc}
  68:	2501      	movs	r5, #1
  6a:	f44f 71c8 	mov.w	r1, #400	; 0x190
  6e:	2001      	movs	r0, #1
  70:	f7ff fffe 	bl	0 <mem_calloc>
  74:	4604      	mov	r4, r0
  76:	2800      	cmp	r0, #0
  78:	d0f2      	beq.n	60 <mdns_resp_add_service+0x60>
  7a:	4638      	mov	r0, r7
  7c:	f7ff fffe 	bl	0 <strlen>
  80:	283f      	cmp	r0, #63	; 0x3f
  82:	4602      	mov	r2, r0
  84:	4639      	mov	r1, r7
  86:	bf28      	it	cs
  88:	223f      	movcs	r2, #63	; 0x3f
  8a:	f504 7082 	add.w	r0, r4, #260	; 0x104
  8e:	f7ff fffe 	bl	0 <memcpy>
  92:	4640      	mov	r0, r8
  94:	f7ff fffe 	bl	0 <strlen>
  98:	283f      	cmp	r0, #63	; 0x3f
  9a:	4602      	mov	r2, r0
  9c:	4641      	mov	r1, r8
  9e:	bf28      	it	cs
  a0:	223f      	movcs	r2, #63	; 0x3f
  a2:	f504 70a2 	add.w	r0, r4, #324	; 0x144
  a6:	f7ff fffe 	bl	0 <memcpy>
  aa:	9b0b      	ldr	r3, [sp, #44]	; 0x2c
  ac:	f8a4 a18c 	strh.w	sl, [r4, #396]	; 0x18c
  b0:	f8c4 3184 	str.w	r3, [r4, #388]	; 0x184
  b4:	9b0c      	ldr	r3, [sp, #48]	; 0x30
  b6:	f8a4 b18e 	strh.w	fp, [r4, #398]	; 0x18e
  ba:	f8c4 3188 	str.w	r3, [r4, #392]	; 0x188
  be:	f105 0310 	add.w	r3, r5, #16
  c2:	f849 4023 	str.w	r4, [r9, r3, lsl #2]
  c6:	f7ff fffe 	bl	0 <qnethernet_hal_rand>
  ca:	4b14      	ldr	r3, [pc, #80]	; (11c <mdns_resp_add_service+0x11c>)
  cc:	4601      	mov	r1, r0
  ce:	22fa      	movs	r2, #250	; 0xfa
  d0:	4630      	mov	r0, r6
  d2:	fba3 4301 	umull	r4, r3, r3, r1
  d6:	091b      	lsrs	r3, r3, #4
  d8:	fb02 1113 	mls	r1, r2, r3, r1
  dc:	f7ff fffe 	bl	0 <mdns_resp_add_service>
  e0:	b268      	sxtb	r0, r5
  e2:	e8bd 8ff8 	ldmia.w	sp!, {r3, r4, r5, r6, r7, r8, r9, sl, fp, pc}
  e6:	2502      	movs	r5, #2
  e8:	e7bf      	b.n	6a <mdns_resp_add_service+0x6a>
  ea:	f06f 0005 	mvn.w	r0, #5
  ee:	e7b9      	b.n	64 <mdns_resp_add_service+0x64>
  f0:	4b08      	ldr	r3, [pc, #32]	; (114 <mdns_resp_add_service+0x114>)
  f2:	f640 12de 	movw	r2, #2526	; 0x9de
  f6:	490a      	ldr	r1, [pc, #40]	; (120 <mdns_resp_add_service+0x120>)
  f8:	480a      	ldr	r0, [pc, #40]	; (124 <mdns_resp_add_service+0x124>)
  fa:	f7ff fffe 	bl	0 <printf>
  fe:	4630      	mov	r0, r6
 100:	f7ff fffe 	bl	0 <fflush>
 104:	2001      	movs	r0, #1
 106:	f7ff fffe 	bl	0 <qnethernet_hal_stdio_flush>
 10a:	f7ff fffe 	bl	0 <abort>
 10e:	bf00      	nop
 110:	00000000 	.word	0x00000000
 114:	00000000 	.word	0x00000000
 118:	00000000 	.word	0x00000000
 11c:	10624dd3 	.word	0x10624dd3
 120:	00000000 	.word	0x00000000
 124:	00000058 	.word	0x00000058

Disassembly of section .text.mdns_resp_add_netif:

00000000 <mdns_resp_add_netif>:
   0:	e92d 41f0 	stmdb	sp!, {r4, r5, r6, r7, r8, lr}
   4:	4605      	mov	r5, r0
   6:	460e      	mov	r6, r1
   8:	4a33      	ldr	r2, [pc, #204]	; (d8 <mdns_resp_add_netif+0xd8>)
   a:	f640 1145 	movw	r1, #2373	; 0x945
   e:	4833      	ldr	r0, [pc, #204]	; (dc <mdns_resp_add_netif+0xdc>)
  10:	f7ff fffe 	bl	0 <qnethernet_hal_check_core_locking>
  14:	2d00      	cmp	r5, #0
  16:	d049      	beq.n	ac <mdns_resp_add_netif+0xac>
  18:	4630      	mov	r0, r6
  1a:	f7ff fffe 	bl	0 <strlen>
  1e:	283f      	cmp	r0, #63	; 0x3f
  20:	d844      	bhi.n	ac <mdns_resp_add_netif+0xac>
  22:	4f2f      	ldr	r7, [pc, #188]	; (e0 <mdns_resp_add_netif+0xe0>)
  24:	783b      	ldrb	r3, [r7, #0]
  26:	eb05 0383 	add.w	r3, r5, r3, lsl #2
  2a:	f8d3 801c 	ldr.w	r8, [r3, #28]
  2e:	f1b8 0f00 	cmp.w	r8, #0
  32:	d141      	bne.n	b8 <mdns_resp_add_netif+0xb8>
  34:	21d0      	movs	r1, #208	; 0xd0
  36:	2001      	movs	r0, #1
  38:	f7ff fffe 	bl	0 <mem_calloc>
  3c:	4604      	mov	r4, r0
  3e:	b3c0      	cbz	r0, b2 <mdns_resp_add_netif+0xb2>
  40:	783b      	ldrb	r3, [r7, #0]
  42:	eb05 0383 	add.w	r3, r5, r3, lsl #2
  46:	61d8      	str	r0, [r3, #28]
  48:	4630      	mov	r0, r6
  4a:	f7ff fffe 	bl	0 <strlen>
  4e:	283f      	cmp	r0, #63	; 0x3f
  50:	4602      	mov	r2, r0
  52:	4631      	mov	r1, r6
  54:	bf28      	it	cs
  56:	223f      	movcs	r2, #63	; 0x3f
  58:	4620      	mov	r0, r4
  5a:	f7ff fffe 	bl	0 <memcpy>
  5e:	f241 43e9 	movw	r3, #5353	; 0x14e9
  62:	4920      	ldr	r1, [pc, #128]	; (e4 <mdns_resp_add_netif+0xe4>)
  64:	4628      	mov	r0, r5
  66:	f8a4 305c 	strh.w	r3, [r4, #92]	; 0x5c
  6a:	4b1f      	ldr	r3, [pc, #124]	; (e8 <mdns_resp_add_netif+0xe8>)
  6c:	65a3      	str	r3, [r4, #88]	; 0x58
  6e:	f7ff fffe 	bl	0 <igmp_joingroup_netif>
  72:	4606      	mov	r6, r0
  74:	b978      	cbnz	r0, 96 <mdns_resp_add_netif+0x96>
  76:	f7ff fffe 	bl	0 <qnethernet_hal_rand>
  7a:	4b1c      	ldr	r3, [pc, #112]	; (ec <mdns_resp_add_netif+0xec>)
  7c:	4601      	mov	r1, r0
  7e:	22fa      	movs	r2, #250	; 0xfa
  80:	4628      	mov	r0, r5
  82:	fba3 4301 	umull	r4, r3, r3, r1
  86:	091b      	lsrs	r3, r3, #4
  88:	fb02 1113 	mls	r1, r2, r3, r1
  8c:	f7ff fffe 	bl	0 <mdns_resp_add_netif>
  90:	4630      	mov	r0, r6
  92:	e8bd 81f0 	ldmia.w	sp!, {r4, r5, r6, r7, r8, pc}
  96:	4620      	mov	r0, r4
  98:	f7ff fffe 	bl	0 <mem_free>
  9c:	783b      	ldrb	r3, [r7, #0]
  9e:	4630      	mov	r0, r6
  a0:	eb05 0383 	add.w	r3, r5, r3, lsl #2
  a4:	f8c3 801c 	str.w	r8, [r3, #28]
  a8:	e8bd 81f0 	ldmia.w	sp!, {r4, r5, r6, r7, r8, pc}
  ac:	f06f 0605 	mvn.w	r6, #5
  b0:	e7ee      	b.n	90 <mdns_resp_add_netif+0x90>
  b2:	f04f 36ff 	mov.w	r6, #4294967295	; 0xffffffff
  b6:	e7eb      	b.n	90 <mdns_resp_add_netif+0x90>
  b8:	4b08      	ldr	r3, [pc, #32]	; (dc <mdns_resp_add_netif+0xdc>)
  ba:	f640 1249 	movw	r2, #2377	; 0x949
  be:	490c      	ldr	r1, [pc, #48]	; (f0 <mdns_resp_add_netif+0xf0>)
  c0:	480c      	ldr	r0, [pc, #48]	; (f4 <mdns_resp_add_netif+0xf4>)
  c2:	f7ff fffe 	bl	0 <printf>
  c6:	2000      	movs	r0, #0
  c8:	f7ff fffe 	bl	0 <fflush>
  cc:	2001      	movs	r0, #1
  ce:	f7ff fffe 	bl	0 <qnethernet_hal_stdio_flush>
  d2:	f7ff fffe 	bl	0 <abort>
  d6:	bf00      	nop
  d8:	00000000 	.word	0x00000000
  dc:	00000000 	.word	0x00000000
  e0:	00000000 	.word	0x00000000
  e4:	00000000 	.word	0x00000000
  e8:	fb0000e0 	.word	0xfb0000e0
  ec:	10624dd3 	.word	0x10624dd3
  f0:	00000000 	.word	0x00000000
  f4:	00000058 	.word	0x00000058

Disassembly of section .text.mdns_netif_ext_status_callback:

00000000 <mdns_netif_ext_status_callback>:
   0:	4b21      	ldr	r3, [pc, #132]	; (88 <mdns_netif_ext_status_callback+0x88>)
   2:	781b      	ldrb	r3, [r3, #0]
   4:	eb00 0383 	add.w	r3, r0, r3, lsl #2
   8:	69db      	ldr	r3, [r3, #28]
   a:	2b00      	cmp	r3, #0
   c:	d03a      	beq.n	84 <mdns_netif_ext_status_callback+0x84>
   e:	b570      	push	{r4, r5, r6, lr}
  10:	4615      	mov	r5, r2
  12:	070a      	lsls	r2, r1, #28
  14:	4606      	mov	r6, r0
  16:	460c      	mov	r4, r1
  18:	d511      	bpl.n	3e <mdns_netif_ext_status_callback+0x3e>
  1a:	782b      	ldrb	r3, [r5, #0]
  1c:	b91b      	cbnz	r3, 26 <mdns_netif_ext_status_callback+0x26>
  1e:	f414 7f7c 	tst.w	r4, #1008	; 0x3f0
  22:	d120      	bne.n	66 <mdns_netif_ext_status_callback+0x66>
  24:	bd70      	pop	{r4, r5, r6, pc}
  26:	f7ff fffe 	bl	0 <qnethernet_hal_rand>
  2a:	4b18      	ldr	r3, [pc, #96]	; (8c <mdns_netif_ext_status_callback+0x8c>)
  2c:	21fa      	movs	r1, #250	; 0xfa
  2e:	fba3 2300 	umull	r2, r3, r3, r0
  32:	091b      	lsrs	r3, r3, #4
  34:	fb01 0113 	mls	r1, r1, r3, r0
  38:	4630      	mov	r0, r6
  3a:	f7ff fffe 	bl	0 <mdns_netif_ext_status_callback>
  3e:	0763      	lsls	r3, r4, #29
  40:	d5ed      	bpl.n	1e <mdns_netif_ext_status_callback+0x1e>
  42:	782b      	ldrb	r3, [r5, #0]
  44:	2b00      	cmp	r3, #0
  46:	d0ea      	beq.n	1e <mdns_netif_ext_status_callback+0x1e>
  48:	f7ff fffe 	bl	0 <qnethernet_hal_rand>
  4c:	4b0f      	ldr	r3, [pc, #60]	; (8c <mdns_netif_ext_status_callback+0x8c>)
  4e:	21fa      	movs	r1, #250	; 0xfa
  50:	fba3 2300 	umull	r2, r3, r3, r0
  54:	091b      	lsrs	r3, r3, #4
  56:	fb01 0113 	mls	r1, r1, r3, r0
  5a:	4630      	mov	r0, r6
  5c:	f7ff fffe 	bl	0 <mdns_netif_ext_status_callback>
  60:	f414 7f7c 	tst.w	r4, #1008	; 0x3f0
  64:	d0de      	beq.n	24 <mdns_netif_ext_status_callback+0x24>
  66:	f7ff fffe 	bl	0 <qnethernet_hal_rand>
  6a:	4b08      	ldr	r3, [pc, #32]	; (8c <mdns_netif_ext_status_callback+0x8c>)
  6c:	4601      	mov	r1, r0
  6e:	22fa      	movs	r2, #250	; 0xfa
  70:	4630      	mov	r0, r6
  72:	fba3 4301 	umull	r4, r3, r3, r1
  76:	091b      	lsrs	r3, r3, #4
  78:	e8bd 4070 	ldmia.w	sp!, {r4, r5, r6, lr}
  7c:	fb02 1113 	mls	r1, r2, r3, r1
  80:	f7ff bffe 	b.w	0 <mdns_netif_ext_status_callback>
  84:	4770      	bx	lr
  86:	bf00      	nop
  88:	00000000 	.word	0x00000000
  8c:	10624dd3 	.word	0x10624dd3

Disassembly of section .text.mdns_handle_response:

00000000 <mdns_handle_response>:
   0:	e92d 4ff0 	stmdb	sp!, {r4, r5, r6, r7, r8, r9, sl, fp, lr}
   4:	4bb0      	ldr	r3, [pc, #704]	; (2c8 <mdns_handle_response+0x2c8>)
   6:	4605      	mov	r5, r0
   8:	f241 42e9 	movw	r2, #5353	; 0x14e9
   c:	4608      	mov	r0, r1
   e:	ed2d 8b02 	vpush	{d8}
  12:	f2ad 4d4c 	subw	sp, sp, #1100	; 0x44c
  16:	781b      	ldrb	r3, [r3, #0]
  18:	9104      	str	r1, [sp, #16]
  1a:	eb00 0383 	add.w	r3, r0, r3, lsl #2
  1e:	88a9      	ldrh	r1, [r5, #4]
  20:	69df      	ldr	r7, [r3, #28]
  22:	4291      	cmp	r1, r2
  24:	d124      	bne.n	70 <mdns_handle_response+0x70>
  26:	8a6e      	ldrh	r6, [r5, #18]
  28:	b346      	cbz	r6, 7c <mdns_handle_response+0x7c>
  2a:	f8df 82ac 	ldr.w	r8, [pc, #684]	; 2d8 <mdns_handle_response+0x2d8>
  2e:	accd      	add	r4, sp, #820	; 0x334
  30:	f508 79aa 	add.w	r9, r8, #340	; 0x154
  34:	e016      	b.n	64 <mdns_handle_response+0x64>
  36:	f8d8 3144 	ldr.w	r3, [r8, #324]	; 0x144
  3a:	b133      	cbz	r3, 4a <mdns_handle_response+0x4a>
  3c:	4621      	mov	r1, r4
  3e:	4640      	mov	r0, r8
  40:	f7ff fffe 	bl	0 <mdns_handle_response>
  44:	2800      	cmp	r0, #0
  46:	f040 8198 	bne.w	37a <mdns_handle_response+0x37a>
  4a:	f8d8 3298 	ldr.w	r3, [r8, #664]	; 0x298
  4e:	b133      	cbz	r3, 5e <mdns_handle_response+0x5e>
  50:	4621      	mov	r1, r4
  52:	4648      	mov	r0, r9
  54:	f7ff fffe 	bl	0 <mdns_handle_response>
  58:	2800      	cmp	r0, #0
  5a:	f040 8190 	bne.w	37e <mdns_handle_response+0x37e>
  5e:	2600      	movs	r6, #0
  60:	8a6b      	ldrh	r3, [r5, #18]
  62:	b15b      	cbz	r3, 7c <mdns_handle_response+0x7c>
  64:	4621      	mov	r1, r4
  66:	4628      	mov	r0, r5
  68:	f7ff fffe 	bl	0 <mdns_handle_response>
  6c:	2800      	cmp	r0, #0
  6e:	d0e2      	beq.n	36 <mdns_handle_response+0x36>
  70:	f20d 4d4c 	addw	sp, sp, #1100	; 0x44c
  74:	ecbd 8b02 	vpop	{d8}
  78:	e8bd 8ff0 	ldmia.w	sp!, {r4, r5, r6, r7, r8, r9, sl, fp, pc}
  7c:	8b6a      	ldrh	r2, [r5, #26]
  7e:	8aeb      	ldrh	r3, [r5, #22]
  80:	4413      	add	r3, r2
  82:	8bea      	ldrh	r2, [r5, #30]
  84:	4413      	add	r3, r2
  86:	b29b      	uxth	r3, r3
  88:	f8ad 301c 	strh.w	r3, [sp, #28]
  8c:	2b00      	cmp	r3, #0
  8e:	f000 80b7 	beq.w	200 <mdns_handle_response+0x200>
  92:	2301      	movs	r3, #1
  94:	accd      	add	r4, sp, #820	; 0x334
  96:	f8df b240 	ldr.w	fp, [pc, #576]	; 2d8 <mdns_handle_response+0x2d8>
  9a:	9303      	str	r3, [sp, #12]
  9c:	9702      	str	r7, [sp, #8]
  9e:	e03f      	b.n	120 <mdns_handle_response+0x120>
  a0:	f8b6 2140 	ldrh.w	r2, [r6, #320]	; 0x140
  a4:	4621      	mov	r1, r4
  a6:	f106 0040 	add.w	r0, r6, #64	; 0x40
  aa:	f7ff fffe 	bl	0 <memcmp>
  ae:	2800      	cmp	r0, #0
  b0:	d15c      	bne.n	16c <mdns_handle_response+0x16c>
  b2:	f8d6 3144 	ldr.w	r3, [r6, #324]	; 0x144
  b6:	b32b      	cbz	r3, 104 <mdns_handle_response+0x104>
  b8:	f1b8 0f0c 	cmp.w	r8, #12
  bc:	d12c      	bne.n	118 <mdns_handle_response+0x118>
  be:	f04f 0803 	mov.w	r8, #3
  c2:	f8b4 1112 	ldrh.w	r1, [r4, #274]	; 0x112
  c6:	aa49      	add	r2, sp, #292	; 0x124
  c8:	68a8      	ldr	r0, [r5, #8]
  ca:	f7ff fffe 	bl	0 <pbuf_skip>
  ce:	4682      	mov	sl, r0
  d0:	2800      	cmp	r0, #0
  d2:	d0cd      	beq.n	70 <mdns_handle_response+0x70>
  d4:	f8b4 3104 	ldrh.w	r3, [r4, #260]	; 0x104
  d8:	2b0c      	cmp	r3, #12
  da:	f000 809b 	beq.w	214 <mdns_handle_response+0x214>
  de:	2b21      	cmp	r3, #33	; 0x21
  e0:	f000 8098 	beq.w	214 <mdns_handle_response+0x214>
  e4:	6841      	ldr	r1, [r0, #4]
  e6:	4620      	mov	r0, r4
  e8:	f8bd 3124 	ldrh.w	r3, [sp, #292]	; 0x124
  ec:	f8d6 2148 	ldr.w	r2, [r6, #328]	; 0x148
  f0:	4419      	add	r1, r3
  f2:	4643      	mov	r3, r8
  f4:	9200      	str	r2, [sp, #0]
  f6:	f8b4 2110 	ldrh.w	r2, [r4, #272]	; 0x110
  fa:	f8d6 7144 	ldr.w	r7, [r6, #324]	; 0x144
  fe:	47b8      	blx	r7
 100:	2300      	movs	r3, #0
 102:	9303      	str	r3, [sp, #12]
 104:	9b02      	ldr	r3, [sp, #8]
 106:	f893 304d 	ldrb.w	r3, [r3, #77]	; 0x4d
 10a:	1e9a      	subs	r2, r3, #2
 10c:	2a01      	cmp	r2, #1
 10e:	d949      	bls.n	1a4 <mdns_handle_response+0x1a4>
 110:	3b04      	subs	r3, #4
 112:	2b01      	cmp	r3, #1
 114:	f240 80e2 	bls.w	2dc <mdns_handle_response+0x2dc>
 118:	f8bd 301c 	ldrh.w	r3, [sp, #28]
 11c:	2b00      	cmp	r3, #0
 11e:	d06f      	beq.n	200 <mdns_handle_response+0x200>
 120:	aa07      	add	r2, sp, #28
 122:	4621      	mov	r1, r4
 124:	4628      	mov	r0, r5
 126:	f7ff fffe 	bl	0 <mdns_handle_response>
 12a:	2800      	cmp	r0, #0
 12c:	d1a0      	bne.n	70 <mdns_handle_response+0x70>
 12e:	4620      	mov	r0, r4
 130:	f7ff fffe 	bl	0 <mdns_domain_debug_print>
 134:	f8b4 8104 	ldrh.w	r8, [r4, #260]	; 0x104
 138:	f1b8 0fff 	cmp.w	r8, #255	; 0xff
 13c:	d0ec      	beq.n	118 <mdns_handle_response+0x118>
 13e:	f8b4 3106 	ldrh.w	r3, [r4, #262]	; 0x106
 142:	2b01      	cmp	r3, #1
 144:	d1e8      	bne.n	118 <mdns_handle_response+0x118>
 146:	b18e      	cbz	r6, 16c <mdns_handle_response+0x16c>
 148:	f8b6 3150 	ldrh.w	r3, [r6, #336]	; 0x150
 14c:	2b00      	cmp	r3, #0
 14e:	d1a7      	bne.n	a0 <mdns_handle_response+0xa0>
 150:	f8d6 3144 	ldr.w	r3, [r6, #324]	; 0x144
 154:	2b00      	cmp	r3, #0
 156:	d0d5      	beq.n	104 <mdns_handle_response+0x104>
 158:	f8bd 801c 	ldrh.w	r8, [sp, #28]
 15c:	9b03      	ldr	r3, [sp, #12]
 15e:	fab8 f888 	clz	r8, r8
 162:	ea4f 1858 	mov.w	r8, r8, lsr #5
 166:	ea43 0848 	orr.w	r8, r3, r8, lsl #1
 16a:	e7aa      	b.n	c2 <mdns_handle_response+0xc2>
 16c:	f8db 3144 	ldr.w	r3, [fp, #324]	; 0x144
 170:	b133      	cbz	r3, 180 <mdns_handle_response+0x180>
 172:	4621      	mov	r1, r4
 174:	4658      	mov	r0, fp
 176:	f7ff fffe 	bl	0 <mdns_handle_response>
 17a:	2800      	cmp	r0, #0
 17c:	f040 8140 	bne.w	400 <mdns_handle_response+0x400>
 180:	f8db 6298 	ldr.w	r6, [fp, #664]	; 0x298
 184:	2e00      	cmp	r6, #0
 186:	d0bd      	beq.n	104 <mdns_handle_response+0x104>
 188:	4621      	mov	r1, r4
 18a:	4850      	ldr	r0, [pc, #320]	; (2cc <mdns_handle_response+0x2cc>)
 18c:	f7ff fffe 	bl	0 <mdns_handle_response>
 190:	2800      	cmp	r0, #0
 192:	f040 8144 	bne.w	41e <mdns_handle_response+0x41e>
 196:	9b02      	ldr	r3, [sp, #8]
 198:	4606      	mov	r6, r0
 19a:	f893 304d 	ldrb.w	r3, [r3, #77]	; 0x4d
 19e:	1e9a      	subs	r2, r3, #2
 1a0:	2a01      	cmp	r2, #1
 1a2:	d8b5      	bhi.n	110 <mdns_handle_response+0x110>
 1a4:	f50d 790a 	add.w	r9, sp, #552	; 0x228
 1a8:	9902      	ldr	r1, [sp, #8]
 1aa:	4648      	mov	r0, r9
 1ac:	f7ff fffe 	bl	0 <mdns_build_host_domain>
 1b0:	4680      	mov	r8, r0
 1b2:	2800      	cmp	r0, #0
 1b4:	d070      	beq.n	298 <mdns_handle_response+0x298>
 1b6:	9b02      	ldr	r3, [sp, #8]
 1b8:	ee08 4a10 	vmov	s16, r4
 1bc:	4637      	mov	r7, r6
 1be:	464c      	mov	r4, r9
 1c0:	f103 0a3c 	add.w	sl, r3, #60	; 0x3c
 1c4:	f04f 0800 	mov.w	r8, #0
 1c8:	4699      	mov	r9, r3
 1ca:	4656      	mov	r6, sl
 1cc:	f856 1f04 	ldr.w	r1, [r6, #4]!
 1d0:	2201      	movs	r2, #1
 1d2:	4620      	mov	r0, r4
 1d4:	b121      	cbz	r1, 1e0 <mdns_handle_response+0x1e0>
 1d6:	f7ff fffe 	bl	0 <mdns_build_service_domain>
 1da:	4682      	mov	sl, r0
 1dc:	2800      	cmp	r0, #0
 1de:	d041      	beq.n	264 <mdns_handle_response+0x264>
 1e0:	f108 0801 	add.w	r8, r8, #1
 1e4:	fa5f f888 	uxtb.w	r8, r8
 1e8:	f1b8 0f03 	cmp.w	r8, #3
 1ec:	d1ee      	bne.n	1cc <mdns_handle_response+0x1cc>
 1ee:	f8bd 301c 	ldrh.w	r3, [sp, #28]
 1f2:	463e      	mov	r6, r7
 1f4:	ee18 4a10 	vmov	r4, s16
 1f8:	f8cd 9008 	str.w	r9, [sp, #8]
 1fc:	2b00      	cmp	r3, #0
 1fe:	d18f      	bne.n	120 <mdns_handle_response+0x120>
 200:	2300      	movs	r3, #0
 202:	82eb      	strh	r3, [r5, #22]
 204:	836b      	strh	r3, [r5, #26]
 206:	83eb      	strh	r3, [r5, #30]
 208:	f20d 4d4c 	addw	sp, sp, #1100	; 0x44c
 20c:	ecbd 8b02 	vpop	{d8}
 210:	e8bd 8ff0 	ldmia.w	sp!, {r4, r5, r6, r7, r8, r9, sl, fp, pc}
 214:	2b21      	cmp	r3, #33	; 0x21
 216:	f8b4 1112 	ldrh.w	r1, [r4, #274]	; 0x112
 21a:	f20d 222e 	addw	r2, sp, #558	; 0x22e
 21e:	68a8      	ldr	r0, [r5, #8]
 220:	bf0c      	ite	eq
 222:	2306      	moveq	r3, #6
 224:	2300      	movne	r3, #0
 226:	f50d 790a 	add.w	r9, sp, #552	; 0x228
 22a:	4419      	add	r1, r3
 22c:	9303      	str	r3, [sp, #12]
 22e:	b289      	uxth	r1, r1
 230:	f7ff fffe 	bl	0 <mdns_readname>
 234:	f64f 72ff 	movw	r2, #65535	; 0xffff
 238:	9b03      	ldr	r3, [sp, #12]
 23a:	4290      	cmp	r0, r2
 23c:	f000 80b2 	beq.w	3a4 <mdns_handle_response+0x3a4>
 240:	f8b4 3104 	ldrh.w	r3, [r4, #260]	; 0x104
 244:	2b21      	cmp	r3, #33	; 0x21
 246:	f000 809c 	beq.w	382 <mdns_handle_response+0x382>
 24a:	f8b9 2106 	ldrh.w	r2, [r9, #262]	; 0x106
 24e:	f20d 212e 	addw	r1, sp, #558	; 0x22e
 252:	f8d6 0148 	ldr.w	r0, [r6, #328]	; 0x148
 256:	4643      	mov	r3, r8
 258:	9000      	str	r0, [sp, #0]
 25a:	4620      	mov	r0, r4
 25c:	f8d6 7144 	ldr.w	r7, [r6, #324]	; 0x144
 260:	47b8      	blx	r7
 262:	e74d      	b.n	100 <mdns_handle_response+0x100>
 264:	4621      	mov	r1, r4
 266:	ee18 0a10 	vmov	r0, s16
 26a:	f7ff fffe 	bl	0 <mdns_domain_eq>
 26e:	2800      	cmp	r0, #0
 270:	d0b6      	beq.n	1e0 <mdns_handle_response+0x1e0>
 272:	9c04      	ldr	r4, [sp, #16]
 274:	4620      	mov	r0, r4
 276:	f7ff fffe 	bl	0 <mdns_handle_response>
 27a:	4621      	mov	r1, r4
 27c:	4814      	ldr	r0, [pc, #80]	; (2d0 <mdns_handle_response+0x2d0>)
 27e:	f7ff fffe 	bl	0 <sys_untimeout>
 282:	4b14      	ldr	r3, [pc, #80]	; (2d4 <mdns_handle_response+0x2d4>)
 284:	681b      	ldr	r3, [r3, #0]
 286:	2b00      	cmp	r3, #0
 288:	d0ba      	beq.n	200 <mdns_handle_response+0x200>
 28a:	f108 0201 	add.w	r2, r8, #1
 28e:	4651      	mov	r1, sl
 290:	4620      	mov	r0, r4
 292:	b252      	sxtb	r2, r2
 294:	4798      	blx	r3
 296:	e7b3      	b.n	200 <mdns_handle_response+0x200>
 298:	4649      	mov	r1, r9
 29a:	4620      	mov	r0, r4
 29c:	f7ff fffe 	bl	0 <mdns_domain_eq>
 2a0:	2800      	cmp	r0, #0
 2a2:	d088      	beq.n	1b6 <mdns_handle_response+0x1b6>
 2a4:	9c04      	ldr	r4, [sp, #16]
 2a6:	4620      	mov	r0, r4
 2a8:	f7ff fffe 	bl	0 <mdns_handle_response>
 2ac:	4621      	mov	r1, r4
 2ae:	4808      	ldr	r0, [pc, #32]	; (2d0 <mdns_handle_response+0x2d0>)
 2b0:	f7ff fffe 	bl	0 <sys_untimeout>
 2b4:	4b07      	ldr	r3, [pc, #28]	; (2d4 <mdns_handle_response+0x2d4>)
 2b6:	681b      	ldr	r3, [r3, #0]
 2b8:	2b00      	cmp	r3, #0
 2ba:	d0a1      	beq.n	200 <mdns_handle_response+0x200>
 2bc:	4642      	mov	r2, r8
 2be:	4641      	mov	r1, r8
 2c0:	4620      	mov	r0, r4
 2c2:	4798      	blx	r3
 2c4:	e79c      	b.n	200 <mdns_handle_response+0x200>
 2c6:	bf00      	nop
 2c8:	00000000 	.word	0x00000000
 2cc:	00000154 	.word	0x00000154
 2d0:	00000000 	.word	0x00000000
 2d4:	00000000 	.word	0x00000000
 2d8:	00000000 	.word	0x00000000
 2dc:	9902      	ldr	r1, [sp, #8]
 2de:	a808      	add	r0, sp, #32
 2e0:	f7ff fffe 	bl	0 <mdns_build_host_domain>
 2e4:	2800      	cmp	r0, #0
 2e6:	d06e      	beq.n	3c6 <mdns_handle_response+0x3c6>
 2e8:	2300      	movs	r3, #0
 2ea:	9305      	str	r3, [sp, #20]
 2ec:	9f02      	ldr	r7, [sp, #8]
 2ee:	46b1      	mov	r9, r6
 2f0:	f04f 0801 	mov.w	r8, #1
 2f4:	f107 0a3c 	add.w	sl, r7, #60	; 0x3c
 2f8:	f85a 6f04 	ldr.w	r6, [sl, #4]!
 2fc:	b12e      	cbz	r6, 30a <mdns_handle_response+0x30a>
 2fe:	2201      	movs	r2, #1
 300:	4631      	mov	r1, r6
 302:	a808      	add	r0, sp, #32
 304:	f7ff fffe 	bl	0 <mdns_build_service_domain>
 308:	b188      	cbz	r0, 32e <mdns_handle_response+0x32e>
 30a:	f1b8 0f03 	cmp.w	r8, #3
 30e:	d020      	beq.n	352 <mdns_handle_response+0x352>
 310:	f108 0801 	add.w	r8, r8, #1
 314:	f85a 6f04 	ldr.w	r6, [sl, #4]!
 318:	fa5f f888 	uxtb.w	r8, r8
 31c:	2e00      	cmp	r6, #0
 31e:	d0f4      	beq.n	30a <mdns_handle_response+0x30a>
 320:	2201      	movs	r2, #1
 322:	4631      	mov	r1, r6
 324:	a808      	add	r0, sp, #32
 326:	f7ff fffe 	bl	0 <mdns_build_service_domain>
 32a:	2800      	cmp	r0, #0
 32c:	d1ed      	bne.n	30a <mdns_handle_response+0x30a>
 32e:	a908      	add	r1, sp, #32
 330:	4620      	mov	r0, r4
 332:	f7ff fffe 	bl	0 <mdns_domain_eq>
 336:	2800      	cmp	r0, #0
 338:	d0e7      	beq.n	30a <mdns_handle_response+0x30a>
 33a:	f8b4 3104 	ldrh.w	r3, [r4, #260]	; 0x104
 33e:	2b21      	cmp	r3, #33	; 0x21
 340:	d04f      	beq.n	3e2 <mdns_handle_response+0x3e2>
 342:	2b10      	cmp	r3, #16
 344:	d06d      	beq.n	422 <mdns_handle_response+0x422>
 346:	f1b8 0f03 	cmp.w	r8, #3
 34a:	d008      	beq.n	35e <mdns_handle_response+0x35e>
 34c:	2301      	movs	r3, #1
 34e:	9305      	str	r3, [sp, #20]
 350:	e7de      	b.n	310 <mdns_handle_response+0x310>
 352:	9b05      	ldr	r3, [sp, #20]
 354:	464e      	mov	r6, r9
 356:	9702      	str	r7, [sp, #8]
 358:	2b00      	cmp	r3, #0
 35a:	f43f aedd 	beq.w	118 <mdns_handle_response+0x118>
 35e:	f7ff fffe 	bl	0 <qnethernet_hal_rand>
 362:	4b65      	ldr	r3, [pc, #404]	; (4f8 <mdns_handle_response+0x4f8>)
 364:	4602      	mov	r2, r0
 366:	21fa      	movs	r1, #250	; 0xfa
 368:	9804      	ldr	r0, [sp, #16]
 36a:	fba3 4302 	umull	r4, r3, r3, r2
 36e:	091b      	lsrs	r3, r3, #4
 370:	fb01 2113 	mls	r1, r1, r3, r2
 374:	f7ff fffe 	bl	0 <mdns_handle_response>
 378:	e742      	b.n	200 <mdns_handle_response+0x200>
 37a:	4646      	mov	r6, r8
 37c:	e670      	b.n	60 <mdns_handle_response+0x60>
 37e:	464e      	mov	r6, r9
 380:	e66e      	b.n	60 <mdns_handle_response+0x60>
 382:	f8da 3004 	ldr.w	r3, [sl, #4]
 386:	f8bd 1124 	ldrh.w	r1, [sp, #292]	; 0x124
 38a:	f8b9 2106 	ldrh.w	r2, [r9, #262]	; 0x106
 38e:	5858      	ldr	r0, [r3, r1]
 390:	440b      	add	r3, r1
 392:	3206      	adds	r2, #6
 394:	4649      	mov	r1, r9
 396:	f8c9 0000 	str.w	r0, [r9]
 39a:	889b      	ldrh	r3, [r3, #4]
 39c:	b292      	uxth	r2, r2
 39e:	f8a9 3004 	strh.w	r3, [r9, #4]
 3a2:	e756      	b.n	252 <mdns_handle_response+0x252>
 3a4:	f8b4 2110 	ldrh.w	r2, [r4, #272]	; 0x110
 3a8:	f20d 202e 	addw	r0, sp, #558	; 0x22e
 3ac:	f8bd 1124 	ldrh.w	r1, [sp, #292]	; 0x124
 3b0:	1ad2      	subs	r2, r2, r3
 3b2:	440b      	add	r3, r1
 3b4:	f8da 1004 	ldr.w	r1, [sl, #4]
 3b8:	b292      	uxth	r2, r2
 3ba:	4419      	add	r1, r3
 3bc:	f8a9 2106 	strh.w	r2, [r9, #262]	; 0x106
 3c0:	f7ff fffe 	bl	0 <memcpy>
 3c4:	e73c      	b.n	240 <mdns_handle_response+0x240>
 3c6:	a908      	add	r1, sp, #32
 3c8:	4620      	mov	r0, r4
 3ca:	f7ff fffe 	bl	0 <mdns_domain_eq>
 3ce:	2800      	cmp	r0, #0
 3d0:	d08a      	beq.n	2e8 <mdns_handle_response+0x2e8>
 3d2:	f8b4 a104 	ldrh.w	sl, [r4, #260]	; 0x104
 3d6:	f1ba 0f01 	cmp.w	sl, #1
 3da:	d036      	beq.n	44a <mdns_handle_response+0x44a>
 3dc:	2301      	movs	r3, #1
 3de:	9305      	str	r3, [sp, #20]
 3e0:	e784      	b.n	2ec <mdns_handle_response+0x2ec>
 3e2:	f8b4 3112 	ldrh.w	r3, [r4, #274]	; 0x112
 3e6:	2202      	movs	r2, #2
 3e8:	f10d 011e 	add.w	r1, sp, #30
 3ec:	68a8      	ldr	r0, [r5, #8]
 3ee:	9302      	str	r3, [sp, #8]
 3f0:	f7ff fffe 	bl	0 <pbuf_copy_partial>
 3f4:	2802      	cmp	r0, #2
 3f6:	4602      	mov	r2, r0
 3f8:	d02e      	beq.n	458 <mdns_handle_response+0x458>
 3fa:	2301      	movs	r3, #1
 3fc:	9305      	str	r3, [sp, #20]
 3fe:	e784      	b.n	30a <mdns_handle_response+0x30a>
 400:	465e      	mov	r6, fp
 402:	f8d6 3144 	ldr.w	r3, [r6, #324]	; 0x144
 406:	2b00      	cmp	r3, #0
 408:	f43f ae7c 	beq.w	104 <mdns_handle_response+0x104>
 40c:	f8b6 3150 	ldrh.w	r3, [r6, #336]	; 0x150
 410:	f8bd 201c 	ldrh.w	r2, [sp, #28]
 414:	2b00      	cmp	r3, #0
 416:	d068      	beq.n	4ea <mdns_handle_response+0x4ea>
 418:	f8b4 8104 	ldrh.w	r8, [r4, #260]	; 0x104
 41c:	e64c      	b.n	b8 <mdns_handle_response+0xb8>
 41e:	4e37      	ldr	r6, [pc, #220]	; (4fc <mdns_handle_response+0x4fc>)
 420:	e7ef      	b.n	402 <mdns_handle_response+0x402>
 422:	4630      	mov	r0, r6
 424:	f7ff fffe 	bl	0 <mdns_prepare_txtdata>
 428:	f8b4 2110 	ldrh.w	r2, [r4, #272]	; 0x110
 42c:	f8b6 3100 	ldrh.w	r3, [r6, #256]	; 0x100
 430:	4293      	cmp	r3, r2
 432:	d188      	bne.n	346 <mdns_handle_response+0x346>
 434:	4632      	mov	r2, r6
 436:	f8b4 1112 	ldrh.w	r1, [r4, #274]	; 0x112
 43a:	68a8      	ldr	r0, [r5, #8]
 43c:	f7ff fffe 	bl	0 <pbuf_memcmp>
 440:	1e03      	subs	r3, r0, #0
 442:	bf18      	it	ne
 444:	2301      	movne	r3, #1
 446:	9305      	str	r3, [sp, #20]
 448:	e75f      	b.n	30a <mdns_handle_response+0x30a>
 44a:	f8b4 3110 	ldrh.w	r3, [r4, #272]	; 0x110
 44e:	2b04      	cmp	r3, #4
 450:	d040      	beq.n	4d4 <mdns_handle_response+0x4d4>
 452:	f8cd a014 	str.w	sl, [sp, #20]
 456:	e749      	b.n	2ec <mdns_handle_response+0x2ec>
 458:	f8bd 301e 	ldrh.w	r3, [sp, #30]
 45c:	2b00      	cmp	r3, #0
 45e:	d1cc      	bne.n	3fa <mdns_handle_response+0x3fa>
 460:	9b02      	ldr	r3, [sp, #8]
 462:	f10d 011e 	add.w	r1, sp, #30
 466:	68a8      	ldr	r0, [r5, #8]
 468:	3302      	adds	r3, #2
 46a:	b29b      	uxth	r3, r3
 46c:	f7ff fffe 	bl	0 <pbuf_copy_partial>
 470:	2802      	cmp	r0, #2
 472:	4602      	mov	r2, r0
 474:	d1c1      	bne.n	3fa <mdns_handle_response+0x3fa>
 476:	f8bd 301e 	ldrh.w	r3, [sp, #30]
 47a:	2b00      	cmp	r3, #0
 47c:	d1bd      	bne.n	3fa <mdns_handle_response+0x3fa>
 47e:	9b02      	ldr	r3, [sp, #8]
 480:	f10d 011e 	add.w	r1, sp, #30
 484:	68a8      	ldr	r0, [r5, #8]
 486:	3304      	adds	r3, #4
 488:	b29b      	uxth	r3, r3
 48a:	f7ff fffe 	bl	0 <pbuf_copy_partial>
 48e:	2802      	cmp	r0, #2
 490:	d1b3      	bne.n	3fa <mdns_handle_response+0x3fa>
 492:	f8bd 301e 	ldrh.w	r3, [sp, #30]
 496:	f8b6 218e 	ldrh.w	r2, [r6, #398]	; 0x18e
 49a:	ba5b      	rev16	r3, r3
 49c:	b29b      	uxth	r3, r3
 49e:	429a      	cmp	r2, r3
 4a0:	d1ab      	bne.n	3fa <mdns_handle_response+0x3fa>
 4a2:	9902      	ldr	r1, [sp, #8]
 4a4:	aa49      	add	r2, sp, #292	; 0x124
 4a6:	68a8      	ldr	r0, [r5, #8]
 4a8:	3106      	adds	r1, #6
 4aa:	b289      	uxth	r1, r1
 4ac:	f7ff fffe 	bl	0 <mdns_readname>
 4b0:	4639      	mov	r1, r7
 4b2:	4606      	mov	r6, r0
 4b4:	a88a      	add	r0, sp, #552	; 0x228
 4b6:	f7ff fffe 	bl	0 <mdns_build_host_domain>
 4ba:	f64f 73ff 	movw	r3, #65535	; 0xffff
 4be:	429e      	cmp	r6, r3
 4c0:	d09b      	beq.n	3fa <mdns_handle_response+0x3fa>
 4c2:	a98a      	add	r1, sp, #552	; 0x228
 4c4:	a849      	add	r0, sp, #292	; 0x124
 4c6:	f7ff fffe 	bl	0 <mdns_domain_eq>
 4ca:	fab0 f380 	clz	r3, r0
 4ce:	095b      	lsrs	r3, r3, #5
 4d0:	9305      	str	r3, [sp, #20]
 4d2:	e71a      	b.n	30a <mdns_handle_response+0x30a>
 4d4:	9a04      	ldr	r2, [sp, #16]
 4d6:	f8b4 1112 	ldrh.w	r1, [r4, #274]	; 0x112
 4da:	68a8      	ldr	r0, [r5, #8]
 4dc:	f7ff fffe 	bl	0 <pbuf_memcmp>
 4e0:	1e03      	subs	r3, r0, #0
 4e2:	bf18      	it	ne
 4e4:	2301      	movne	r3, #1
 4e6:	9305      	str	r3, [sp, #20]
 4e8:	e700      	b.n	2ec <mdns_handle_response+0x2ec>
 4ea:	fab2 f282 	clz	r2, r2
 4ee:	9b03      	ldr	r3, [sp, #12]
 4f0:	0952      	lsrs	r2, r2, #5
 4f2:	ea43 0842 	orr.w	r8, r3, r2, lsl #1
 4f6:	e5e4      	b.n	c2 <mdns_handle_response+0xc2>
 4f8:	10624dd3 	.word	0x10624dd3
 4fc:	00000154 	.word	0x00000154

Disassembly of section .text.mdns_recv:

00000000 <mdns_recv>:
   0:	e92d 43f0 	stmdb	sp!, {r4, r5, r6, r7, r8, r9, lr}
   4:	4966      	ldr	r1, [pc, #408]	; (1a0 <mdns_recv+0x1a0>)
   6:	b08f      	sub	sp, #60	; 0x3c
   8:	4f66      	ldr	r7, [pc, #408]	; (1a4 <mdns_recv+0x1a4>)
   a:	4614      	mov	r4, r2
   c:	7809      	ldrb	r1, [r1, #0]
   e:	687e      	ldr	r6, [r7, #4]
  10:	f8bd 8058 	ldrh.w	r8, [sp, #88]	; 0x58
  14:	eb06 0181 	add.w	r1, r6, r1, lsl #2
  18:	69ca      	ldr	r2, [r1, #28]
  1a:	2a00      	cmp	r2, #0
  1c:	d056      	beq.n	cc <mdns_recv+0xcc>
  1e:	461d      	mov	r5, r3
  20:	220c      	movs	r2, #12
  22:	2300      	movs	r3, #0
  24:	a901      	add	r1, sp, #4
  26:	4620      	mov	r0, r4
  28:	f7ff fffe 	bl	0 <pbuf_copy_partial>
  2c:	280b      	cmp	r0, #11
  2e:	d94d      	bls.n	cc <mdns_recv+0xcc>
  30:	f89d 9006 	ldrb.w	r9, [sp, #6]
  34:	f019 0f78 	tst.w	r9, #120	; 0x78
  38:	f3c9 01c3 	ubfx	r1, r9, #3, #4
  3c:	d146      	bne.n	cc <mdns_recv+0xcc>
  3e:	2224      	movs	r2, #36	; 0x24
  40:	a805      	add	r0, sp, #20
  42:	f7ff fffe 	bl	0 <memset>
  46:	f8bd 100c 	ldrh.w	r1, [sp, #12]
  4a:	f8bd 3004 	ldrh.w	r3, [sp, #4]
  4e:	ba49      	rev16	r1, r1
  50:	6828      	ldr	r0, [r5, #0]
  52:	ba5b      	rev16	r3, r3
  54:	4d54      	ldr	r5, [pc, #336]	; (1a8 <mdns_recv+0x1a8>)
  56:	f8ad 102a 	strh.w	r1, [sp, #42]	; 0x2a
  5a:	f8ad 1028 	strh.w	r1, [sp, #40]	; 0x28
  5e:	f8bd 100e 	ldrh.w	r1, [sp, #14]
  62:	f8ad 301e 	strh.w	r3, [sp, #30]
  66:	ba49      	rev16	r1, r1
  68:	f8bd 3008 	ldrh.w	r3, [sp, #8]
  6c:	f8ad 8014 	strh.w	r8, [sp, #20]
  70:	ba5b      	rev16	r3, r3
  72:	f8ad 102e 	strh.w	r1, [sp, #46]	; 0x2e
  76:	f8ad 102c 	strh.w	r1, [sp, #44]	; 0x2c
  7a:	210c      	movs	r1, #12
  7c:	b29a      	uxth	r2, r3
  7e:	f8ad 3022 	strh.w	r3, [sp, #34]	; 0x22
  82:	f8ad 3020 	strh.w	r3, [sp, #32]
  86:	f8ad 101c 	strh.w	r1, [sp, #28]
  8a:	f8bd 300a 	ldrh.w	r3, [sp, #10]
  8e:	6979      	ldr	r1, [r7, #20]
  90:	ba5b      	rev16	r3, r3
  92:	9406      	str	r4, [sp, #24]
  94:	42a9      	cmp	r1, r5
  96:	9004      	str	r0, [sp, #16]
  98:	f8ad 3026 	strh.w	r3, [sp, #38]	; 0x26
  9c:	f8ad 3024 	strh.w	r3, [sp, #36]	; 0x24
  a0:	b29b      	uxth	r3, r3
  a2:	d008      	beq.n	b6 <mdns_recv+0xb6>
  a4:	6831      	ldr	r1, [r6, #0]
  a6:	693d      	ldr	r5, [r7, #16]
  a8:	404d      	eors	r5, r1
  aa:	2101      	movs	r1, #1
  ac:	f8ad 1016 	strh.w	r1, [sp, #22]
  b0:	6871      	ldr	r1, [r6, #4]
  b2:	420d      	tst	r5, r1
  b4:	d10a      	bne.n	cc <mdns_recv+0xcc>
  b6:	f019 0f80 	tst.w	r9, #128	; 0x80
  ba:	d16c      	bne.n	196 <mdns_recv+0x196>
  bc:	b162      	cbz	r2, d8 <mdns_recv+0xd8>
  be:	f019 0f02 	tst.w	r9, #2
  c2:	d139      	bne.n	138 <mdns_recv+0x138>
  c4:	4631      	mov	r1, r6
  c6:	a804      	add	r0, sp, #16
  c8:	f7ff fffe 	bl	0 <mdns_recv>
  cc:	4620      	mov	r0, r4
  ce:	f7ff fffe 	bl	0 <pbuf_free>
  d2:	b00f      	add	sp, #60	; 0x3c
  d4:	e8bd 83f0 	ldmia.w	sp!, {r4, r5, r6, r7, r8, r9, pc}
  d8:	2b00      	cmp	r3, #0
  da:	d0f3      	beq.n	c4 <mdns_recv+0xc4>
  dc:	4b33      	ldr	r3, [pc, #204]	; (1ac <mdns_recv+0x1ac>)
  de:	681d      	ldr	r5, [r3, #0]
  e0:	b91d      	cbnz	r5, ea <mdns_recv+0xea>
  e2:	e7ef      	b.n	c4 <mdns_recv+0xc4>
  e4:	6a6d      	ldr	r5, [r5, #36]	; 0x24
  e6:	2d00      	cmp	r5, #0
  e8:	d0ec      	beq.n	c4 <mdns_recv+0xc4>
  ea:	88ab      	ldrh	r3, [r5, #4]
  ec:	4543      	cmp	r3, r8
  ee:	d1f9      	bne.n	e4 <mdns_recv+0xe4>
  f0:	682b      	ldr	r3, [r5, #0]
  f2:	4283      	cmp	r3, r0
  f4:	d1f6      	bne.n	e4 <mdns_recv+0xe4>
  f6:	482e      	ldr	r0, [pc, #184]	; (1b0 <mdns_recv+0x1b0>)
  f8:	f7ff fffe 	bl	0 <memp_malloc_pool>
  fc:	4684      	mov	ip, r0
  fe:	2800      	cmp	r0, #0
 100:	d0e4      	beq.n	cc <mdns_recv+0xcc>
 102:	af04      	add	r7, sp, #16
 104:	4666      	mov	r6, ip
 106:	f10d 0e30 	add.w	lr, sp, #48	; 0x30
 10a:	463c      	mov	r4, r7
 10c:	3610      	adds	r6, #16
 10e:	3710      	adds	r7, #16
 110:	cc0f      	ldmia	r4!, {r0, r1, r2, r3}
 112:	4574      	cmp	r4, lr
 114:	f846 0c10 	str.w	r0, [r6, #-16]
 118:	f846 1c0c 	str.w	r1, [r6, #-12]
 11c:	f846 2c08 	str.w	r2, [r6, #-8]
 120:	f846 3c04 	str.w	r3, [r6, #-4]
 124:	d1f1      	bne.n	10a <mdns_recv+0x10a>
 126:	cf03      	ldmia	r7!, {r0, r1}
 128:	6030      	str	r0, [r6, #0]
 12a:	6071      	str	r1, [r6, #4]
 12c:	6a2b      	ldr	r3, [r5, #32]
 12e:	f8cc 3020 	str.w	r3, [ip, #32]
 132:	f8c5 c020 	str.w	ip, [r5, #32]
 136:	e7cc      	b.n	d2 <mdns_recv+0xd2>
 138:	481d      	ldr	r0, [pc, #116]	; (1b0 <mdns_recv+0x1b0>)
 13a:	f7ff fffe 	bl	0 <memp_malloc_pool>
 13e:	4607      	mov	r7, r0
 140:	2800      	cmp	r0, #0
 142:	d0c3      	beq.n	cc <mdns_recv+0xcc>
 144:	ae04      	add	r6, sp, #16
 146:	4605      	mov	r5, r0
 148:	f10d 0c30 	add.w	ip, sp, #48	; 0x30
 14c:	4634      	mov	r4, r6
 14e:	3510      	adds	r5, #16
 150:	3610      	adds	r6, #16
 152:	cc0f      	ldmia	r4!, {r0, r1, r2, r3}
 154:	4564      	cmp	r4, ip
 156:	f845 0c10 	str.w	r0, [r5, #-16]
 15a:	f845 1c0c 	str.w	r1, [r5, #-12]
 15e:	f845 2c08 	str.w	r2, [r5, #-8]
 162:	f845 3c04 	str.w	r3, [r5, #-4]
 166:	d1f1      	bne.n	14c <mdns_recv+0x14c>
 168:	4b10      	ldr	r3, [pc, #64]	; (1ac <mdns_recv+0x1ac>)
 16a:	2464      	movs	r4, #100	; 0x64
 16c:	ce03      	ldmia	r6!, {r0, r1}
 16e:	6069      	str	r1, [r5, #4]
 170:	6028      	str	r0, [r5, #0]
 172:	681a      	ldr	r2, [r3, #0]
 174:	601f      	str	r7, [r3, #0]
 176:	627a      	str	r2, [r7, #36]	; 0x24
 178:	f7ff fffe 	bl	0 <qnethernet_hal_rand>
 17c:	4b0d      	ldr	r3, [pc, #52]	; (1b4 <mdns_recv+0x1b4>)
 17e:	463a      	mov	r2, r7
 180:	490d      	ldr	r1, [pc, #52]	; (1b8 <mdns_recv+0x1b8>)
 182:	fba3 5300 	umull	r5, r3, r3, r0
 186:	095b      	lsrs	r3, r3, #5
 188:	fb04 0013 	mls	r0, r4, r3, r0
 18c:	f500 70c8 	add.w	r0, r0, #400	; 0x190
 190:	f7ff fffe 	bl	0 <sys_timeout>
 194:	e79d      	b.n	d2 <mdns_recv+0xd2>
 196:	4631      	mov	r1, r6
 198:	a804      	add	r0, sp, #16
 19a:	f7ff fffe 	bl	0 <mdns_recv>
 19e:	e795      	b.n	cc <mdns_recv+0xcc>
 1a0:	00000000 	.word	0x00000000
 1a4:	00000000 	.word	0x00000000
 1a8:	fb0000e0 	.word	0xfb0000e0
 1ac:	00000000 	.word	0x00000000
 1b0:	00000000 	.word	0x00000000
 1b4:	51eb851f 	.word	0x51eb851f
 1b8:	00000000 	.word	0x00000000

Disassembly of section .text.mdns_resp_restart:

00000000 <mdns_resp_restart>:
   0:	b510      	push	{r4, lr}
   2:	4604      	mov	r4, r0
   4:	f7ff fffe 	bl	0 <qnethernet_hal_rand>
   8:	4b06      	ldr	r3, [pc, #24]	; (24 <mdns_resp_restart+0x24>)
   a:	4601      	mov	r1, r0
   c:	4620      	mov	r0, r4
   e:	22fa      	movs	r2, #250	; 0xfa
  10:	fba3 4301 	umull	r4, r3, r3, r1
  14:	091b      	lsrs	r3, r3, #4
  16:	e8bd 4010 	ldmia.w	sp!, {r4, lr}
  1a:	fb02 1113 	mls	r1, r2, r3, r1
  1e:	f7ff bffe 	b.w	0 <mdns_resp_restart>
  22:	bf00      	nop
  24:	10624dd3 	.word	0x10624dd3

Disassembly of section .text.mdns_resp_init:

00000000 <mdns_resp_init>:
   0:	b538      	push	{r3, r4, r5, lr}
   2:	f44f 722a 	mov.w	r2, #680	; 0x2a8
   6:	2100      	movs	r1, #0
   8:	481b      	ldr	r0, [pc, #108]	; (78 <mdns_resp_init+0x78>)
   a:	f7ff fffe 	bl	0 <memset>
   e:	4d1b      	ldr	r5, [pc, #108]	; (7c <mdns_resp_init+0x7c>)
  10:	481b      	ldr	r0, [pc, #108]	; (80 <mdns_resp_init+0x80>)
  12:	f7ff fffe 	bl	0 <memp_init_pool>
  16:	202e      	movs	r0, #46	; 0x2e
  18:	f7ff fffe 	bl	0 <udp_new_ip_type>
  1c:	6028      	str	r0, [r5, #0]
  1e:	b1b8      	cbz	r0, 50 <mdns_resp_init+0x50>
  20:	23ff      	movs	r3, #255	; 0xff
  22:	f241 42e9 	movw	r2, #5353	; 0x14e9
  26:	4917      	ldr	r1, [pc, #92]	; (84 <mdns_resp_init+0x84>)
  28:	7743      	strb	r3, [r0, #29]
  2a:	f7ff fffe 	bl	0 <udp_bind>
  2e:	4602      	mov	r2, r0
  30:	b9e8      	cbnz	r0, 6e <mdns_resp_init+0x6e>
  32:	4915      	ldr	r1, [pc, #84]	; (88 <mdns_resp_init+0x88>)
  34:	6828      	ldr	r0, [r5, #0]
  36:	f7ff fffe 	bl	0 <udp_recv>
  3a:	f7ff fffe 	bl	0 <netif_alloc_client_data_id>
  3e:	4b13      	ldr	r3, [pc, #76]	; (8c <mdns_resp_init+0x8c>)
  40:	4602      	mov	r2, r0
  42:	4913      	ldr	r1, [pc, #76]	; (90 <mdns_resp_init+0x90>)
  44:	4813      	ldr	r0, [pc, #76]	; (94 <mdns_resp_init+0x94>)
  46:	701a      	strb	r2, [r3, #0]
  48:	e8bd 4038 	ldmia.w	sp!, {r3, r4, r5, lr}
  4c:	f7ff bffe 	b.w	0 <netif_add_ext_callback>
  50:	4b11      	ldr	r3, [pc, #68]	; (98 <mdns_resp_init+0x98>)
  52:	f640 3205 	movw	r2, #2821	; 0xb05
  56:	4911      	ldr	r1, [pc, #68]	; (9c <mdns_resp_init+0x9c>)
  58:	4811      	ldr	r0, [pc, #68]	; (a0 <mdns_resp_init+0xa0>)
  5a:	f7ff fffe 	bl	0 <printf>
  5e:	2000      	movs	r0, #0
  60:	f7ff fffe 	bl	0 <fflush>
  64:	2001      	movs	r0, #1
  66:	f7ff fffe 	bl	0 <qnethernet_hal_stdio_flush>
  6a:	f7ff fffe 	bl	0 <abort>
  6e:	4b0a      	ldr	r3, [pc, #40]	; (98 <mdns_resp_init+0x98>)
  70:	f640 320d 	movw	r2, #2829	; 0xb0d
  74:	490b      	ldr	r1, [pc, #44]	; (a4 <mdns_resp_init+0xa4>)
  76:	e7ef      	b.n	58 <mdns_resp_init+0x58>
  78:	00000000 	.word	0x00000000
  7c:	00000000 	.word	0x00000000
  80:	00000000 	.word	0x00000000
  84:	00000000 	.word	0x00000000
  88:	00000000 	.word	0x00000000
  8c:	00000000 	.word	0x00000000
  90:	00000000 	.word	0x00000000
  94:	00000000 	.word	0x00000000
  98:	00000000 	.word	0x00000000
  9c:	00000000 	.word	0x00000000
  a0:	00000058 	.word	0x00000058
  a4:	00000018 	.word	0x00000018

Disassembly of section .text.mdns_get_service_txt_userdata:

00000000 <mdns_get_service_txt_userdata>:
   0:	b508      	push	{r3, lr}
   2:	4b0e      	ldr	r3, [pc, #56]	; (3c <mdns_get_service_txt_userdata+0x3c>)
   4:	2902      	cmp	r1, #2
   6:	781b      	ldrb	r3, [r3, #0]
   8:	eb00 0083 	add.w	r0, r0, r3, lsl #2
   c:	69c3      	ldr	r3, [r0, #28]
   e:	dc06      	bgt.n	1e <mdns_get_service_txt_userdata+0x1e>
  10:	3110      	adds	r1, #16
  12:	f853 0021 	ldr.w	r0, [r3, r1, lsl #2]
  16:	b108      	cbz	r0, 1c <mdns_get_service_txt_userdata+0x1c>
  18:	f8d0 0188 	ldr.w	r0, [r0, #392]	; 0x188
  1c:	bd08      	pop	{r3, pc}
  1e:	4b08      	ldr	r3, [pc, #32]	; (40 <mdns_get_service_txt_userdata+0x40>)
  20:	f640 3222 	movw	r2, #2850	; 0xb22
  24:	4907      	ldr	r1, [pc, #28]	; (44 <mdns_get_service_txt_userdata+0x44>)
  26:	4808      	ldr	r0, [pc, #32]	; (48 <mdns_get_service_txt_userdata+0x48>)
  28:	f7ff fffe 	bl	0 <printf>
  2c:	2000      	movs	r0, #0
  2e:	f7ff fffe 	bl	0 <fflush>
  32:	2001      	movs	r0, #1
  34:	f7ff fffe 	bl	0 <qnethernet_hal_stdio_flush>
  38:	f7ff fffe 	bl	0 <abort>
  3c:	00000000 	.word	0x00000000
  40:	00000000 	.word	0x00000000
  44:	00000000 	.word	0x00000000
  48:	00000058 	.word	0x00000058
