
build/./src/tug-controls/MotorController.cpp.o:     file format elf32-littlearm

SYMBOL TABLE:
00000000 l    df *ABS*	00000000 MotorController.cpp
00000000 l    d  .text	00000000 .text
00000000 l    d  .data	00000000 .data
00000000 l    d  .bss	00000000 .bss
00000000 l    d  .text._ZN15MotorControllerC2EhhR10FlexCAN_T4IL13CAN_DEV_TABLE1075642368EL21FLEXCAN_RXQUEUE_TABLE256EL21FLEXCAN_TXQUEUE_TABLE16EE	00000000 .text._ZN15MotorControllerC2EhhR10FlexCAN_T4IL13CAN_DEV_TABLE1075642368EL21FLEXCAN_RXQUEUE_TABLE256EL21FLEXCAN_TXQUEUE_TABLE16EE
00000000 l    d  .text._ZN15MotorController5beginEv	00000000 .text._ZN15MotorController5beginEv
00000000 l    d  .rodata._ZN15MotorController13setMotorSpeedEff.str1.4	00000000 .rodata._ZN15MotorController13setMotorSpeedEff.str1.4
00000000 l    d  .text._ZN15MotorController13setMotorSpeedEff	00000000 .text._ZN15MotorController13setMotorSpeedEff
00000000 l    d  .text._ZN15MotorController20setMotorCurrentLimitEff	00000000 .text._ZN15MotorController20setMotorCurrentLimitEff
00000000 l    d  .text._ZN15MotorController13emergencyStopEv	00000000 .text._ZN15MotorController13emergencyStopEv
00000000 l    d  .text._ZN15MotorController22getLeftEncoderPositionEv	00000000 .text._ZN15MotorController22getLeftEncoderPositionEv
00000000 l    d  .text._ZN15MotorController23getRightEncoderPositionEv	00000000 .text._ZN15MotorController23getRightEncoderPositionEv
00000000 l    d  .text._ZN15MotorController15getLeftVelocityEv	00000000 .text._ZN15MotorController15getLeftVelocityEv
00000000 l    d  .text._ZN15MotorController16getRightVelocityEv	00000000 .text._ZN15MotorController16getRightVelocityEv
00000000 l    d  .text._ZN15MotorController14getLeftCurrentEv	00000000 .text._ZN15MotorController14getLeftCurrentEv
00000000 l    d  .text._ZN15MotorController15getRightCurrentEv	00000000 .text._ZN15MotorController15getRightCurrentEv
00000000 l    d  .text._ZN15MotorController18getLeftTemperatureEv	00000000 .text._ZN15MotorController18getLeftTemperatureEv
00000000 l    d  .text._ZN15MotorController19getRightTemperatureEv	00000000 .text._ZN15MotorController19getRightTemperatureEv
00000000 l    d  .text._ZN15MotorController13getLeftFaultsEv	00000000 .text._ZN15MotorController13getLeftFaultsEv
00000000 l    d  .text._ZN15MotorController14getRightFaultsEv	00000000 .text._ZN15MotorController14getRightFaultsEv
00000000 l    d  .rodata._ZN15MotorController16printAllReadingsEv.str1.4	00000000 .rodata._ZN15MotorController16printAllReadingsEv.str1.4
00000000 l    d  .text._ZN15MotorController16printAllReadingsEv	00000000 .text._ZN15MotorController16printAllReadingsEv
00000000 l    d  .comment	00000000 .comment
00000000 l    d  .ARM.attributes	00000000 .ARM.attributes
00000000 g     F .text._ZN15MotorControllerC2EhhR10FlexCAN_T4IL13CAN_DEV_TABLE1075642368EL21FLEXCAN_RXQUEUE_TABLE256EL21FLEXCAN_TXQUEUE_TABLE16EE	0000001e _ZN15MotorControllerC2EhhR10FlexCAN_T4IL13CAN_DEV_TABLE1075642368EL21FLEXCAN_RXQUEUE_TABLE256EL21FLEXCAN_TXQUEUE_TABLE16EE
00000000         *UND*	00000000 _ZN11SparkMaxESCC1EhR10FlexCAN_T4IL13CAN_DEV_TABLE1075642368EL21FLEXCAN_RXQUEUE_TABLE256EL21FLEXCAN_TXQUEUE_TABLE16EE
00000000 g     F .text._ZN15MotorControllerC2EhhR10FlexCAN_T4IL13CAN_DEV_TABLE1075642368EL21FLEXCAN_RXQUEUE_TABLE256EL21FLEXCAN_TXQUEUE_TABLE16EE	0000001e _ZN15MotorControllerC1EhhR10FlexCAN_T4IL13CAN_DEV_TABLE1075642368EL21FLEXCAN_RXQUEUE_TABLE256EL21FLEXCAN_TXQUEUE_TABLE16EE
00000000 g     F .text._ZN15MotorController5beginEv	00000014 _ZN15MotorController5beginEv
00000000         *UND*	00000000 _ZN11SparkMaxESC5beginEv
00000000 g     F .text._ZN15MotorController13setMotorSpeedEff	00000084 _ZN15MotorController13setMotorSpeedEff
00000000         *UND*	00000000 _ZN11SparkMaxESC8setPowerEf
00000000         *UND*	00000000 usb_serial_write
00000000 g     F .text._ZN15MotorController20setMotorCurrentLimitEff	00000024 _ZN15MotorController20setMotorCurrentLimitEff
00000000         *UND*	00000000 _ZN11SparkMaxESC15setCurrentLimitEf
00000000 g     F .text._ZN15MotorController13emergencyStopEv	00000014 _ZN15MotorController13emergencyStopEv
00000000         *UND*	00000000 _ZN11SparkMaxESC4stopEv
00000000 g     F .text._ZN15MotorController22getLeftEncoderPositionEv	00000004 _ZN15MotorController22getLeftEncoderPositionEv
00000000         *UND*	00000000 _ZN11SparkMaxESC18getEncoderPositionEv
00000000 g     F .text._ZN15MotorController23getRightEncoderPositionEv	00000006 _ZN15MotorController23getRightEncoderPositionEv
00000000 g     F .text._ZN15MotorController15getLeftVelocityEv	00000004 _ZN15MotorController15getLeftVelocityEv
00000000         *UND*	00000000 _ZN11SparkMaxESC18getEncoderVelocityEv
00000000 g     F .text._ZN15MotorController16getRightVelocityEv	00000006 _ZN15MotorController16getRightVelocityEv
00000000 g     F .text._ZN15MotorController14getLeftCurrentEv	00000004 _ZN15MotorController14getLeftCurrentEv
00000000         *UND*	00000000 _ZN11SparkMaxESC15getMotorCurrentEv
00000000 g     F .text._ZN15MotorController15getRightCurrentEv	00000006 _ZN15MotorController15getRightCurrentEv
00000000 g     F .text._ZN15MotorController18getLeftTemperatureEv	00000004 _ZN15MotorController18getLeftTemperatureEv
00000000         *UND*	00000000 _ZN11SparkMaxESC19getMotorTemperatureEv
00000000 g     F .text._ZN15MotorController19getRightTemperatureEv	00000006 _ZN15MotorController19getRightTemperatureEv
00000000 g     F .text._ZN15MotorController13getLeftFaultsEv	00000004 _ZN15MotorController13getLeftFaultsEv
00000000         *UND*	00000000 _ZN11SparkMaxESC9getFaultsEv
00000000 g     F .text._ZN15MotorController14getRightFaultsEv	00000006 _ZN15MotorController14getRightFaultsEv
00000000 g     F .text._ZN15MotorController16printAllReadingsEv	000000d0 _ZN15MotorController16printAllReadingsEv
00000000         *UND*	00000000 _ZN5Print7printlnEv
00000000         *UND*	00000000 _ZN5Print10printFloatEdh
00000000         *UND*	00000000 _ZN5Print5printEl
00000000         *UND*	00000000 Serial


Contents of section .text._ZN15MotorControllerC2EhhR10FlexCAN_T4IL13CAN_DEV_TABLE1075642368EL21FLEXCAN_RXQUEUE_TABLE256EL21FLEXCAN_TXQUEUE_TABLE16EE:
 0000 70b51d46 04461646 1a46fff7 feff2a46  p..F.F.F.F....*F
 0010 314604f1 0c00fff7 feff2046 70bd00bf  1F........ Fp...
Contents of section .text._ZN15MotorController5beginEv:
 0000 10b50446 fff7feff 04f10c00 bde81040  ...F...........@
 0010 fff7febf                             ....            
Contents of section .rodata._ZN15MotorController13setMotorSpeedEff.str1.4:
 0000 496e7661 6c696420 6c656674 206d6f74  Invalid left mot
 0010 6f722073 70656564 20736574 20696e20  or speed set in 
 0020 2e2f7372 632f7475 672d636f 6e74726f  ./src/tug-contro
 0030 6c6c732f 4d6f746f 72436f6e 74726f6c  lls/MotorControl
 0040 6c65722e 63707000 496e7661 6c696420  ler.cpp.Invalid 
 0050 72696768 74206d6f 746f7220 73706565  right motor spee
 0060 64207365 7420696e 202e2f73 72632f74  d set in ./src/t
 0070 75672d63 6f6e7472 6f6c6c73 2f4d6f74  ug-controlls/Mot
 0080 6f72436f 6e74726f 6c6c6572 2e637070  orController.cpp
 0090 00                                   .               
Contents of section .text._ZN15MotorController13setMotorSpeedEff:
 0000 f7ee007a 10b5b4ee e70a0446 2ded028b  ...z.......F-...
 0010 f1ee10fa b0ee608a 19d4f0ee 408a16dc  ......`.....@...
 0020 f7ee007a b4eee78a f1ee10fa 1cd41bdc  ...z............
 0030 b0ee680a 2046fff7 feffb0ee 480a04f1  ..h. F......H...
 0040 0c00bdec 028bbde8 1040fff7 febf4721  .........@....G!
 0050 0948fff7 fefff7ee 007adfed 088ab4ee  .H.......z......
 0060 e78af1ee 10fae2d5 48210548 9fed038a  ........H!.H....
 0070 fff7feff dce700bf 00000000 00000000  ................
 0080 48000000                             H...            
Contents of section .text._ZN15MotorController20setMotorCurrentLimitEff:
 0000 10b52ded 028bb0ee 608a0446 fff7feff  ..-.....`..F....
 0010 04f10c00 b0ee480a bdec028b bde81040  ......H........@
 0020 fff7febf                             ....            
Contents of section .text._ZN15MotorController13emergencyStopEv:
 0000 10b50446 fff7feff 04f10c00 bde81040  ...F...........@
 0010 fff7febf                             ....            
Contents of section .text._ZN15MotorController22getLeftEncoderPositionEv:
 0000 fff7febf                             ....            
Contents of section .text._ZN15MotorController23getRightEncoderPositionEv:
 0000 0c30fff7 febf00bf                    .0......        
Contents of section .text._ZN15MotorController15getLeftVelocityEv:
 0000 fff7febf                             ....            
Contents of section .text._ZN15MotorController16getRightVelocityEv:
 0000 0c30fff7 febf00bf                    .0......        
Contents of section .text._ZN15MotorController14getLeftCurrentEv:
 0000 fff7febf                             ....            
Contents of section .text._ZN15MotorController15getRightCurrentEv:
 0000 0c30fff7 febf00bf                    .0......        
Contents of section .text._ZN15MotorController18getLeftTemperatureEv:
 0000 fff7febf                             ....            
Contents of section .text._ZN15MotorController19getRightTemperatureEv:
 0000 0c30fff7 febf00bf                    .0......        
Contents of section .text._ZN15MotorController13getLeftFaultsEv:
 0000 fff7febf                             ....            
Contents of section .text._ZN15MotorController14getRightFaultsEv:
 0000 0c30fff7 febf00bf                    .0......        
Contents of section .rodata._ZN15MotorController16printAllReadingsEv.str1.4:
 0000 4c656674 204d6f74 6f723a00 456e636f  Left Motor:.Enco
 0010 64657220 506f733a 20000000 56656c6f  der Pos: ...Velo
 0020 69637479 3a000000 43757272 656e743a  icty:...Current:
 0030 20000000 54656d70 61747572 653a2000   ...Tempature: .
 0040 4661756c 74733a20 00                 Faults: .       
Contents of section .text._ZN15MotorController16printAllReadingsEv:
 0000 38b52c4c 05460b21 2b48fff7 feff2046  8.,L.F.!+H.... F
 0010 fff7feff 0d212948 fff7feff 2846fff7  .....!)H....(F..
 0020 feff0221 b7eec00a 2046fff7 feff2046  ...!.... F.... F
 0030 fff7feff 09212248 fff7feff 2846fff7  .....!"H....(F..
 0040 feff0221 b7eec00a 2046fff7 feff2046  ...!.... F.... F
 0050 fff7feff 09211b48 fff7feff 2846fff7  .....!.H....(F..
 0060 feff0221 b7eec00a 2046fff7 feff2046  ...!.... F.... F
 0070 fff7feff 0b211448 fff7feff 2846fff7  .....!.H....(F..
 0080 feff0221 b7eec00a 2046fff7 feff2046  ...!.... F.... F
 0090 fff7feff 08210d48 fff7feff 2846fff7  .....!.H....(F..
 00a0 feff0146 2046fff7 feff2046 bde83840  ...F F.... F..8@
 00b0 fff7febf 00000000 00000000 0c000000  ................
 00c0 1c000000 28000000 34000000 40000000  ....(...4...@...
Contents of section .comment:
 0000 00474343 3a202841 726d2047 4e552054  .GCC: (Arm GNU T
 0010 6f6f6c63 6861696e 2031312e 332e5265  oolchain 11.3.Re
 0020 6c312920 31312e33 2e312032 30323230  l1) 11.3.1 20220
 0030 37313200                             712.            
Contents of section .ARM.attributes:
 0000 41310000 00616561 62690001 27000000  A1...aeabi..'...
 0010 0537452d 4d00060d 074d0902 0a081204  .7E-M....M......
 0020 14011501 17031801 19011a01 1c011e02  ................
 0030 2201                                 ".              

Disassembly of section .text._ZN15MotorControllerC2EhhR10FlexCAN_T4IL13CAN_DEV_TABLE1075642368EL21FLEXCAN_RXQUEUE_TABLE256EL21FLEXCAN_TXQUEUE_TABLE16EE:

00000000 <_ZN15MotorControllerC1EhhR10FlexCAN_T4IL13CAN_DEV_TABLE1075642368EL21FLEXCAN_RXQUEUE_TABLE256EL21FLEXCAN_TXQUEUE_TABLE16EE>:
   0:	b570      	push	{r4, r5, r6, lr}
   2:	461d      	mov	r5, r3
   4:	4604      	mov	r4, r0
   6:	4616      	mov	r6, r2
   8:	461a      	mov	r2, r3
   a:	f7ff fffe 	bl	0 <_ZN11SparkMaxESCC1EhR10FlexCAN_T4IL13CAN_DEV_TABLE1075642368EL21FLEXCAN_RXQUEUE_TABLE256EL21FLEXCAN_TXQUEUE_TABLE16EE>
   e:	462a      	mov	r2, r5
  10:	4631      	mov	r1, r6
  12:	f104 000c 	add.w	r0, r4, #12
  16:	f7ff fffe 	bl	0 <_ZN11SparkMaxESCC1EhR10FlexCAN_T4IL13CAN_DEV_TABLE1075642368EL21FLEXCAN_RXQUEUE_TABLE256EL21FLEXCAN_TXQUEUE_TABLE16EE>
  1a:	4620      	mov	r0, r4
  1c:	bd70      	pop	{r4, r5, r6, pc}
  1e:	bf00      	nop

Disassembly of section .text._ZN15MotorController5beginEv:

00000000 <_ZN15MotorController5beginEv>:
   0:	b510      	push	{r4, lr}
   2:	4604      	mov	r4, r0
   4:	f7ff fffe 	bl	0 <_ZN11SparkMaxESC5beginEv>
   8:	f104 000c 	add.w	r0, r4, #12
   c:	e8bd 4010 	ldmia.w	sp!, {r4, lr}
  10:	f7ff bffe 	b.w	0 <_ZN11SparkMaxESC5beginEv>

Disassembly of section .text._ZN15MotorController13setMotorSpeedEff:

00000000 <_ZN15MotorController13setMotorSpeedEff>:
   0:	eef7 7a00 	vmov.f32	s15, #112	; 0x3f800000  1.0
   4:	b510      	push	{r4, lr}
   6:	eeb4 0ae7 	vcmpe.f32	s0, s15
   a:	4604      	mov	r4, r0
   c:	ed2d 8b02 	vpush	{d8}
  10:	eef1 fa10 	vmrs	APSR_nzcv, fpscr
  14:	eeb0 8a60 	vmov.f32	s16, s1
  18:	d419      	bmi.n	4e <_ZN15MotorController13setMotorSpeedEff+0x4e>
  1a:	eef0 8a40 	vmov.f32	s17, s0
  1e:	dc16      	bgt.n	4e <_ZN15MotorController13setMotorSpeedEff+0x4e>
  20:	eef7 7a00 	vmov.f32	s15, #112	; 0x3f800000  1.0
  24:	eeb4 8ae7 	vcmpe.f32	s16, s15
  28:	eef1 fa10 	vmrs	APSR_nzcv, fpscr
  2c:	d41c      	bmi.n	68 <_ZN15MotorController13setMotorSpeedEff+0x68>
  2e:	dc1b      	bgt.n	68 <_ZN15MotorController13setMotorSpeedEff+0x68>
  30:	eeb0 0a68 	vmov.f32	s0, s17
  34:	4620      	mov	r0, r4
  36:	f7ff fffe 	bl	0 <_ZN11SparkMaxESC8setPowerEf>
  3a:	eeb0 0a48 	vmov.f32	s0, s16
  3e:	f104 000c 	add.w	r0, r4, #12
  42:	ecbd 8b02 	vpop	{d8}
  46:	e8bd 4010 	ldmia.w	sp!, {r4, lr}
  4a:	f7ff bffe 	b.w	0 <_ZN11SparkMaxESC8setPowerEf>
  4e:	2147      	movs	r1, #71	; 0x47
  50:	4809      	ldr	r0, [pc, #36]	; (78 <_ZN15MotorController13setMotorSpeedEff+0x78>)
  52:	f7ff fffe 	bl	0 <usb_serial_write>
  56:	eef7 7a00 	vmov.f32	s15, #112	; 0x3f800000  1.0
  5a:	eddf 8a08 	vldr	s17, [pc, #32]	; 7c <_ZN15MotorController13setMotorSpeedEff+0x7c>
  5e:	eeb4 8ae7 	vcmpe.f32	s16, s15
  62:	eef1 fa10 	vmrs	APSR_nzcv, fpscr
  66:	d5e2      	bpl.n	2e <_ZN15MotorController13setMotorSpeedEff+0x2e>
  68:	2148      	movs	r1, #72	; 0x48
  6a:	4805      	ldr	r0, [pc, #20]	; (80 <_ZN15MotorController13setMotorSpeedEff+0x80>)
  6c:	ed9f 8a03 	vldr	s16, [pc, #12]	; 7c <_ZN15MotorController13setMotorSpeedEff+0x7c>
  70:	f7ff fffe 	bl	0 <usb_serial_write>
  74:	e7dc      	b.n	30 <_ZN15MotorController13setMotorSpeedEff+0x30>
  76:	bf00      	nop
  78:	00000000 	.word	0x00000000
  7c:	00000000 	.word	0x00000000
  80:	00000048 	.word	0x00000048

Disassembly of section .text._ZN15MotorController20setMotorCurrentLimitEff:

00000000 <_ZN15MotorController20setMotorCurrentLimitEff>:
   0:	b510      	push	{r4, lr}
   2:	ed2d 8b02 	vpush	{d8}
   6:	eeb0 8a60 	vmov.f32	s16, s1
   a:	4604      	mov	r4, r0
   c:	f7ff fffe 	bl	0 <_ZN11SparkMaxESC15setCurrentLimitEf>
  10:	f104 000c 	add.w	r0, r4, #12
  14:	eeb0 0a48 	vmov.f32	s0, s16
  18:	ecbd 8b02 	vpop	{d8}
  1c:	e8bd 4010 	ldmia.w	sp!, {r4, lr}
  20:	f7ff bffe 	b.w	0 <_ZN11SparkMaxESC15setCurrentLimitEf>

Disassembly of section .text._ZN15MotorController13emergencyStopEv:

00000000 <_ZN15MotorController13emergencyStopEv>:
   0:	b510      	push	{r4, lr}
   2:	4604      	mov	r4, r0
   4:	f7ff fffe 	bl	0 <_ZN11SparkMaxESC4stopEv>
   8:	f104 000c 	add.w	r0, r4, #12
   c:	e8bd 4010 	ldmia.w	sp!, {r4, lr}
  10:	f7ff bffe 	b.w	0 <_ZN11SparkMaxESC4stopEv>

Disassembly of section .text._ZN15MotorController22getLeftEncoderPositionEv:

00000000 <_ZN15MotorController22getLeftEncoderPositionEv>:
   0:	f7ff bffe 	b.w	0 <_ZN11SparkMaxESC18getEncoderPositionEv>

Disassembly of section .text._ZN15MotorController23getRightEncoderPositionEv:

00000000 <_ZN15MotorController23getRightEncoderPositionEv>:
   0:	300c      	adds	r0, #12
   2:	f7ff bffe 	b.w	0 <_ZN11SparkMaxESC18getEncoderPositionEv>
   6:	bf00      	nop

Disassembly of section .text._ZN15MotorController15getLeftVelocityEv:

00000000 <_ZN15MotorController15getLeftVelocityEv>:
   0:	f7ff bffe 	b.w	0 <_ZN11SparkMaxESC18getEncoderVelocityEv>

Disassembly of section .text._ZN15MotorController16getRightVelocityEv:

00000000 <_ZN15MotorController16getRightVelocityEv>:
   0:	300c      	adds	r0, #12
   2:	f7ff bffe 	b.w	0 <_ZN11SparkMaxESC18getEncoderVelocityEv>
   6:	bf00      	nop

Disassembly of section .text._ZN15MotorController14getLeftCurrentEv:

00000000 <_ZN15MotorController14getLeftCurrentEv>:
   0:	f7ff bffe 	b.w	0 <_ZN11SparkMaxESC15getMotorCurrentEv>

Disassembly of section .text._ZN15MotorController15getRightCurrentEv:

00000000 <_ZN15MotorController15getRightCurrentEv>:
   0:	300c      	adds	r0, #12
   2:	f7ff bffe 	b.w	0 <_ZN11SparkMaxESC15getMotorCurrentEv>
   6:	bf00      	nop

Disassembly of section .text._ZN15MotorController18getLeftTemperatureEv:

00000000 <_ZN15MotorController18getLeftTemperatureEv>:
   0:	f7ff bffe 	b.w	0 <_ZN11SparkMaxESC19getMotorTemperatureEv>

Disassembly of section .text._ZN15MotorController19getRightTemperatureEv:

00000000 <_ZN15MotorController19getRightTemperatureEv>:
   0:	300c      	adds	r0, #12
   2:	f7ff bffe 	b.w	0 <_ZN11SparkMaxESC19getMotorTemperatureEv>
   6:	bf00      	nop

Disassembly of section .text._ZN15MotorController13getLeftFaultsEv:

00000000 <_ZN15MotorController13getLeftFaultsEv>:
   0:	f7ff bffe 	b.w	0 <_ZN11SparkMaxESC9getFaultsEv>

Disassembly of section .text._ZN15MotorController14getRightFaultsEv:

00000000 <_ZN15MotorController14getRightFaultsEv>:
   0:	300c      	adds	r0, #12
   2:	f7ff bffe 	b.w	0 <_ZN11SparkMaxESC9getFaultsEv>
   6:	bf00      	nop

Disassembly of section .text._ZN15MotorController16printAllReadingsEv:

00000000 <_ZN15MotorController16printAllReadingsEv>:
   0:	b538      	push	{r3, r4, r5, lr}
   2:	4c2c      	ldr	r4, [pc, #176]	; (b4 <_ZN15MotorController16printAllReadingsEv+0xb4>)
   4:	4605      	mov	r5, r0
   6:	210b      	movs	r1, #11
   8:	482b      	ldr	r0, [pc, #172]	; (b8 <_ZN15MotorController16printAllReadingsEv+0xb8>)
   a:	f7ff fffe 	bl	0 <usb_serial_write>
   e:	4620      	mov	r0, r4
  10:	f7ff fffe 	bl	0 <_ZN5Print7printlnEv>
  14:	210d      	movs	r1, #13
  16:	4829      	ldr	r0, [pc, #164]	; (bc <_ZN15MotorController16printAllReadingsEv+0xbc>)
  18:	f7ff fffe 	bl	0 <usb_serial_write>
  1c:	4628      	mov	r0, r5
  1e:	f7ff fffe 	bl	0 <_ZN11SparkMaxESC18getEncoderPositionEv>
  22:	2102      	movs	r1, #2
  24:	eeb7 0ac0 	vcvt.f64.f32	d0, s0
  28:	4620      	mov	r0, r4
  2a:	f7ff fffe 	bl	0 <_ZN5Print10printFloatEdh>
  2e:	4620      	mov	r0, r4
  30:	f7ff fffe 	bl	0 <_ZN5Print7printlnEv>
  34:	2109      	movs	r1, #9
  36:	4822      	ldr	r0, [pc, #136]	; (c0 <_ZN15MotorController16printAllReadingsEv+0xc0>)
  38:	f7ff fffe 	bl	0 <usb_serial_write>
  3c:	4628      	mov	r0, r5
  3e:	f7ff fffe 	bl	0 <_ZN11SparkMaxESC18getEncoderVelocityEv>
  42:	2102      	movs	r1, #2
  44:	eeb7 0ac0 	vcvt.f64.f32	d0, s0
  48:	4620      	mov	r0, r4
  4a:	f7ff fffe 	bl	0 <_ZN5Print10printFloatEdh>
  4e:	4620      	mov	r0, r4
  50:	f7ff fffe 	bl	0 <_ZN5Print7printlnEv>
  54:	2109      	movs	r1, #9
  56:	481b      	ldr	r0, [pc, #108]	; (c4 <_ZN15MotorController16printAllReadingsEv+0xc4>)
  58:	f7ff fffe 	bl	0 <usb_serial_write>
  5c:	4628      	mov	r0, r5
  5e:	f7ff fffe 	bl	0 <_ZN11SparkMaxESC15getMotorCurrentEv>
  62:	2102      	movs	r1, #2
  64:	eeb7 0ac0 	vcvt.f64.f32	d0, s0
  68:	4620      	mov	r0, r4
  6a:	f7ff fffe 	bl	0 <_ZN5Print10printFloatEdh>
  6e:	4620      	mov	r0, r4
  70:	f7ff fffe 	bl	0 <_ZN5Print7printlnEv>
  74:	210b      	movs	r1, #11
  76:	4814      	ldr	r0, [pc, #80]	; (c8 <_ZN15MotorController16printAllReadingsEv+0xc8>)
  78:	f7ff fffe 	bl	0 <usb_serial_write>
  7c:	4628      	mov	r0, r5
  7e:	f7ff fffe 	bl	0 <_ZN11SparkMaxESC19getMotorTemperatureEv>
  82:	2102      	movs	r1, #2
  84:	eeb7 0ac0 	vcvt.f64.f32	d0, s0
  88:	4620      	mov	r0, r4
  8a:	f7ff fffe 	bl	0 <_ZN5Print10printFloatEdh>
  8e:	4620      	mov	r0, r4
  90:	f7ff fffe 	bl	0 <_ZN5Print7printlnEv>
  94:	2108      	movs	r1, #8
  96:	480d      	ldr	r0, [pc, #52]	; (cc <_ZN15MotorController16printAllReadingsEv+0xcc>)
  98:	f7ff fffe 	bl	0 <usb_serial_write>
  9c:	4628      	mov	r0, r5
  9e:	f7ff fffe 	bl	0 <_ZN11SparkMaxESC9getFaultsEv>
  a2:	4601      	mov	r1, r0
  a4:	4620      	mov	r0, r4
  a6:	f7ff fffe 	bl	0 <_ZN5Print5printEl>
  aa:	4620      	mov	r0, r4
  ac:	e8bd 4038 	ldmia.w	sp!, {r3, r4, r5, lr}
  b0:	f7ff bffe 	b.w	0 <_ZN5Print7printlnEv>
  b4:	00000000 	.word	0x00000000
  b8:	00000000 	.word	0x00000000
  bc:	0000000c 	.word	0x0000000c
  c0:	0000001c 	.word	0x0000001c
  c4:	00000028 	.word	0x00000028
  c8:	00000034 	.word	0x00000034
  cc:	00000040 	.word	0x00000040
