
build/./src/tug-controls/SparkMaxESC.cpp.o:     file format elf32-littlearm

SYMBOL TABLE:
00000000 l    df *ABS*	00000000 SparkMaxESC.cpp
00000000 l    d  .text	00000000 .text
00000000 l    d  .data	00000000 .data
00000000 l    d  .bss	00000000 .bss
00000000 l    d  .text._ZL16flexcan_isr_can1v	00000000 .text._ZL16flexcan_isr_can1v
00000000 l     F .text._ZL16flexcan_isr_can1v	00000002 _ZL16flexcan_isr_can1v
00000000 l    d  .text._ZN11SparkMaxESCC2EhR10FlexCAN_T4IL13CAN_DEV_TABLE1075642368EL21FLEXCAN_RXQUEUE_TABLE256EL21FLEXCAN_TXQUEUE_TABLE16EE	00000000 .text._ZN11SparkMaxESCC2EhR10FlexCAN_T4IL13CAN_DEV_TABLE1075642368EL21FLEXCAN_RXQUEUE_TABLE256EL21FLEXCAN_TXQUEUE_TABLE16EE
00000000 l    d  .text._ZN11SparkMaxESC11sendCommandE11ControlTypef	00000000 .text._ZN11SparkMaxESC11sendCommandE11ControlTypef
00000000 l    d  .text._ZN11SparkMaxESC8setPowerEf	00000000 .text._ZN11SparkMaxESC8setPowerEf
00000000 l    d  .text._ZN11SparkMaxESC10setControlE11ControlTypef	00000000 .text._ZN11SparkMaxESC10setControlE11ControlTypef
00000000 l    d  .text._ZN11SparkMaxESC4stopEv	00000000 .text._ZN11SparkMaxESC4stopEv
00000000 l    d  .text._ZN11SparkMaxESC11resetFaultsEv	00000000 .text._ZN11SparkMaxESC11resetFaultsEv
00000000 l    d  .text._ZN11SparkMaxESC15setCurrentLimitEf	00000000 .text._ZN11SparkMaxESC15setCurrentLimitEf
00000000 l    d  .text._ZN11SparkMaxESC12readResponseEm	00000000 .text._ZN11SparkMaxESC12readResponseEm
00000000 l    d  .text._ZN11SparkMaxESC18getEncoderPositionEv	00000000 .text._ZN11SparkMaxESC18getEncoderPositionEv
00000000 l    d  .text._ZN11SparkMaxESC18getEncoderVelocityEv	00000000 .text._ZN11SparkMaxESC18getEncoderVelocityEv
00000000 l    d  .text._ZN11SparkMaxESC15getMotorCurrentEv	00000000 .text._ZN11SparkMaxESC15getMotorCurrentEv
00000000 l    d  .text._ZN11SparkMaxESC19getMotorTemperatureEv	00000000 .text._ZN11SparkMaxESC19getMotorTemperatureEv
00000000 l    d  .text._ZN11SparkMaxESC9getFaultsEv	00000000 .text._ZN11SparkMaxESC9getFaultsEv
00000000 l    d  .text._ZN11SparkMaxESC15getStickyFaultsEv	00000000 .text._ZN11SparkMaxESC15getStickyFaultsEv
00000000 l    d  .text._ZN10FlexCAN_T4IL13CAN_DEV_TABLE1075642368EL21FLEXCAN_RXQUEUE_TABLE256EL21FLEXCAN_TXQUEUE_TABLE16EE5beginEv	00000000 .text._ZN10FlexCAN_T4IL13CAN_DEV_TABLE1075642368EL21FLEXCAN_RXQUEUE_TABLE256EL21FLEXCAN_TXQUEUE_TABLE16EE5beginEv
00000000 l    d  .text._ZN11SparkMaxESC5beginEv	00000000 .text._ZN11SparkMaxESC5beginEv
00000000 l    d  .rodata	00000000 .rodata
00000000 l    d  .comment	00000000 .comment
00000000 l    d  .ARM.attributes	00000000 .ARM.attributes
00000000 l    d  .group	00000000 .group
00000000 g     F .text._ZN11SparkMaxESCC2EhR10FlexCAN_T4IL13CAN_DEV_TABLE1075642368EL21FLEXCAN_RXQUEUE_TABLE256EL21FLEXCAN_TXQUEUE_TABLE16EE	00000010 _ZN11SparkMaxESCC2EhR10FlexCAN_T4IL13CAN_DEV_TABLE1075642368EL21FLEXCAN_RXQUEUE_TABLE256EL21FLEXCAN_TXQUEUE_TABLE16EE
00000000 g     F .text._ZN11SparkMaxESCC2EhR10FlexCAN_T4IL13CAN_DEV_TABLE1075642368EL21FLEXCAN_RXQUEUE_TABLE256EL21FLEXCAN_TXQUEUE_TABLE16EE	00000010 _ZN11SparkMaxESCC1EhR10FlexCAN_T4IL13CAN_DEV_TABLE1075642368EL21FLEXCAN_RXQUEUE_TABLE256EL21FLEXCAN_TXQUEUE_TABLE16EE
00000000 g     F .text._ZN11SparkMaxESC11sendCommandE11ControlTypef	0000005c _ZN11SparkMaxESC11sendCommandE11ControlTypef
00000000 g     F .text._ZN11SparkMaxESC8setPowerEf	00000006 _ZN11SparkMaxESC8setPowerEf
00000000 g     F .text._ZN11SparkMaxESC10setControlE11ControlTypef	00000004 _ZN11SparkMaxESC10setControlE11ControlTypef
00000000 g     F .text._ZN11SparkMaxESC4stopEv	00000010 _ZN11SparkMaxESC4stopEv
00000000 g     F .text._ZN11SparkMaxESC11resetFaultsEv	00000044 _ZN11SparkMaxESC11resetFaultsEv
00000000 g     F .text._ZN11SparkMaxESC15setCurrentLimitEf	00000060 _ZN11SparkMaxESC15setCurrentLimitEf
00000000 g     F .text._ZN11SparkMaxESC12readResponseEm	000000c0 _ZN11SparkMaxESC12readResponseEm
00000000         *UND*	00000000 systick_millis_count
00000000 g     F .text._ZN11SparkMaxESC18getEncoderPositionEv	0000000e _ZN11SparkMaxESC18getEncoderPositionEv
00000000 g     F .text._ZN11SparkMaxESC18getEncoderVelocityEv	0000000e _ZN11SparkMaxESC18getEncoderVelocityEv
00000000 g     F .text._ZN11SparkMaxESC15getMotorCurrentEv	0000000e _ZN11SparkMaxESC15getMotorCurrentEv
00000000 g     F .text._ZN11SparkMaxESC19getMotorTemperatureEv	0000000e _ZN11SparkMaxESC19getMotorTemperatureEv
00000000 g     F .text._ZN11SparkMaxESC9getFaultsEv	0000001c _ZN11SparkMaxESC9getFaultsEv
00000000 g     F .text._ZN11SparkMaxESC15getStickyFaultsEv	0000001c _ZN11SparkMaxESC15getStickyFaultsEv
00000000  w    F .text._ZN10FlexCAN_T4IL13CAN_DEV_TABLE1075642368EL21FLEXCAN_RXQUEUE_TABLE256EL21FLEXCAN_TXQUEUE_TABLE16EE5beginEv	000002b8 _ZN10FlexCAN_T4IL13CAN_DEV_TABLE1075642368EL21FLEXCAN_RXQUEUE_TABLE256EL21FLEXCAN_TXQUEUE_TABLE16EE5beginEv
00000000         *UND*	00000000 _VectorsRam
00000000 g     F .text._ZN11SparkMaxESC5beginEv	00000020 _ZN11SparkMaxESC5beginEv


Contents of section .group:
 0000 01000000 05000000 21000000 22000000  ........!..."...
Contents of section .text._ZL16flexcan_isr_can1v:
 0000 704700bf                             pG..            
Contents of section .text._ZN11SparkMaxESCC2EhR10FlexCAN_T4IL13CAN_DEV_TABLE1075642368EL21FLEXCAN_RXQUEUE_TABLE256EL21FLEXCAN_TXQUEUE_TABLE16EE:
 0000 01f03f0c 82600170 4cf00172 42607047  ..?..`.pL..rB`pG
Contents of section .text._ZN11SparkMaxESC11sendCommandE11ControlTypef:
 0000 dfed147a 20ee270a 2de9f041 124c86b0  ...z .'.-..A.L..
 0010 bdeec00a 8846ec46 00264ff0 010ed0e9  .....F.F.&O.....
 0020 01750fcc ace80f00 94e80300 10ee103a  .u.............:
 0030 8df80c80 0097adf8 0e308df8 07e08ce8  .........0......
 0040 03000496 69462b68 28461b69 984706b0  ....iF+h(F.i.G..
 0050 bde8f081 00feff46 00000000           .......F....    
Contents of section .text._ZN11SparkMaxESC8setPowerEf:
 0000 0021fff7 febf00bf                    .!......        
Contents of section .text._ZN11SparkMaxESC10setControlE11ControlTypef:
 0000 fff7febf                             ....            
Contents of section .text._ZN11SparkMaxESC4stopEv:
 0000 9fed020a 0021fff7 febf00bf 00000000  .....!..........
Contents of section .text._ZN11SparkMaxESC11resetFaultsEv:
 0000 f0b50f4c 87b08668 00270578 ec464ff0  ...L...h.'.x.FO.
 0010 010e05f0 3f050fcc ace80f00 94e80300  ....?...........
 0020 45f06065 8df807e0 8ce80300 cde90377  E.`e...........w
 0030 33686946 30460095 1b699847 07b0f0bd  3hiF0F...i.G....
 0040 00000000                             ....            
Contents of section .text._ZN11SparkMaxESC15setCurrentLimitEf:
 0000 dfed157a 20ee270a f0b5144c 87b0bdee  ...z .'....L....
 0010 c00a8668 0578ec46 4ff0000e 012705f0  ...h.x.FO....'..
 0020 3f050fcc ace80f00 94e80300 10ee103a  ?..............:
 0030 45f08055 8df80770 adf80c30 00958ce8  E..U...p...0....
 0040 0300cdf8 0ee06946 adf812e0 30463368  ......iF....0F3h
 0050 1b699847 07b0f0bd 00007a44 00000000  .i.G......zD....
Contents of section .text._ZN11SparkMaxESC12readResponseEm:
 0000 2de9f043 dff8b080 8db0d0f8 08c00f46  -..C...........F
 0010 6e460446 4ff0000e 4ff00109 244db8e8  nF.FO...O...$M..
 0020 0f000fc6 98e80300 8df80790 009786e8  ................
 0030 0300cde9 03eedcf8 00306046 69461b69  .........0`FiF.i
 0040 98472e68 a8f1100e 2b680df1 180ca3eb  .G.h....+h......
 0050 0609bee8 0f00b9f1 310face8 0f0098e8  ........1.......
 0060 03008ce8 030010d8 dff85080 a06806a9  ..........P..h..
 0070 03685b69 984720b1 069b7b40 13ea080f  .h[i.G ...{@....
 0080 08d02b68 9b1b312b f0d9bfee 000a0db0  ..+h..1+........
 0090 bde8f083 bdf92630 9fed067a 07ee903a  ......&0...z...:
 00a0 f8eee77a 87ee870a 0db0bde8 f08300bf  ...z............
 00b0 00000000 00feff46 00000000 0000ffff  .......F........
Contents of section .text._ZN11SparkMaxESC18getEncoderPositionEv:
 0000 017801f0 3f0141f0 0061fff7 febf00bf  .x..?.A..a......
Contents of section .text._ZN11SparkMaxESC18getEncoderVelocityEv:
 0000 017801f0 3f0141f0 1061fff7 febf00bf  .x..?.A..a......
Contents of section .text._ZN11SparkMaxESC15getMotorCurrentEv:
 0000 017801f0 3f0141f0 4061fff7 febf00bf  .x..?.A.@a......
Contents of section .text._ZN11SparkMaxESC19getMotorTemperatureEv:
 0000 017801f0 3f0141f0 5061fff7 febf00bf  .x..?.A.Pa......
Contents of section .text._ZN11SparkMaxESC9getFaultsEv:
 0000 08b50178 01f03f01 41f06061 fff7feff  ...x..?.A.`a....
 0010 bceec00a 10ee103a 98b208bd           .......:....    
Contents of section .text._ZN11SparkMaxESC15getStickyFaultsEv:
 0000 08b50178 01f03f01 41f07061 fff7feff  ...x..?.A.pa....
 0010 bceec00a 10ee103a 98b208bd           .......:....    
Contents of section .text._ZN10FlexCAN_T4IL13CAN_DEV_TABLE1075642368EL21FLEXCAN_RXQUEUE_TABLE256EL21FLEXCAN_TXQUEUE_TABLE16EE5beginEv:
 0000 2de9f047 a24b82b0 a2490022 01930b6a  -..G.K...I."...j
 0010 c3f30123 08336b44 13f8043c c0e90122  ...#.3kD...<..."
 0020 c0e90322 002b00f0 2b8100f5 005c9949  ...".+..+....\.I
 0030 2420994b 994a0124 ccf80c09 0225c3f8  $ .K.J.$.....%..
 0040 d0201220 8a6e964b 42f47032 8a6641f2  . . .n.KB.p2.fA.
 0050 b0018cf8 1549934a 934cc3f8 1c01c3f8  .....I.J.L......
 0060 0c13e564 c3f82001 c3f81013 136823f0  ...d.. ......h#.
 0070 00431360 136843f0 a0431360 1368de01  .C.`.hC..C.`.h..
 0080 fcd55368 874943f0 08035360 136843f0  ..Sh.IC...S`.hC.
 0090 80431360 0b68dd02 fcd40a68 814b42f0  .C.`.h.....h.KB.
 00a0 00720a60 1a6812f0 0072fbd1 7d4b1968  .r.`.h...r..}K.h
 00b0 cc01fcd5 196841f4 00311960 196841f4  .....hA..1.`.hA.
 00c0 80311960 196841f4 80511960 196841f4  .1.`.hA..Q.`.hA.
 00d0 00511960 196841f4 80011960 196841f4  .Q.`.hA....`.hA.
 00e0 00211960 196821f4 08411960 596b41f4  .!.`.h!..A.`YkA.
 00f0 e0215963 196841f4 00111960 196841f0  .!Yc.hA....`.hA.
 0100 80611960 1d681968 05f08075 41f0a041  .a.`.h.h...uA..A
 0110 19606449 0b68d801 fcd50b68 dff890e1  .`dI.h.....h....
 0120 23f00053 614f5f4e 0b600023 4b621846  #..SaO_N.`.#Kb.F
 0130 8b620968 03eb0e01 dc190133 0901a400  .b.h.......3....
 0140 c860dbb2 88604860 08602060 316801f0  .`...`H`.` `1h..
 0150 7f010131 8b42edd3 b0644ff0 00673061  ...1.B...dO..g0a
 0160 4ff0010e f16a336b 514cf162 4d483363  O....j3kQL.bMH3c
 0170 00233168 4d4e1fe0 016803eb 060a01f0  .#1hMN...h......
 0180 7f095146 09f10109 8900b2eb 990f34bf  ..QF..........4.
 0190 4ff08062 4ff08c62 c8f80020 426bc2f3  O..bO..b... Bk..
 01a0 00429207 0a600168 013301f0 7f01dbb2  .B...`.h.3......
 01b0 01311a46 8b4239d2 016803eb 040801f0  .1.F.B9..h......
 01c0 7f014fea 08180131 b2eb510f d4d3c8f8  ..O....1..Q.....
 01d0 00700268 920021d5 0268d0f8 34800168  .p.h..!..h..4..h
 01e0 d0f83490 01f07f01 c9f30369 013109f1  ..4........i.1..
 01f0 0409b1eb 490f39d3 02f07f01 c8f30368  ....I.9........h
 0200 053908f1 0108a1eb 4801c9b2 026802f0  .9......H....h..
 0210 7f020132 521ad2b2 9342c4d3 1f2b27d8  ...2R....B...+'.
 0220 816a0efa 03f20a43 8262bce7 3db90368  .j.....C.b..=..h
 0230 1c4a23f0 80530360 1368d901 fcd4194a  .J#..S.`.h.....J
 0240 136823f0 80531360 1368db01 fcd4dcf8  .h#..S.`.h......
 0250 0c290121 174b03eb 521302f0 1f029b00  .).!.K..R.......
 0260 01fa02f2 1a6002b0 bde8f087 0021cde7  .....`.......!..
 0270 a3f12002 416a0efa 02f20a43 426292e7  .. .Aj.....CBb..
 0280 0b6a23f4 7f7343f4 80730b62 cde600bf  .j#..sC..s.b....
 0290 3c185000 00c00f40 00000000 00000000  <.P....@........
 02a0 00801f40 00001d40 00841f40 20420710  ...@...@...@ B..
 02b0 08d00104 40380038                    ....@8.8        
Contents of section .text._ZN11SparkMaxESC5beginEv:
 0000 10b50446 8068fff7 feff0022 a0680349  ...F.h.....".h.I
 0010 0368bde8 10405b68 184700bf 40420f00  .h...@[h.G..@B..
Contents of section .rodata:
 0000 00000000 00000000 00000008 00000000  ................
 0010 00000000 00000000                    ........        
Contents of section .comment:
 0000 00474343 3a202841 726d2047 4e552054  .GCC: (Arm GNU T
 0010 6f6f6c63 6861696e 2031312e 332e5265  oolchain 11.3.Re
 0020 6c312920 31312e33 2e312032 30323230  l1) 11.3.1 20220
 0030 37313200                             712.            
Contents of section .ARM.attributes:
 0000 41310000 00616561 62690001 27000000  A1...aeabi..'...
 0010 0537452d 4d00060d 074d0902 0a081204  .7E-M....M......
 0020 14011501 17031801 19011a01 1c011e02  ................
 0030 2201                                 ".              

Disassembly of section .text._ZL16flexcan_isr_can1v:

00000000 <_ZL16flexcan_isr_can1v>:
   0:	4770      	bx	lr
   2:	bf00      	nop

Disassembly of section .text._ZN11SparkMaxESCC2EhR10FlexCAN_T4IL13CAN_DEV_TABLE1075642368EL21FLEXCAN_RXQUEUE_TABLE256EL21FLEXCAN_TXQUEUE_TABLE16EE:

00000000 <_ZN11SparkMaxESCC1EhR10FlexCAN_T4IL13CAN_DEV_TABLE1075642368EL21FLEXCAN_RXQUEUE_TABLE256EL21FLEXCAN_TXQUEUE_TABLE16EE>:
   0:	f001 0c3f 	and.w	ip, r1, #63	; 0x3f
   4:	6082      	str	r2, [r0, #8]
   6:	7001      	strb	r1, [r0, #0]
   8:	f04c 7201 	orr.w	r2, ip, #33816576	; 0x2040000
   c:	6042      	str	r2, [r0, #4]
   e:	4770      	bx	lr

Disassembly of section .text._ZN11SparkMaxESC11sendCommandE11ControlTypef:

00000000 <_ZN11SparkMaxESC11sendCommandE11ControlTypef>:
   0:	eddf 7a14 	vldr	s15, [pc, #80]	; 54 <_ZN11SparkMaxESC11sendCommandE11ControlTypef+0x54>
   4:	ee20 0a27 	vmul.f32	s0, s0, s15
   8:	e92d 41f0 	stmdb	sp!, {r4, r5, r6, r7, r8, lr}
   c:	4c12      	ldr	r4, [pc, #72]	; (58 <_ZN11SparkMaxESC11sendCommandE11ControlTypef+0x58>)
   e:	b086      	sub	sp, #24
  10:	eebd 0ac0 	vcvt.s32.f32	s0, s0
  14:	4688      	mov	r8, r1
  16:	46ec      	mov	ip, sp
  18:	2600      	movs	r6, #0
  1a:	f04f 0e01 	mov.w	lr, #1
  1e:	e9d0 7501 	ldrd	r7, r5, [r0, #4]
  22:	cc0f      	ldmia	r4!, {r0, r1, r2, r3}
  24:	e8ac 000f 	stmia.w	ip!, {r0, r1, r2, r3}
  28:	e894 0003 	ldmia.w	r4, {r0, r1}
  2c:	ee10 3a10 	vmov	r3, s0
  30:	f88d 800c 	strb.w	r8, [sp, #12]
  34:	9700      	str	r7, [sp, #0]
  36:	f8ad 300e 	strh.w	r3, [sp, #14]
  3a:	f88d e007 	strb.w	lr, [sp, #7]
  3e:	e88c 0003 	stmia.w	ip, {r0, r1}
  42:	9604      	str	r6, [sp, #16]
  44:	4669      	mov	r1, sp
  46:	682b      	ldr	r3, [r5, #0]
  48:	4628      	mov	r0, r5
  4a:	691b      	ldr	r3, [r3, #16]
  4c:	4798      	blx	r3
  4e:	b006      	add	sp, #24
  50:	e8bd 81f0 	ldmia.w	sp!, {r4, r5, r6, r7, r8, pc}
  54:	46fffe00 	.word	0x46fffe00
  58:	00000000 	.word	0x00000000

Disassembly of section .text._ZN11SparkMaxESC8setPowerEf:

00000000 <_ZN11SparkMaxESC8setPowerEf>:
   0:	2100      	movs	r1, #0
   2:	f7ff bffe 	b.w	0 <_ZN11SparkMaxESC8setPowerEf>
   6:	bf00      	nop

Disassembly of section .text._ZN11SparkMaxESC10setControlE11ControlTypef:

00000000 <_ZN11SparkMaxESC10setControlE11ControlTypef>:
   0:	f7ff bffe 	b.w	0 <_ZN11SparkMaxESC10setControlE11ControlTypef>

Disassembly of section .text._ZN11SparkMaxESC4stopEv:

00000000 <_ZN11SparkMaxESC4stopEv>:
   0:	ed9f 0a02 	vldr	s0, [pc, #8]	; c <_ZN11SparkMaxESC4stopEv+0xc>
   4:	2100      	movs	r1, #0
   6:	f7ff bffe 	b.w	0 <_ZN11SparkMaxESC4stopEv>
   a:	bf00      	nop
   c:	00000000 	.word	0x00000000

Disassembly of section .text._ZN11SparkMaxESC11resetFaultsEv:

00000000 <_ZN11SparkMaxESC11resetFaultsEv>:
   0:	b5f0      	push	{r4, r5, r6, r7, lr}
   2:	4c0f      	ldr	r4, [pc, #60]	; (40 <_ZN11SparkMaxESC11resetFaultsEv+0x40>)
   4:	b087      	sub	sp, #28
   6:	6886      	ldr	r6, [r0, #8]
   8:	2700      	movs	r7, #0
   a:	7805      	ldrb	r5, [r0, #0]
   c:	46ec      	mov	ip, sp
   e:	f04f 0e01 	mov.w	lr, #1
  12:	f005 053f 	and.w	r5, r5, #63	; 0x3f
  16:	cc0f      	ldmia	r4!, {r0, r1, r2, r3}
  18:	e8ac 000f 	stmia.w	ip!, {r0, r1, r2, r3}
  1c:	e894 0003 	ldmia.w	r4, {r0, r1}
  20:	f045 6560 	orr.w	r5, r5, #234881024	; 0xe000000
  24:	f88d e007 	strb.w	lr, [sp, #7]
  28:	e88c 0003 	stmia.w	ip, {r0, r1}
  2c:	e9cd 7703 	strd	r7, r7, [sp, #12]
  30:	6833      	ldr	r3, [r6, #0]
  32:	4669      	mov	r1, sp
  34:	4630      	mov	r0, r6
  36:	9500      	str	r5, [sp, #0]
  38:	691b      	ldr	r3, [r3, #16]
  3a:	4798      	blx	r3
  3c:	b007      	add	sp, #28
  3e:	bdf0      	pop	{r4, r5, r6, r7, pc}
  40:	00000000 	.word	0x00000000

Disassembly of section .text._ZN11SparkMaxESC15setCurrentLimitEf:

00000000 <_ZN11SparkMaxESC15setCurrentLimitEf>:
   0:	eddf 7a15 	vldr	s15, [pc, #84]	; 58 <_ZN11SparkMaxESC15setCurrentLimitEf+0x58>
   4:	ee20 0a27 	vmul.f32	s0, s0, s15
   8:	b5f0      	push	{r4, r5, r6, r7, lr}
   a:	4c14      	ldr	r4, [pc, #80]	; (5c <_ZN11SparkMaxESC15setCurrentLimitEf+0x5c>)
   c:	b087      	sub	sp, #28
   e:	eebd 0ac0 	vcvt.s32.f32	s0, s0
  12:	6886      	ldr	r6, [r0, #8]
  14:	7805      	ldrb	r5, [r0, #0]
  16:	46ec      	mov	ip, sp
  18:	f04f 0e00 	mov.w	lr, #0
  1c:	2701      	movs	r7, #1
  1e:	f005 053f 	and.w	r5, r5, #63	; 0x3f
  22:	cc0f      	ldmia	r4!, {r0, r1, r2, r3}
  24:	e8ac 000f 	stmia.w	ip!, {r0, r1, r2, r3}
  28:	e894 0003 	ldmia.w	r4, {r0, r1}
  2c:	ee10 3a10 	vmov	r3, s0
  30:	f045 5580 	orr.w	r5, r5, #268435456	; 0x10000000
  34:	f88d 7007 	strb.w	r7, [sp, #7]
  38:	f8ad 300c 	strh.w	r3, [sp, #12]
  3c:	9500      	str	r5, [sp, #0]
  3e:	e88c 0003 	stmia.w	ip, {r0, r1}
  42:	f8cd e00e 	str.w	lr, [sp, #14]
  46:	4669      	mov	r1, sp
  48:	f8ad e012 	strh.w	lr, [sp, #18]
  4c:	4630      	mov	r0, r6
  4e:	6833      	ldr	r3, [r6, #0]
  50:	691b      	ldr	r3, [r3, #16]
  52:	4798      	blx	r3
  54:	b007      	add	sp, #28
  56:	bdf0      	pop	{r4, r5, r6, r7, pc}
  58:	447a0000 	.word	0x447a0000
  5c:	00000000 	.word	0x00000000

Disassembly of section .text._ZN11SparkMaxESC12readResponseEm:

00000000 <_ZN11SparkMaxESC12readResponseEm>:
   0:	e92d 43f0 	stmdb	sp!, {r4, r5, r6, r7, r8, r9, lr}
   4:	f8df 80b0 	ldr.w	r8, [pc, #176]	; b8 <_ZN11SparkMaxESC12readResponseEm+0xb8>
   8:	b08d      	sub	sp, #52	; 0x34
   a:	f8d0 c008 	ldr.w	ip, [r0, #8]
   e:	460f      	mov	r7, r1
  10:	466e      	mov	r6, sp
  12:	4604      	mov	r4, r0
  14:	f04f 0e00 	mov.w	lr, #0
  18:	f04f 0901 	mov.w	r9, #1
  1c:	4d24      	ldr	r5, [pc, #144]	; (b0 <_ZN11SparkMaxESC12readResponseEm+0xb0>)
  1e:	e8b8 000f 	ldmia.w	r8!, {r0, r1, r2, r3}
  22:	c60f      	stmia	r6!, {r0, r1, r2, r3}
  24:	e898 0003 	ldmia.w	r8, {r0, r1}
  28:	f88d 9007 	strb.w	r9, [sp, #7]
  2c:	9700      	str	r7, [sp, #0]
  2e:	e886 0003 	stmia.w	r6, {r0, r1}
  32:	e9cd ee03 	strd	lr, lr, [sp, #12]
  36:	f8dc 3000 	ldr.w	r3, [ip]
  3a:	4660      	mov	r0, ip
  3c:	4669      	mov	r1, sp
  3e:	691b      	ldr	r3, [r3, #16]
  40:	4798      	blx	r3
  42:	682e      	ldr	r6, [r5, #0]
  44:	f1a8 0e10 	sub.w	lr, r8, #16
  48:	682b      	ldr	r3, [r5, #0]
  4a:	f10d 0c18 	add.w	ip, sp, #24
  4e:	eba3 0906 	sub.w	r9, r3, r6
  52:	e8be 000f 	ldmia.w	lr!, {r0, r1, r2, r3}
  56:	f1b9 0f31 	cmp.w	r9, #49	; 0x31
  5a:	e8ac 000f 	stmia.w	ip!, {r0, r1, r2, r3}
  5e:	e898 0003 	ldmia.w	r8, {r0, r1}
  62:	e88c 0003 	stmia.w	ip, {r0, r1}
  66:	d810      	bhi.n	8a <_ZN11SparkMaxESC12readResponseEm+0x8a>
  68:	f8df 8050 	ldr.w	r8, [pc, #80]	; bc <_ZN11SparkMaxESC12readResponseEm+0xbc>
  6c:	68a0      	ldr	r0, [r4, #8]
  6e:	a906      	add	r1, sp, #24
  70:	6803      	ldr	r3, [r0, #0]
  72:	695b      	ldr	r3, [r3, #20]
  74:	4798      	blx	r3
  76:	b120      	cbz	r0, 82 <_ZN11SparkMaxESC12readResponseEm+0x82>
  78:	9b06      	ldr	r3, [sp, #24]
  7a:	407b      	eors	r3, r7
  7c:	ea13 0f08 	tst.w	r3, r8
  80:	d008      	beq.n	94 <_ZN11SparkMaxESC12readResponseEm+0x94>
  82:	682b      	ldr	r3, [r5, #0]
  84:	1b9b      	subs	r3, r3, r6
  86:	2b31      	cmp	r3, #49	; 0x31
  88:	d9f0      	bls.n	6c <_ZN11SparkMaxESC12readResponseEm+0x6c>
  8a:	eebf 0a00 	vmov.f32	s0, #240	; 0xbf800000 -1.0
  8e:	b00d      	add	sp, #52	; 0x34
  90:	e8bd 83f0 	ldmia.w	sp!, {r4, r5, r6, r7, r8, r9, pc}
  94:	f9bd 3026 	ldrsh.w	r3, [sp, #38]	; 0x26
  98:	ed9f 7a06 	vldr	s14, [pc, #24]	; b4 <_ZN11SparkMaxESC12readResponseEm+0xb4>
  9c:	ee07 3a90 	vmov	s15, r3
  a0:	eef8 7ae7 	vcvt.f32.s32	s15, s15
  a4:	ee87 0a87 	vdiv.f32	s0, s15, s14
  a8:	b00d      	add	sp, #52	; 0x34
  aa:	e8bd 83f0 	ldmia.w	sp!, {r4, r5, r6, r7, r8, r9, pc}
  ae:	bf00      	nop
  b0:	00000000 	.word	0x00000000
  b4:	46fffe00 	.word	0x46fffe00
  b8:	00000000 	.word	0x00000000
  bc:	ffff0000 	.word	0xffff0000

Disassembly of section .text._ZN11SparkMaxESC18getEncoderPositionEv:

00000000 <_ZN11SparkMaxESC18getEncoderPositionEv>:
   0:	7801      	ldrb	r1, [r0, #0]
   2:	f001 013f 	and.w	r1, r1, #63	; 0x3f
   6:	f041 6100 	orr.w	r1, r1, #134217728	; 0x8000000
   a:	f7ff bffe 	b.w	0 <_ZN11SparkMaxESC18getEncoderPositionEv>
   e:	bf00      	nop

Disassembly of section .text._ZN11SparkMaxESC18getEncoderVelocityEv:

00000000 <_ZN11SparkMaxESC18getEncoderVelocityEv>:
   0:	7801      	ldrb	r1, [r0, #0]
   2:	f001 013f 	and.w	r1, r1, #63	; 0x3f
   6:	f041 6110 	orr.w	r1, r1, #150994944	; 0x9000000
   a:	f7ff bffe 	b.w	0 <_ZN11SparkMaxESC18getEncoderVelocityEv>
   e:	bf00      	nop

Disassembly of section .text._ZN11SparkMaxESC15getMotorCurrentEv:

00000000 <_ZN11SparkMaxESC15getMotorCurrentEv>:
   0:	7801      	ldrb	r1, [r0, #0]
   2:	f001 013f 	and.w	r1, r1, #63	; 0x3f
   6:	f041 6140 	orr.w	r1, r1, #201326592	; 0xc000000
   a:	f7ff bffe 	b.w	0 <_ZN11SparkMaxESC15getMotorCurrentEv>
   e:	bf00      	nop

Disassembly of section .text._ZN11SparkMaxESC19getMotorTemperatureEv:

00000000 <_ZN11SparkMaxESC19getMotorTemperatureEv>:
   0:	7801      	ldrb	r1, [r0, #0]
   2:	f001 013f 	and.w	r1, r1, #63	; 0x3f
   6:	f041 6150 	orr.w	r1, r1, #218103808	; 0xd000000
   a:	f7ff bffe 	b.w	0 <_ZN11SparkMaxESC19getMotorTemperatureEv>
   e:	bf00      	nop

Disassembly of section .text._ZN11SparkMaxESC9getFaultsEv:

00000000 <_ZN11SparkMaxESC9getFaultsEv>:
   0:	b508      	push	{r3, lr}
   2:	7801      	ldrb	r1, [r0, #0]
   4:	f001 013f 	and.w	r1, r1, #63	; 0x3f
   8:	f041 6160 	orr.w	r1, r1, #234881024	; 0xe000000
   c:	f7ff fffe 	bl	0 <_ZN11SparkMaxESC9getFaultsEv>
  10:	eebc 0ac0 	vcvt.u32.f32	s0, s0
  14:	ee10 3a10 	vmov	r3, s0
  18:	b298      	uxth	r0, r3
  1a:	bd08      	pop	{r3, pc}

Disassembly of section .text._ZN11SparkMaxESC15getStickyFaultsEv:

00000000 <_ZN11SparkMaxESC15getStickyFaultsEv>:
   0:	b508      	push	{r3, lr}
   2:	7801      	ldrb	r1, [r0, #0]
   4:	f001 013f 	and.w	r1, r1, #63	; 0x3f
   8:	f041 6170 	orr.w	r1, r1, #251658240	; 0xf000000
   c:	f7ff fffe 	bl	0 <_ZN11SparkMaxESC15getStickyFaultsEv>
  10:	eebc 0ac0 	vcvt.u32.f32	s0, s0
  14:	ee10 3a10 	vmov	r3, s0
  18:	b298      	uxth	r0, r3
  1a:	bd08      	pop	{r3, pc}

Disassembly of section .text._ZN10FlexCAN_T4IL13CAN_DEV_TABLE1075642368EL21FLEXCAN_RXQUEUE_TABLE256EL21FLEXCAN_TXQUEUE_TABLE16EE5beginEv:

00000000 <_ZN10FlexCAN_T4IL13CAN_DEV_TABLE1075642368EL21FLEXCAN_RXQUEUE_TABLE256EL21FLEXCAN_TXQUEUE_TABLE16EE5beginEv>:
   0:	e92d 47f0 	stmdb	sp!, {r4, r5, r6, r7, r8, r9, sl, lr}
   4:	4ba2      	ldr	r3, [pc, #648]	; (290 <_ZN10FlexCAN_T4IL13CAN_DEV_TABLE1075642368EL21FLEXCAN_RXQUEUE_TABLE256EL21FLEXCAN_TXQUEUE_TABLE16EE5beginEv+0x290>)
   6:	b082      	sub	sp, #8
   8:	49a2      	ldr	r1, [pc, #648]	; (294 <_ZN10FlexCAN_T4IL13CAN_DEV_TABLE1075642368EL21FLEXCAN_RXQUEUE_TABLE256EL21FLEXCAN_TXQUEUE_TABLE16EE5beginEv+0x294>)
   a:	2200      	movs	r2, #0
   c:	9301      	str	r3, [sp, #4]
   e:	6a0b      	ldr	r3, [r1, #32]
  10:	f3c3 2301 	ubfx	r3, r3, #8, #2
  14:	3308      	adds	r3, #8
  16:	446b      	add	r3, sp
  18:	f813 3c04 	ldrb.w	r3, [r3, #-4]
  1c:	e9c0 2201 	strd	r2, r2, [r0, #4]
  20:	e9c0 2203 	strd	r2, r2, [r0, #12]
  24:	2b00      	cmp	r3, #0
  26:	f000 812b 	beq.w	280 <_ZN10FlexCAN_T4IL13CAN_DEV_TABLE1075642368EL21FLEXCAN_RXQUEUE_TABLE256EL21FLEXCAN_TXQUEUE_TABLE16EE5beginEv+0x280>
  2a:	f500 5c00 	add.w	ip, r0, #8192	; 0x2000
  2e:	4999      	ldr	r1, [pc, #612]	; (294 <_ZN10FlexCAN_T4IL13CAN_DEV_TABLE1075642368EL21FLEXCAN_RXQUEUE_TABLE256EL21FLEXCAN_TXQUEUE_TABLE16EE5beginEv+0x294>)
  30:	2024      	movs	r0, #36	; 0x24
  32:	4b99      	ldr	r3, [pc, #612]	; (298 <_ZN10FlexCAN_T4IL13CAN_DEV_TABLE1075642368EL21FLEXCAN_RXQUEUE_TABLE256EL21FLEXCAN_TXQUEUE_TABLE16EE5beginEv+0x298>)
  34:	4a99      	ldr	r2, [pc, #612]	; (29c <_ZN10FlexCAN_T4IL13CAN_DEV_TABLE1075642368EL21FLEXCAN_RXQUEUE_TABLE256EL21FLEXCAN_TXQUEUE_TABLE16EE5beginEv+0x29c>)
  36:	2401      	movs	r4, #1
  38:	f8cc 090c 	str.w	r0, [ip, #2316]	; 0x90c
  3c:	2502      	movs	r5, #2
  3e:	f8c3 20d0 	str.w	r2, [r3, #208]	; 0xd0
  42:	2012      	movs	r0, #18
  44:	6e8a      	ldr	r2, [r1, #104]	; 0x68
  46:	4b96      	ldr	r3, [pc, #600]	; (2a0 <_ZN10FlexCAN_T4IL13CAN_DEV_TABLE1075642368EL21FLEXCAN_RXQUEUE_TABLE256EL21FLEXCAN_TXQUEUE_TABLE16EE5beginEv+0x2a0>)
  48:	f442 3270 	orr.w	r2, r2, #245760	; 0x3c000
  4c:	668a      	str	r2, [r1, #104]	; 0x68
  4e:	f241 01b0 	movw	r1, #4272	; 0x10b0
  52:	f88c 4915 	strb.w	r4, [ip, #2325]	; 0x915
  56:	4a93      	ldr	r2, [pc, #588]	; (2a4 <_ZN10FlexCAN_T4IL13CAN_DEV_TABLE1075642368EL21FLEXCAN_RXQUEUE_TABLE256EL21FLEXCAN_TXQUEUE_TABLE16EE5beginEv+0x2a4>)
  58:	4c93      	ldr	r4, [pc, #588]	; (2a8 <_ZN10FlexCAN_T4IL13CAN_DEV_TABLE1075642368EL21FLEXCAN_RXQUEUE_TABLE256EL21FLEXCAN_TXQUEUE_TABLE16EE5beginEv+0x2a8>)
  5a:	f8c3 011c 	str.w	r0, [r3, #284]	; 0x11c
  5e:	f8c3 130c 	str.w	r1, [r3, #780]	; 0x30c
  62:	64e5      	str	r5, [r4, #76]	; 0x4c
  64:	f8c3 0120 	str.w	r0, [r3, #288]	; 0x120
  68:	f8c3 1310 	str.w	r1, [r3, #784]	; 0x310
  6c:	6813      	ldr	r3, [r2, #0]
  6e:	f023 4300 	bic.w	r3, r3, #2147483648	; 0x80000000
  72:	6013      	str	r3, [r2, #0]
  74:	6813      	ldr	r3, [r2, #0]
  76:	f043 43a0 	orr.w	r3, r3, #1342177280	; 0x50000000
  7a:	6013      	str	r3, [r2, #0]
  7c:	6813      	ldr	r3, [r2, #0]
  7e:	01de      	lsls	r6, r3, #7
  80:	d5fc      	bpl.n	7c <_ZN10FlexCAN_T4IL13CAN_DEV_TABLE1075642368EL21FLEXCAN_RXQUEUE_TABLE256EL21FLEXCAN_TXQUEUE_TABLE16EE5beginEv+0x7c>
  82:	6853      	ldr	r3, [r2, #4]
  84:	4987      	ldr	r1, [pc, #540]	; (2a4 <_ZN10FlexCAN_T4IL13CAN_DEV_TABLE1075642368EL21FLEXCAN_RXQUEUE_TABLE256EL21FLEXCAN_TXQUEUE_TABLE16EE5beginEv+0x2a4>)
  86:	f043 0308 	orr.w	r3, r3, #8
  8a:	6053      	str	r3, [r2, #4]
  8c:	6813      	ldr	r3, [r2, #0]
  8e:	f043 4380 	orr.w	r3, r3, #1073741824	; 0x40000000
  92:	6013      	str	r3, [r2, #0]
  94:	680b      	ldr	r3, [r1, #0]
  96:	02dd      	lsls	r5, r3, #11
  98:	d4fc      	bmi.n	94 <_ZN10FlexCAN_T4IL13CAN_DEV_TABLE1075642368EL21FLEXCAN_RXQUEUE_TABLE256EL21FLEXCAN_TXQUEUE_TABLE16EE5beginEv+0x94>
  9a:	680a      	ldr	r2, [r1, #0]
  9c:	4b81      	ldr	r3, [pc, #516]	; (2a4 <_ZN10FlexCAN_T4IL13CAN_DEV_TABLE1075642368EL21FLEXCAN_RXQUEUE_TABLE256EL21FLEXCAN_TXQUEUE_TABLE16EE5beginEv+0x2a4>)
  9e:	f042 7200 	orr.w	r2, r2, #33554432	; 0x2000000
  a2:	600a      	str	r2, [r1, #0]
  a4:	681a      	ldr	r2, [r3, #0]
  a6:	f012 7200 	ands.w	r2, r2, #33554432	; 0x2000000
  aa:	d1fb      	bne.n	a4 <_ZN10FlexCAN_T4IL13CAN_DEV_TABLE1075642368EL21FLEXCAN_RXQUEUE_TABLE256EL21FLEXCAN_TXQUEUE_TABLE16EE5beginEv+0xa4>
  ac:	4b7d      	ldr	r3, [pc, #500]	; (2a4 <_ZN10FlexCAN_T4IL13CAN_DEV_TABLE1075642368EL21FLEXCAN_RXQUEUE_TABLE256EL21FLEXCAN_TXQUEUE_TABLE16EE5beginEv+0x2a4>)
  ae:	6819      	ldr	r1, [r3, #0]
  b0:	01cc      	lsls	r4, r1, #7
  b2:	d5fc      	bpl.n	ae <_ZN10FlexCAN_T4IL13CAN_DEV_TABLE1075642368EL21FLEXCAN_RXQUEUE_TABLE256EL21FLEXCAN_TXQUEUE_TABLE16EE5beginEv+0xae>
  b4:	6819      	ldr	r1, [r3, #0]
  b6:	f441 3100 	orr.w	r1, r1, #131072	; 0x20000
  ba:	6019      	str	r1, [r3, #0]
  bc:	6819      	ldr	r1, [r3, #0]
  be:	f441 3180 	orr.w	r1, r1, #65536	; 0x10000
  c2:	6019      	str	r1, [r3, #0]
  c4:	6819      	ldr	r1, [r3, #0]
  c6:	f441 5180 	orr.w	r1, r1, #4096	; 0x1000
  ca:	6019      	str	r1, [r3, #0]
  cc:	6819      	ldr	r1, [r3, #0]
  ce:	f441 5100 	orr.w	r1, r1, #8192	; 0x2000
  d2:	6019      	str	r1, [r3, #0]
  d4:	6819      	ldr	r1, [r3, #0]
  d6:	f441 0180 	orr.w	r1, r1, #4194304	; 0x400000
  da:	6019      	str	r1, [r3, #0]
  dc:	6819      	ldr	r1, [r3, #0]
  de:	f441 2100 	orr.w	r1, r1, #524288	; 0x80000
  e2:	6019      	str	r1, [r3, #0]
  e4:	6819      	ldr	r1, [r3, #0]
  e6:	f421 4108 	bic.w	r1, r1, #34816	; 0x8800
  ea:	6019      	str	r1, [r3, #0]
  ec:	6b59      	ldr	r1, [r3, #52]	; 0x34
  ee:	f441 21e0 	orr.w	r1, r1, #458752	; 0x70000
  f2:	6359      	str	r1, [r3, #52]	; 0x34
  f4:	6819      	ldr	r1, [r3, #0]
  f6:	f441 1100 	orr.w	r1, r1, #2097152	; 0x200000
  fa:	6019      	str	r1, [r3, #0]
  fc:	6819      	ldr	r1, [r3, #0]
  fe:	f041 6180 	orr.w	r1, r1, #67108864	; 0x4000000
 102:	6019      	str	r1, [r3, #0]
 104:	681d      	ldr	r5, [r3, #0]
 106:	6819      	ldr	r1, [r3, #0]
 108:	f005 7580 	and.w	r5, r5, #16777216	; 0x1000000
 10c:	f041 41a0 	orr.w	r1, r1, #1342177280	; 0x50000000
 110:	6019      	str	r1, [r3, #0]
 112:	4964      	ldr	r1, [pc, #400]	; (2a4 <_ZN10FlexCAN_T4IL13CAN_DEV_TABLE1075642368EL21FLEXCAN_RXQUEUE_TABLE256EL21FLEXCAN_TXQUEUE_TABLE16EE5beginEv+0x2a4>)
 114:	680b      	ldr	r3, [r1, #0]
 116:	01d8      	lsls	r0, r3, #7
 118:	d5fc      	bpl.n	114 <_ZN10FlexCAN_T4IL13CAN_DEV_TABLE1075642368EL21FLEXCAN_RXQUEUE_TABLE256EL21FLEXCAN_TXQUEUE_TABLE16EE5beginEv+0x114>
 11a:	680b      	ldr	r3, [r1, #0]
 11c:	f8df e190 	ldr.w	lr, [pc, #400]	; 2b0 <_ZN10FlexCAN_T4IL13CAN_DEV_TABLE1075642368EL21FLEXCAN_RXQUEUE_TABLE256EL21FLEXCAN_TXQUEUE_TABLE16EE5beginEv+0x2b0>
 120:	f023 5300 	bic.w	r3, r3, #536870912	; 0x20000000
 124:	4f61      	ldr	r7, [pc, #388]	; (2ac <_ZN10FlexCAN_T4IL13CAN_DEV_TABLE1075642368EL21FLEXCAN_RXQUEUE_TABLE256EL21FLEXCAN_TXQUEUE_TABLE16EE5beginEv+0x2ac>)
 126:	4e5f      	ldr	r6, [pc, #380]	; (2a4 <_ZN10FlexCAN_T4IL13CAN_DEV_TABLE1075642368EL21FLEXCAN_RXQUEUE_TABLE256EL21FLEXCAN_TXQUEUE_TABLE16EE5beginEv+0x2a4>)
 128:	600b      	str	r3, [r1, #0]
 12a:	2300      	movs	r3, #0
 12c:	624b      	str	r3, [r1, #36]	; 0x24
 12e:	4618      	mov	r0, r3
 130:	628b      	str	r3, [r1, #40]	; 0x28
 132:	6809      	ldr	r1, [r1, #0]
 134:	eb03 010e 	add.w	r1, r3, lr
 138:	19dc      	adds	r4, r3, r7
 13a:	3301      	adds	r3, #1
 13c:	0109      	lsls	r1, r1, #4
 13e:	00a4      	lsls	r4, r4, #2
 140:	60c8      	str	r0, [r1, #12]
 142:	b2db      	uxtb	r3, r3
 144:	6088      	str	r0, [r1, #8]
 146:	6048      	str	r0, [r1, #4]
 148:	6008      	str	r0, [r1, #0]
 14a:	6020      	str	r0, [r4, #0]
 14c:	6831      	ldr	r1, [r6, #0]
 14e:	f001 017f 	and.w	r1, r1, #127	; 0x7f
 152:	3101      	adds	r1, #1
 154:	428b      	cmp	r3, r1
 156:	d3ed      	bcc.n	134 <_ZN10FlexCAN_T4IL13CAN_DEV_TABLE1075642368EL21FLEXCAN_RXQUEUE_TABLE256EL21FLEXCAN_TXQUEUE_TABLE16EE5beginEv+0x134>
 158:	64b0      	str	r0, [r6, #72]	; 0x48
 15a:	f04f 6700 	mov.w	r7, #134217728	; 0x8000000
 15e:	6130      	str	r0, [r6, #16]
 160:	f04f 0e01 	mov.w	lr, #1
 164:	6af1      	ldr	r1, [r6, #44]	; 0x2c
 166:	6b33      	ldr	r3, [r6, #48]	; 0x30
 168:	4c51      	ldr	r4, [pc, #324]	; (2b0 <_ZN10FlexCAN_T4IL13CAN_DEV_TABLE1075642368EL21FLEXCAN_RXQUEUE_TABLE256EL21FLEXCAN_TXQUEUE_TABLE16EE5beginEv+0x2b0>)
 16a:	62f1      	str	r1, [r6, #44]	; 0x2c
 16c:	484d      	ldr	r0, [pc, #308]	; (2a4 <_ZN10FlexCAN_T4IL13CAN_DEV_TABLE1075642368EL21FLEXCAN_RXQUEUE_TABLE256EL21FLEXCAN_TXQUEUE_TABLE16EE5beginEv+0x2a4>)
 16e:	6333      	str	r3, [r6, #48]	; 0x30
 170:	2300      	movs	r3, #0
 172:	6831      	ldr	r1, [r6, #0]
 174:	4e4d      	ldr	r6, [pc, #308]	; (2ac <_ZN10FlexCAN_T4IL13CAN_DEV_TABLE1075642368EL21FLEXCAN_RXQUEUE_TABLE256EL21FLEXCAN_TXQUEUE_TABLE16EE5beginEv+0x2ac>)
 176:	e01f      	b.n	1b8 <_ZN10FlexCAN_T4IL13CAN_DEV_TABLE1075642368EL21FLEXCAN_RXQUEUE_TABLE256EL21FLEXCAN_TXQUEUE_TABLE16EE5beginEv+0x1b8>
 178:	6801      	ldr	r1, [r0, #0]
 17a:	eb03 0a06 	add.w	sl, r3, r6
 17e:	f001 097f 	and.w	r9, r1, #127	; 0x7f
 182:	4651      	mov	r1, sl
 184:	f109 0901 	add.w	r9, r9, #1
 188:	0089      	lsls	r1, r1, #2
 18a:	ebb2 0f99 	cmp.w	r2, r9, lsr #2
 18e:	bf34      	ite	cc
 190:	f04f 6280 	movcc.w	r2, #67108864	; 0x4000000
 194:	f04f 628c 	movcs.w	r2, #73400320	; 0x4600000
 198:	f8c8 2000 	str.w	r2, [r8]
 19c:	6b42      	ldr	r2, [r0, #52]	; 0x34
 19e:	f3c2 4200 	ubfx	r2, r2, #16, #1
 1a2:	0792      	lsls	r2, r2, #30
 1a4:	600a      	str	r2, [r1, #0]
 1a6:	6801      	ldr	r1, [r0, #0]
 1a8:	3301      	adds	r3, #1
 1aa:	f001 017f 	and.w	r1, r1, #127	; 0x7f
 1ae:	b2db      	uxtb	r3, r3
 1b0:	3101      	adds	r1, #1
 1b2:	461a      	mov	r2, r3
 1b4:	428b      	cmp	r3, r1
 1b6:	d239      	bcs.n	22c <_ZN10FlexCAN_T4IL13CAN_DEV_TABLE1075642368EL21FLEXCAN_RXQUEUE_TABLE256EL21FLEXCAN_TXQUEUE_TABLE16EE5beginEv+0x22c>
 1b8:	6801      	ldr	r1, [r0, #0]
 1ba:	eb03 0804 	add.w	r8, r3, r4
 1be:	f001 017f 	and.w	r1, r1, #127	; 0x7f
 1c2:	ea4f 1808 	mov.w	r8, r8, lsl #4
 1c6:	3101      	adds	r1, #1
 1c8:	ebb2 0f51 	cmp.w	r2, r1, lsr #1
 1cc:	d3d4      	bcc.n	178 <_ZN10FlexCAN_T4IL13CAN_DEV_TABLE1075642368EL21FLEXCAN_RXQUEUE_TABLE256EL21FLEXCAN_TXQUEUE_TABLE16EE5beginEv+0x178>
 1ce:	f8c8 7000 	str.w	r7, [r8]
 1d2:	6802      	ldr	r2, [r0, #0]
 1d4:	0092      	lsls	r2, r2, #2
 1d6:	d521      	bpl.n	21c <_ZN10FlexCAN_T4IL13CAN_DEV_TABLE1075642368EL21FLEXCAN_RXQUEUE_TABLE256EL21FLEXCAN_TXQUEUE_TABLE16EE5beginEv+0x21c>
 1d8:	6802      	ldr	r2, [r0, #0]
 1da:	f8d0 8034 	ldr.w	r8, [r0, #52]	; 0x34
 1de:	6801      	ldr	r1, [r0, #0]
 1e0:	f8d0 9034 	ldr.w	r9, [r0, #52]	; 0x34
 1e4:	f001 017f 	and.w	r1, r1, #127	; 0x7f
 1e8:	f3c9 6903 	ubfx	r9, r9, #24, #4
 1ec:	3101      	adds	r1, #1
 1ee:	f109 0904 	add.w	r9, r9, #4
 1f2:	ebb1 0f49 	cmp.w	r1, r9, lsl #1
 1f6:	d339      	bcc.n	26c <_ZN10FlexCAN_T4IL13CAN_DEV_TABLE1075642368EL21FLEXCAN_RXQUEUE_TABLE256EL21FLEXCAN_TXQUEUE_TABLE16EE5beginEv+0x26c>
 1f8:	f002 017f 	and.w	r1, r2, #127	; 0x7f
 1fc:	f3c8 6803 	ubfx	r8, r8, #24, #4
 200:	3905      	subs	r1, #5
 202:	f108 0801 	add.w	r8, r8, #1
 206:	eba1 0148 	sub.w	r1, r1, r8, lsl #1
 20a:	b2c9      	uxtb	r1, r1
 20c:	6802      	ldr	r2, [r0, #0]
 20e:	f002 027f 	and.w	r2, r2, #127	; 0x7f
 212:	3201      	adds	r2, #1
 214:	1a52      	subs	r2, r2, r1
 216:	b2d2      	uxtb	r2, r2
 218:	4293      	cmp	r3, r2
 21a:	d3c4      	bcc.n	1a6 <_ZN10FlexCAN_T4IL13CAN_DEV_TABLE1075642368EL21FLEXCAN_RXQUEUE_TABLE256EL21FLEXCAN_TXQUEUE_TABLE16EE5beginEv+0x1a6>
 21c:	2b1f      	cmp	r3, #31
 21e:	d827      	bhi.n	270 <_ZN10FlexCAN_T4IL13CAN_DEV_TABLE1075642368EL21FLEXCAN_RXQUEUE_TABLE256EL21FLEXCAN_TXQUEUE_TABLE16EE5beginEv+0x270>
 220:	6a81      	ldr	r1, [r0, #40]	; 0x28
 222:	fa0e f203 	lsl.w	r2, lr, r3
 226:	430a      	orrs	r2, r1
 228:	6282      	str	r2, [r0, #40]	; 0x28
 22a:	e7bc      	b.n	1a6 <_ZN10FlexCAN_T4IL13CAN_DEV_TABLE1075642368EL21FLEXCAN_RXQUEUE_TABLE256EL21FLEXCAN_TXQUEUE_TABLE16EE5beginEv+0x1a6>
 22c:	b93d      	cbnz	r5, 23e <_ZN10FlexCAN_T4IL13CAN_DEV_TABLE1075642368EL21FLEXCAN_RXQUEUE_TABLE256EL21FLEXCAN_TXQUEUE_TABLE16EE5beginEv+0x23e>
 22e:	6803      	ldr	r3, [r0, #0]
 230:	4a1c      	ldr	r2, [pc, #112]	; (2a4 <_ZN10FlexCAN_T4IL13CAN_DEV_TABLE1075642368EL21FLEXCAN_RXQUEUE_TABLE256EL21FLEXCAN_TXQUEUE_TABLE16EE5beginEv+0x2a4>)
 232:	f023 5380 	bic.w	r3, r3, #268435456	; 0x10000000
 236:	6003      	str	r3, [r0, #0]
 238:	6813      	ldr	r3, [r2, #0]
 23a:	01d9      	lsls	r1, r3, #7
 23c:	d4fc      	bmi.n	238 <_ZN10FlexCAN_T4IL13CAN_DEV_TABLE1075642368EL21FLEXCAN_RXQUEUE_TABLE256EL21FLEXCAN_TXQUEUE_TABLE16EE5beginEv+0x238>
 23e:	4a19      	ldr	r2, [pc, #100]	; (2a4 <_ZN10FlexCAN_T4IL13CAN_DEV_TABLE1075642368EL21FLEXCAN_RXQUEUE_TABLE256EL21FLEXCAN_TXQUEUE_TABLE16EE5beginEv+0x2a4>)
 240:	6813      	ldr	r3, [r2, #0]
 242:	f023 5380 	bic.w	r3, r3, #268435456	; 0x10000000
 246:	6013      	str	r3, [r2, #0]
 248:	6813      	ldr	r3, [r2, #0]
 24a:	01db      	lsls	r3, r3, #7
 24c:	d4fc      	bmi.n	248 <_ZN10FlexCAN_T4IL13CAN_DEV_TABLE1075642368EL21FLEXCAN_RXQUEUE_TABLE256EL21FLEXCAN_TXQUEUE_TABLE16EE5beginEv+0x248>
 24e:	f8dc 290c 	ldr.w	r2, [ip, #2316]	; 0x90c
 252:	2101      	movs	r1, #1
 254:	4b17      	ldr	r3, [pc, #92]	; (2b4 <_ZN10FlexCAN_T4IL13CAN_DEV_TABLE1075642368EL21FLEXCAN_RXQUEUE_TABLE256EL21FLEXCAN_TXQUEUE_TABLE16EE5beginEv+0x2b4>)
 256:	eb03 1352 	add.w	r3, r3, r2, lsr #5
 25a:	f002 021f 	and.w	r2, r2, #31
 25e:	009b      	lsls	r3, r3, #2
 260:	fa01 f202 	lsl.w	r2, r1, r2
 264:	601a      	str	r2, [r3, #0]
 266:	b002      	add	sp, #8
 268:	e8bd 87f0 	ldmia.w	sp!, {r4, r5, r6, r7, r8, r9, sl, pc}
 26c:	2100      	movs	r1, #0
 26e:	e7cd      	b.n	20c <_ZN10FlexCAN_T4IL13CAN_DEV_TABLE1075642368EL21FLEXCAN_RXQUEUE_TABLE256EL21FLEXCAN_TXQUEUE_TABLE16EE5beginEv+0x20c>
 270:	f1a3 0220 	sub.w	r2, r3, #32
 274:	6a41      	ldr	r1, [r0, #36]	; 0x24
 276:	fa0e f202 	lsl.w	r2, lr, r2
 27a:	430a      	orrs	r2, r1
 27c:	6242      	str	r2, [r0, #36]	; 0x24
 27e:	e792      	b.n	1a6 <_ZN10FlexCAN_T4IL13CAN_DEV_TABLE1075642368EL21FLEXCAN_RXQUEUE_TABLE256EL21FLEXCAN_TXQUEUE_TABLE16EE5beginEv+0x1a6>
 280:	6a0b      	ldr	r3, [r1, #32]
 282:	f423 737f 	bic.w	r3, r3, #1020	; 0x3fc
 286:	f443 7380 	orr.w	r3, r3, #256	; 0x100
 28a:	620b      	str	r3, [r1, #32]
 28c:	e6cd      	b.n	2a <_ZN10FlexCAN_T4IL13CAN_DEV_TABLE1075642368EL21FLEXCAN_RXQUEUE_TABLE256EL21FLEXCAN_TXQUEUE_TABLE16EE5beginEv+0x2a>
 28e:	bf00      	nop
 290:	0050183c 	.word	0x0050183c
 294:	400fc000 	.word	0x400fc000
 298:	00000000 	.word	0x00000000
 29c:	00000000 	.word	0x00000000
 2a0:	401f8000 	.word	0x401f8000
 2a4:	401d0000 	.word	0x401d0000
 2a8:	401f8400 	.word	0x401f8400
 2ac:	10074220 	.word	0x10074220
 2b0:	0401d008 	.word	0x0401d008
 2b4:	38003840 	.word	0x38003840

Disassembly of section .text._ZN11SparkMaxESC5beginEv:

00000000 <_ZN11SparkMaxESC5beginEv>:
   0:	b510      	push	{r4, lr}
   2:	4604      	mov	r4, r0
   4:	6880      	ldr	r0, [r0, #8]
   6:	f7ff fffe 	bl	0 <_ZN11SparkMaxESC5beginEv>
   a:	2200      	movs	r2, #0
   c:	68a0      	ldr	r0, [r4, #8]
   e:	4903      	ldr	r1, [pc, #12]	; (1c <_ZN11SparkMaxESC5beginEv+0x1c>)
  10:	6803      	ldr	r3, [r0, #0]
  12:	e8bd 4010 	ldmia.w	sp!, {r4, lr}
  16:	685b      	ldr	r3, [r3, #4]
  18:	4718      	bx	r3
  1a:	bf00      	nop
  1c:	000f4240 	.word	0x000f4240
