
build/./libraries/QNEthernet/src/QNEthernet.cpp.o:     file format elf32-littlearm

SYMBOL TABLE:
00000000 l    df *ABS*	00000000 QNEthernet.cpp
00000000 l    d  .text	00000000 .text
00000000 l    d  .data	00000000 .data
00000000 l    d  .bss	00000000 .bss
00000000 l    d  .text._ZN10StaticInitIN9qindesign8security12RandomDeviceEED2Ev	00000000 .text._ZN10StaticInitIN9qindesign8security12RandomDeviceEED2Ev
00000000 l    d  .text._ZN14EventResponder12triggerEventEiPv	00000000 .text._ZN14EventResponder12triggerEventEiPv
00000000 l    d  .text._ZN10StaticInitIN9qindesign7network9MDNSClassEED2Ev	00000000 .text._ZN10StaticInitIN9qindesign7network9MDNSClassEED2Ev
00000000 l    d  .text._ZN14EventResponderD2Ev	00000000 .text._ZN14EventResponderD2Ev
00000000 l    d  .text._ZN9qindesign7network13EthernetClass14netifEventFuncEP5netiftPK25netif_ext_callback_args_t	00000000 .text._ZN9qindesign7network13EthernetClass14netifEventFuncEP5netiftPK25netif_ext_callback_args_t
00000000 l    d  .text._ZN9qindesign7network13EthernetClass5startEv.part.0	00000000 .text._ZN9qindesign7network13EthernetClass5startEv.part.0
00000000 l     F .text._ZN9qindesign7network13EthernetClass5startEv.part.0	000000d4 _ZN9qindesign7network13EthernetClass5startEv.part.0
00000000 l     F .text._ZZN9qindesign7networkL17attachLoopToYieldEvENUlR14EventResponderE_4_FUNES2_	0000006c _ZZN9qindesign7networkL17attachLoopToYieldEvENUlR14EventResponderE_4_FUNES2_
00000000 l    d  .text._ZZN9qindesign7networkL17attachLoopToYieldEvENUlR14EventResponderE_4_FUNES2_	00000000 .text._ZZN9qindesign7networkL17attachLoopToYieldEvENUlR14EventResponderE_4_FUNES2_
00000000 l    d  .rodata.str1.4	00000000 .rodata.str1.4
00000000 l    d  .flashmem	00000000 .flashmem
00000000 l    d  .text._ZN9qindesign7network13EthernetClass10macAddressEv	00000000 .text._ZN9qindesign7network13EthernetClass10macAddressEv
00000000 l    d  .text._ZN9qindesign7network13EthernetClass10macAddressEPh	00000000 .text._ZN9qindesign7network13EthernetClass10macAddressEPh
00000000 l    d  .text._ZN9qindesign7network13EthernetClass4loopEv	00000000 .text._ZN9qindesign7network13EthernetClass4loopEv
00000000 l    d  .text._ZN9qindesign7network13EthernetClass14maybeStartDHCPEv	00000000 .text._ZN9qindesign7network13EthernetClass14maybeStartDHCPEv
00000000 l    d  .text._ZN9qindesign7network13EthernetClass5beginERK9IPAddressS4_S4_S4_	00000000 .text._ZN9qindesign7network13EthernetClass5beginERK9IPAddressS4_S4_S4_
00000000 l    d  .text._ZN9qindesign7network13EthernetClass5beginEv	00000000 .text._ZN9qindesign7network13EthernetClass5beginEv
00000000 l    d  .text._ZN9qindesign7network13EthernetClass5beginERK9IPAddressS4_S4_	00000000 .text._ZN9qindesign7network13EthernetClass5beginERK9IPAddressS4_S4_
00000000 l    d  .text._ZN9qindesign7network13EthernetClass13setMACAddressEPKh	00000000 .text._ZN9qindesign7network13EthernetClass13setMACAddressEPKh
00000000 l    d  .text._ZN9qindesign7network13EthernetClass5startEv	00000000 .text._ZN9qindesign7network13EthernetClass5startEv
00000000 l    d  .text._ZN9qindesign7network13EthernetClass14setDHCPEnabledEb	00000000 .text._ZN9qindesign7network13EthernetClass14setDHCPEnabledEb
00000000 l    d  .text._ZNK9qindesign7network13EthernetClass14waitForLocalIPEm	00000000 .text._ZNK9qindesign7network13EthernetClass14waitForLocalIPEm
00000000 l    d  .text._ZNK9qindesign7network13EthernetClass11waitForLinkEm	00000000 .text._ZNK9qindesign7network13EthernetClass11waitForLinkEm
00000000 l    d  .text._ZN9qindesign7network13EthernetClass5beginEPKhRK9IPAddressS6_S6_S6_	00000000 .text._ZN9qindesign7network13EthernetClass5beginEPKhRK9IPAddressS6_S6_S6_
00000000 l    d  .text._ZN9qindesign7network13EthernetClass5beginEPKhm	00000000 .text._ZN9qindesign7network13EthernetClass5beginEPKhm
00000000 l    d  .text._ZN9qindesign7network13EthernetClass5beginEPKhRK9IPAddress	00000000 .text._ZN9qindesign7network13EthernetClass5beginEPKhRK9IPAddress
00000000 l    d  .text._ZN9qindesign7network13EthernetClass5beginEPKhRK9IPAddressS6_	00000000 .text._ZN9qindesign7network13EthernetClass5beginEPKhRK9IPAddressS6_
00000000 l    d  .text._ZN9qindesign7network13EthernetClass5beginEPKhRK9IPAddressS6_S6_	00000000 .text._ZN9qindesign7network13EthernetClass5beginEPKhRK9IPAddressS6_S6_
00000000 l    d  .text._ZN9qindesign7network13EthernetClass3endEv	00000000 .text._ZN9qindesign7network13EthernetClass3endEv
00000000 l    d  .text._ZN10StaticInitIN9qindesign7network13EthernetClassEED2Ev	00000000 .text._ZN10StaticInitIN9qindesign7network13EthernetClassEED2Ev
00000000 l    d  .text._ZNK9qindesign7network13EthernetClass10linkStatusEv	00000000 .text._ZNK9qindesign7network13EthernetClass10linkStatusEv
00000000 l    d  .text._ZNK9qindesign7network13EthernetClass21isLinkStateDetectableEv	00000000 .text._ZNK9qindesign7network13EthernetClass21isLinkStateDetectableEv
00000000 l    d  .text._ZNK9qindesign7network13EthernetClass9linkStateEv	00000000 .text._ZNK9qindesign7network13EthernetClass9linkStateEv
00000000 l    d  .text._ZNK9qindesign7network13EthernetClass12setLinkStateEb	00000000 .text._ZNK9qindesign7network13EthernetClass12setLinkStateEb
00000000 l    d  .text._ZNK9qindesign7network13EthernetClass9linkSpeedEv	00000000 .text._ZNK9qindesign7network13EthernetClass9linkSpeedEv
00000000 l    d  .text._ZNK9qindesign7network13EthernetClass16linkIsFullDuplexEv	00000000 .text._ZNK9qindesign7network13EthernetClass16linkIsFullDuplexEv
00000000 l    d  .text._ZNK9qindesign7network13EthernetClass15linkIsCrossoverEv	00000000 .text._ZNK9qindesign7network13EthernetClass15linkIsCrossoverEv
00000000 l    d  .text._ZNK9qindesign7network13EthernetClass15interfaceStatusEv	00000000 .text._ZNK9qindesign7network13EthernetClass15interfaceStatusEv
00000000 l    d  .text._ZNK9qindesign7network13EthernetClass7localIPEv	00000000 .text._ZNK9qindesign7network13EthernetClass7localIPEv
00000000 l    d  .text._ZNK9qindesign7network13EthernetClass10subnetMaskEv	00000000 .text._ZNK9qindesign7network13EthernetClass10subnetMaskEv
00000000 l    d  .text._ZNK9qindesign7network13EthernetClass9gatewayIPEv	00000000 .text._ZNK9qindesign7network13EthernetClass9gatewayIPEv
00000000 l    d  .text._ZNK9qindesign7network13EthernetClass11dnsServerIPEv	00000000 .text._ZNK9qindesign7network13EthernetClass11dnsServerIPEv
00000000 l    d  .text._ZNK9qindesign7network13EthernetClass11dnsServerIPEi	00000000 .text._ZNK9qindesign7network13EthernetClass11dnsServerIPEi
00000000 l    d  .text._ZNK9qindesign7network13EthernetClass11broadcastIPEv	00000000 .text._ZNK9qindesign7network13EthernetClass11broadcastIPEv
00000000 l    d  .text._ZNK9qindesign7network13EthernetClass10setLocalIPERK9IPAddress	00000000 .text._ZNK9qindesign7network13EthernetClass10setLocalIPERK9IPAddress
00000000 l    d  .text._ZNK9qindesign7network13EthernetClass13setSubnetMaskERK9IPAddress	00000000 .text._ZNK9qindesign7network13EthernetClass13setSubnetMaskERK9IPAddress
00000000 l    d  .text._ZNK9qindesign7network13EthernetClass12setGatewayIPERK9IPAddress	00000000 .text._ZNK9qindesign7network13EthernetClass12setGatewayIPERK9IPAddress
00000000 l    d  .text._ZNK9qindesign7network13EthernetClass14setDNSServerIPERK9IPAddress	00000000 .text._ZNK9qindesign7network13EthernetClass14setDNSServerIPERK9IPAddress
00000000 l    d  .text._ZNK9qindesign7network13EthernetClass14setDNSServerIPEiRK9IPAddress	00000000 .text._ZNK9qindesign7network13EthernetClass14setDNSServerIPEiRK9IPAddress
00000000 l    d  .text._ZNK9qindesign7network13EthernetClass14hardwareStatusEv	00000000 .text._ZNK9qindesign7network13EthernetClass14hardwareStatusEv
00000000 l    d  .text._ZNK9qindesign7network13EthernetClass9joinGroupERK9IPAddress	00000000 .text._ZNK9qindesign7network13EthernetClass9joinGroupERK9IPAddress
00000000 l    d  .text._ZNK9qindesign7network13EthernetClass10leaveGroupERK9IPAddress	00000000 .text._ZNK9qindesign7network13EthernetClass10leaveGroupERK9IPAddress
00000000 l    d  .text._ZNK9qindesign7network13EthernetClass20setMACAddressAllowedEPKhb	00000000 .text._ZNK9qindesign7network13EthernetClass20setMACAddressAllowedEPKhb
00000000 l    d  .text._ZN9qindesign7network13EthernetClass11setHostnameEPKc	00000000 .text._ZN9qindesign7network13EthernetClass11setHostnameEPKc
00000000 l    d  .text._ZNK9qindesign7network13EthernetClass8hostnameEv	00000000 .text._ZNK9qindesign7network13EthernetClass8hostnameEv
00000000 l    d  .text._ZNK9qindesign7network13EthernetClasscvbEv	00000000 .text._ZNK9qindesign7network13EthernetClasscvbEv
00000000 l    d  .text._ZN9qindesign7network13EthernetClass10hostByNameEPKcR9IPAddress	00000000 .text._ZN9qindesign7network13EthernetClass10hostByNameEPKcR9IPAddress
00000000 l    d  .text.startup._GLOBAL__sub_I__ZN10StaticInitIN9qindesign7network13EthernetClassEE13nifty_counterE	00000000 .text.startup._GLOBAL__sub_I__ZN10StaticInitIN9qindesign7network13EthernetClassEE13nifty_counterE
00000000 l     F .text.startup._GLOBAL__sub_I__ZN10StaticInitIN9qindesign7network13EthernetClassEE13nifty_counterE	000000dc _GLOBAL__sub_I__ZN10StaticInitIN9qindesign7network13EthernetClassEE13nifty_counterE
00000000 l    d  .init_array	00000000 .init_array
00000000 l    d  .rodata._ZTV14EventResponder	00000000 .rodata._ZTV14EventResponder
00000000 l    d  .bss._ZL11INADDR_NONE	00000000 .bss._ZL11INADDR_NONE
00000000 l     O .bss._ZL11INADDR_NONE	00000008 _ZL11INADDR_NONE
00000000 l    d  .bss._ZN10StaticInitIN9qindesign7network13EthernetClassEE13nifty_counterE	00000000 .bss._ZN10StaticInitIN9qindesign7network13EthernetClassEE13nifty_counterE
00000000 l    d  .bss._ZN10StaticInitIN9qindesign7network13EthernetClassEE2pTE	00000000 .bss._ZN10StaticInitIN9qindesign7network13EthernetClassEE2pTE
00000000 l    d  .bss._ZN10StaticInitIN9qindesign7network13EthernetClassEE3bufE	00000000 .bss._ZN10StaticInitIN9qindesign7network13EthernetClassEE3bufE
00000000 l    d  .bss._ZN9qindesign7network8EthernetE	00000000 .bss._ZN9qindesign7network8EthernetE
00000000 l    d  .bss._ZN9qindesign7networkL12EthernetInitE	00000000 .bss._ZN9qindesign7networkL12EthernetInitE
00000000 l     O .bss._ZN9qindesign7networkL12EthernetInitE	00000001 _ZN9qindesign7networkL12EthernetInitE
00000000 l    d  .bss._ZN9qindesign7networkL12loopAttachedE	00000000 .bss._ZN9qindesign7networkL12loopAttachedE
00000000 l     O .bss._ZN9qindesign7networkL12loopAttachedE	00000001 _ZN9qindesign7networkL12loopAttachedE
00000000 l    d  .bss._ZN9qindesign7networkL8MDNSInitE	00000000 .bss._ZN9qindesign7networkL8MDNSInitE
00000000 l     O .bss._ZN9qindesign7networkL8MDNSInitE	00000001 _ZN9qindesign7networkL8MDNSInitE
00000000 l    d  .bss._ZN9qindesign8securityL16randomDeviceInitE	00000000 .bss._ZN9qindesign8securityL16randomDeviceInitE
00000000 l     O .bss._ZN9qindesign8securityL16randomDeviceInitE	00000001 _ZN9qindesign8securityL16randomDeviceInitE
00000000 l    d  .data._ZN9qindesign7networkL7ethLoopE	00000000 .data._ZN9qindesign7networkL7ethLoopE
00000000 l     O .data._ZN9qindesign7networkL7ethLoopE	00000020 _ZN9qindesign7networkL7ethLoopE
00000000 l       .group	00000000 _ZN10StaticInitIN9qindesign8security12RandomDeviceEED5Ev
00000000 l       .group	00000000 _ZN10StaticInitIN9qindesign7network9MDNSClassEED5Ev
00000000 l       .group	00000000 _ZN14EventResponderD5Ev
00000000 l       .group	00000000 _ZN10StaticInitIN9qindesign7network13EthernetClassEED5Ev
00000000 l    d  .comment	00000000 .comment
00000000 l    d  .ARM.attributes	00000000 .ARM.attributes
00000000 l    d  .group	00000000 .group
00000000 l    d  .group	00000000 .group
00000000 l    d  .group	00000000 .group
00000000 l    d  .group	00000000 .group
00000000 l    d  .group	00000000 .group
00000000 l    d  .group	00000000 .group
00000000  w    F .text._ZN10StaticInitIN9qindesign8security12RandomDeviceEED2Ev	00000018 _ZN10StaticInitIN9qindesign8security12RandomDeviceEED2Ev
00000000         *UND*	00000000 _ZN10StaticInitIN9qindesign8security12RandomDeviceEE13nifty_counterE
00000000         *UND*	00000000 _ZN10StaticInitIN9qindesign8security12RandomDeviceEE2pTE
00000000  w    F .text._ZN10StaticInitIN9qindesign8security12RandomDeviceEED2Ev	00000018 _ZN10StaticInitIN9qindesign8security12RandomDeviceEED1Ev
00000000  w    F .text._ZN14EventResponder12triggerEventEiPv	00000016 _ZN14EventResponder12triggerEventEiPv
00000000         *UND*	00000000 _ZN14EventResponder24triggerEventNotImmediateEv
00000000  w    F .text._ZN10StaticInitIN9qindesign7network9MDNSClassEED2Ev	00000028 _ZN10StaticInitIN9qindesign7network9MDNSClassEED2Ev
00000000         *UND*	00000000 _ZN9qindesign7network9MDNSClassD1Ev
00000000         *UND*	00000000 _ZN10StaticInitIN9qindesign7network9MDNSClassEE13nifty_counterE
00000000         *UND*	00000000 _ZN10StaticInitIN9qindesign7network9MDNSClassEE2pTE
00000000  w    F .text._ZN10StaticInitIN9qindesign7network9MDNSClassEED2Ev	00000028 _ZN10StaticInitIN9qindesign7network9MDNSClassEED1Ev
00000000  w    F .text._ZN14EventResponderD2Ev	00000020 _ZN14EventResponderD2Ev
00000000         *UND*	00000000 _ZN14EventResponder18detachNoInterruptsEv
00000000  w    O .rodata._ZTV14EventResponder	0000000c _ZTV14EventResponder
00000000  w    F .text._ZN14EventResponderD2Ev	00000020 _ZN14EventResponderD1Ev
00000000 g     F .text._ZN9qindesign7network13EthernetClass14netifEventFuncEP5netiftPK25netif_ext_callback_args_t	00000078 _ZN9qindesign7network13EthernetClass14netifEventFuncEP5netiftPK25netif_ext_callback_args_t
00000000         *UND*	00000000 netif_set_down
00000000         *UND*	00000000 enet_netif
00000000         *UND*	00000000 enet_init
00000000         *UND*	00000000 netif_set_up
00000000         *UND*	00000000 enet_get_system_mac
00000000         *UND*	00000000 yield_active_check_flags
00000000         *UND*	00000000 _ZN6String15zeroterminationE
00000000         *UND*	00000000 enet_proc_input
00000000         *UND*	00000000 sys_now
00000000         *UND*	00000000 enet_poll
00000000 g     F .flashmem	00000044 _ZN9qindesign7network13EthernetClassC2Ev
00000000         *UND*	00000000 _ZN6StringC1EPKc
00000000 g     F .flashmem	00000044 _ZN9qindesign7network13EthernetClassC1Ev
00000000 g     F .text._ZN9qindesign7network13EthernetClass10macAddressEv	00000020 _ZN9qindesign7network13EthernetClass10macAddressEv
00000000 g     F .text._ZN9qindesign7network13EthernetClass10macAddressEPh	0000002e _ZN9qindesign7network13EthernetClass10macAddressEPh
00000000         *UND*	00000000 memmove
00000000 g     F .text._ZN9qindesign7network13EthernetClass4loopEv	00000022 _ZN9qindesign7network13EthernetClass4loopEv
00000000 g     F .text._ZN9qindesign7network13EthernetClass14maybeStartDHCPEv	00000050 _ZN9qindesign7network13EthernetClass14maybeStartDHCPEv
00000000         *UND*	00000000 dhcp_start
00000000 g     F .text._ZN9qindesign7network13EthernetClass5beginERK9IPAddressS4_S4_S4_	000000b4 _ZN9qindesign7network13EthernetClass5beginERK9IPAddressS4_S4_S4_
00000000         *UND*	00000000 _ZN9qindesign7network10get_uint32ERK9IPAddress
00000000         *UND*	00000000 driver_set_chip_select_pin
00000000         *UND*	00000000 driver_has_hardware
00000000         *UND*	00000000 netif_set_addr
00000000         *UND*	00000000 _ZN9qindesign7network9DNSClient9setServerEiRK9IPAddress
00000000         *UND*	00000000 dhcp_release_and_stop
00000000 g     F .text._ZN9qindesign7network13EthernetClass5beginEv	0000001c _ZN9qindesign7network13EthernetClass5beginEv
00000000 g     F .text._ZN9qindesign7network13EthernetClass5beginERK9IPAddressS4_S4_	00000014 _ZN9qindesign7network13EthernetClass5beginERK9IPAddressS4_S4_
00000000 g     F .text._ZN9qindesign7network13EthernetClass13setMACAddressEPKh	00000098 _ZN9qindesign7network13EthernetClass13setMACAddressEPKh
00000000         *UND*	00000000 driver_is_mac_settable
00000000         *UND*	00000000 memcmp
00000000 g     F .text._ZN9qindesign7network13EthernetClass5startEv	0000001c _ZN9qindesign7network13EthernetClass5startEv
00000000 g     F .text._ZN9qindesign7network13EthernetClass14setDHCPEnabledEb	0000004c _ZN9qindesign7network13EthernetClass14setDHCPEnabledEb
00000000 g     F .text._ZNK9qindesign7network13EthernetClass14waitForLocalIPEm	00000038 _ZNK9qindesign7network13EthernetClass14waitForLocalIPEm
00000000         *UND*	00000000 yield
00000000 g     F .text._ZNK9qindesign7network13EthernetClass11waitForLinkEm	0000004e _ZNK9qindesign7network13EthernetClass11waitForLinkEm
00000000 g     F .text._ZN9qindesign7network13EthernetClass5beginEPKhRK9IPAddressS6_S6_S6_	00000092 _ZN9qindesign7network13EthernetClass5beginEPKhRK9IPAddressS6_S6_S6_
00000000 g     F .text._ZN9qindesign7network13EthernetClass5beginEPKhm	00000050 _ZN9qindesign7network13EthernetClass5beginEPKhm
00000000 g     F .text._ZN9qindesign7network13EthernetClass5beginEPKhRK9IPAddress	00000054 _ZN9qindesign7network13EthernetClass5beginEPKhRK9IPAddress
00000000         *UND*	00000000 _ZTV9IPAddress
00000000 g     F .text._ZN9qindesign7network13EthernetClass5beginEPKhRK9IPAddressS6_	00000038 _ZN9qindesign7network13EthernetClass5beginEPKhRK9IPAddressS6_
00000000 g     F .text._ZN9qindesign7network13EthernetClass5beginEPKhRK9IPAddressS6_S6_	00000024 _ZN9qindesign7network13EthernetClass5beginEPKhRK9IPAddressS6_S6_
00000000 g     F .text._ZN9qindesign7network13EthernetClass3endEv	0000008c _ZN9qindesign7network13EthernetClass3endEv
00000000         *UND*	00000000 _ZN9qindesign7network9MDNSClass3endEv
00000000         *UND*	00000000 netif_set_link_down
00000000         *UND*	00000000 enet_deinit
00000000         *UND*	00000000 _ZN14EventResponder10clearEventEv
00000000         *UND*	00000000 _ZN9qindesign7network4MDNSE
00000000         *UND*	00000000 ip_addr_any
00000044 g     F .flashmem	0000003e _ZN9qindesign7network13EthernetClassD2Ev
00000000         *UND*	00000000 _ZN6StringD1Ev
00000044 g     F .flashmem	0000003e _ZN9qindesign7network13EthernetClassD1Ev
00000000  w    F .text._ZN10StaticInitIN9qindesign7network13EthernetClassEED2Ev	00000028 _ZN10StaticInitIN9qindesign7network13EthernetClassEED2Ev
00000000  w    F .text._ZN10StaticInitIN9qindesign7network13EthernetClassEED2Ev	00000028 _ZN10StaticInitIN9qindesign7network13EthernetClassEED1Ev
00000000 g     F .text._ZNK9qindesign7network13EthernetClass10linkStatusEv	00000026 _ZNK9qindesign7network13EthernetClass10linkStatusEv
00000000         *UND*	00000000 driver_is_unknown
00000000 g     F .text._ZNK9qindesign7network13EthernetClass21isLinkStateDetectableEv	00000004 _ZNK9qindesign7network13EthernetClass21isLinkStateDetectableEv
00000000         *UND*	00000000 driver_is_link_state_detectable
00000000 g     F .text._ZNK9qindesign7network13EthernetClass9linkStateEv	0000000e _ZNK9qindesign7network13EthernetClass9linkStateEv
00000000 g     F .text._ZNK9qindesign7network13EthernetClass12setLinkStateEb	00000010 _ZNK9qindesign7network13EthernetClass12setLinkStateEb
00000000         *UND*	00000000 netif_set_link_up
00000000 g     F .text._ZNK9qindesign7network13EthernetClass9linkSpeedEv	00000004 _ZNK9qindesign7network13EthernetClass9linkSpeedEv
00000000         *UND*	00000000 driver_link_speed
00000000 g     F .text._ZNK9qindesign7network13EthernetClass16linkIsFullDuplexEv	00000004 _ZNK9qindesign7network13EthernetClass16linkIsFullDuplexEv
00000000         *UND*	00000000 driver_link_is_full_duplex
00000000 g     F .text._ZNK9qindesign7network13EthernetClass15linkIsCrossoverEv	00000004 _ZNK9qindesign7network13EthernetClass15linkIsCrossoverEv
00000000         *UND*	00000000 driver_link_is_crossover
00000000 g     F .text._ZNK9qindesign7network13EthernetClass15interfaceStatusEv	0000000e _ZNK9qindesign7network13EthernetClass15interfaceStatusEv
00000000 g     F .text._ZNK9qindesign7network13EthernetClass7localIPEv	00000024 _ZNK9qindesign7network13EthernetClass7localIPEv
00000000 g     F .text._ZNK9qindesign7network13EthernetClass10subnetMaskEv	00000024 _ZNK9qindesign7network13EthernetClass10subnetMaskEv
00000000 g     F .text._ZNK9qindesign7network13EthernetClass9gatewayIPEv	00000024 _ZNK9qindesign7network13EthernetClass9gatewayIPEv
00000000 g     F .text._ZNK9qindesign7network13EthernetClass11dnsServerIPEv	0000000e _ZNK9qindesign7network13EthernetClass11dnsServerIPEv
00000000         *UND*	00000000 _ZN9qindesign7network9DNSClient9getServerEi
00000000 g     F .text._ZNK9qindesign7network13EthernetClass11dnsServerIPEi	0000000e _ZNK9qindesign7network13EthernetClass11dnsServerIPEi
00000000 g     F .text._ZNK9qindesign7network13EthernetClass11broadcastIPEv	00000028 _ZNK9qindesign7network13EthernetClass11broadcastIPEv
00000000 g     F .text._ZNK9qindesign7network13EthernetClass10setLocalIPERK9IPAddress	00000020 _ZNK9qindesign7network13EthernetClass10setLocalIPERK9IPAddress
00000000         *UND*	00000000 netif_set_ipaddr
00000000 g     F .text._ZNK9qindesign7network13EthernetClass13setSubnetMaskERK9IPAddress	00000020 _ZNK9qindesign7network13EthernetClass13setSubnetMaskERK9IPAddress
00000000         *UND*	00000000 netif_set_netmask
00000000 g     F .text._ZNK9qindesign7network13EthernetClass12setGatewayIPERK9IPAddress	00000020 _ZNK9qindesign7network13EthernetClass12setGatewayIPERK9IPAddress
00000000         *UND*	00000000 netif_set_gw
00000000 g     F .text._ZNK9qindesign7network13EthernetClass14setDNSServerIPERK9IPAddress	00000006 _ZNK9qindesign7network13EthernetClass14setDNSServerIPERK9IPAddress
00000000 g     F .text._ZNK9qindesign7network13EthernetClass14setDNSServerIPEiRK9IPAddress	00000008 _ZNK9qindesign7network13EthernetClass14setDNSServerIPEiRK9IPAddress
00000000 g     F .text._ZNK9qindesign7network13EthernetClass14hardwareStatusEv	0000000c _ZNK9qindesign7network13EthernetClass14hardwareStatusEv
00000000 g     F .text._ZNK9qindesign7network13EthernetClass9joinGroupERK9IPAddress	00000048 _ZNK9qindesign7network13EthernetClass9joinGroupERK9IPAddress
00000000         *UND*	00000000 igmp_joingroup_netif
00000000         *UND*	00000000 __errno
00000000         *UND*	00000000 err_to_errno
00000000 g     F .text._ZNK9qindesign7network13EthernetClass10leaveGroupERK9IPAddress	0000003e _ZNK9qindesign7network13EthernetClass10leaveGroupERK9IPAddress
00000000         *UND*	00000000 igmp_leavegroup_netif
00000000 g     F .text._ZNK9qindesign7network13EthernetClass20setMACAddressAllowedEPKhb	00000012 _ZNK9qindesign7network13EthernetClass20setMACAddressAllowedEPKhb
00000000         *UND*	00000000 driver_set_incoming_mac_address_allowed
00000000 g     F .text._ZN9qindesign7network13EthernetClass11setHostnameEPKc	0000001c _ZN9qindesign7network13EthernetClass11setHostnameEPKc
00000000         *UND*	00000000 _ZN6StringaSEPKc
00000000 g     F .text._ZNK9qindesign7network13EthernetClass8hostnameEv	0000000e _ZNK9qindesign7network13EthernetClass8hostnameEv
00000000         *UND*	00000000 _ZN6StringC1ERKS_
00000000 g     F .text._ZNK9qindesign7network13EthernetClasscvbEv	0000000a _ZNK9qindesign7network13EthernetClasscvbEv
00000000 g     F .text._ZN9qindesign7network13EthernetClass10hostByNameEPKcR9IPAddress	00000014 _ZN9qindesign7network13EthernetClass10hostByNameEPKcR9IPAddress
00000000         *UND*	00000000 _ZN9qindesign7network9DNSClient13getHostByNameEPKcR9IPAddressm
00000000         *UND*	00000000 __aeabi_atexit
00000000         *UND*	00000000 _ZN9qindesign7network9MDNSClassC1Ev
00000000         *UND*	00000000 _ZN9qindesign8security12RandomDeviceC1Ev
00000000         *UND*	00000000 .hidden __dso_handle
00000000         *UND*	00000000 _ZN10StaticInitIN9qindesign7network9MDNSClassEE3bufE
00000000         *UND*	00000000 _ZN10StaticInitIN9qindesign8security12RandomDeviceEE3bufE
00000000 g     O .bss._ZN9qindesign7network8EthernetE	00000004 _ZN9qindesign7network8EthernetE
00000000 g     O .bss._ZN10StaticInitIN9qindesign7network13EthernetClassEE2pTE	00000004 _ZN10StaticInitIN9qindesign7network13EthernetClassEE2pTE
00000000 g     O .bss._ZN10StaticInitIN9qindesign7network13EthernetClassEE3bufE	00000054 _ZN10StaticInitIN9qindesign7network13EthernetClassEE3bufE
00000000 g     O .bss._ZN10StaticInitIN9qindesign7network13EthernetClassEE13nifty_counterE	00000004 _ZN10StaticInitIN9qindesign7network13EthernetClassEE13nifty_counterE


Contents of section .group:
 0000 01000000 0a000000 0b000000           ............    
Contents of section .group:
 0000 01000000 0c000000 0d000000           ............    
Contents of section .group:
 0000 01000000 0e000000 0f000000           ............    
Contents of section .group:
 0000 01000000 10000000 11000000           ............    
Contents of section .group:
 0000 01000000 3f000000 40000000           ....?...@...    
Contents of section .group:
 0000 01000000 78000000 79000000           ....x...y...    
Contents of section .text._ZN10StaticInitIN9qindesign8security12RandomDeviceEED2Ev:
 0000 034a1368 013b1360 0bb9024a 13607047  .J.h.;.`...J.`pG
 0010 00000000 00000000                    ........        
Contents of section .text._ZN14EventResponder12triggerEventEiPv:
 0000 90f81cc0 4160bcf1 020fc260 01d18368  ....A`.....`...h
 0010 1847fff7 febf00bf                    .G......        
Contents of section .text._ZN10StaticInitIN9qindesign7network9MDNSClassEED2Ev:
 0000 074b70b5 1c680546 013c1c60 0cb12846  .Kp..h.F.<.`..(F
 0010 70bd044e 3068fff7 feff2846 346070bd  p..N0h....(F4`p.
 0020 00000000 00000000                    ........        
Contents of section .text._ZN14EventResponderD2Ev:
 0000 38b5064b 04460360 eff31085 72b6fff7  8..K.F.`....r...
 0010 feff05b9 62b62046 38bd00bf 08000000  ....b. F8.......
Contents of section .text._ZN9qindesign7network13EthernetClass14netifEventFuncEP5netiftPK25netif_ext_callback_args_t:
 0000 70b51c4e 0c4682b0 3368d969 814201d0  p..N.F..3h.i.B..
 0010 02b070bd 15466207 0ed5da6a 62b15db1  ..p..Fb....jb.].
 0020 2a7803f1 24000df1 0701003a 18bf0122  *x..$......:..."
 0030 8df80720 1a6b9047 14f0f00f 05d03068  ... .k.G......0h
 0040 c36b13b1 036c3430 98472307 e0d53068  .k...l40.G#...0h
 0050 c36c002b dcd0002d dad02b78 0df10701  .l.+...-..+x....
 0060 026d4430 003b18bf 01238df8 07309047  .mD0.;...#...0.G
 0070 cee700bf 00000000                    ........        
Contents of section .text._ZN9qindesign7network13EthernetClass5startEv.part.0:
 0000 2de9f041 0446c069 82b008b1 fff7feff  -..A.F.i........
 0010 fff7feff 237ae061 04f10900 002b3cd0  ....#z.a.....+<.
 0020 2649fff7 feff0546 38b3d4e9 063043bb  &I.....F8....0C.
 0030 00b10363 fff7feff 214b1e78 46bb4ff0  ...c....!K.xF.O.
 0040 010883f8 0080eff3 108772b6 1d4c2046  ..........r..L F
 0050 fff7feff 1c4a1d4b 84f81c80 a3601378  .....J.K.....`.x
 0060 43f00403 1370ffb9 62b6237f 6760022b  C....p..b.#.g`.+
 0070 e7601bd1 a3682046 98472846 02b0bde8  .`...h F.G(F....
 0080 f0810028 d6d02369 002bd2d1 104bd0e7  ...(..#i.+...K..
 0090 35462846 02b0bde8 f0810190 fff7feff  5F(F............
 00a0 01230198 2372bbe7 6660e660 0548fff7  .#..#r..f`.`.H..
 00b0 feff2846 02b0bde8 f08100bf 00000000  ..(F............
 00c0 00000000 00000000 00000000 00000000  ................
 00d0 00000000                             ....            
Contents of section .text._ZZN9qindesign7networkL17attachLoopToYieldEvENUlR14EventResponderE_4_FUNES2_:
 0000 184b70b5 1d680446 fff7feff fff7feff  .Kp..h.F........
 0010 6b68c01a 7c2814d8 2368134a 1b689342  kh..|(..#h.J.h.B
 0020 19d1227f 0023022a 6360e360 04d1a368  .."..#.*c`.`...h
 0030 2046bde8 70401847 2046bde8 7040fff7   F..p@.G F..p@..
 0040 febffff7 fefffff7 feff2368 064a1b68  ..........#h.J.h
 0050 68609342 e5d00022 20461146 bde87040  h`.B..." F.F..p@
 0060 184700bf 00000000 00000000           .G..........    
Contents of section .rodata.str1.4:
 0000 716e6574 6865726e 65742d6c 77697000  qnethernet-lwip.
Contents of section .flashmem:
 0000 38b50446 00254ff0 ff330d49 25721030  8..F.%O..3.I%r.0
 0010 c4e90035 fff7feff 0120e561 20842046  ...5..... .a . F
 0020 84f82250 e5622565 c4e90955 c4e90c55  .."P.b%e...U...U
 0030 c4e90e55 c4e91055 c4e91255 38bd00bf  ...U...U...U8...
 0040 00000000 10b50446 fff7feff e36c23b1  .......F.....l#.
 0050 04f14401 03220846 9847e36b 23b104f1  ..D..".F.G.k#...
 0060 34010322 08469847 e36a23b1 04f12401  4..".F.G.j#...$.
 0070 03220846 984704f1 1000fff7 feff2046  .".F.G........ F
 0080 10bd00bf                             ....            
Contents of section .text._ZN9qindesign7network13EthernetClass10macAddressEv:
 0000 037a10b5 044682b0 09300bb1 02b010bd  .z...F...0......
 0010 0190fff7 feff0123 01982372 02b010bd  .......#..#r....
Contents of section .text._ZN9qindesign7network13EthernetClass10macAddressEPh:
 0000 037a70b5 04460d46 00f10906 3bb16db1  .zp..F.F....;.m.
 0010 31462846 0622bde8 7040fff7 febf3046  1F(F."..p@....0F
 0020 fff7feff 01232372 002df1d1 70bd00bf  .....##r.-..p...
Contents of section .text._ZN9qindesign7network13EthernetClass4loopEv:
 0000 10b50446 fff7feff fff7feff 6368c01a  ...F........ch..
 0010 7c2800d8 10bdfff7 fefffff7 feff6060  |(............``
 0020 10bd00bf                             ....            
Contents of section .text._ZN9qindesign7network13EthernetClass14maybeStartDHCPEv:
 0000 c36910b5 044643b1 1a6832b1 00230120  .i...FC..h2..#. 
 0010 84f82230 84f82130 10bd5a68 002af5d1  .."0..!0..Zh.*..
 0020 9a68002a f2d194f8 20207ab1 94f82200  .h.*....  z...".
 0030 0028f1d1 1846fff7 feffb0fa 80f00123  .(...F.........#
 0040 400984f8 213084f8 220010bd 012010bd  @...!0..".... ..
Contents of section .text._ZN9qindesign7network13EthernetClass5beginERK9IPAddressS4_S4_S4_:
 0000 2de9f041 2a4f1546 1e464a68 7b6884b0  -..A*O.F.FJh{h..
 0010 04469342 3bd04ff0 00080846 fff7feff  .F.B;.O....F....
 0020 01902846 fff7feff 03463046 0293fff7  ..(F.....F0F....
 0030 feffe369 039033b1 94f82220 012a02d1  ...i..3..." .*..
 0040 b8f1000f 2ed02068 fff7feff fff7feff  ...... h........
 0050 c8b12046 fff7feff a8b10a9b 5a687b68  .. F........Zh{h
 0060 9a420bd1 03ab02aa 01a9e069 fff7feff  .B.........i....
 0070 2046fff7 feff04b0 bde8f081 0a990020   F............. 
 0080 fff7feff eee70020 04b0bde8 f0816a68  ....... ......jh
 0090 9a42c0d1 7368a3eb 0208b8fa 88f84fea  .B..sh........O.
 00a0 5818bae7 1846fff7 feff84f8 2280cae7  X....F......"...
 00b0 00000000                             ....            
Contents of section .text._ZN9qindesign7network13EthernetClass5beginEv:
 0000 054b00b5 83b01a46 19460093 fff7feff  .K.....F.F......
 0010 03b05df8 04fb00bf 00000000           ..].........    
Contents of section .text._ZN9qindesign7network13EthernetClass5beginERK9IPAddressS4_S4_:
 0000 10b5034c 82b00094 fff7feff 02b010bd  ...L............
 0010 00000000                             ....            
Contents of section .text._ZN9qindesign7network13EthernetClass13setMACAddressEPKh:
 0000 70b50446 82b019b1 0d46fff7 feff58bb  p..F.....F....X.
 0010 6846fff7 feff237a 63b304f1 09066d46  hF....#zc.....mF
 0020 04f10f02 921b1dd0 29463046 fff7feff  ........)F0F....
 0030 c0b10622 29463046 fff7feff 0123e069  ...")F0F.....#.i
 0040 237278b1 94f82230 03bb2068 fff7feff  #rx..."0.. h....
 0050 fff7feff 30b12046 fff7feff 10b12046  ....0. F...... F
 0060 fff7feff 02b070bd 237a04f1 0906002b  ......p.#z.....+
 0070 dfd0d5e7 00980123 bdf80420 04f10906  .......#... ....
 0080 c4f80900 a4f80d20 2372c8e7 fff7feff  ....... #r......
 0090 002384f8 2230d8e7                    .#.."0..        
Contents of section .text._ZN9qindesign7network13EthernetClass5startEv:
 0000 10b50446 0068fff7 fefffff7 feff20b1  ...F.h........ .
 0010 2046bde8 1040fff7 febf10bd            F...@......    
Contents of section .text._ZN9qindesign7network13EthernetClass14setDHCPEnabledEb:
 0000 70b50446 c06984f8 201020b1 0e4629b9  p..F.i.. . ..F).
 0010 94f82250 a5b90125 284670bd 94f82130  .."P...%(Fp...!0
 0020 5bb194f8 2250002d f6d1fff7 feffb0fa  [..."P.-........
 0030 80f56d09 84f82250 eee70d46 284670bd  ..m..."P...F(Fp.
 0040 fff7feff 284684f8 226070bd           ....(F.."`p.    
Contents of section .text._ZNK9qindesign7network13EthernetClass14waitForLocalIPEm:
 0000 70b50446 c069b0b1 0d46fff7 feffe369  p..F.i...F.....i
 0010 06461868 28b10be0 fff7feff e3691868  .F.h(........i.h
 0020 30b9fff7 feff831b 9d42f5d8 e3691868  0........B...i.h
 0030 003818bf 012070bd                    .8... p.        
Contents of section .text._ZNK9qindesign7network13EthernetClass11waitForLinkEm:
 0000 70b50446 c069e8b1 0d46fff7 feffe369  p..F.i...F.....i
 0010 064693f8 3d205107 c2f38003 11d406e0  .F..= Q.........
 0020 fff7feff e36993f8 3d305a07 0bd4fff7  .....i..=0Z.....
 0030 feff831b ab42f3d3 e36993f8 3d30c3f3  .....B...i..=0..
 0040 8003d8b2 70bdc3f3 8003d8b2 fae700bf  ....p...........
Contents of section .text._ZN9qindesign7network13EthernetClass5beginEPKhRK9IPAddressS6_S6_S6_:
 0000 2de9f041 044686b0 16461f46 69b10d46  -..A.F...F.Fi..F
 0010 fff7feff 48b1237a 04f10908 6bb94046  ....H.#z....k.@F
 0020 fff7feff 01232372 07e002a8 fff7feff  .....##r........
 0030 237a13b3 04f10908 02add4f8 09002946  #z............)F
 0040 b8f80430 06220490 4046adf8 1430fff7  ...0."..@F...0..
 0050 feff0c9b 31460d9a 20460097 fff7feff  ....1F.. F......
 0060 034630b9 0498bdf8 1420c4f8 0900a8f8  .F0...... ......
 0070 04201846 06b0bde8 f081bdf8 0c3004f1  . .F.........0..
 0080 09080298 a4f80d30 0123c4f8 09002372  .......0.#....#r
 0090 d2e700bf                             ....            
Contents of section .text._ZN9qindesign7network13EthernetClass5beginEPKhm:
 0000 70b5124b 82b01546 04461a46 cde90033  p..K...F.F.F...3
 0010 fff7feff b8b1e069 a8b1fff7 feffe369  .......i.......i
 0020 06461868 28b10be0 fff7feff e3691868  .F.h(........i.h
 0030 30b9fff7 feff831b 9d42f5d8 e3691868  0........B...i.h
 0040 003818bf 012002b0 70bd00bf 00000000  .8... ..p.......
Contents of section .text._ZN9qindesign7network13EthernetClass5beginEPKhRK9IPAddress:
 0000 10b51379 88b0124c 8df80c30 8df81430  ...y...L...0...0
 0010 6ff07f43 02940793 06ab0494 019304ab  o..C............
 0020 06949479 92f805e0 009302ab 8df80e40  ...y...........@
 0030 8df81640 01248df8 0de08df8 15e08df8  ...@.$..........
 0040 0f408df8 1740fff7 feff08b0 10bd00bf  .@...@..........
 0050 08000000                             ....            
Contents of section .text._ZN9qindesign7network13EthernetClass5beginEPKhRK9IPAddressS6_:
 0000 10b586b0 04ac0194 02ac0094 094c0294  .............L..
 0010 04949479 8df80e40 9488adf8 0c400124  ...y...@.....@.$
 0020 8df80f40 6ff07f44 0594fff7 feff06b0  ...@o..D........
 0030 10bd00bf 08000000                    ........        
Contents of section .text._ZN9qindesign7network13EthernetClass5beginEPKhRK9IPAddressS6_S6_:
 0000 10b584b0 069c0094 02ac0194 044c0294  .............L..
 0010 6ff07f44 0394fff7 feff04b0 10bd00bf  o..D............
 0020 08000000                             ....            
Contents of section .text._ZN9qindesign7network13EthernetClass3endEv:
 0000 38b5c369 03b31c4b 04461a78 22bb1b4b  8..i...K.F.x"..K
 0010 1868fff7 feff1a49 0020fff7 feff94f8  .h.....I. ......
 0020 223093b9 174be069 1a461946 fff7feff  "0...K.i.F.F....
 0030 0025e069 84f82150 fff7feff e069fff7  .%.i..!P.....i..
 0040 fefffff7 feffe561 38bde069 fff7feff  .......a8..i....
 0050 002384f8 2230ebe7 00220b48 1a70fff7  .#.."0...".H.p..
 0060 feffeff3 108572b6 0748fff7 feff002d  ......r..H.....-
 0070 cdd162b6 cbe700bf 00000000 00000000  ..b.............
 0080 00000000 00000000 00000000           ............    
Contents of section .text._ZN10StaticInitIN9qindesign7network13EthernetClassEED2Ev:
 0000 074b70b5 1c680546 013c1c60 0cb12846  .Kp..h.F.<.`..(F
 0010 70bd044e 3068fff7 feff2846 346070bd  p..N0h....(F4`p.
 0020 00000000 00000000                    ........        
Contents of section .text._ZNK9qindesign7network13EthernetClass10linkStatusEv:
 0000 10b50446 fff7feff 48b9e369 4bb193f8  ...F....H..iK...
 0010 3d00c0f3 8000c0f1 0200c0b2 10bd0020  =.............. 
 0020 10bd0220 10bd00bf                    ... ....        
Contents of section .text._ZNK9qindesign7network13EthernetClass21isLinkStateDetectableEv:
 0000 fff7febf                             ....            
Contents of section .text._ZNK9qindesign7network13EthernetClass9linkStateEv:
 0000 c06918b1 90f83d00 c0f38000 704700bf  .i....=.....pG..
Contents of section .text._ZNK9qindesign7network13EthernetClass12setLinkStateEb:
 0000 c06920b1 09b1fff7 febffff7 febf7047  .i ...........pG
Contents of section .text._ZNK9qindesign7network13EthernetClass9linkSpeedEv:
 0000 fff7febf                             ....            
Contents of section .text._ZNK9qindesign7network13EthernetClass16linkIsFullDuplexEv:
 0000 fff7febf                             ....            
Contents of section .text._ZNK9qindesign7network13EthernetClass15linkIsCrossoverEv:
 0000 fff7febf                             ....            
Contents of section .text._ZNK9qindesign7network13EthernetClass15interfaceStatusEv:
 0000 c06918b1 90f83d00 00f00100 704700bf  .i....=.....pG..
Contents of section .text._ZNK9qindesign7network13EthernetClass7localIPEv:
 0000 cb6923b1 1a68054b c0e90032 7047034a  .i#..h.K...2pG.J
 0010 034b0260 5b684360 704700bf 08000000  .K.`[hC`pG......
 0020 00000000                             ....            
Contents of section .text._ZNK9qindesign7network13EthernetClass10subnetMaskEv:
 0000 cb6923b1 5a68054b c0e90032 7047034a  .i#.Zh.K...2pG.J
 0010 034b0260 5b684360 704700bf 08000000  .K.`[hC`pG......
 0020 00000000                             ....            
Contents of section .text._ZNK9qindesign7network13EthernetClass9gatewayIPEv:
 0000 cb6923b1 9a68054b c0e90032 7047034a  .i#..h.K...2pG.J
 0010 034b0260 5b684360 704700bf 08000000  .K.`[hC`pG......
 0020 00000000                             ....            
Contents of section .text._ZNK9qindesign7network13EthernetClass11dnsServerIPEv:
 0000 10b50446 0021fff7 feff2046 10bd00bf  ...F.!.... F....
Contents of section .text._ZNK9qindesign7network13EthernetClass11dnsServerIPEi:
 0000 10b50446 1146fff7 feff2046 10bd00bf  ...F.F.... F....
Contents of section .text._ZNK9qindesign7network13EthernetClass11broadcastIPEv:
 0000 cb693bb1 064ad3e9 003163ea 0103c0e9  .i;..J...1c.....
 0010 00237047 024a034b 02605b68 43607047  .#pG.J.K.`[hC`pG
 0020 08000000 00000000                    ........        
Contents of section .text._ZNK9qindesign7network13EthernetClass10setLocalIPERK9IPAddress:
 0000 c36910b5 044682b0 43b10846 fff7feff  .i...F..C..F....
 0010 034601a9 e0690193 fff7feff 02b010bd  .F...i..........
Contents of section .text._ZNK9qindesign7network13EthernetClass13setSubnetMaskERK9IPAddress:
 0000 c36910b5 044682b0 43b10846 fff7feff  .i...F..C..F....
 0010 034601a9 e0690193 fff7feff 02b010bd  .F...i..........
Contents of section .text._ZNK9qindesign7network13EthernetClass12setGatewayIPERK9IPAddress:
 0000 c36910b5 044682b0 43b10846 fff7feff  .i...F..C..F....
 0010 034601a9 e0690193 fff7feff 02b010bd  .F...i..........
Contents of section .text._ZNK9qindesign7network13EthernetClass14setDNSServerIPERK9IPAddress:
 0000 0020fff7 febf00bf                    . ......        
Contents of section .text._ZNK9qindesign7network13EthernetClass14setDNSServerIPEiRK9IPAddress:
 0000 08461146 fff7febf                    .F.F....        
Contents of section .text._ZNK9qindesign7network13EthernetClass14hardwareStatusEv:
 0000 08b5fff7 feff8000 40b208bd           ........@...    
Contents of section .text._ZNK9qindesign7network13EthernetClass9joinGroupERK9IPAddress:
 0000 30b5c569 83b00446 65b10846 fff7feff  0..i...Fe..F....
 0010 034601a9 e0690193 fff7feff 50b90120  .F...i......P.. 
 0020 03b030bd fff7feff 80220346 28461a60  ..0......".F(F.`
 0030 03b030bd fff7feff 0446fff7 feff0346  ..0......F.....F
 0040 00201c60 03b030bd                    . .`..0.        
Contents of section .text._ZNK9qindesign7network13EthernetClass10leaveGroupERK9IPAddress:
 0000 c36910b5 044682b0 63b10846 fff7feff  .i...F..c..F....
 0010 034601a9 e0690193 fff7feff 28b90120  .F...i......(.. 
 0020 02b010bd 184602b0 10bdfff7 feff0446  .....F.........F
 0030 fff7feff 03460020 1c6002b0 10bd00bf  .....F. .`......
Contents of section .text._ZNK9qindesign7network13EthernetClass20setMACAddressAllowedEPKhb:
 0000 c3690846 114613b1 08b1fff7 febf0020  .i.F.F......... 
 0010 704700bf                             pG..            
Contents of section .text._ZN9qindesign7network13EthernetClass11setHostnameEPKc:
 0000 38b50446 10300d46 fff7feff e36923b1  8..F.0.F.....i#.
 0010 a269002a 18bf2a46 1a6338bd           .i.*..*F.c8.    
Contents of section .text._ZNK9qindesign7network13EthernetClass8hostnameEv:
 0000 10b50446 1031fff7 feff2046 10bd00bf  ...F.1.... F....
Contents of section .text._ZNK9qindesign7network13EthernetClasscvbEv:
 0000 c0690038 18bf0120 704700bf           .i.8... pG..    
Contents of section .text._ZN9qindesign7network13EthernetClass10hostByNameEPKcR9IPAddress:
 0000 c3690846 11461bb1 41f28832 fff7febf  .i.F.F..A..2....
 0010 18467047                             .FpG            
Contents of section .text.startup._GLOBAL__sub_I__ZN10StaticInitIN9qindesign7network13EthernetClassEE13nifty_counterE:
 0000 214a0020 214938b5 1368214c c1e90040  !J. !I8..h!L...@
 0010 591c1160 1bb31f4a 1f492048 fff7feff  Y..`...J.I H....
 0020 1f4a1368 591c1160 3bb31a4a 1d491e48  .J.hY..`;..J.I.H
 0030 fff7feff 1d4a1368 591c1160 b3b11c4c  .....J.hY..`...L
 0040 144a1c49 1c48fff7 feff1c4b 2468114a  .J.I.H.....K$h.J
 0050 1c601b49 1b48bde8 3840fff7 febf1a4c  .`.I.H..8@.....L
 0060 2046fff7 feff194b 1c60d4e7 184d104c   F.....K.`...M.L
 0070 2846fff7 feff2560 e2e7164c 2046fff7  (F....%`...L F..
 0080 feff154b 1c60d0e7 00000000 00000000  ...K.`..........
 0090 08000000 00000000 00000000 00000000  ................
 00a0 00000000 00000000 00000000 00000000  ................
 00b0 00000000 00000000 00000000 00000000  ................
 00c0 00000000 00000000 00000000 00000000  ................
 00d0 00000000 00000000 00000000           ............    
Contents of section .init_array:
 0000 00000000                             ....            
Contents of section .rodata._ZTV14EventResponder:
 0000 00000000 00000000 00000000           ............    
Contents of section .data._ZN9qindesign7networkL7ethLoopE:
 0000 08000000 00000000 00000000 00000000  ................
 0010 00000000 00000000 00000000 00000000  ................
Contents of section .comment:
 0000 00474343 3a202841 726d2047 4e552054  .GCC: (Arm GNU T
 0010 6f6f6c63 6861696e 2031312e 332e5265  oolchain 11.3.Re
 0020 6c312920 31312e33 2e312032 30323230  l1) 11.3.1 20220
 0030 37313200                             712.            
Contents of section .ARM.attributes:
 0000 41310000 00616561 62690001 27000000  A1...aeabi..'...
 0010 0537452d 4d00060d 074d0902 0a081204  .7E-M....M......
 0020 14011501 17031801 19011a01 1c011e02  ................
 0030 2201                                 ".              

Disassembly of section .text._ZN10StaticInitIN9qindesign8security12RandomDeviceEED2Ev:

00000000 <_ZN10StaticInitIN9qindesign8security12RandomDeviceEED1Ev>:
   0:	4a03      	ldr	r2, [pc, #12]	; (10 <_ZN10StaticInitIN9qindesign8security12RandomDeviceEED1Ev+0x10>)
   2:	6813      	ldr	r3, [r2, #0]
   4:	3b01      	subs	r3, #1
   6:	6013      	str	r3, [r2, #0]
   8:	b90b      	cbnz	r3, e <_ZN10StaticInitIN9qindesign8security12RandomDeviceEED1Ev+0xe>
   a:	4a02      	ldr	r2, [pc, #8]	; (14 <_ZN10StaticInitIN9qindesign8security12RandomDeviceEED1Ev+0x14>)
   c:	6013      	str	r3, [r2, #0]
   e:	4770      	bx	lr
  10:	00000000 	.word	0x00000000
  14:	00000000 	.word	0x00000000

Disassembly of section .text._ZN14EventResponder12triggerEventEiPv:

00000000 <_ZN14EventResponder12triggerEventEiPv>:
   0:	f890 c01c 	ldrb.w	ip, [r0, #28]
   4:	6041      	str	r1, [r0, #4]
   6:	f1bc 0f02 	cmp.w	ip, #2
   a:	60c2      	str	r2, [r0, #12]
   c:	d101      	bne.n	12 <_ZN14EventResponder12triggerEventEiPv+0x12>
   e:	6883      	ldr	r3, [r0, #8]
  10:	4718      	bx	r3
  12:	f7ff bffe 	b.w	0 <_ZN14EventResponder24triggerEventNotImmediateEv>
  16:	bf00      	nop

Disassembly of section .text._ZN10StaticInitIN9qindesign7network9MDNSClassEED2Ev:

00000000 <_ZN10StaticInitIN9qindesign7network9MDNSClassEED1Ev>:
   0:	4b07      	ldr	r3, [pc, #28]	; (20 <_ZN10StaticInitIN9qindesign7network9MDNSClassEED1Ev+0x20>)
   2:	b570      	push	{r4, r5, r6, lr}
   4:	681c      	ldr	r4, [r3, #0]
   6:	4605      	mov	r5, r0
   8:	3c01      	subs	r4, #1
   a:	601c      	str	r4, [r3, #0]
   c:	b10c      	cbz	r4, 12 <_ZN10StaticInitIN9qindesign7network9MDNSClassEED1Ev+0x12>
   e:	4628      	mov	r0, r5
  10:	bd70      	pop	{r4, r5, r6, pc}
  12:	4e04      	ldr	r6, [pc, #16]	; (24 <_ZN10StaticInitIN9qindesign7network9MDNSClassEED1Ev+0x24>)
  14:	6830      	ldr	r0, [r6, #0]
  16:	f7ff fffe 	bl	0 <_ZN9qindesign7network9MDNSClassD1Ev>
  1a:	4628      	mov	r0, r5
  1c:	6034      	str	r4, [r6, #0]
  1e:	bd70      	pop	{r4, r5, r6, pc}
  20:	00000000 	.word	0x00000000
  24:	00000000 	.word	0x00000000

Disassembly of section .text._ZN14EventResponderD2Ev:

00000000 <_ZN14EventResponderD1Ev>:
   0:	b538      	push	{r3, r4, r5, lr}
   2:	4b06      	ldr	r3, [pc, #24]	; (1c <_ZN14EventResponderD1Ev+0x1c>)
   4:	4604      	mov	r4, r0
   6:	6003      	str	r3, [r0, #0]
   8:	f3ef 8510 	mrs	r5, PRIMASK
   c:	b672      	cpsid	i
   e:	f7ff fffe 	bl	0 <_ZN14EventResponder18detachNoInterruptsEv>
  12:	b905      	cbnz	r5, 16 <_ZN14EventResponderD1Ev+0x16>
  14:	b662      	cpsie	i
  16:	4620      	mov	r0, r4
  18:	bd38      	pop	{r3, r4, r5, pc}
  1a:	bf00      	nop
  1c:	00000008 	.word	0x00000008

Disassembly of section .text._ZN9qindesign7network13EthernetClass14netifEventFuncEP5netiftPK25netif_ext_callback_args_t:

00000000 <_ZN9qindesign7network13EthernetClass14netifEventFuncEP5netiftPK25netif_ext_callback_args_t>:
   0:	b570      	push	{r4, r5, r6, lr}
   2:	4e1c      	ldr	r6, [pc, #112]	; (74 <_ZN9qindesign7network13EthernetClass14netifEventFuncEP5netiftPK25netif_ext_callback_args_t+0x74>)
   4:	460c      	mov	r4, r1
   6:	b082      	sub	sp, #8
   8:	6833      	ldr	r3, [r6, #0]
   a:	69d9      	ldr	r1, [r3, #28]
   c:	4281      	cmp	r1, r0
   e:	d001      	beq.n	14 <_ZN9qindesign7network13EthernetClass14netifEventFuncEP5netiftPK25netif_ext_callback_args_t+0x14>
  10:	b002      	add	sp, #8
  12:	bd70      	pop	{r4, r5, r6, pc}
  14:	4615      	mov	r5, r2
  16:	0762      	lsls	r2, r4, #29
  18:	d50e      	bpl.n	38 <_ZN9qindesign7network13EthernetClass14netifEventFuncEP5netiftPK25netif_ext_callback_args_t+0x38>
  1a:	6ada      	ldr	r2, [r3, #44]	; 0x2c
  1c:	b162      	cbz	r2, 38 <_ZN9qindesign7network13EthernetClass14netifEventFuncEP5netiftPK25netif_ext_callback_args_t+0x38>
  1e:	b15d      	cbz	r5, 38 <_ZN9qindesign7network13EthernetClass14netifEventFuncEP5netiftPK25netif_ext_callback_args_t+0x38>
  20:	782a      	ldrb	r2, [r5, #0]
  22:	f103 0024 	add.w	r0, r3, #36	; 0x24
  26:	f10d 0107 	add.w	r1, sp, #7
  2a:	3a00      	subs	r2, #0
  2c:	bf18      	it	ne
  2e:	2201      	movne	r2, #1
  30:	f88d 2007 	strb.w	r2, [sp, #7]
  34:	6b1a      	ldr	r2, [r3, #48]	; 0x30
  36:	4790      	blx	r2
  38:	f014 0ff0 	tst.w	r4, #240	; 0xf0
  3c:	d005      	beq.n	4a <_ZN9qindesign7network13EthernetClass14netifEventFuncEP5netiftPK25netif_ext_callback_args_t+0x4a>
  3e:	6830      	ldr	r0, [r6, #0]
  40:	6bc3      	ldr	r3, [r0, #60]	; 0x3c
  42:	b113      	cbz	r3, 4a <_ZN9qindesign7network13EthernetClass14netifEventFuncEP5netiftPK25netif_ext_callback_args_t+0x4a>
  44:	6c03      	ldr	r3, [r0, #64]	; 0x40
  46:	3034      	adds	r0, #52	; 0x34
  48:	4798      	blx	r3
  4a:	0723      	lsls	r3, r4, #28
  4c:	d5e0      	bpl.n	10 <_ZN9qindesign7network13EthernetClass14netifEventFuncEP5netiftPK25netif_ext_callback_args_t+0x10>
  4e:	6830      	ldr	r0, [r6, #0]
  50:	6cc3      	ldr	r3, [r0, #76]	; 0x4c
  52:	2b00      	cmp	r3, #0
  54:	d0dc      	beq.n	10 <_ZN9qindesign7network13EthernetClass14netifEventFuncEP5netiftPK25netif_ext_callback_args_t+0x10>
  56:	2d00      	cmp	r5, #0
  58:	d0da      	beq.n	10 <_ZN9qindesign7network13EthernetClass14netifEventFuncEP5netiftPK25netif_ext_callback_args_t+0x10>
  5a:	782b      	ldrb	r3, [r5, #0]
  5c:	f10d 0107 	add.w	r1, sp, #7
  60:	6d02      	ldr	r2, [r0, #80]	; 0x50
  62:	3044      	adds	r0, #68	; 0x44
  64:	3b00      	subs	r3, #0
  66:	bf18      	it	ne
  68:	2301      	movne	r3, #1
  6a:	f88d 3007 	strb.w	r3, [sp, #7]
  6e:	4790      	blx	r2
  70:	e7ce      	b.n	10 <_ZN9qindesign7network13EthernetClass14netifEventFuncEP5netiftPK25netif_ext_callback_args_t+0x10>
  72:	bf00      	nop
  74:	00000000 	.word	0x00000000

Disassembly of section .text._ZN9qindesign7network13EthernetClass5startEv.part.0:

00000000 <_ZN9qindesign7network13EthernetClass5startEv.part.0>:
   0:	e92d 41f0 	stmdb	sp!, {r4, r5, r6, r7, r8, lr}
   4:	4604      	mov	r4, r0
   6:	69c0      	ldr	r0, [r0, #28]
   8:	b082      	sub	sp, #8
   a:	b108      	cbz	r0, 10 <_ZN9qindesign7network13EthernetClass5startEv.part.0+0x10>
   c:	f7ff fffe 	bl	0 <netif_set_down>
  10:	f7ff fffe 	bl	0 <enet_netif>
  14:	7a23      	ldrb	r3, [r4, #8]
  16:	61e0      	str	r0, [r4, #28]
  18:	f104 0009 	add.w	r0, r4, #9
  1c:	2b00      	cmp	r3, #0
  1e:	d03c      	beq.n	9a <_ZN9qindesign7network13EthernetClass5startEv.part.0+0x9a>
  20:	4926      	ldr	r1, [pc, #152]	; (bc <_ZN9qindesign7network13EthernetClass5startEv.part.0+0xbc>)
  22:	f7ff fffe 	bl	0 <enet_init>
  26:	4605      	mov	r5, r0
  28:	b338      	cbz	r0, 7a <_ZN9qindesign7network13EthernetClass5startEv.part.0+0x7a>
  2a:	e9d4 3006 	ldrd	r3, r0, [r4, #24]
  2e:	bb43      	cbnz	r3, 82 <_ZN9qindesign7network13EthernetClass5startEv.part.0+0x82>
  30:	b100      	cbz	r0, 34 <_ZN9qindesign7network13EthernetClass5startEv.part.0+0x34>
  32:	6303      	str	r3, [r0, #48]	; 0x30
  34:	f7ff fffe 	bl	0 <netif_set_up>
  38:	4b21      	ldr	r3, [pc, #132]	; (c0 <_ZN9qindesign7network13EthernetClass5startEv.part.0+0xc0>)
  3a:	781e      	ldrb	r6, [r3, #0]
  3c:	bb46      	cbnz	r6, 90 <_ZN9qindesign7network13EthernetClass5startEv.part.0+0x90>
  3e:	f04f 0801 	mov.w	r8, #1
  42:	f883 8000 	strb.w	r8, [r3]
  46:	f3ef 8710 	mrs	r7, PRIMASK
  4a:	b672      	cpsid	i
  4c:	4c1d      	ldr	r4, [pc, #116]	; (c4 <_ZN9qindesign7network13EthernetClass5startEv.part.0+0xc4>)
  4e:	4620      	mov	r0, r4
  50:	f7ff fffe 	bl	0 <_ZN14EventResponder18detachNoInterruptsEv>
  54:	4a1c      	ldr	r2, [pc, #112]	; (c8 <_ZN9qindesign7network13EthernetClass5startEv.part.0+0xc8>)
  56:	4b1d      	ldr	r3, [pc, #116]	; (cc <_ZN9qindesign7network13EthernetClass5startEv.part.0+0xcc>)
  58:	f884 801c 	strb.w	r8, [r4, #28]
  5c:	60a3      	str	r3, [r4, #8]
  5e:	7813      	ldrb	r3, [r2, #0]
  60:	f043 0304 	orr.w	r3, r3, #4
  64:	7013      	strb	r3, [r2, #0]
  66:	b9ff      	cbnz	r7, a8 <_ZN9qindesign7network13EthernetClass5startEv.part.0+0xa8>
  68:	b662      	cpsie	i
  6a:	7f23      	ldrb	r3, [r4, #28]
  6c:	6067      	str	r7, [r4, #4]
  6e:	2b02      	cmp	r3, #2
  70:	60e7      	str	r7, [r4, #12]
  72:	d11b      	bne.n	ac <_ZN9qindesign7network13EthernetClass5startEv.part.0+0xac>
  74:	68a3      	ldr	r3, [r4, #8]
  76:	4620      	mov	r0, r4
  78:	4798      	blx	r3
  7a:	4628      	mov	r0, r5
  7c:	b002      	add	sp, #8
  7e:	e8bd 81f0 	ldmia.w	sp!, {r4, r5, r6, r7, r8, pc}
  82:	2800      	cmp	r0, #0
  84:	d0d6      	beq.n	34 <_ZN9qindesign7network13EthernetClass5startEv.part.0+0x34>
  86:	6923      	ldr	r3, [r4, #16]
  88:	2b00      	cmp	r3, #0
  8a:	d1d2      	bne.n	32 <_ZN9qindesign7network13EthernetClass5startEv.part.0+0x32>
  8c:	4b10      	ldr	r3, [pc, #64]	; (d0 <_ZN9qindesign7network13EthernetClass5startEv.part.0+0xd0>)
  8e:	e7d0      	b.n	32 <_ZN9qindesign7network13EthernetClass5startEv.part.0+0x32>
  90:	4635      	mov	r5, r6
  92:	4628      	mov	r0, r5
  94:	b002      	add	sp, #8
  96:	e8bd 81f0 	ldmia.w	sp!, {r4, r5, r6, r7, r8, pc}
  9a:	9001      	str	r0, [sp, #4]
  9c:	f7ff fffe 	bl	0 <enet_get_system_mac>
  a0:	2301      	movs	r3, #1
  a2:	9801      	ldr	r0, [sp, #4]
  a4:	7223      	strb	r3, [r4, #8]
  a6:	e7bb      	b.n	20 <_ZN9qindesign7network13EthernetClass5startEv.part.0+0x20>
  a8:	6066      	str	r6, [r4, #4]
  aa:	60e6      	str	r6, [r4, #12]
  ac:	4805      	ldr	r0, [pc, #20]	; (c4 <_ZN9qindesign7network13EthernetClass5startEv.part.0+0xc4>)
  ae:	f7ff fffe 	bl	0 <_ZN14EventResponder24triggerEventNotImmediateEv>
  b2:	4628      	mov	r0, r5
  b4:	b002      	add	sp, #8
  b6:	e8bd 81f0 	ldmia.w	sp!, {r4, r5, r6, r7, r8, pc}
  ba:	bf00      	nop
  bc:	00000000 	.word	0x00000000
  c0:	00000000 	.word	0x00000000
  c4:	00000000 	.word	0x00000000
  c8:	00000000 	.word	0x00000000
  cc:	00000000 	.word	0x00000000
  d0:	00000000 	.word	0x00000000

Disassembly of section .text._ZZN9qindesign7networkL17attachLoopToYieldEvENUlR14EventResponderE_4_FUNES2_:

00000000 <_ZZN9qindesign7networkL17attachLoopToYieldEvENUlR14EventResponderE_4_FUNES2_>:
   0:	4b18      	ldr	r3, [pc, #96]	; (64 <_ZZN9qindesign7networkL17attachLoopToYieldEvENUlR14EventResponderE_4_FUNES2_+0x64>)
   2:	b570      	push	{r4, r5, r6, lr}
   4:	681d      	ldr	r5, [r3, #0]
   6:	4604      	mov	r4, r0
   8:	f7ff fffe 	bl	0 <enet_proc_input>
   c:	f7ff fffe 	bl	0 <sys_now>
  10:	686b      	ldr	r3, [r5, #4]
  12:	1ac0      	subs	r0, r0, r3
  14:	287c      	cmp	r0, #124	; 0x7c
  16:	d814      	bhi.n	42 <_ZZN9qindesign7networkL17attachLoopToYieldEvENUlR14EventResponderE_4_FUNES2_+0x42>
  18:	6823      	ldr	r3, [r4, #0]
  1a:	4a13      	ldr	r2, [pc, #76]	; (68 <_ZZN9qindesign7networkL17attachLoopToYieldEvENUlR14EventResponderE_4_FUNES2_+0x68>)
  1c:	681b      	ldr	r3, [r3, #0]
  1e:	4293      	cmp	r3, r2
  20:	d119      	bne.n	56 <_ZZN9qindesign7networkL17attachLoopToYieldEvENUlR14EventResponderE_4_FUNES2_+0x56>
  22:	7f22      	ldrb	r2, [r4, #28]
  24:	2300      	movs	r3, #0
  26:	2a02      	cmp	r2, #2
  28:	6063      	str	r3, [r4, #4]
  2a:	60e3      	str	r3, [r4, #12]
  2c:	d104      	bne.n	38 <_ZZN9qindesign7networkL17attachLoopToYieldEvENUlR14EventResponderE_4_FUNES2_+0x38>
  2e:	68a3      	ldr	r3, [r4, #8]
  30:	4620      	mov	r0, r4
  32:	e8bd 4070 	ldmia.w	sp!, {r4, r5, r6, lr}
  36:	4718      	bx	r3
  38:	4620      	mov	r0, r4
  3a:	e8bd 4070 	ldmia.w	sp!, {r4, r5, r6, lr}
  3e:	f7ff bffe 	b.w	0 <_ZN14EventResponder24triggerEventNotImmediateEv>
  42:	f7ff fffe 	bl	0 <enet_poll>
  46:	f7ff fffe 	bl	0 <sys_now>
  4a:	6823      	ldr	r3, [r4, #0]
  4c:	4a06      	ldr	r2, [pc, #24]	; (68 <_ZZN9qindesign7networkL17attachLoopToYieldEvENUlR14EventResponderE_4_FUNES2_+0x68>)
  4e:	681b      	ldr	r3, [r3, #0]
  50:	6068      	str	r0, [r5, #4]
  52:	4293      	cmp	r3, r2
  54:	d0e5      	beq.n	22 <_ZZN9qindesign7networkL17attachLoopToYieldEvENUlR14EventResponderE_4_FUNES2_+0x22>
  56:	2200      	movs	r2, #0
  58:	4620      	mov	r0, r4
  5a:	4611      	mov	r1, r2
  5c:	e8bd 4070 	ldmia.w	sp!, {r4, r5, r6, lr}
  60:	4718      	bx	r3
  62:	bf00      	nop
  64:	00000000 	.word	0x00000000
  68:	00000000 	.word	0x00000000

Disassembly of section .flashmem:

00000000 <_ZN9qindesign7network13EthernetClassC1Ev>:
   0:	b538      	push	{r3, r4, r5, lr}
   2:	4604      	mov	r4, r0
   4:	2500      	movs	r5, #0
   6:	f04f 33ff 	mov.w	r3, #4294967295	; 0xffffffff
   a:	490d      	ldr	r1, [pc, #52]	; (40 <_ZN9qindesign7network13EthernetClassC1Ev+0x40>)
   c:	7225      	strb	r5, [r4, #8]
   e:	3010      	adds	r0, #16
  10:	e9c4 3500 	strd	r3, r5, [r4]
  14:	f7ff fffe 	bl	0 <_ZN6StringC1EPKc>
  18:	2001      	movs	r0, #1
  1a:	61e5      	str	r5, [r4, #28]
  1c:	8420      	strh	r0, [r4, #32]
  1e:	4620      	mov	r0, r4
  20:	f884 5022 	strb.w	r5, [r4, #34]	; 0x22
  24:	62e5      	str	r5, [r4, #44]	; 0x2c
  26:	6525      	str	r5, [r4, #80]	; 0x50
  28:	e9c4 5509 	strd	r5, r5, [r4, #36]	; 0x24
  2c:	e9c4 550c 	strd	r5, r5, [r4, #48]	; 0x30
  30:	e9c4 550e 	strd	r5, r5, [r4, #56]	; 0x38
  34:	e9c4 5510 	strd	r5, r5, [r4, #64]	; 0x40
  38:	e9c4 5512 	strd	r5, r5, [r4, #72]	; 0x48
  3c:	bd38      	pop	{r3, r4, r5, pc}
  3e:	bf00      	nop
  40:	00000000 	.word	0x00000000

00000044 <_ZN9qindesign7network13EthernetClassD1Ev>:
  44:	b510      	push	{r4, lr}
  46:	4604      	mov	r4, r0
  48:	f7ff fffe 	bl	0 <_ZN9qindesign7network13EthernetClassC1Ev>
  4c:	6ce3      	ldr	r3, [r4, #76]	; 0x4c
  4e:	b123      	cbz	r3, 5a <_ZN9qindesign7network13EthernetClassD1Ev+0x16>
  50:	f104 0144 	add.w	r1, r4, #68	; 0x44
  54:	2203      	movs	r2, #3
  56:	4608      	mov	r0, r1
  58:	4798      	blx	r3
  5a:	6be3      	ldr	r3, [r4, #60]	; 0x3c
  5c:	b123      	cbz	r3, 68 <_ZN9qindesign7network13EthernetClassD1Ev+0x24>
  5e:	f104 0134 	add.w	r1, r4, #52	; 0x34
  62:	2203      	movs	r2, #3
  64:	4608      	mov	r0, r1
  66:	4798      	blx	r3
  68:	6ae3      	ldr	r3, [r4, #44]	; 0x2c
  6a:	b123      	cbz	r3, 76 <_ZN9qindesign7network13EthernetClassD1Ev+0x32>
  6c:	f104 0124 	add.w	r1, r4, #36	; 0x24
  70:	2203      	movs	r2, #3
  72:	4608      	mov	r0, r1
  74:	4798      	blx	r3
  76:	f104 0010 	add.w	r0, r4, #16
  7a:	f7ff fffe 	bl	0 <_ZN6StringD1Ev>
  7e:	4620      	mov	r0, r4
  80:	bd10      	pop	{r4, pc}
  82:	bf00      	nop

Disassembly of section .text._ZN9qindesign7network13EthernetClass10macAddressEv:

00000000 <_ZN9qindesign7network13EthernetClass10macAddressEv>:
   0:	7a03      	ldrb	r3, [r0, #8]
   2:	b510      	push	{r4, lr}
   4:	4604      	mov	r4, r0
   6:	b082      	sub	sp, #8
   8:	3009      	adds	r0, #9
   a:	b10b      	cbz	r3, 10 <_ZN9qindesign7network13EthernetClass10macAddressEv+0x10>
   c:	b002      	add	sp, #8
   e:	bd10      	pop	{r4, pc}
  10:	9001      	str	r0, [sp, #4]
  12:	f7ff fffe 	bl	0 <enet_get_system_mac>
  16:	2301      	movs	r3, #1
  18:	9801      	ldr	r0, [sp, #4]
  1a:	7223      	strb	r3, [r4, #8]
  1c:	b002      	add	sp, #8
  1e:	bd10      	pop	{r4, pc}

Disassembly of section .text._ZN9qindesign7network13EthernetClass10macAddressEPh:

00000000 <_ZN9qindesign7network13EthernetClass10macAddressEPh>:
   0:	7a03      	ldrb	r3, [r0, #8]
   2:	b570      	push	{r4, r5, r6, lr}
   4:	4604      	mov	r4, r0
   6:	460d      	mov	r5, r1
   8:	f100 0609 	add.w	r6, r0, #9
   c:	b13b      	cbz	r3, 1e <_ZN9qindesign7network13EthernetClass10macAddressEPh+0x1e>
   e:	b16d      	cbz	r5, 2c <_ZN9qindesign7network13EthernetClass10macAddressEPh+0x2c>
  10:	4631      	mov	r1, r6
  12:	4628      	mov	r0, r5
  14:	2206      	movs	r2, #6
  16:	e8bd 4070 	ldmia.w	sp!, {r4, r5, r6, lr}
  1a:	f7ff bffe 	b.w	0 <memmove>
  1e:	4630      	mov	r0, r6
  20:	f7ff fffe 	bl	0 <enet_get_system_mac>
  24:	2301      	movs	r3, #1
  26:	7223      	strb	r3, [r4, #8]
  28:	2d00      	cmp	r5, #0
  2a:	d1f1      	bne.n	10 <_ZN9qindesign7network13EthernetClass10macAddressEPh+0x10>
  2c:	bd70      	pop	{r4, r5, r6, pc}
  2e:	bf00      	nop

Disassembly of section .text._ZN9qindesign7network13EthernetClass4loopEv:

00000000 <_ZN9qindesign7network13EthernetClass4loopEv>:
   0:	b510      	push	{r4, lr}
   2:	4604      	mov	r4, r0
   4:	f7ff fffe 	bl	0 <enet_proc_input>
   8:	f7ff fffe 	bl	0 <sys_now>
   c:	6863      	ldr	r3, [r4, #4]
   e:	1ac0      	subs	r0, r0, r3
  10:	287c      	cmp	r0, #124	; 0x7c
  12:	d800      	bhi.n	16 <_ZN9qindesign7network13EthernetClass4loopEv+0x16>
  14:	bd10      	pop	{r4, pc}
  16:	f7ff fffe 	bl	0 <enet_poll>
  1a:	f7ff fffe 	bl	0 <sys_now>
  1e:	6060      	str	r0, [r4, #4]
  20:	bd10      	pop	{r4, pc}
  22:	bf00      	nop

Disassembly of section .text._ZN9qindesign7network13EthernetClass14maybeStartDHCPEv:

00000000 <_ZN9qindesign7network13EthernetClass14maybeStartDHCPEv>:
   0:	69c3      	ldr	r3, [r0, #28]
   2:	b510      	push	{r4, lr}
   4:	4604      	mov	r4, r0
   6:	b143      	cbz	r3, 1a <_ZN9qindesign7network13EthernetClass14maybeStartDHCPEv+0x1a>
   8:	681a      	ldr	r2, [r3, #0]
   a:	b132      	cbz	r2, 1a <_ZN9qindesign7network13EthernetClass14maybeStartDHCPEv+0x1a>
   c:	2300      	movs	r3, #0
   e:	2001      	movs	r0, #1
  10:	f884 3022 	strb.w	r3, [r4, #34]	; 0x22
  14:	f884 3021 	strb.w	r3, [r4, #33]	; 0x21
  18:	bd10      	pop	{r4, pc}
  1a:	685a      	ldr	r2, [r3, #4]
  1c:	2a00      	cmp	r2, #0
  1e:	d1f5      	bne.n	c <_ZN9qindesign7network13EthernetClass14maybeStartDHCPEv+0xc>
  20:	689a      	ldr	r2, [r3, #8]
  22:	2a00      	cmp	r2, #0
  24:	d1f2      	bne.n	c <_ZN9qindesign7network13EthernetClass14maybeStartDHCPEv+0xc>
  26:	f894 2020 	ldrb.w	r2, [r4, #32]
  2a:	b17a      	cbz	r2, 4c <_ZN9qindesign7network13EthernetClass14maybeStartDHCPEv+0x4c>
  2c:	f894 0022 	ldrb.w	r0, [r4, #34]	; 0x22
  30:	2800      	cmp	r0, #0
  32:	d1f1      	bne.n	18 <_ZN9qindesign7network13EthernetClass14maybeStartDHCPEv+0x18>
  34:	4618      	mov	r0, r3
  36:	f7ff fffe 	bl	0 <dhcp_start>
  3a:	fab0 f080 	clz	r0, r0
  3e:	2301      	movs	r3, #1
  40:	0940      	lsrs	r0, r0, #5
  42:	f884 3021 	strb.w	r3, [r4, #33]	; 0x21
  46:	f884 0022 	strb.w	r0, [r4, #34]	; 0x22
  4a:	bd10      	pop	{r4, pc}
  4c:	2001      	movs	r0, #1
  4e:	bd10      	pop	{r4, pc}

Disassembly of section .text._ZN9qindesign7network13EthernetClass5beginERK9IPAddressS4_S4_S4_:

00000000 <_ZN9qindesign7network13EthernetClass5beginERK9IPAddressS4_S4_S4_>:
   0:	e92d 41f0 	stmdb	sp!, {r4, r5, r6, r7, r8, lr}
   4:	4f2a      	ldr	r7, [pc, #168]	; (b0 <_ZN9qindesign7network13EthernetClass5beginERK9IPAddressS4_S4_S4_+0xb0>)
   6:	4615      	mov	r5, r2
   8:	461e      	mov	r6, r3
   a:	684a      	ldr	r2, [r1, #4]
   c:	687b      	ldr	r3, [r7, #4]
   e:	b084      	sub	sp, #16
  10:	4604      	mov	r4, r0
  12:	4293      	cmp	r3, r2
  14:	d03b      	beq.n	8e <_ZN9qindesign7network13EthernetClass5beginERK9IPAddressS4_S4_S4_+0x8e>
  16:	f04f 0800 	mov.w	r8, #0
  1a:	4608      	mov	r0, r1
  1c:	f7ff fffe 	bl	0 <_ZN9qindesign7network10get_uint32ERK9IPAddress>
  20:	9001      	str	r0, [sp, #4]
  22:	4628      	mov	r0, r5
  24:	f7ff fffe 	bl	0 <_ZN9qindesign7network10get_uint32ERK9IPAddress>
  28:	4603      	mov	r3, r0
  2a:	4630      	mov	r0, r6
  2c:	9302      	str	r3, [sp, #8]
  2e:	f7ff fffe 	bl	0 <_ZN9qindesign7network10get_uint32ERK9IPAddress>
  32:	69e3      	ldr	r3, [r4, #28]
  34:	9003      	str	r0, [sp, #12]
  36:	b133      	cbz	r3, 46 <_ZN9qindesign7network13EthernetClass5beginERK9IPAddressS4_S4_S4_+0x46>
  38:	f894 2022 	ldrb.w	r2, [r4, #34]	; 0x22
  3c:	2a01      	cmp	r2, #1
  3e:	d102      	bne.n	46 <_ZN9qindesign7network13EthernetClass5beginERK9IPAddressS4_S4_S4_+0x46>
  40:	f1b8 0f00 	cmp.w	r8, #0
  44:	d02e      	beq.n	a4 <_ZN9qindesign7network13EthernetClass5beginERK9IPAddressS4_S4_S4_+0xa4>
  46:	6820      	ldr	r0, [r4, #0]
  48:	f7ff fffe 	bl	0 <driver_set_chip_select_pin>
  4c:	f7ff fffe 	bl	0 <driver_has_hardware>
  50:	b1c8      	cbz	r0, 86 <_ZN9qindesign7network13EthernetClass5beginERK9IPAddressS4_S4_S4_+0x86>
  52:	4620      	mov	r0, r4
  54:	f7ff fffe 	bl	0 <_ZN9qindesign7network13EthernetClass5beginERK9IPAddressS4_S4_S4_>
  58:	b1a8      	cbz	r0, 86 <_ZN9qindesign7network13EthernetClass5beginERK9IPAddressS4_S4_S4_+0x86>
  5a:	9b0a      	ldr	r3, [sp, #40]	; 0x28
  5c:	685a      	ldr	r2, [r3, #4]
  5e:	687b      	ldr	r3, [r7, #4]
  60:	429a      	cmp	r2, r3
  62:	d10b      	bne.n	7c <_ZN9qindesign7network13EthernetClass5beginERK9IPAddressS4_S4_S4_+0x7c>
  64:	ab03      	add	r3, sp, #12
  66:	aa02      	add	r2, sp, #8
  68:	a901      	add	r1, sp, #4
  6a:	69e0      	ldr	r0, [r4, #28]
  6c:	f7ff fffe 	bl	0 <netif_set_addr>
  70:	4620      	mov	r0, r4
  72:	f7ff fffe 	bl	0 <_ZN9qindesign7network13EthernetClass5beginERK9IPAddressS4_S4_S4_>
  76:	b004      	add	sp, #16
  78:	e8bd 81f0 	ldmia.w	sp!, {r4, r5, r6, r7, r8, pc}
  7c:	990a      	ldr	r1, [sp, #40]	; 0x28
  7e:	2000      	movs	r0, #0
  80:	f7ff fffe 	bl	0 <_ZN9qindesign7network9DNSClient9setServerEiRK9IPAddress>
  84:	e7ee      	b.n	64 <_ZN9qindesign7network13EthernetClass5beginERK9IPAddressS4_S4_S4_+0x64>
  86:	2000      	movs	r0, #0
  88:	b004      	add	sp, #16
  8a:	e8bd 81f0 	ldmia.w	sp!, {r4, r5, r6, r7, r8, pc}
  8e:	686a      	ldr	r2, [r5, #4]
  90:	429a      	cmp	r2, r3
  92:	d1c0      	bne.n	16 <_ZN9qindesign7network13EthernetClass5beginERK9IPAddressS4_S4_S4_+0x16>
  94:	6873      	ldr	r3, [r6, #4]
  96:	eba3 0802 	sub.w	r8, r3, r2
  9a:	fab8 f888 	clz	r8, r8
  9e:	ea4f 1858 	mov.w	r8, r8, lsr #5
  a2:	e7ba      	b.n	1a <_ZN9qindesign7network13EthernetClass5beginERK9IPAddressS4_S4_S4_+0x1a>
  a4:	4618      	mov	r0, r3
  a6:	f7ff fffe 	bl	0 <dhcp_release_and_stop>
  aa:	f884 8022 	strb.w	r8, [r4, #34]	; 0x22
  ae:	e7ca      	b.n	46 <_ZN9qindesign7network13EthernetClass5beginERK9IPAddressS4_S4_S4_+0x46>
  b0:	00000000 	.word	0x00000000

Disassembly of section .text._ZN9qindesign7network13EthernetClass5beginEv:

00000000 <_ZN9qindesign7network13EthernetClass5beginEv>:
   0:	4b05      	ldr	r3, [pc, #20]	; (18 <_ZN9qindesign7network13EthernetClass5beginEv+0x18>)
   2:	b500      	push	{lr}
   4:	b083      	sub	sp, #12
   6:	461a      	mov	r2, r3
   8:	4619      	mov	r1, r3
   a:	9300      	str	r3, [sp, #0]
   c:	f7ff fffe 	bl	0 <_ZN9qindesign7network13EthernetClass5beginEv>
  10:	b003      	add	sp, #12
  12:	f85d fb04 	ldr.w	pc, [sp], #4
  16:	bf00      	nop
  18:	00000000 	.word	0x00000000

Disassembly of section .text._ZN9qindesign7network13EthernetClass5beginERK9IPAddressS4_S4_:

00000000 <_ZN9qindesign7network13EthernetClass5beginERK9IPAddressS4_S4_>:
   0:	b510      	push	{r4, lr}
   2:	4c03      	ldr	r4, [pc, #12]	; (10 <_ZN9qindesign7network13EthernetClass5beginERK9IPAddressS4_S4_+0x10>)
   4:	b082      	sub	sp, #8
   6:	9400      	str	r4, [sp, #0]
   8:	f7ff fffe 	bl	0 <_ZN9qindesign7network13EthernetClass5beginERK9IPAddressS4_S4_>
   c:	b002      	add	sp, #8
   e:	bd10      	pop	{r4, pc}
  10:	00000000 	.word	0x00000000

Disassembly of section .text._ZN9qindesign7network13EthernetClass13setMACAddressEPKh:

00000000 <_ZN9qindesign7network13EthernetClass13setMACAddressEPKh>:
   0:	b570      	push	{r4, r5, r6, lr}
   2:	4604      	mov	r4, r0
   4:	b082      	sub	sp, #8
   6:	b119      	cbz	r1, 10 <_ZN9qindesign7network13EthernetClass13setMACAddressEPKh+0x10>
   8:	460d      	mov	r5, r1
   a:	f7ff fffe 	bl	0 <driver_is_mac_settable>
   e:	bb58      	cbnz	r0, 68 <_ZN9qindesign7network13EthernetClass13setMACAddressEPKh+0x68>
  10:	4668      	mov	r0, sp
  12:	f7ff fffe 	bl	0 <enet_get_system_mac>
  16:	7a23      	ldrb	r3, [r4, #8]
  18:	b363      	cbz	r3, 74 <_ZN9qindesign7network13EthernetClass13setMACAddressEPKh+0x74>
  1a:	f104 0609 	add.w	r6, r4, #9
  1e:	466d      	mov	r5, sp
  20:	f104 020f 	add.w	r2, r4, #15
  24:	1b92      	subs	r2, r2, r6
  26:	d01d      	beq.n	64 <_ZN9qindesign7network13EthernetClass13setMACAddressEPKh+0x64>
  28:	4629      	mov	r1, r5
  2a:	4630      	mov	r0, r6
  2c:	f7ff fffe 	bl	0 <memcmp>
  30:	b1c0      	cbz	r0, 64 <_ZN9qindesign7network13EthernetClass13setMACAddressEPKh+0x64>
  32:	2206      	movs	r2, #6
  34:	4629      	mov	r1, r5
  36:	4630      	mov	r0, r6
  38:	f7ff fffe 	bl	0 <memmove>
  3c:	2301      	movs	r3, #1
  3e:	69e0      	ldr	r0, [r4, #28]
  40:	7223      	strb	r3, [r4, #8]
  42:	b178      	cbz	r0, 64 <_ZN9qindesign7network13EthernetClass13setMACAddressEPKh+0x64>
  44:	f894 3022 	ldrb.w	r3, [r4, #34]	; 0x22
  48:	bb03      	cbnz	r3, 8c <_ZN9qindesign7network13EthernetClass13setMACAddressEPKh+0x8c>
  4a:	6820      	ldr	r0, [r4, #0]
  4c:	f7ff fffe 	bl	0 <driver_set_chip_select_pin>
  50:	f7ff fffe 	bl	0 <driver_has_hardware>
  54:	b130      	cbz	r0, 64 <_ZN9qindesign7network13EthernetClass13setMACAddressEPKh+0x64>
  56:	4620      	mov	r0, r4
  58:	f7ff fffe 	bl	0 <_ZN9qindesign7network13EthernetClass13setMACAddressEPKh>
  5c:	b110      	cbz	r0, 64 <_ZN9qindesign7network13EthernetClass13setMACAddressEPKh+0x64>
  5e:	4620      	mov	r0, r4
  60:	f7ff fffe 	bl	0 <_ZN9qindesign7network13EthernetClass13setMACAddressEPKh>
  64:	b002      	add	sp, #8
  66:	bd70      	pop	{r4, r5, r6, pc}
  68:	7a23      	ldrb	r3, [r4, #8]
  6a:	f104 0609 	add.w	r6, r4, #9
  6e:	2b00      	cmp	r3, #0
  70:	d0df      	beq.n	32 <_ZN9qindesign7network13EthernetClass13setMACAddressEPKh+0x32>
  72:	e7d5      	b.n	20 <_ZN9qindesign7network13EthernetClass13setMACAddressEPKh+0x20>
  74:	9800      	ldr	r0, [sp, #0]
  76:	2301      	movs	r3, #1
  78:	f8bd 2004 	ldrh.w	r2, [sp, #4]
  7c:	f104 0609 	add.w	r6, r4, #9
  80:	f8c4 0009 	str.w	r0, [r4, #9]
  84:	f8a4 200d 	strh.w	r2, [r4, #13]
  88:	7223      	strb	r3, [r4, #8]
  8a:	e7c8      	b.n	1e <_ZN9qindesign7network13EthernetClass13setMACAddressEPKh+0x1e>
  8c:	f7ff fffe 	bl	0 <dhcp_release_and_stop>
  90:	2300      	movs	r3, #0
  92:	f884 3022 	strb.w	r3, [r4, #34]	; 0x22
  96:	e7d8      	b.n	4a <_ZN9qindesign7network13EthernetClass13setMACAddressEPKh+0x4a>

Disassembly of section .text._ZN9qindesign7network13EthernetClass5startEv:

00000000 <_ZN9qindesign7network13EthernetClass5startEv>:
   0:	b510      	push	{r4, lr}
   2:	4604      	mov	r4, r0
   4:	6800      	ldr	r0, [r0, #0]
   6:	f7ff fffe 	bl	0 <driver_set_chip_select_pin>
   a:	f7ff fffe 	bl	0 <driver_has_hardware>
   e:	b120      	cbz	r0, 1a <_ZN9qindesign7network13EthernetClass5startEv+0x1a>
  10:	4620      	mov	r0, r4
  12:	e8bd 4010 	ldmia.w	sp!, {r4, lr}
  16:	f7ff bffe 	b.w	0 <_ZN9qindesign7network13EthernetClass5startEv>
  1a:	bd10      	pop	{r4, pc}

Disassembly of section .text._ZN9qindesign7network13EthernetClass14setDHCPEnabledEb:

00000000 <_ZN9qindesign7network13EthernetClass14setDHCPEnabledEb>:
   0:	b570      	push	{r4, r5, r6, lr}
   2:	4604      	mov	r4, r0
   4:	69c0      	ldr	r0, [r0, #28]
   6:	f884 1020 	strb.w	r1, [r4, #32]
   a:	b120      	cbz	r0, 16 <_ZN9qindesign7network13EthernetClass14setDHCPEnabledEb+0x16>
   c:	460e      	mov	r6, r1
   e:	b929      	cbnz	r1, 1c <_ZN9qindesign7network13EthernetClass14setDHCPEnabledEb+0x1c>
  10:	f894 5022 	ldrb.w	r5, [r4, #34]	; 0x22
  14:	b9a5      	cbnz	r5, 40 <_ZN9qindesign7network13EthernetClass14setDHCPEnabledEb+0x40>
  16:	2501      	movs	r5, #1
  18:	4628      	mov	r0, r5
  1a:	bd70      	pop	{r4, r5, r6, pc}
  1c:	f894 3021 	ldrb.w	r3, [r4, #33]	; 0x21
  20:	b15b      	cbz	r3, 3a <_ZN9qindesign7network13EthernetClass14setDHCPEnabledEb+0x3a>
  22:	f894 5022 	ldrb.w	r5, [r4, #34]	; 0x22
  26:	2d00      	cmp	r5, #0
  28:	d1f6      	bne.n	18 <_ZN9qindesign7network13EthernetClass14setDHCPEnabledEb+0x18>
  2a:	f7ff fffe 	bl	0 <dhcp_start>
  2e:	fab0 f580 	clz	r5, r0
  32:	096d      	lsrs	r5, r5, #5
  34:	f884 5022 	strb.w	r5, [r4, #34]	; 0x22
  38:	e7ee      	b.n	18 <_ZN9qindesign7network13EthernetClass14setDHCPEnabledEb+0x18>
  3a:	460d      	mov	r5, r1
  3c:	4628      	mov	r0, r5
  3e:	bd70      	pop	{r4, r5, r6, pc}
  40:	f7ff fffe 	bl	0 <dhcp_release_and_stop>
  44:	4628      	mov	r0, r5
  46:	f884 6022 	strb.w	r6, [r4, #34]	; 0x22
  4a:	bd70      	pop	{r4, r5, r6, pc}

Disassembly of section .text._ZNK9qindesign7network13EthernetClass14waitForLocalIPEm:

00000000 <_ZNK9qindesign7network13EthernetClass14waitForLocalIPEm>:
   0:	b570      	push	{r4, r5, r6, lr}
   2:	4604      	mov	r4, r0
   4:	69c0      	ldr	r0, [r0, #28]
   6:	b1b0      	cbz	r0, 36 <_ZNK9qindesign7network13EthernetClass14waitForLocalIPEm+0x36>
   8:	460d      	mov	r5, r1
   a:	f7ff fffe 	bl	0 <sys_now>
   e:	69e3      	ldr	r3, [r4, #28]
  10:	4606      	mov	r6, r0
  12:	6818      	ldr	r0, [r3, #0]
  14:	b128      	cbz	r0, 22 <_ZNK9qindesign7network13EthernetClass14waitForLocalIPEm+0x22>
  16:	e00b      	b.n	30 <_ZNK9qindesign7network13EthernetClass14waitForLocalIPEm+0x30>
  18:	f7ff fffe 	bl	0 <yield>
  1c:	69e3      	ldr	r3, [r4, #28]
  1e:	6818      	ldr	r0, [r3, #0]
  20:	b930      	cbnz	r0, 30 <_ZNK9qindesign7network13EthernetClass14waitForLocalIPEm+0x30>
  22:	f7ff fffe 	bl	0 <sys_now>
  26:	1b83      	subs	r3, r0, r6
  28:	429d      	cmp	r5, r3
  2a:	d8f5      	bhi.n	18 <_ZNK9qindesign7network13EthernetClass14waitForLocalIPEm+0x18>
  2c:	69e3      	ldr	r3, [r4, #28]
  2e:	6818      	ldr	r0, [r3, #0]
  30:	3800      	subs	r0, #0
  32:	bf18      	it	ne
  34:	2001      	movne	r0, #1
  36:	bd70      	pop	{r4, r5, r6, pc}

Disassembly of section .text._ZNK9qindesign7network13EthernetClass11waitForLinkEm:

00000000 <_ZNK9qindesign7network13EthernetClass11waitForLinkEm>:
   0:	b570      	push	{r4, r5, r6, lr}
   2:	4604      	mov	r4, r0
   4:	69c0      	ldr	r0, [r0, #28]
   6:	b1e8      	cbz	r0, 44 <_ZNK9qindesign7network13EthernetClass11waitForLinkEm+0x44>
   8:	460d      	mov	r5, r1
   a:	f7ff fffe 	bl	0 <sys_now>
   e:	69e3      	ldr	r3, [r4, #28]
  10:	4606      	mov	r6, r0
  12:	f893 203d 	ldrb.w	r2, [r3, #61]	; 0x3d
  16:	0751      	lsls	r1, r2, #29
  18:	f3c2 0380 	ubfx	r3, r2, #2, #1
  1c:	d411      	bmi.n	42 <_ZNK9qindesign7network13EthernetClass11waitForLinkEm+0x42>
  1e:	e006      	b.n	2e <_ZNK9qindesign7network13EthernetClass11waitForLinkEm+0x2e>
  20:	f7ff fffe 	bl	0 <yield>
  24:	69e3      	ldr	r3, [r4, #28]
  26:	f893 303d 	ldrb.w	r3, [r3, #61]	; 0x3d
  2a:	075a      	lsls	r2, r3, #29
  2c:	d40b      	bmi.n	46 <_ZNK9qindesign7network13EthernetClass11waitForLinkEm+0x46>
  2e:	f7ff fffe 	bl	0 <sys_now>
  32:	1b83      	subs	r3, r0, r6
  34:	42ab      	cmp	r3, r5
  36:	d3f3      	bcc.n	20 <_ZNK9qindesign7network13EthernetClass11waitForLinkEm+0x20>
  38:	69e3      	ldr	r3, [r4, #28]
  3a:	f893 303d 	ldrb.w	r3, [r3, #61]	; 0x3d
  3e:	f3c3 0380 	ubfx	r3, r3, #2, #1
  42:	b2d8      	uxtb	r0, r3
  44:	bd70      	pop	{r4, r5, r6, pc}
  46:	f3c3 0380 	ubfx	r3, r3, #2, #1
  4a:	b2d8      	uxtb	r0, r3
  4c:	e7fa      	b.n	44 <_ZNK9qindesign7network13EthernetClass11waitForLinkEm+0x44>
  4e:	bf00      	nop

Disassembly of section .text._ZN9qindesign7network13EthernetClass5beginEPKhRK9IPAddressS6_S6_S6_:

00000000 <_ZN9qindesign7network13EthernetClass5beginEPKhRK9IPAddressS6_S6_S6_>:
   0:	e92d 41f0 	stmdb	sp!, {r4, r5, r6, r7, r8, lr}
   4:	4604      	mov	r4, r0
   6:	b086      	sub	sp, #24
   8:	4616      	mov	r6, r2
   a:	461f      	mov	r7, r3
   c:	b169      	cbz	r1, 2a <_ZN9qindesign7network13EthernetClass5beginEPKhRK9IPAddressS6_S6_S6_+0x2a>
   e:	460d      	mov	r5, r1
  10:	f7ff fffe 	bl	0 <driver_is_mac_settable>
  14:	b148      	cbz	r0, 2a <_ZN9qindesign7network13EthernetClass5beginEPKhRK9IPAddressS6_S6_S6_+0x2a>
  16:	7a23      	ldrb	r3, [r4, #8]
  18:	f104 0809 	add.w	r8, r4, #9
  1c:	b96b      	cbnz	r3, 3a <_ZN9qindesign7network13EthernetClass5beginEPKhRK9IPAddressS6_S6_S6_+0x3a>
  1e:	4640      	mov	r0, r8
  20:	f7ff fffe 	bl	0 <enet_get_system_mac>
  24:	2301      	movs	r3, #1
  26:	7223      	strb	r3, [r4, #8]
  28:	e007      	b.n	3a <_ZN9qindesign7network13EthernetClass5beginEPKhRK9IPAddressS6_S6_S6_+0x3a>
  2a:	a802      	add	r0, sp, #8
  2c:	f7ff fffe 	bl	0 <enet_get_system_mac>
  30:	7a23      	ldrb	r3, [r4, #8]
  32:	b313      	cbz	r3, 7a <_ZN9qindesign7network13EthernetClass5beginEPKhRK9IPAddressS6_S6_S6_+0x7a>
  34:	f104 0809 	add.w	r8, r4, #9
  38:	ad02      	add	r5, sp, #8
  3a:	f8d4 0009 	ldr.w	r0, [r4, #9]
  3e:	4629      	mov	r1, r5
  40:	f8b8 3004 	ldrh.w	r3, [r8, #4]
  44:	2206      	movs	r2, #6
  46:	9004      	str	r0, [sp, #16]
  48:	4640      	mov	r0, r8
  4a:	f8ad 3014 	strh.w	r3, [sp, #20]
  4e:	f7ff fffe 	bl	0 <memmove>
  52:	9b0c      	ldr	r3, [sp, #48]	; 0x30
  54:	4631      	mov	r1, r6
  56:	9a0d      	ldr	r2, [sp, #52]	; 0x34
  58:	4620      	mov	r0, r4
  5a:	9700      	str	r7, [sp, #0]
  5c:	f7ff fffe 	bl	0 <_ZN9qindesign7network13EthernetClass5beginEPKhRK9IPAddressS6_S6_S6_>
  60:	4603      	mov	r3, r0
  62:	b930      	cbnz	r0, 72 <_ZN9qindesign7network13EthernetClass5beginEPKhRK9IPAddressS6_S6_S6_+0x72>
  64:	9804      	ldr	r0, [sp, #16]
  66:	f8bd 2014 	ldrh.w	r2, [sp, #20]
  6a:	f8c4 0009 	str.w	r0, [r4, #9]
  6e:	f8a8 2004 	strh.w	r2, [r8, #4]
  72:	4618      	mov	r0, r3
  74:	b006      	add	sp, #24
  76:	e8bd 81f0 	ldmia.w	sp!, {r4, r5, r6, r7, r8, pc}
  7a:	f8bd 300c 	ldrh.w	r3, [sp, #12]
  7e:	f104 0809 	add.w	r8, r4, #9
  82:	9802      	ldr	r0, [sp, #8]
  84:	f8a4 300d 	strh.w	r3, [r4, #13]
  88:	2301      	movs	r3, #1
  8a:	f8c4 0009 	str.w	r0, [r4, #9]
  8e:	7223      	strb	r3, [r4, #8]
  90:	e7d2      	b.n	38 <_ZN9qindesign7network13EthernetClass5beginEPKhRK9IPAddressS6_S6_S6_+0x38>
  92:	bf00      	nop

Disassembly of section .text._ZN9qindesign7network13EthernetClass5beginEPKhm:

00000000 <_ZN9qindesign7network13EthernetClass5beginEPKhm>:
   0:	b570      	push	{r4, r5, r6, lr}
   2:	4b12      	ldr	r3, [pc, #72]	; (4c <_ZN9qindesign7network13EthernetClass5beginEPKhm+0x4c>)
   4:	b082      	sub	sp, #8
   6:	4615      	mov	r5, r2
   8:	4604      	mov	r4, r0
   a:	461a      	mov	r2, r3
   c:	e9cd 3300 	strd	r3, r3, [sp]
  10:	f7ff fffe 	bl	0 <_ZN9qindesign7network13EthernetClass5beginEPKhm>
  14:	b1b8      	cbz	r0, 46 <_ZN9qindesign7network13EthernetClass5beginEPKhm+0x46>
  16:	69e0      	ldr	r0, [r4, #28]
  18:	b1a8      	cbz	r0, 46 <_ZN9qindesign7network13EthernetClass5beginEPKhm+0x46>
  1a:	f7ff fffe 	bl	0 <sys_now>
  1e:	69e3      	ldr	r3, [r4, #28]
  20:	4606      	mov	r6, r0
  22:	6818      	ldr	r0, [r3, #0]
  24:	b128      	cbz	r0, 32 <_ZN9qindesign7network13EthernetClass5beginEPKhm+0x32>
  26:	e00b      	b.n	40 <_ZN9qindesign7network13EthernetClass5beginEPKhm+0x40>
  28:	f7ff fffe 	bl	0 <yield>
  2c:	69e3      	ldr	r3, [r4, #28]
  2e:	6818      	ldr	r0, [r3, #0]
  30:	b930      	cbnz	r0, 40 <_ZN9qindesign7network13EthernetClass5beginEPKhm+0x40>
  32:	f7ff fffe 	bl	0 <sys_now>
  36:	1b83      	subs	r3, r0, r6
  38:	429d      	cmp	r5, r3
  3a:	d8f5      	bhi.n	28 <_ZN9qindesign7network13EthernetClass5beginEPKhm+0x28>
  3c:	69e3      	ldr	r3, [r4, #28]
  3e:	6818      	ldr	r0, [r3, #0]
  40:	3800      	subs	r0, #0
  42:	bf18      	it	ne
  44:	2001      	movne	r0, #1
  46:	b002      	add	sp, #8
  48:	bd70      	pop	{r4, r5, r6, pc}
  4a:	bf00      	nop
  4c:	00000000 	.word	0x00000000

Disassembly of section .text._ZN9qindesign7network13EthernetClass5beginEPKhRK9IPAddress:

00000000 <_ZN9qindesign7network13EthernetClass5beginEPKhRK9IPAddress>:
   0:	b510      	push	{r4, lr}
   2:	7913      	ldrb	r3, [r2, #4]
   4:	b088      	sub	sp, #32
   6:	4c12      	ldr	r4, [pc, #72]	; (50 <_ZN9qindesign7network13EthernetClass5beginEPKhRK9IPAddress+0x50>)
   8:	f88d 300c 	strb.w	r3, [sp, #12]
   c:	f88d 3014 	strb.w	r3, [sp, #20]
  10:	f06f 437f 	mvn.w	r3, #4278190080	; 0xff000000
  14:	9402      	str	r4, [sp, #8]
  16:	9307      	str	r3, [sp, #28]
  18:	ab06      	add	r3, sp, #24
  1a:	9404      	str	r4, [sp, #16]
  1c:	9301      	str	r3, [sp, #4]
  1e:	ab04      	add	r3, sp, #16
  20:	9406      	str	r4, [sp, #24]
  22:	7994      	ldrb	r4, [r2, #6]
  24:	f892 e005 	ldrb.w	lr, [r2, #5]
  28:	9300      	str	r3, [sp, #0]
  2a:	ab02      	add	r3, sp, #8
  2c:	f88d 400e 	strb.w	r4, [sp, #14]
  30:	f88d 4016 	strb.w	r4, [sp, #22]
  34:	2401      	movs	r4, #1
  36:	f88d e00d 	strb.w	lr, [sp, #13]
  3a:	f88d e015 	strb.w	lr, [sp, #21]
  3e:	f88d 400f 	strb.w	r4, [sp, #15]
  42:	f88d 4017 	strb.w	r4, [sp, #23]
  46:	f7ff fffe 	bl	0 <_ZN9qindesign7network13EthernetClass5beginEPKhRK9IPAddress>
  4a:	b008      	add	sp, #32
  4c:	bd10      	pop	{r4, pc}
  4e:	bf00      	nop
  50:	00000008 	.word	0x00000008

Disassembly of section .text._ZN9qindesign7network13EthernetClass5beginEPKhRK9IPAddressS6_:

00000000 <_ZN9qindesign7network13EthernetClass5beginEPKhRK9IPAddressS6_>:
   0:	b510      	push	{r4, lr}
   2:	b086      	sub	sp, #24
   4:	ac04      	add	r4, sp, #16
   6:	9401      	str	r4, [sp, #4]
   8:	ac02      	add	r4, sp, #8
   a:	9400      	str	r4, [sp, #0]
   c:	4c09      	ldr	r4, [pc, #36]	; (34 <_ZN9qindesign7network13EthernetClass5beginEPKhRK9IPAddressS6_+0x34>)
   e:	9402      	str	r4, [sp, #8]
  10:	9404      	str	r4, [sp, #16]
  12:	7994      	ldrb	r4, [r2, #6]
  14:	f88d 400e 	strb.w	r4, [sp, #14]
  18:	8894      	ldrh	r4, [r2, #4]
  1a:	f8ad 400c 	strh.w	r4, [sp, #12]
  1e:	2401      	movs	r4, #1
  20:	f88d 400f 	strb.w	r4, [sp, #15]
  24:	f06f 447f 	mvn.w	r4, #4278190080	; 0xff000000
  28:	9405      	str	r4, [sp, #20]
  2a:	f7ff fffe 	bl	0 <_ZN9qindesign7network13EthernetClass5beginEPKhRK9IPAddressS6_>
  2e:	b006      	add	sp, #24
  30:	bd10      	pop	{r4, pc}
  32:	bf00      	nop
  34:	00000008 	.word	0x00000008

Disassembly of section .text._ZN9qindesign7network13EthernetClass5beginEPKhRK9IPAddressS6_S6_:

00000000 <_ZN9qindesign7network13EthernetClass5beginEPKhRK9IPAddressS6_S6_>:
   0:	b510      	push	{r4, lr}
   2:	b084      	sub	sp, #16
   4:	9c06      	ldr	r4, [sp, #24]
   6:	9400      	str	r4, [sp, #0]
   8:	ac02      	add	r4, sp, #8
   a:	9401      	str	r4, [sp, #4]
   c:	4c04      	ldr	r4, [pc, #16]	; (20 <_ZN9qindesign7network13EthernetClass5beginEPKhRK9IPAddressS6_S6_+0x20>)
   e:	9402      	str	r4, [sp, #8]
  10:	f06f 447f 	mvn.w	r4, #4278190080	; 0xff000000
  14:	9403      	str	r4, [sp, #12]
  16:	f7ff fffe 	bl	0 <_ZN9qindesign7network13EthernetClass5beginEPKhRK9IPAddressS6_S6_>
  1a:	b004      	add	sp, #16
  1c:	bd10      	pop	{r4, pc}
  1e:	bf00      	nop
  20:	00000008 	.word	0x00000008

Disassembly of section .text._ZN9qindesign7network13EthernetClass3endEv:

00000000 <_ZN9qindesign7network13EthernetClass3endEv>:
   0:	b538      	push	{r3, r4, r5, lr}
   2:	69c3      	ldr	r3, [r0, #28]
   4:	b303      	cbz	r3, 48 <_ZN9qindesign7network13EthernetClass3endEv+0x48>
   6:	4b1c      	ldr	r3, [pc, #112]	; (78 <_ZN9qindesign7network13EthernetClass3endEv+0x78>)
   8:	4604      	mov	r4, r0
   a:	781a      	ldrb	r2, [r3, #0]
   c:	bb22      	cbnz	r2, 58 <_ZN9qindesign7network13EthernetClass3endEv+0x58>
   e:	4b1b      	ldr	r3, [pc, #108]	; (7c <_ZN9qindesign7network13EthernetClass3endEv+0x7c>)
  10:	6818      	ldr	r0, [r3, #0]
  12:	f7ff fffe 	bl	0 <_ZN9qindesign7network9MDNSClass3endEv>
  16:	491a      	ldr	r1, [pc, #104]	; (80 <_ZN9qindesign7network13EthernetClass3endEv+0x80>)
  18:	2000      	movs	r0, #0
  1a:	f7ff fffe 	bl	0 <_ZN9qindesign7network9DNSClient9setServerEiRK9IPAddress>
  1e:	f894 3022 	ldrb.w	r3, [r4, #34]	; 0x22
  22:	b993      	cbnz	r3, 4a <_ZN9qindesign7network13EthernetClass3endEv+0x4a>
  24:	4b17      	ldr	r3, [pc, #92]	; (84 <_ZN9qindesign7network13EthernetClass3endEv+0x84>)
  26:	69e0      	ldr	r0, [r4, #28]
  28:	461a      	mov	r2, r3
  2a:	4619      	mov	r1, r3
  2c:	f7ff fffe 	bl	0 <netif_set_addr>
  30:	2500      	movs	r5, #0
  32:	69e0      	ldr	r0, [r4, #28]
  34:	f884 5021 	strb.w	r5, [r4, #33]	; 0x21
  38:	f7ff fffe 	bl	0 <netif_set_link_down>
  3c:	69e0      	ldr	r0, [r4, #28]
  3e:	f7ff fffe 	bl	0 <netif_set_down>
  42:	f7ff fffe 	bl	0 <enet_deinit>
  46:	61e5      	str	r5, [r4, #28]
  48:	bd38      	pop	{r3, r4, r5, pc}
  4a:	69e0      	ldr	r0, [r4, #28]
  4c:	f7ff fffe 	bl	0 <dhcp_release_and_stop>
  50:	2300      	movs	r3, #0
  52:	f884 3022 	strb.w	r3, [r4, #34]	; 0x22
  56:	e7eb      	b.n	30 <_ZN9qindesign7network13EthernetClass3endEv+0x30>
  58:	2200      	movs	r2, #0
  5a:	480b      	ldr	r0, [pc, #44]	; (88 <_ZN9qindesign7network13EthernetClass3endEv+0x88>)
  5c:	701a      	strb	r2, [r3, #0]
  5e:	f7ff fffe 	bl	0 <_ZN14EventResponder10clearEventEv>
  62:	f3ef 8510 	mrs	r5, PRIMASK
  66:	b672      	cpsid	i
  68:	4807      	ldr	r0, [pc, #28]	; (88 <_ZN9qindesign7network13EthernetClass3endEv+0x88>)
  6a:	f7ff fffe 	bl	0 <_ZN14EventResponder18detachNoInterruptsEv>
  6e:	2d00      	cmp	r5, #0
  70:	d1cd      	bne.n	e <_ZN9qindesign7network13EthernetClass3endEv+0xe>
  72:	b662      	cpsie	i
  74:	e7cb      	b.n	e <_ZN9qindesign7network13EthernetClass3endEv+0xe>
  76:	bf00      	nop
  78:	00000000 	.word	0x00000000
  7c:	00000000 	.word	0x00000000
  80:	00000000 	.word	0x00000000
  84:	00000000 	.word	0x00000000
  88:	00000000 	.word	0x00000000

Disassembly of section .text._ZN10StaticInitIN9qindesign7network13EthernetClassEED2Ev:

00000000 <_ZN10StaticInitIN9qindesign7network13EthernetClassEED1Ev>:
   0:	4b07      	ldr	r3, [pc, #28]	; (20 <_ZN10StaticInitIN9qindesign7network13EthernetClassEED1Ev+0x20>)
   2:	b570      	push	{r4, r5, r6, lr}
   4:	681c      	ldr	r4, [r3, #0]
   6:	4605      	mov	r5, r0
   8:	3c01      	subs	r4, #1
   a:	601c      	str	r4, [r3, #0]
   c:	b10c      	cbz	r4, 12 <_ZN10StaticInitIN9qindesign7network13EthernetClassEED1Ev+0x12>
   e:	4628      	mov	r0, r5
  10:	bd70      	pop	{r4, r5, r6, pc}
  12:	4e04      	ldr	r6, [pc, #16]	; (24 <_ZN10StaticInitIN9qindesign7network13EthernetClassEED1Ev+0x24>)
  14:	6830      	ldr	r0, [r6, #0]
  16:	f7ff fffe 	bl	44 <_ZN9qindesign7network13EthernetClassD1Ev>
  1a:	4628      	mov	r0, r5
  1c:	6034      	str	r4, [r6, #0]
  1e:	bd70      	pop	{r4, r5, r6, pc}
  20:	00000000 	.word	0x00000000
  24:	00000000 	.word	0x00000000

Disassembly of section .text._ZNK9qindesign7network13EthernetClass10linkStatusEv:

00000000 <_ZNK9qindesign7network13EthernetClass10linkStatusEv>:
   0:	b510      	push	{r4, lr}
   2:	4604      	mov	r4, r0
   4:	f7ff fffe 	bl	0 <driver_is_unknown>
   8:	b948      	cbnz	r0, 1e <_ZNK9qindesign7network13EthernetClass10linkStatusEv+0x1e>
   a:	69e3      	ldr	r3, [r4, #28]
   c:	b14b      	cbz	r3, 22 <_ZNK9qindesign7network13EthernetClass10linkStatusEv+0x22>
   e:	f893 003d 	ldrb.w	r0, [r3, #61]	; 0x3d
  12:	f3c0 0080 	ubfx	r0, r0, #2, #1
  16:	f1c0 0002 	rsb	r0, r0, #2
  1a:	b2c0      	uxtb	r0, r0
  1c:	bd10      	pop	{r4, pc}
  1e:	2000      	movs	r0, #0
  20:	bd10      	pop	{r4, pc}
  22:	2002      	movs	r0, #2
  24:	bd10      	pop	{r4, pc}
  26:	bf00      	nop

Disassembly of section .text._ZNK9qindesign7network13EthernetClass21isLinkStateDetectableEv:

00000000 <_ZNK9qindesign7network13EthernetClass21isLinkStateDetectableEv>:
   0:	f7ff bffe 	b.w	0 <driver_is_link_state_detectable>

Disassembly of section .text._ZNK9qindesign7network13EthernetClass9linkStateEv:

00000000 <_ZNK9qindesign7network13EthernetClass9linkStateEv>:
   0:	69c0      	ldr	r0, [r0, #28]
   2:	b118      	cbz	r0, c <_ZNK9qindesign7network13EthernetClass9linkStateEv+0xc>
   4:	f890 003d 	ldrb.w	r0, [r0, #61]	; 0x3d
   8:	f3c0 0080 	ubfx	r0, r0, #2, #1
   c:	4770      	bx	lr
   e:	bf00      	nop

Disassembly of section .text._ZNK9qindesign7network13EthernetClass12setLinkStateEb:

00000000 <_ZNK9qindesign7network13EthernetClass12setLinkStateEb>:
   0:	69c0      	ldr	r0, [r0, #28]
   2:	b120      	cbz	r0, e <_ZNK9qindesign7network13EthernetClass12setLinkStateEb+0xe>
   4:	b109      	cbz	r1, a <_ZNK9qindesign7network13EthernetClass12setLinkStateEb+0xa>
   6:	f7ff bffe 	b.w	0 <netif_set_link_up>
   a:	f7ff bffe 	b.w	0 <netif_set_link_down>
   e:	4770      	bx	lr

Disassembly of section .text._ZNK9qindesign7network13EthernetClass9linkSpeedEv:

00000000 <_ZNK9qindesign7network13EthernetClass9linkSpeedEv>:
   0:	f7ff bffe 	b.w	0 <driver_link_speed>

Disassembly of section .text._ZNK9qindesign7network13EthernetClass16linkIsFullDuplexEv:

00000000 <_ZNK9qindesign7network13EthernetClass16linkIsFullDuplexEv>:
   0:	f7ff bffe 	b.w	0 <driver_link_is_full_duplex>

Disassembly of section .text._ZNK9qindesign7network13EthernetClass15linkIsCrossoverEv:

00000000 <_ZNK9qindesign7network13EthernetClass15linkIsCrossoverEv>:
   0:	f7ff bffe 	b.w	0 <driver_link_is_crossover>

Disassembly of section .text._ZNK9qindesign7network13EthernetClass15interfaceStatusEv:

00000000 <_ZNK9qindesign7network13EthernetClass15interfaceStatusEv>:
   0:	69c0      	ldr	r0, [r0, #28]
   2:	b118      	cbz	r0, c <_ZNK9qindesign7network13EthernetClass15interfaceStatusEv+0xc>
   4:	f890 003d 	ldrb.w	r0, [r0, #61]	; 0x3d
   8:	f000 0001 	and.w	r0, r0, #1
   c:	4770      	bx	lr
   e:	bf00      	nop

Disassembly of section .text._ZNK9qindesign7network13EthernetClass7localIPEv:

00000000 <_ZNK9qindesign7network13EthernetClass7localIPEv>:
   0:	69cb      	ldr	r3, [r1, #28]
   2:	b123      	cbz	r3, e <_ZNK9qindesign7network13EthernetClass7localIPEv+0xe>
   4:	681a      	ldr	r2, [r3, #0]
   6:	4b05      	ldr	r3, [pc, #20]	; (1c <_ZNK9qindesign7network13EthernetClass7localIPEv+0x1c>)
   8:	e9c0 3200 	strd	r3, r2, [r0]
   c:	4770      	bx	lr
   e:	4a03      	ldr	r2, [pc, #12]	; (1c <_ZNK9qindesign7network13EthernetClass7localIPEv+0x1c>)
  10:	4b03      	ldr	r3, [pc, #12]	; (20 <_ZNK9qindesign7network13EthernetClass7localIPEv+0x20>)
  12:	6002      	str	r2, [r0, #0]
  14:	685b      	ldr	r3, [r3, #4]
  16:	6043      	str	r3, [r0, #4]
  18:	4770      	bx	lr
  1a:	bf00      	nop
  1c:	00000008 	.word	0x00000008
  20:	00000000 	.word	0x00000000

Disassembly of section .text._ZNK9qindesign7network13EthernetClass10subnetMaskEv:

00000000 <_ZNK9qindesign7network13EthernetClass10subnetMaskEv>:
   0:	69cb      	ldr	r3, [r1, #28]
   2:	b123      	cbz	r3, e <_ZNK9qindesign7network13EthernetClass10subnetMaskEv+0xe>
   4:	685a      	ldr	r2, [r3, #4]
   6:	4b05      	ldr	r3, [pc, #20]	; (1c <_ZNK9qindesign7network13EthernetClass10subnetMaskEv+0x1c>)
   8:	e9c0 3200 	strd	r3, r2, [r0]
   c:	4770      	bx	lr
   e:	4a03      	ldr	r2, [pc, #12]	; (1c <_ZNK9qindesign7network13EthernetClass10subnetMaskEv+0x1c>)
  10:	4b03      	ldr	r3, [pc, #12]	; (20 <_ZNK9qindesign7network13EthernetClass10subnetMaskEv+0x20>)
  12:	6002      	str	r2, [r0, #0]
  14:	685b      	ldr	r3, [r3, #4]
  16:	6043      	str	r3, [r0, #4]
  18:	4770      	bx	lr
  1a:	bf00      	nop
  1c:	00000008 	.word	0x00000008
  20:	00000000 	.word	0x00000000

Disassembly of section .text._ZNK9qindesign7network13EthernetClass9gatewayIPEv:

00000000 <_ZNK9qindesign7network13EthernetClass9gatewayIPEv>:
   0:	69cb      	ldr	r3, [r1, #28]
   2:	b123      	cbz	r3, e <_ZNK9qindesign7network13EthernetClass9gatewayIPEv+0xe>
   4:	689a      	ldr	r2, [r3, #8]
   6:	4b05      	ldr	r3, [pc, #20]	; (1c <_ZNK9qindesign7network13EthernetClass9gatewayIPEv+0x1c>)
   8:	e9c0 3200 	strd	r3, r2, [r0]
   c:	4770      	bx	lr
   e:	4a03      	ldr	r2, [pc, #12]	; (1c <_ZNK9qindesign7network13EthernetClass9gatewayIPEv+0x1c>)
  10:	4b03      	ldr	r3, [pc, #12]	; (20 <_ZNK9qindesign7network13EthernetClass9gatewayIPEv+0x20>)
  12:	6002      	str	r2, [r0, #0]
  14:	685b      	ldr	r3, [r3, #4]
  16:	6043      	str	r3, [r0, #4]
  18:	4770      	bx	lr
  1a:	bf00      	nop
  1c:	00000008 	.word	0x00000008
  20:	00000000 	.word	0x00000000

Disassembly of section .text._ZNK9qindesign7network13EthernetClass11dnsServerIPEv:

00000000 <_ZNK9qindesign7network13EthernetClass11dnsServerIPEv>:
   0:	b510      	push	{r4, lr}
   2:	4604      	mov	r4, r0
   4:	2100      	movs	r1, #0
   6:	f7ff fffe 	bl	0 <_ZN9qindesign7network9DNSClient9getServerEi>
   a:	4620      	mov	r0, r4
   c:	bd10      	pop	{r4, pc}
   e:	bf00      	nop

Disassembly of section .text._ZNK9qindesign7network13EthernetClass11dnsServerIPEi:

00000000 <_ZNK9qindesign7network13EthernetClass11dnsServerIPEi>:
   0:	b510      	push	{r4, lr}
   2:	4604      	mov	r4, r0
   4:	4611      	mov	r1, r2
   6:	f7ff fffe 	bl	0 <_ZN9qindesign7network9DNSClient9getServerEi>
   a:	4620      	mov	r0, r4
   c:	bd10      	pop	{r4, pc}
   e:	bf00      	nop

Disassembly of section .text._ZNK9qindesign7network13EthernetClass11broadcastIPEv:

00000000 <_ZNK9qindesign7network13EthernetClass11broadcastIPEv>:
   0:	69cb      	ldr	r3, [r1, #28]
   2:	b13b      	cbz	r3, 14 <_ZNK9qindesign7network13EthernetClass11broadcastIPEv+0x14>
   4:	4a06      	ldr	r2, [pc, #24]	; (20 <_ZNK9qindesign7network13EthernetClass11broadcastIPEv+0x20>)
   6:	e9d3 3100 	ldrd	r3, r1, [r3]
   a:	ea63 0301 	orn	r3, r3, r1
   e:	e9c0 2300 	strd	r2, r3, [r0]
  12:	4770      	bx	lr
  14:	4a02      	ldr	r2, [pc, #8]	; (20 <_ZNK9qindesign7network13EthernetClass11broadcastIPEv+0x20>)
  16:	4b03      	ldr	r3, [pc, #12]	; (24 <_ZNK9qindesign7network13EthernetClass11broadcastIPEv+0x24>)
  18:	6002      	str	r2, [r0, #0]
  1a:	685b      	ldr	r3, [r3, #4]
  1c:	6043      	str	r3, [r0, #4]
  1e:	4770      	bx	lr
  20:	00000008 	.word	0x00000008
  24:	00000000 	.word	0x00000000

Disassembly of section .text._ZNK9qindesign7network13EthernetClass10setLocalIPERK9IPAddress:

00000000 <_ZNK9qindesign7network13EthernetClass10setLocalIPERK9IPAddress>:
   0:	69c3      	ldr	r3, [r0, #28]
   2:	b510      	push	{r4, lr}
   4:	4604      	mov	r4, r0
   6:	b082      	sub	sp, #8
   8:	b143      	cbz	r3, 1c <_ZNK9qindesign7network13EthernetClass10setLocalIPERK9IPAddress+0x1c>
   a:	4608      	mov	r0, r1
   c:	f7ff fffe 	bl	0 <_ZN9qindesign7network10get_uint32ERK9IPAddress>
  10:	4603      	mov	r3, r0
  12:	a901      	add	r1, sp, #4
  14:	69e0      	ldr	r0, [r4, #28]
  16:	9301      	str	r3, [sp, #4]
  18:	f7ff fffe 	bl	0 <netif_set_ipaddr>
  1c:	b002      	add	sp, #8
  1e:	bd10      	pop	{r4, pc}

Disassembly of section .text._ZNK9qindesign7network13EthernetClass13setSubnetMaskERK9IPAddress:

00000000 <_ZNK9qindesign7network13EthernetClass13setSubnetMaskERK9IPAddress>:
   0:	69c3      	ldr	r3, [r0, #28]
   2:	b510      	push	{r4, lr}
   4:	4604      	mov	r4, r0
   6:	b082      	sub	sp, #8
   8:	b143      	cbz	r3, 1c <_ZNK9qindesign7network13EthernetClass13setSubnetMaskERK9IPAddress+0x1c>
   a:	4608      	mov	r0, r1
   c:	f7ff fffe 	bl	0 <_ZN9qindesign7network10get_uint32ERK9IPAddress>
  10:	4603      	mov	r3, r0
  12:	a901      	add	r1, sp, #4
  14:	69e0      	ldr	r0, [r4, #28]
  16:	9301      	str	r3, [sp, #4]
  18:	f7ff fffe 	bl	0 <netif_set_netmask>
  1c:	b002      	add	sp, #8
  1e:	bd10      	pop	{r4, pc}

Disassembly of section .text._ZNK9qindesign7network13EthernetClass12setGatewayIPERK9IPAddress:

00000000 <_ZNK9qindesign7network13EthernetClass12setGatewayIPERK9IPAddress>:
   0:	69c3      	ldr	r3, [r0, #28]
   2:	b510      	push	{r4, lr}
   4:	4604      	mov	r4, r0
   6:	b082      	sub	sp, #8
   8:	b143      	cbz	r3, 1c <_ZNK9qindesign7network13EthernetClass12setGatewayIPERK9IPAddress+0x1c>
   a:	4608      	mov	r0, r1
   c:	f7ff fffe 	bl	0 <_ZN9qindesign7network10get_uint32ERK9IPAddress>
  10:	4603      	mov	r3, r0
  12:	a901      	add	r1, sp, #4
  14:	69e0      	ldr	r0, [r4, #28]
  16:	9301      	str	r3, [sp, #4]
  18:	f7ff fffe 	bl	0 <netif_set_gw>
  1c:	b002      	add	sp, #8
  1e:	bd10      	pop	{r4, pc}

Disassembly of section .text._ZNK9qindesign7network13EthernetClass14setDNSServerIPERK9IPAddress:

00000000 <_ZNK9qindesign7network13EthernetClass14setDNSServerIPERK9IPAddress>:
   0:	2000      	movs	r0, #0
   2:	f7ff bffe 	b.w	0 <_ZN9qindesign7network9DNSClient9setServerEiRK9IPAddress>
   6:	bf00      	nop

Disassembly of section .text._ZNK9qindesign7network13EthernetClass14setDNSServerIPEiRK9IPAddress:

00000000 <_ZNK9qindesign7network13EthernetClass14setDNSServerIPEiRK9IPAddress>:
   0:	4608      	mov	r0, r1
   2:	4611      	mov	r1, r2
   4:	f7ff bffe 	b.w	0 <_ZN9qindesign7network9DNSClient9setServerEiRK9IPAddress>

Disassembly of section .text._ZNK9qindesign7network13EthernetClass14hardwareStatusEv:

00000000 <_ZNK9qindesign7network13EthernetClass14hardwareStatusEv>:
   0:	b508      	push	{r3, lr}
   2:	f7ff fffe 	bl	0 <driver_has_hardware>
   6:	0080      	lsls	r0, r0, #2
   8:	b240      	sxtb	r0, r0
   a:	bd08      	pop	{r3, pc}

Disassembly of section .text._ZNK9qindesign7network13EthernetClass9joinGroupERK9IPAddress:

00000000 <_ZNK9qindesign7network13EthernetClass9joinGroupERK9IPAddress>:
   0:	b530      	push	{r4, r5, lr}
   2:	69c5      	ldr	r5, [r0, #28]
   4:	b083      	sub	sp, #12
   6:	4604      	mov	r4, r0
   8:	b165      	cbz	r5, 24 <_ZNK9qindesign7network13EthernetClass9joinGroupERK9IPAddress+0x24>
   a:	4608      	mov	r0, r1
   c:	f7ff fffe 	bl	0 <_ZN9qindesign7network10get_uint32ERK9IPAddress>
  10:	4603      	mov	r3, r0
  12:	a901      	add	r1, sp, #4
  14:	69e0      	ldr	r0, [r4, #28]
  16:	9301      	str	r3, [sp, #4]
  18:	f7ff fffe 	bl	0 <igmp_joingroup_netif>
  1c:	b950      	cbnz	r0, 34 <_ZNK9qindesign7network13EthernetClass9joinGroupERK9IPAddress+0x34>
  1e:	2001      	movs	r0, #1
  20:	b003      	add	sp, #12
  22:	bd30      	pop	{r4, r5, pc}
  24:	f7ff fffe 	bl	0 <__errno>
  28:	2280      	movs	r2, #128	; 0x80
  2a:	4603      	mov	r3, r0
  2c:	4628      	mov	r0, r5
  2e:	601a      	str	r2, [r3, #0]
  30:	b003      	add	sp, #12
  32:	bd30      	pop	{r4, r5, pc}
  34:	f7ff fffe 	bl	0 <err_to_errno>
  38:	4604      	mov	r4, r0
  3a:	f7ff fffe 	bl	0 <__errno>
  3e:	4603      	mov	r3, r0
  40:	2000      	movs	r0, #0
  42:	601c      	str	r4, [r3, #0]
  44:	b003      	add	sp, #12
  46:	bd30      	pop	{r4, r5, pc}

Disassembly of section .text._ZNK9qindesign7network13EthernetClass10leaveGroupERK9IPAddress:

00000000 <_ZNK9qindesign7network13EthernetClass10leaveGroupERK9IPAddress>:
   0:	69c3      	ldr	r3, [r0, #28]
   2:	b510      	push	{r4, lr}
   4:	4604      	mov	r4, r0
   6:	b082      	sub	sp, #8
   8:	b163      	cbz	r3, 24 <_ZNK9qindesign7network13EthernetClass10leaveGroupERK9IPAddress+0x24>
   a:	4608      	mov	r0, r1
   c:	f7ff fffe 	bl	0 <_ZN9qindesign7network10get_uint32ERK9IPAddress>
  10:	4603      	mov	r3, r0
  12:	a901      	add	r1, sp, #4
  14:	69e0      	ldr	r0, [r4, #28]
  16:	9301      	str	r3, [sp, #4]
  18:	f7ff fffe 	bl	0 <igmp_leavegroup_netif>
  1c:	b928      	cbnz	r0, 2a <_ZNK9qindesign7network13EthernetClass10leaveGroupERK9IPAddress+0x2a>
  1e:	2001      	movs	r0, #1
  20:	b002      	add	sp, #8
  22:	bd10      	pop	{r4, pc}
  24:	4618      	mov	r0, r3
  26:	b002      	add	sp, #8
  28:	bd10      	pop	{r4, pc}
  2a:	f7ff fffe 	bl	0 <err_to_errno>
  2e:	4604      	mov	r4, r0
  30:	f7ff fffe 	bl	0 <__errno>
  34:	4603      	mov	r3, r0
  36:	2000      	movs	r0, #0
  38:	601c      	str	r4, [r3, #0]
  3a:	b002      	add	sp, #8
  3c:	bd10      	pop	{r4, pc}
  3e:	bf00      	nop

Disassembly of section .text._ZNK9qindesign7network13EthernetClass20setMACAddressAllowedEPKhb:

00000000 <_ZNK9qindesign7network13EthernetClass20setMACAddressAllowedEPKhb>:
   0:	69c3      	ldr	r3, [r0, #28]
   2:	4608      	mov	r0, r1
   4:	4611      	mov	r1, r2
   6:	b113      	cbz	r3, e <_ZNK9qindesign7network13EthernetClass20setMACAddressAllowedEPKhb+0xe>
   8:	b108      	cbz	r0, e <_ZNK9qindesign7network13EthernetClass20setMACAddressAllowedEPKhb+0xe>
   a:	f7ff bffe 	b.w	0 <driver_set_incoming_mac_address_allowed>
   e:	2000      	movs	r0, #0
  10:	4770      	bx	lr
  12:	bf00      	nop

Disassembly of section .text._ZN9qindesign7network13EthernetClass11setHostnameEPKc:

00000000 <_ZN9qindesign7network13EthernetClass11setHostnameEPKc>:
   0:	b538      	push	{r3, r4, r5, lr}
   2:	4604      	mov	r4, r0
   4:	3010      	adds	r0, #16
   6:	460d      	mov	r5, r1
   8:	f7ff fffe 	bl	0 <_ZN6StringaSEPKc>
   c:	69e3      	ldr	r3, [r4, #28]
   e:	b123      	cbz	r3, 1a <_ZN9qindesign7network13EthernetClass11setHostnameEPKc+0x1a>
  10:	69a2      	ldr	r2, [r4, #24]
  12:	2a00      	cmp	r2, #0
  14:	bf18      	it	ne
  16:	462a      	movne	r2, r5
  18:	631a      	str	r2, [r3, #48]	; 0x30
  1a:	bd38      	pop	{r3, r4, r5, pc}

Disassembly of section .text._ZNK9qindesign7network13EthernetClass8hostnameEv:

00000000 <_ZNK9qindesign7network13EthernetClass8hostnameEv>:
   0:	b510      	push	{r4, lr}
   2:	4604      	mov	r4, r0
   4:	3110      	adds	r1, #16
   6:	f7ff fffe 	bl	0 <_ZN6StringC1ERKS_>
   a:	4620      	mov	r0, r4
   c:	bd10      	pop	{r4, pc}
   e:	bf00      	nop

Disassembly of section .text._ZNK9qindesign7network13EthernetClasscvbEv:

00000000 <_ZNK9qindesign7network13EthernetClasscvbEv>:
   0:	69c0      	ldr	r0, [r0, #28]
   2:	3800      	subs	r0, #0
   4:	bf18      	it	ne
   6:	2001      	movne	r0, #1
   8:	4770      	bx	lr
   a:	bf00      	nop

Disassembly of section .text._ZN9qindesign7network13EthernetClass10hostByNameEPKcR9IPAddress:

00000000 <_ZN9qindesign7network13EthernetClass10hostByNameEPKcR9IPAddress>:
   0:	69c3      	ldr	r3, [r0, #28]
   2:	4608      	mov	r0, r1
   4:	4611      	mov	r1, r2
   6:	b11b      	cbz	r3, 10 <_ZN9qindesign7network13EthernetClass10hostByNameEPKcR9IPAddress+0x10>
   8:	f241 3288 	movw	r2, #5000	; 0x1388
   c:	f7ff bffe 	b.w	0 <_ZN9qindesign7network9DNSClient13getHostByNameEPKcR9IPAddressm>
  10:	4618      	mov	r0, r3
  12:	4770      	bx	lr

Disassembly of section .text.startup._GLOBAL__sub_I__ZN10StaticInitIN9qindesign7network13EthernetClassEE13nifty_counterE:

00000000 <_GLOBAL__sub_I__ZN10StaticInitIN9qindesign7network13EthernetClassEE13nifty_counterE>:
   0:	4a21      	ldr	r2, [pc, #132]	; (88 <_GLOBAL__sub_I__ZN10StaticInitIN9qindesign7network13EthernetClassEE13nifty_counterE+0x88>)
   2:	2000      	movs	r0, #0
   4:	4921      	ldr	r1, [pc, #132]	; (8c <_GLOBAL__sub_I__ZN10StaticInitIN9qindesign7network13EthernetClassEE13nifty_counterE+0x8c>)
   6:	b538      	push	{r3, r4, r5, lr}
   8:	6813      	ldr	r3, [r2, #0]
   a:	4c21      	ldr	r4, [pc, #132]	; (90 <_GLOBAL__sub_I__ZN10StaticInitIN9qindesign7network13EthernetClassEE13nifty_counterE+0x90>)
   c:	e9c1 4000 	strd	r4, r0, [r1]
  10:	1c59      	adds	r1, r3, #1
  12:	6011      	str	r1, [r2, #0]
  14:	b31b      	cbz	r3, 5e <_GLOBAL__sub_I__ZN10StaticInitIN9qindesign7network13EthernetClassEE13nifty_counterE+0x5e>
  16:	4a1f      	ldr	r2, [pc, #124]	; (94 <_GLOBAL__sub_I__ZN10StaticInitIN9qindesign7network13EthernetClassEE13nifty_counterE+0x94>)
  18:	491f      	ldr	r1, [pc, #124]	; (98 <_GLOBAL__sub_I__ZN10StaticInitIN9qindesign7network13EthernetClassEE13nifty_counterE+0x98>)
  1a:	4820      	ldr	r0, [pc, #128]	; (9c <_GLOBAL__sub_I__ZN10StaticInitIN9qindesign7network13EthernetClassEE13nifty_counterE+0x9c>)
  1c:	f7ff fffe 	bl	0 <__aeabi_atexit>
  20:	4a1f      	ldr	r2, [pc, #124]	; (a0 <_GLOBAL__sub_I__ZN10StaticInitIN9qindesign7network13EthernetClassEE13nifty_counterE+0xa0>)
  22:	6813      	ldr	r3, [r2, #0]
  24:	1c59      	adds	r1, r3, #1
  26:	6011      	str	r1, [r2, #0]
  28:	b33b      	cbz	r3, 7a <_GLOBAL__sub_I__ZN10StaticInitIN9qindesign7network13EthernetClassEE13nifty_counterE+0x7a>
  2a:	4a1a      	ldr	r2, [pc, #104]	; (94 <_GLOBAL__sub_I__ZN10StaticInitIN9qindesign7network13EthernetClassEE13nifty_counterE+0x94>)
  2c:	491d      	ldr	r1, [pc, #116]	; (a4 <_GLOBAL__sub_I__ZN10StaticInitIN9qindesign7network13EthernetClassEE13nifty_counterE+0xa4>)
  2e:	481e      	ldr	r0, [pc, #120]	; (a8 <_GLOBAL__sub_I__ZN10StaticInitIN9qindesign7network13EthernetClassEE13nifty_counterE+0xa8>)
  30:	f7ff fffe 	bl	0 <__aeabi_atexit>
  34:	4a1d      	ldr	r2, [pc, #116]	; (ac <_GLOBAL__sub_I__ZN10StaticInitIN9qindesign7network13EthernetClassEE13nifty_counterE+0xac>)
  36:	6813      	ldr	r3, [r2, #0]
  38:	1c59      	adds	r1, r3, #1
  3a:	6011      	str	r1, [r2, #0]
  3c:	b1b3      	cbz	r3, 6c <_GLOBAL__sub_I__ZN10StaticInitIN9qindesign7network13EthernetClassEE13nifty_counterE+0x6c>
  3e:	4c1c      	ldr	r4, [pc, #112]	; (b0 <_GLOBAL__sub_I__ZN10StaticInitIN9qindesign7network13EthernetClassEE13nifty_counterE+0xb0>)
  40:	4a14      	ldr	r2, [pc, #80]	; (94 <_GLOBAL__sub_I__ZN10StaticInitIN9qindesign7network13EthernetClassEE13nifty_counterE+0x94>)
  42:	491c      	ldr	r1, [pc, #112]	; (b4 <_GLOBAL__sub_I__ZN10StaticInitIN9qindesign7network13EthernetClassEE13nifty_counterE+0xb4>)
  44:	481c      	ldr	r0, [pc, #112]	; (b8 <_GLOBAL__sub_I__ZN10StaticInitIN9qindesign7network13EthernetClassEE13nifty_counterE+0xb8>)
  46:	f7ff fffe 	bl	0 <__aeabi_atexit>
  4a:	4b1c      	ldr	r3, [pc, #112]	; (bc <_GLOBAL__sub_I__ZN10StaticInitIN9qindesign7network13EthernetClassEE13nifty_counterE+0xbc>)
  4c:	6824      	ldr	r4, [r4, #0]
  4e:	4a11      	ldr	r2, [pc, #68]	; (94 <_GLOBAL__sub_I__ZN10StaticInitIN9qindesign7network13EthernetClassEE13nifty_counterE+0x94>)
  50:	601c      	str	r4, [r3, #0]
  52:	491b      	ldr	r1, [pc, #108]	; (c0 <_GLOBAL__sub_I__ZN10StaticInitIN9qindesign7network13EthernetClassEE13nifty_counterE+0xc0>)
  54:	481b      	ldr	r0, [pc, #108]	; (c4 <_GLOBAL__sub_I__ZN10StaticInitIN9qindesign7network13EthernetClassEE13nifty_counterE+0xc4>)
  56:	e8bd 4038 	ldmia.w	sp!, {r3, r4, r5, lr}
  5a:	f7ff bffe 	b.w	0 <__aeabi_atexit>
  5e:	4c1a      	ldr	r4, [pc, #104]	; (c8 <_GLOBAL__sub_I__ZN10StaticInitIN9qindesign7network13EthernetClassEE13nifty_counterE+0xc8>)
  60:	4620      	mov	r0, r4
  62:	f7ff fffe 	bl	0 <_ZN9qindesign7network9MDNSClassC1Ev>
  66:	4b19      	ldr	r3, [pc, #100]	; (cc <_GLOBAL__sub_I__ZN10StaticInitIN9qindesign7network13EthernetClassEE13nifty_counterE+0xcc>)
  68:	601c      	str	r4, [r3, #0]
  6a:	e7d4      	b.n	16 <_GLOBAL__sub_I__ZN10StaticInitIN9qindesign7network13EthernetClassEE13nifty_counterE+0x16>
  6c:	4d18      	ldr	r5, [pc, #96]	; (d0 <_GLOBAL__sub_I__ZN10StaticInitIN9qindesign7network13EthernetClassEE13nifty_counterE+0xd0>)
  6e:	4c10      	ldr	r4, [pc, #64]	; (b0 <_GLOBAL__sub_I__ZN10StaticInitIN9qindesign7network13EthernetClassEE13nifty_counterE+0xb0>)
  70:	4628      	mov	r0, r5
  72:	f7ff fffe 	bl	0 <_GLOBAL__sub_I__ZN10StaticInitIN9qindesign7network13EthernetClassEE13nifty_counterE>
  76:	6025      	str	r5, [r4, #0]
  78:	e7e2      	b.n	40 <_GLOBAL__sub_I__ZN10StaticInitIN9qindesign7network13EthernetClassEE13nifty_counterE+0x40>
  7a:	4c16      	ldr	r4, [pc, #88]	; (d4 <_GLOBAL__sub_I__ZN10StaticInitIN9qindesign7network13EthernetClassEE13nifty_counterE+0xd4>)
  7c:	4620      	mov	r0, r4
  7e:	f7ff fffe 	bl	0 <_ZN9qindesign8security12RandomDeviceC1Ev>
  82:	4b15      	ldr	r3, [pc, #84]	; (d8 <_GLOBAL__sub_I__ZN10StaticInitIN9qindesign7network13EthernetClassEE13nifty_counterE+0xd8>)
  84:	601c      	str	r4, [r3, #0]
  86:	e7d0      	b.n	2a <_GLOBAL__sub_I__ZN10StaticInitIN9qindesign7network13EthernetClassEE13nifty_counterE+0x2a>
  88:	00000000 	.word	0x00000000
  8c:	00000000 	.word	0x00000000
  90:	00000008 	.word	0x00000008
  94:	00000000 	.word	0x00000000
  98:	00000000 	.word	0x00000000
  9c:	00000000 	.word	0x00000000
  a0:	00000000 	.word	0x00000000
  a4:	00000000 	.word	0x00000000
  a8:	00000000 	.word	0x00000000
  ac:	00000000 	.word	0x00000000
  b0:	00000000 	.word	0x00000000
  b4:	00000000 	.word	0x00000000
  b8:	00000000 	.word	0x00000000
  bc:	00000000 	.word	0x00000000
  c0:	00000000 	.word	0x00000000
  c4:	00000000 	.word	0x00000000
  c8:	00000000 	.word	0x00000000
  cc:	00000000 	.word	0x00000000
  d0:	00000000 	.word	0x00000000
  d4:	00000000 	.word	0x00000000
  d8:	00000000 	.word	0x00000000
