
build/./libraries/QNEthernet/src/QNEthernetServer.cpp.o:     file format elf32-littlearm

SYMBOL TABLE:
00000000 l    df *ABS*	00000000 QNEthernetServer.cpp
00000000 l    d  .text	00000000 .text
00000000 l    d  .data	00000000 .data
00000000 l    d  .bss	00000000 .bss
00000000 l    d  .text._ZNSt15_Sp_counted_ptrIDnLN9__gnu_cxx12_Lock_policyE0EE10_M_disposeEv	00000000 .text._ZNSt15_Sp_counted_ptrIDnLN9__gnu_cxx12_Lock_policyE0EE10_M_disposeEv
00000000 l    d  .text._ZNSt16_Sp_counted_baseILN9__gnu_cxx12_Lock_policyE0EE10_M_destroyEv	00000000 .text._ZNSt16_Sp_counted_baseILN9__gnu_cxx12_Lock_policyE0EE10_M_destroyEv
00000000 l    d  .text._ZN10StaticInitIN9qindesign8security12RandomDeviceEED2Ev	00000000 .text._ZN10StaticInitIN9qindesign8security12RandomDeviceEED2Ev
00000000 l    d  .text._ZN9qindesign7network14EthernetServer5writeEh	00000000 .text._ZN9qindesign7network14EthernetServer5writeEh
00000000 l    d  .text._ZN9qindesign7network14EthernetServer5writeEPKhj	00000000 .text._ZN9qindesign7network14EthernetServer5writeEPKhj
00000000 l    d  .text._ZN9qindesign7network14EthernetServer17availableForWriteEv	00000000 .text._ZN9qindesign7network14EthernetServer17availableForWriteEv
00000000 l    d  .text._ZN9qindesign7network14EthernetServer5flushEv	00000000 .text._ZN9qindesign7network14EthernetServer5flushEv
00000000 l    d  .text._ZN10StaticInitIN9qindesign7network13EthernetClassEED2Ev	00000000 .text._ZN10StaticInitIN9qindesign7network13EthernetClassEED2Ev
00000000 l    d  .text._ZN10StaticInitIN9qindesign7network9MDNSClassEED2Ev	00000000 .text._ZN10StaticInitIN9qindesign7network9MDNSClassEED2Ev
00000000 l    d  .text._ZN9qindesign7network14EthernetServerC2Ev	00000000 .text._ZN9qindesign7network14EthernetServerC2Ev
00000000 l    d  .text._ZN9qindesign7network14EthernetServerC2Et	00000000 .text._ZN9qindesign7network14EthernetServerC2Et
00000000 l    d  .text._ZN9qindesign7network14EthernetServerD2Ev	00000000 .text._ZN9qindesign7network14EthernetServerD2Ev
00000000 l    d  .text._ZNK9qindesign7network14EthernetServer4portEv	00000000 .text._ZNK9qindesign7network14EthernetServer4portEv
00000000 l    d  .text._ZN9qindesign7network14EthernetServer5beginEtb	00000000 .text._ZN9qindesign7network14EthernetServer5beginEtb
00000000 l    d  .text._ZN9qindesign7network14EthernetServer5beginEv	00000000 .text._ZN9qindesign7network14EthernetServer5beginEv
00000000 l    d  .text._ZN9qindesign7network14EthernetServer14beginWithReuseEv	00000000 .text._ZN9qindesign7network14EthernetServer14beginWithReuseEv
00000000 l    d  .text._ZN9qindesign7network14EthernetServer5beginEt	00000000 .text._ZN9qindesign7network14EthernetServer5beginEt
00000000 l    d  .text._ZN9qindesign7network14EthernetServer14beginWithReuseEt	00000000 .text._ZN9qindesign7network14EthernetServer14beginWithReuseEt
00000000 l    d  .text._ZN9qindesign7network14EthernetServer3endEv	00000000 .text._ZN9qindesign7network14EthernetServer3endEv
00000000 l    d  .text._ZNK9qindesign7network14EthernetServer6acceptEv	00000000 .text._ZNK9qindesign7network14EthernetServer6acceptEv
00000000 l    d  .text._ZNK9qindesign7network14EthernetServer9availableEv	00000000 .text._ZNK9qindesign7network14EthernetServer9availableEv
00000000 l    d  .text._ZNK9qindesign7network14EthernetServercvbEv	00000000 .text._ZNK9qindesign7network14EthernetServercvbEv
00000000 l    d  .text.startup._GLOBAL__sub_I__ZN9qindesign7network14EthernetServerC2Ev	00000000 .text.startup._GLOBAL__sub_I__ZN9qindesign7network14EthernetServerC2Ev
00000000 l     F .text.startup._GLOBAL__sub_I__ZN9qindesign7network14EthernetServerC2Ev	000000ac _GLOBAL__sub_I__ZN9qindesign7network14EthernetServerC2Ev
00000000 l    d  .init_array	00000000 .init_array
00000000 l    d  .bss._ZN9qindesign7networkL12EthernetInitE	00000000 .bss._ZN9qindesign7networkL12EthernetInitE
00000000 l     O .bss._ZN9qindesign7networkL12EthernetInitE	00000001 _ZN9qindesign7networkL12EthernetInitE
00000000 l    d  .bss._ZN9qindesign7networkL8MDNSInitE	00000000 .bss._ZN9qindesign7networkL8MDNSInitE
00000000 l     O .bss._ZN9qindesign7networkL8MDNSInitE	00000001 _ZN9qindesign7networkL8MDNSInitE
00000000 l    d  .bss._ZN9qindesign8securityL16randomDeviceInitE	00000000 .bss._ZN9qindesign8securityL16randomDeviceInitE
00000000 l     O .bss._ZN9qindesign8securityL16randomDeviceInitE	00000001 _ZN9qindesign8securityL16randomDeviceInitE
00000000 l    d  .rodata._ZTVN9qindesign7network14EthernetServerE	00000000 .rodata._ZTVN9qindesign7network14EthernetServerE
00000000 l       .group	00000000 _ZN10StaticInitIN9qindesign8security12RandomDeviceEED5Ev
00000000 l       .group	00000000 _ZN10StaticInitIN9qindesign7network13EthernetClassEED5Ev
00000000 l       .group	00000000 _ZN10StaticInitIN9qindesign7network9MDNSClassEED5Ev
00000000 l    d  .comment	00000000 .comment
00000000 l    d  .ARM.attributes	00000000 .ARM.attributes
00000000 l    d  .group	00000000 .group
00000000 l    d  .group	00000000 .group
00000000 l    d  .group	00000000 .group
00000000 l    d  .group	00000000 .group
00000000 l    d  .group	00000000 .group
00000000  w    F .text._ZNSt15_Sp_counted_ptrIDnLN9__gnu_cxx12_Lock_policyE0EE10_M_disposeEv	00000002 _ZNSt15_Sp_counted_ptrIDnLN9__gnu_cxx12_Lock_policyE0EE10_M_disposeEv
00000000  w    F .text._ZNSt16_Sp_counted_baseILN9__gnu_cxx12_Lock_policyE0EE10_M_destroyEv	00000006 _ZNSt16_Sp_counted_baseILN9__gnu_cxx12_Lock_policyE0EE10_M_destroyEv
00000000  w    F .text._ZN10StaticInitIN9qindesign8security12RandomDeviceEED2Ev	00000018 _ZN10StaticInitIN9qindesign8security12RandomDeviceEED2Ev
00000000         *UND*	00000000 _ZN10StaticInitIN9qindesign8security12RandomDeviceEE13nifty_counterE
00000000         *UND*	00000000 _ZN10StaticInitIN9qindesign8security12RandomDeviceEE2pTE
00000000  w    F .text._ZN10StaticInitIN9qindesign8security12RandomDeviceEED2Ev	00000018 _ZN10StaticInitIN9qindesign8security12RandomDeviceEED1Ev
00000000 g     F .text._ZN9qindesign7network14EthernetServer5writeEh	0000001e _ZN9qindesign7network14EthernetServer5writeEh
00000000         *UND*	00000000 _ZN9qindesign7network8internal17ConnectionManager8instanceEv
00000000         *UND*	00000000 _ZN9qindesign7network8internal17ConnectionManager5writeEth
00000000 g     F .text._ZN9qindesign7network14EthernetServer5writeEPKhj	00000022 _ZN9qindesign7network14EthernetServer5writeEPKhj
00000000         *UND*	00000000 _ZN9qindesign7network8internal17ConnectionManager5writeEtPKhj
00000000 g     F .text._ZN9qindesign7network14EthernetServer17availableForWriteEv	00000018 _ZN9qindesign7network14EthernetServer17availableForWriteEv
00000000         *UND*	00000000 _ZN9qindesign7network8internal17ConnectionManager17availableForWriteEt
00000000 g     F .text._ZN9qindesign7network14EthernetServer5flushEv	00000018 _ZN9qindesign7network14EthernetServer5flushEv
00000000         *UND*	00000000 _ZN9qindesign7network8internal17ConnectionManager5flushEt
00000000  w    F .text._ZN10StaticInitIN9qindesign7network13EthernetClassEED2Ev	00000028 _ZN10StaticInitIN9qindesign7network13EthernetClassEED2Ev
00000000         *UND*	00000000 _ZN9qindesign7network13EthernetClassD1Ev
00000000         *UND*	00000000 _ZN10StaticInitIN9qindesign7network13EthernetClassEE13nifty_counterE
00000000         *UND*	00000000 _ZN10StaticInitIN9qindesign7network13EthernetClassEE2pTE
00000000  w    F .text._ZN10StaticInitIN9qindesign7network13EthernetClassEED2Ev	00000028 _ZN10StaticInitIN9qindesign7network13EthernetClassEED1Ev
00000000  w    F .text._ZN10StaticInitIN9qindesign7network9MDNSClassEED2Ev	00000028 _ZN10StaticInitIN9qindesign7network9MDNSClassEED2Ev
00000000         *UND*	00000000 _ZN9qindesign7network9MDNSClassD1Ev
00000000         *UND*	00000000 _ZN10StaticInitIN9qindesign7network9MDNSClassEE13nifty_counterE
00000000         *UND*	00000000 _ZN10StaticInitIN9qindesign7network9MDNSClassEE2pTE
00000000  w    F .text._ZN10StaticInitIN9qindesign7network9MDNSClassEED2Ev	00000028 _ZN10StaticInitIN9qindesign7network9MDNSClassEED1Ev
00000000 g     F .text._ZN9qindesign7network14EthernetServerC2Ev	00000018 _ZN9qindesign7network14EthernetServerC2Ev
00000000 g     F .text._ZN9qindesign7network14EthernetServerC2Ev	00000018 _ZN9qindesign7network14EthernetServerC1Ev
00000000 g     F .text._ZN9qindesign7network14EthernetServerC2Et	00000024 _ZN9qindesign7network14EthernetServerC2Et
00000000 g     F .text._ZN9qindesign7network14EthernetServerC2Et	00000024 _ZN9qindesign7network14EthernetServerC1Et
00000000 g     F .text._ZN9qindesign7network14EthernetServerD2Ev	00000024 _ZN9qindesign7network14EthernetServerD2Ev
00000000         *UND*	00000000 _ZN9qindesign7network8internal17ConnectionManager13stopListeningEt
00000000 g     F .text._ZN9qindesign7network14EthernetServerD2Ev	00000024 _ZN9qindesign7network14EthernetServerD1Ev
00000000 g     F .text._ZNK9qindesign7network14EthernetServer4portEv	00000016 _ZNK9qindesign7network14EthernetServer4portEv
00000000 g     F .text._ZN9qindesign7network14EthernetServer5beginEtb	0000005c _ZN9qindesign7network14EthernetServer5beginEtb
00000000         *UND*	00000000 _ZN9qindesign7network8internal17ConnectionManager6listenEtb
00000000 g     F .text._ZN9qindesign7network14EthernetServer5beginEv	0000000e _ZN9qindesign7network14EthernetServer5beginEv
00000000 g     F .text._ZN9qindesign7network14EthernetServer14beginWithReuseEv	00000010 _ZN9qindesign7network14EthernetServer14beginWithReuseEv
00000000 g     F .text._ZN9qindesign7network14EthernetServer5beginEt	00000006 _ZN9qindesign7network14EthernetServer5beginEt
00000000 g     F .text._ZN9qindesign7network14EthernetServer14beginWithReuseEt	00000006 _ZN9qindesign7network14EthernetServer14beginWithReuseEt
00000000 g     F .text._ZN9qindesign7network14EthernetServer3endEv	00000026 _ZN9qindesign7network14EthernetServer3endEv
00000000 g     F .text._ZNK9qindesign7network14EthernetServer6acceptEv	0000011c _ZNK9qindesign7network14EthernetServer6acceptEv
00000000         *UND*	00000000 _ZNK9qindesign7network8internal17ConnectionManager13findConnectedEt
00000000         *UND*	00000000 _ZN9qindesign7network13EthernetClass4loopEv
00000000         *UND*	00000000 _ZN9qindesign7network8internal17ConnectionManager6removeERKSt10shared_ptrINS1_16ConnectionHolderEE
00000000         *UND*	00000000 _ZN9qindesign7network14EthernetClientC1ESt10shared_ptrINS0_8internal16ConnectionHolderEE
00000000         *UND*	00000000 _ZN9qindesign7network14EthernetClientC1Ev
00000000         *UND*	00000000 _ZN9qindesign7network8EthernetE
00000000 g     F .text._ZNK9qindesign7network14EthernetServer9availableEv	0000010c _ZNK9qindesign7network14EthernetServer9availableEv
00000000         *UND*	00000000 _ZNK9qindesign7network8internal17ConnectionManager13findAvailableEt
00000000 g     F .text._ZNK9qindesign7network14EthernetServercvbEv	0000000a _ZNK9qindesign7network14EthernetServercvbEv
00000000         *UND*	00000000 __aeabi_atexit
00000000         *UND*	00000000 _ZN9qindesign7network9MDNSClassC1Ev
00000000         *UND*	00000000 _ZN9qindesign7network13EthernetClassC1Ev
00000000         *UND*	00000000 _ZN9qindesign8security12RandomDeviceC1Ev
00000000         *UND*	00000000 .hidden __dso_handle
00000000         *UND*	00000000 _ZN10StaticInitIN9qindesign7network9MDNSClassEE3bufE
00000000         *UND*	00000000 _ZN10StaticInitIN9qindesign7network13EthernetClassEE3bufE
00000000         *UND*	00000000 _ZN10StaticInitIN9qindesign8security12RandomDeviceEE3bufE
00000000 g     O .rodata._ZTVN9qindesign7network14EthernetServerE	0000001c _ZTVN9qindesign7network14EthernetServerE


Contents of section .group:
 0000 01000000 09000000                    ........        
Contents of section .group:
 0000 01000000 0a000000                    ........        
Contents of section .group:
 0000 01000000 0b000000 0c000000           ............    
Contents of section .group:
 0000 01000000 15000000 16000000           ............    
Contents of section .group:
 0000 01000000 17000000 18000000           ............    
Contents of section .text._ZNSt15_Sp_counted_ptrIDnLN9__gnu_cxx12_Lock_policyE0EE10_M_disposeEv:
 0000 704700bf                             pG..            
Contents of section .text._ZNSt16_Sp_counted_baseILN9__gnu_cxx12_Lock_policyE0EE10_M_destroyEv:
 0000 03685b68 184700bf                    .h[h.G..        
Contents of section .text._ZN10StaticInitIN9qindesign8security12RandomDeviceEED2Ev:
 0000 034a1368 013b1360 0bb9024a 13607047  .J.h.;.`...J.`pG
 0010 00000000 00000000                    ........        
Contents of section .text._ZN9qindesign7network14EthernetServer5writeEh:
 0000 38b5c389 0bb90120 38bd0d46 0446fff7  8...... 8..F.F..
 0010 feff2a46 e189bde8 3840fff7 febf00bf  ..*F....8@......
Contents of section .text._ZN9qindesign7network14EthernetServer5writeEPKhj:
 0000 c38970b5 15460bb9 104670bd 0e460446  ..p..F...Fp..F.F
 0010 fff7feff 2b463246 e189bde8 7040fff7  ....+F2F....p@..
 0020 febf00bf                             ....            
Contents of section .text._ZN9qindesign7network14EthernetServer17availableForWriteEv:
 0000 10b50446 c08900b9 10bdfff7 feffe189  ...F............
 0010 bde81040 fff7febf                    ...@....        
Contents of section .text._ZN9qindesign7network14EthernetServer5flushEv:
 0000 c38903b9 704710b5 0446fff7 feffe189  ....pG...F......
 0010 bde81040 fff7febf                    ...@....        
Contents of section .text._ZN10StaticInitIN9qindesign7network13EthernetClassEED2Ev:
 0000 074b70b5 1c680546 013c1c60 0cb12846  .Kp..h.F.<.`..(F
 0010 70bd044e 3068fff7 feff2846 346070bd  p..N0h....(F4`p.
 0020 00000000 00000000                    ........        
Contents of section .text._ZN10StaticInitIN9qindesign7network9MDNSClassEED2Ev:
 0000 074b70b5 1c680546 013c1c60 0cb12846  .Kp..h.F.<.`..(F
 0010 70bd044e 3068fff7 feff2846 346070bd  p..N0h....(F4`p.
 0020 00000000 00000000                    ........        
Contents of section .text._ZN9qindesign7network14EthernetServerC2Ev:
 0000 00220449 02724281 0273c281 c0e90012  .".I.rB..s......
 0010 704700bf 08000000                    pG......        
Contents of section .text._ZN9qindesign7network14EthernetServerC2Et:
 0000 00224ff0 010c4181 0273c281 80f808c0  ."O...A..s......
 0010 10b4034c c0e90042 5df8044b 704700bf  ...L...B]..KpG..
 0020 08000000                             ....            
Contents of section .text._ZN9qindesign7network14EthernetServerD2Ev:
 0000 074ac389 10b50446 02600bb9 204610bd  .J.....F.`.. F..
 0010 fff7feff e189fff7 feff2046 10bd00bf  .......... F....
 0020 08000000                             ....            
Contents of section .text._ZNK9qindesign7network14EthernetServer4portEv:
 0000 037a2bb1 c3890bb1 18467047 40897047  .z+......FpG@.pG
 0010 4ff0ff30 704700bf                    O..0pG..        
Contents of section .text._ZN9qindesign7network14EthernetServer5beginEtb:
 0000 c38970b5 04460d46 164663b1 11b14389  ..p..F.F.Fc...C.
 0010 8b421ed0 fff7feff e189fff7 feff0023  .B.............#
 0020 e3816381 2372fff7 feff3246 2946fff7  ..c.#r....2F)F..
 0030 feff0028 01dc0020 70bd80b2 002d4ff0  ...(... p....-O.
 0040 01032673 18bf0546 e0812372 18466581  ..&s...F..#r.Fe.
 0050 70bd037b 9342ddd1 012070bd           p..{.B... p.    
Contents of section .text._ZN9qindesign7network14EthernetServer5beginEv:
 0000 027a02b9 70470022 4189fff7 febf00bf  .z..pG."A.......
Contents of section .text._ZN9qindesign7network14EthernetServer14beginWithReuseEv:
 0000 027a0ab9 10467047 01224189 fff7febf  .z...FpG."A.....
Contents of section .text._ZN9qindesign7network14EthernetServer5beginEt:
 0000 0022fff7 febf00bf                    ."......        
Contents of section .text._ZN9qindesign7network14EthernetServer14beginWithReuseEt:
 0000 0122fff7 febf00bf                    ."......        
Contents of section .text._ZN9qindesign7network14EthernetServer3endEv:
 0000 c38910b5 04461bb9 00236381 237210bd  .....F...#c.#r..
 0010 fff7feff e189fff7 feff0023 e3810023  ...........#...#
 0020 63812372 10bd00bf                    c.#r....        
Contents of section .text._ZNK9qindesign7network14EthernetServer6acceptEv:
 0000 cb8930b5 044685b0 002b50d0 0d46fff7  ..0..F...+P..F..
 0010 feff0146 6846ea89 fff7feff 3c4b1868  ...FhF......<K.h
 0020 fff7feff 009b002b 3fd0fff7 feff6946  .......+?.....iF
 0030 fff7feff dde90023 cde90223 13b15a68  .......#...#..Zh
 0040 01325a60 02a92046 fff7feff 039da5b1  .2Z`.. F........
 0050 6b68013b 6b6083b9 2b682e4a 9b689342  kh.;k`..+h.J.h.B
 0060 46d1ab68 013bab60 3bb92b68 2a49da68  F..h.;.`;.+h*I.h
 0070 8a4243d1 5b682846 9847019d d5b16b68  .BC.[h(F.G....kh
 0080 013b6b60 b3b92b68 224a9b68 934232d1  .;k`..+h"J.h.B2.
 0090 ab68013b ab606bb9 2b681f49 da688a42  .h.;.`k.+h.I.h.B
 00a0 2fd15b68 28469847 04e0019d 2db92046  /.[h(F.G....-. F
 00b0 fff7feff 204605b0 30bd6b68 013b6b60  .... F..0.kh.;k`
 00c0 002bf4d1 2b68134a 9b689342 0dd1ab68  .+..+h.J.h.B...h
 00d0 013bab60 002bead1 2b680f49 da688a42  .;.`.+..+h.I.h.B
 00e0 12d15b68 28469847 e1e72846 9847eee7  ..[h(F.G..(F.G..
 00f0 28469847 b5e72846 9847c9e7 28469047  (F.G..(F.G..(F.G
 0100 bbe72846 9047d5e7 28469047 cfe700bf  ..(F.G..(F.G....
 0110 00000000 00000000 00000000           ............    
Contents of section .text._ZNK9qindesign7network14EthernetServer9availableEv:
 0000 cb8930b5 044685b0 002b4ed0 0d46fff7  ..0..F...+N..F..
 0010 feff0146 6846ea89 fff7feff 384b1868  ...FhF......8K.h
 0020 fff7feff 009a002a 39d0019b cde90223  .......*9......#
 0030 13b15a68 01325a60 02a92046 fff7feff  ..Zh.2Z`.. F....
 0040 039da5b1 6b68013b 6b6083b9 2b682d4a  ....kh.;k`..+h-J
 0050 9b689342 42d1ab68 013bab60 3bb92b68  .h.BB..h.;.`;.+h
 0060 2949da68 8a423fd1 5b682846 9847019d  )I.h.B?.[h(F.G..
 0070 f5b16b68 013b6b60 d3b92b68 214a9b68  ..kh.;k`..+h!J.h
 0080 93422ed1 ab68013b ab608bb9 2b681e49  .B...h.;.`..+h.I
 0090 da688a42 2bd15b68 28469847 08e0019d  .h.B+.[h(F.G....
 00a0 1db16b68 013b6b60 2bb12046 fff7feff  ..kh.;k`+. F....
 00b0 204605b0 30bd2b68 124a9b68 934219d1   F..0.+h.J.h.B..
 00c0 ab68013b ab60002b efd12b68 0e49da68  .h.;.`.+..+h.I.h
 00d0 8a4212d1 5b682846 9847e6e7 28469847  .B..[h(F.G..(F.G
 00e0 b9e72846 9847cde7 28469047 bfe72846  ..(F.G..(F.G..(F
 00f0 9047dde7 28469847 e2e72846 9047d4e7  .G..(F.G..(F.G..
 0100 00000000 00000000 00000000           ............    
Contents of section .text._ZNK9qindesign7network14EthernetServercvbEv:
 0000 c0890038 18bf0120 704700bf           ...8... pG..    
Contents of section .text.startup._GLOBAL__sub_I__ZN9qindesign7network14EthernetServerC2Ev:
 0000 1a4a1368 591c10b5 1160d3b1 184a1949  .J.hY....`...J.I
 0010 1948fff7 feff194a 1368591c 1160f3b1  .H.....J.hY..`..
 0020 134a1749 1748fff7 feff174a 1368591c  .J.I.H.....J.hY.
 0030 11606bb1 0e4a1549 1548bde8 1040fff7  .`k..J.I.H...@..
 0040 febf144c 2046fff7 feff134b 1c60dde7  ...L F.....K.`..
 0050 124c2046 fff7feff 114b1c60 eae7114c  .L F.....K.`...L
 0060 2046fff7 feff104b 1c60d9e7 00000000   F.....K.`......
 0070 00000000 00000000 00000000 00000000  ................
 0080 00000000 00000000 00000000 00000000  ................
 0090 00000000 00000000 00000000 00000000  ................
 00a0 00000000 00000000 00000000           ............    
Contents of section .init_array:
 0000 00000000                             ....            
Contents of section .rodata._ZTVN9qindesign7network14EthernetServerE:
 0000 00000000 00000000 00000000 00000000  ................
 0010 00000000 00000000 00000000           ............    
Contents of section .comment:
 0000 00474343 3a202841 726d2047 4e552054  .GCC: (Arm GNU T
 0010 6f6f6c63 6861696e 2031312e 332e5265  oolchain 11.3.Re
 0020 6c312920 31312e33 2e312032 30323230  l1) 11.3.1 20220
 0030 37313200                             712.            
Contents of section .ARM.attributes:
 0000 41310000 00616561 62690001 27000000  A1...aeabi..'...
 0010 0537452d 4d00060d 074d0902 0a081204  .7E-M....M......
 0020 14011501 17031801 19011a01 1c011e02  ................
 0030 2201                                 ".              

Disassembly of section .text._ZNSt15_Sp_counted_ptrIDnLN9__gnu_cxx12_Lock_policyE0EE10_M_disposeEv:

00000000 <_ZNSt15_Sp_counted_ptrIDnLN9__gnu_cxx12_Lock_policyE0EE10_M_disposeEv>:
   0:	4770      	bx	lr
   2:	bf00      	nop

Disassembly of section .text._ZNSt16_Sp_counted_baseILN9__gnu_cxx12_Lock_policyE0EE10_M_destroyEv:

00000000 <_ZNSt16_Sp_counted_baseILN9__gnu_cxx12_Lock_policyE0EE10_M_destroyEv>:
   0:	6803      	ldr	r3, [r0, #0]
   2:	685b      	ldr	r3, [r3, #4]
   4:	4718      	bx	r3
   6:	bf00      	nop

Disassembly of section .text._ZN10StaticInitIN9qindesign8security12RandomDeviceEED2Ev:

00000000 <_ZN10StaticInitIN9qindesign8security12RandomDeviceEED1Ev>:
   0:	4a03      	ldr	r2, [pc, #12]	; (10 <_ZN10StaticInitIN9qindesign8security12RandomDeviceEED1Ev+0x10>)
   2:	6813      	ldr	r3, [r2, #0]
   4:	3b01      	subs	r3, #1
   6:	6013      	str	r3, [r2, #0]
   8:	b90b      	cbnz	r3, e <_ZN10StaticInitIN9qindesign8security12RandomDeviceEED1Ev+0xe>
   a:	4a02      	ldr	r2, [pc, #8]	; (14 <_ZN10StaticInitIN9qindesign8security12RandomDeviceEED1Ev+0x14>)
   c:	6013      	str	r3, [r2, #0]
   e:	4770      	bx	lr
  10:	00000000 	.word	0x00000000
  14:	00000000 	.word	0x00000000

Disassembly of section .text._ZN9qindesign7network14EthernetServer5writeEh:

00000000 <_ZN9qindesign7network14EthernetServer5writeEh>:
   0:	b538      	push	{r3, r4, r5, lr}
   2:	89c3      	ldrh	r3, [r0, #14]
   4:	b90b      	cbnz	r3, a <_ZN9qindesign7network14EthernetServer5writeEh+0xa>
   6:	2001      	movs	r0, #1
   8:	bd38      	pop	{r3, r4, r5, pc}
   a:	460d      	mov	r5, r1
   c:	4604      	mov	r4, r0
   e:	f7ff fffe 	bl	0 <_ZN9qindesign7network8internal17ConnectionManager8instanceEv>
  12:	462a      	mov	r2, r5
  14:	89e1      	ldrh	r1, [r4, #14]
  16:	e8bd 4038 	ldmia.w	sp!, {r3, r4, r5, lr}
  1a:	f7ff bffe 	b.w	0 <_ZN9qindesign7network8internal17ConnectionManager5writeEth>
  1e:	bf00      	nop

Disassembly of section .text._ZN9qindesign7network14EthernetServer5writeEPKhj:

00000000 <_ZN9qindesign7network14EthernetServer5writeEPKhj>:
   0:	89c3      	ldrh	r3, [r0, #14]
   2:	b570      	push	{r4, r5, r6, lr}
   4:	4615      	mov	r5, r2
   6:	b90b      	cbnz	r3, c <_ZN9qindesign7network14EthernetServer5writeEPKhj+0xc>
   8:	4610      	mov	r0, r2
   a:	bd70      	pop	{r4, r5, r6, pc}
   c:	460e      	mov	r6, r1
   e:	4604      	mov	r4, r0
  10:	f7ff fffe 	bl	0 <_ZN9qindesign7network8internal17ConnectionManager8instanceEv>
  14:	462b      	mov	r3, r5
  16:	4632      	mov	r2, r6
  18:	89e1      	ldrh	r1, [r4, #14]
  1a:	e8bd 4070 	ldmia.w	sp!, {r4, r5, r6, lr}
  1e:	f7ff bffe 	b.w	0 <_ZN9qindesign7network8internal17ConnectionManager5writeEtPKhj>
  22:	bf00      	nop

Disassembly of section .text._ZN9qindesign7network14EthernetServer17availableForWriteEv:

00000000 <_ZN9qindesign7network14EthernetServer17availableForWriteEv>:
   0:	b510      	push	{r4, lr}
   2:	4604      	mov	r4, r0
   4:	89c0      	ldrh	r0, [r0, #14]
   6:	b900      	cbnz	r0, a <_ZN9qindesign7network14EthernetServer17availableForWriteEv+0xa>
   8:	bd10      	pop	{r4, pc}
   a:	f7ff fffe 	bl	0 <_ZN9qindesign7network8internal17ConnectionManager8instanceEv>
   e:	89e1      	ldrh	r1, [r4, #14]
  10:	e8bd 4010 	ldmia.w	sp!, {r4, lr}
  14:	f7ff bffe 	b.w	0 <_ZN9qindesign7network8internal17ConnectionManager17availableForWriteEt>

Disassembly of section .text._ZN9qindesign7network14EthernetServer5flushEv:

00000000 <_ZN9qindesign7network14EthernetServer5flushEv>:
   0:	89c3      	ldrh	r3, [r0, #14]
   2:	b903      	cbnz	r3, 6 <_ZN9qindesign7network14EthernetServer5flushEv+0x6>
   4:	4770      	bx	lr
   6:	b510      	push	{r4, lr}
   8:	4604      	mov	r4, r0
   a:	f7ff fffe 	bl	0 <_ZN9qindesign7network8internal17ConnectionManager8instanceEv>
   e:	89e1      	ldrh	r1, [r4, #14]
  10:	e8bd 4010 	ldmia.w	sp!, {r4, lr}
  14:	f7ff bffe 	b.w	0 <_ZN9qindesign7network8internal17ConnectionManager5flushEt>

Disassembly of section .text._ZN10StaticInitIN9qindesign7network13EthernetClassEED2Ev:

00000000 <_ZN10StaticInitIN9qindesign7network13EthernetClassEED1Ev>:
   0:	4b07      	ldr	r3, [pc, #28]	; (20 <_ZN10StaticInitIN9qindesign7network13EthernetClassEED1Ev+0x20>)
   2:	b570      	push	{r4, r5, r6, lr}
   4:	681c      	ldr	r4, [r3, #0]
   6:	4605      	mov	r5, r0
   8:	3c01      	subs	r4, #1
   a:	601c      	str	r4, [r3, #0]
   c:	b10c      	cbz	r4, 12 <_ZN10StaticInitIN9qindesign7network13EthernetClassEED1Ev+0x12>
   e:	4628      	mov	r0, r5
  10:	bd70      	pop	{r4, r5, r6, pc}
  12:	4e04      	ldr	r6, [pc, #16]	; (24 <_ZN10StaticInitIN9qindesign7network13EthernetClassEED1Ev+0x24>)
  14:	6830      	ldr	r0, [r6, #0]
  16:	f7ff fffe 	bl	0 <_ZN9qindesign7network13EthernetClassD1Ev>
  1a:	4628      	mov	r0, r5
  1c:	6034      	str	r4, [r6, #0]
  1e:	bd70      	pop	{r4, r5, r6, pc}
  20:	00000000 	.word	0x00000000
  24:	00000000 	.word	0x00000000

Disassembly of section .text._ZN10StaticInitIN9qindesign7network9MDNSClassEED2Ev:

00000000 <_ZN10StaticInitIN9qindesign7network9MDNSClassEED1Ev>:
   0:	4b07      	ldr	r3, [pc, #28]	; (20 <_ZN10StaticInitIN9qindesign7network9MDNSClassEED1Ev+0x20>)
   2:	b570      	push	{r4, r5, r6, lr}
   4:	681c      	ldr	r4, [r3, #0]
   6:	4605      	mov	r5, r0
   8:	3c01      	subs	r4, #1
   a:	601c      	str	r4, [r3, #0]
   c:	b10c      	cbz	r4, 12 <_ZN10StaticInitIN9qindesign7network9MDNSClassEED1Ev+0x12>
   e:	4628      	mov	r0, r5
  10:	bd70      	pop	{r4, r5, r6, pc}
  12:	4e04      	ldr	r6, [pc, #16]	; (24 <_ZN10StaticInitIN9qindesign7network9MDNSClassEED1Ev+0x24>)
  14:	6830      	ldr	r0, [r6, #0]
  16:	f7ff fffe 	bl	0 <_ZN9qindesign7network9MDNSClassD1Ev>
  1a:	4628      	mov	r0, r5
  1c:	6034      	str	r4, [r6, #0]
  1e:	bd70      	pop	{r4, r5, r6, pc}
  20:	00000000 	.word	0x00000000
  24:	00000000 	.word	0x00000000

Disassembly of section .text._ZN9qindesign7network14EthernetServerC2Ev:

00000000 <_ZN9qindesign7network14EthernetServerC1Ev>:
   0:	2200      	movs	r2, #0
   2:	4904      	ldr	r1, [pc, #16]	; (14 <_ZN9qindesign7network14EthernetServerC1Ev+0x14>)
   4:	7202      	strb	r2, [r0, #8]
   6:	8142      	strh	r2, [r0, #10]
   8:	7302      	strb	r2, [r0, #12]
   a:	81c2      	strh	r2, [r0, #14]
   c:	e9c0 1200 	strd	r1, r2, [r0]
  10:	4770      	bx	lr
  12:	bf00      	nop
  14:	00000008 	.word	0x00000008

Disassembly of section .text._ZN9qindesign7network14EthernetServerC2Et:

00000000 <_ZN9qindesign7network14EthernetServerC1Et>:
   0:	2200      	movs	r2, #0
   2:	f04f 0c01 	mov.w	ip, #1
   6:	8141      	strh	r1, [r0, #10]
   8:	7302      	strb	r2, [r0, #12]
   a:	81c2      	strh	r2, [r0, #14]
   c:	f880 c008 	strb.w	ip, [r0, #8]
  10:	b410      	push	{r4}
  12:	4c03      	ldr	r4, [pc, #12]	; (20 <_ZN9qindesign7network14EthernetServerC1Et+0x20>)
  14:	e9c0 4200 	strd	r4, r2, [r0]
  18:	f85d 4b04 	ldr.w	r4, [sp], #4
  1c:	4770      	bx	lr
  1e:	bf00      	nop
  20:	00000008 	.word	0x00000008

Disassembly of section .text._ZN9qindesign7network14EthernetServerD2Ev:

00000000 <_ZN9qindesign7network14EthernetServerD1Ev>:
   0:	4a07      	ldr	r2, [pc, #28]	; (20 <_ZN9qindesign7network14EthernetServerD1Ev+0x20>)
   2:	89c3      	ldrh	r3, [r0, #14]
   4:	b510      	push	{r4, lr}
   6:	4604      	mov	r4, r0
   8:	6002      	str	r2, [r0, #0]
   a:	b90b      	cbnz	r3, 10 <_ZN9qindesign7network14EthernetServerD1Ev+0x10>
   c:	4620      	mov	r0, r4
   e:	bd10      	pop	{r4, pc}
  10:	f7ff fffe 	bl	0 <_ZN9qindesign7network8internal17ConnectionManager8instanceEv>
  14:	89e1      	ldrh	r1, [r4, #14]
  16:	f7ff fffe 	bl	0 <_ZN9qindesign7network8internal17ConnectionManager13stopListeningEt>
  1a:	4620      	mov	r0, r4
  1c:	bd10      	pop	{r4, pc}
  1e:	bf00      	nop
  20:	00000008 	.word	0x00000008

Disassembly of section .text._ZNK9qindesign7network14EthernetServer4portEv:

00000000 <_ZNK9qindesign7network14EthernetServer4portEv>:
   0:	7a03      	ldrb	r3, [r0, #8]
   2:	b12b      	cbz	r3, 10 <_ZNK9qindesign7network14EthernetServer4portEv+0x10>
   4:	89c3      	ldrh	r3, [r0, #14]
   6:	b10b      	cbz	r3, c <_ZNK9qindesign7network14EthernetServer4portEv+0xc>
   8:	4618      	mov	r0, r3
   a:	4770      	bx	lr
   c:	8940      	ldrh	r0, [r0, #10]
   e:	4770      	bx	lr
  10:	f04f 30ff 	mov.w	r0, #4294967295	; 0xffffffff
  14:	4770      	bx	lr
  16:	bf00      	nop

Disassembly of section .text._ZN9qindesign7network14EthernetServer5beginEtb:

00000000 <_ZN9qindesign7network14EthernetServer5beginEtb>:
   0:	89c3      	ldrh	r3, [r0, #14]
   2:	b570      	push	{r4, r5, r6, lr}
   4:	4604      	mov	r4, r0
   6:	460d      	mov	r5, r1
   8:	4616      	mov	r6, r2
   a:	b163      	cbz	r3, 26 <_ZN9qindesign7network14EthernetServer5beginEtb+0x26>
   c:	b111      	cbz	r1, 14 <_ZN9qindesign7network14EthernetServer5beginEtb+0x14>
   e:	8943      	ldrh	r3, [r0, #10]
  10:	428b      	cmp	r3, r1
  12:	d01e      	beq.n	52 <_ZN9qindesign7network14EthernetServer5beginEtb+0x52>
  14:	f7ff fffe 	bl	0 <_ZN9qindesign7network8internal17ConnectionManager8instanceEv>
  18:	89e1      	ldrh	r1, [r4, #14]
  1a:	f7ff fffe 	bl	0 <_ZN9qindesign7network8internal17ConnectionManager13stopListeningEt>
  1e:	2300      	movs	r3, #0
  20:	81e3      	strh	r3, [r4, #14]
  22:	8163      	strh	r3, [r4, #10]
  24:	7223      	strb	r3, [r4, #8]
  26:	f7ff fffe 	bl	0 <_ZN9qindesign7network8internal17ConnectionManager8instanceEv>
  2a:	4632      	mov	r2, r6
  2c:	4629      	mov	r1, r5
  2e:	f7ff fffe 	bl	0 <_ZN9qindesign7network8internal17ConnectionManager6listenEtb>
  32:	2800      	cmp	r0, #0
  34:	dc01      	bgt.n	3a <_ZN9qindesign7network14EthernetServer5beginEtb+0x3a>
  36:	2000      	movs	r0, #0
  38:	bd70      	pop	{r4, r5, r6, pc}
  3a:	b280      	uxth	r0, r0
  3c:	2d00      	cmp	r5, #0
  3e:	f04f 0301 	mov.w	r3, #1
  42:	7326      	strb	r6, [r4, #12]
  44:	bf18      	it	ne
  46:	4605      	movne	r5, r0
  48:	81e0      	strh	r0, [r4, #14]
  4a:	7223      	strb	r3, [r4, #8]
  4c:	4618      	mov	r0, r3
  4e:	8165      	strh	r5, [r4, #10]
  50:	bd70      	pop	{r4, r5, r6, pc}
  52:	7b03      	ldrb	r3, [r0, #12]
  54:	4293      	cmp	r3, r2
  56:	d1dd      	bne.n	14 <_ZN9qindesign7network14EthernetServer5beginEtb+0x14>
  58:	2001      	movs	r0, #1
  5a:	bd70      	pop	{r4, r5, r6, pc}

Disassembly of section .text._ZN9qindesign7network14EthernetServer5beginEv:

00000000 <_ZN9qindesign7network14EthernetServer5beginEv>:
   0:	7a02      	ldrb	r2, [r0, #8]
   2:	b902      	cbnz	r2, 6 <_ZN9qindesign7network14EthernetServer5beginEv+0x6>
   4:	4770      	bx	lr
   6:	2200      	movs	r2, #0
   8:	8941      	ldrh	r1, [r0, #10]
   a:	f7ff bffe 	b.w	0 <_ZN9qindesign7network14EthernetServer5beginEv>
   e:	bf00      	nop

Disassembly of section .text._ZN9qindesign7network14EthernetServer14beginWithReuseEv:

00000000 <_ZN9qindesign7network14EthernetServer14beginWithReuseEv>:
   0:	7a02      	ldrb	r2, [r0, #8]
   2:	b90a      	cbnz	r2, 8 <_ZN9qindesign7network14EthernetServer14beginWithReuseEv+0x8>
   4:	4610      	mov	r0, r2
   6:	4770      	bx	lr
   8:	2201      	movs	r2, #1
   a:	8941      	ldrh	r1, [r0, #10]
   c:	f7ff bffe 	b.w	0 <_ZN9qindesign7network14EthernetServer14beginWithReuseEv>

Disassembly of section .text._ZN9qindesign7network14EthernetServer5beginEt:

00000000 <_ZN9qindesign7network14EthernetServer5beginEt>:
   0:	2200      	movs	r2, #0
   2:	f7ff bffe 	b.w	0 <_ZN9qindesign7network14EthernetServer5beginEt>
   6:	bf00      	nop

Disassembly of section .text._ZN9qindesign7network14EthernetServer14beginWithReuseEt:

00000000 <_ZN9qindesign7network14EthernetServer14beginWithReuseEt>:
   0:	2201      	movs	r2, #1
   2:	f7ff bffe 	b.w	0 <_ZN9qindesign7network14EthernetServer14beginWithReuseEt>
   6:	bf00      	nop

Disassembly of section .text._ZN9qindesign7network14EthernetServer3endEv:

00000000 <_ZN9qindesign7network14EthernetServer3endEv>:
   0:	89c3      	ldrh	r3, [r0, #14]
   2:	b510      	push	{r4, lr}
   4:	4604      	mov	r4, r0
   6:	b91b      	cbnz	r3, 10 <_ZN9qindesign7network14EthernetServer3endEv+0x10>
   8:	2300      	movs	r3, #0
   a:	8163      	strh	r3, [r4, #10]
   c:	7223      	strb	r3, [r4, #8]
   e:	bd10      	pop	{r4, pc}
  10:	f7ff fffe 	bl	0 <_ZN9qindesign7network8internal17ConnectionManager8instanceEv>
  14:	89e1      	ldrh	r1, [r4, #14]
  16:	f7ff fffe 	bl	0 <_ZN9qindesign7network8internal17ConnectionManager13stopListeningEt>
  1a:	2300      	movs	r3, #0
  1c:	81e3      	strh	r3, [r4, #14]
  1e:	2300      	movs	r3, #0
  20:	8163      	strh	r3, [r4, #10]
  22:	7223      	strb	r3, [r4, #8]
  24:	bd10      	pop	{r4, pc}
  26:	bf00      	nop

Disassembly of section .text._ZNK9qindesign7network14EthernetServer6acceptEv:

00000000 <_ZNK9qindesign7network14EthernetServer6acceptEv>:
   0:	89cb      	ldrh	r3, [r1, #14]
   2:	b530      	push	{r4, r5, lr}
   4:	4604      	mov	r4, r0
   6:	b085      	sub	sp, #20
   8:	2b00      	cmp	r3, #0
   a:	d050      	beq.n	ae <_ZNK9qindesign7network14EthernetServer6acceptEv+0xae>
   c:	460d      	mov	r5, r1
   e:	f7ff fffe 	bl	0 <_ZN9qindesign7network8internal17ConnectionManager8instanceEv>
  12:	4601      	mov	r1, r0
  14:	4668      	mov	r0, sp
  16:	89ea      	ldrh	r2, [r5, #14]
  18:	f7ff fffe 	bl	0 <_ZNK9qindesign7network8internal17ConnectionManager13findConnectedEt>
  1c:	4b3c      	ldr	r3, [pc, #240]	; (110 <_ZNK9qindesign7network14EthernetServer6acceptEv+0x110>)
  1e:	6818      	ldr	r0, [r3, #0]
  20:	f7ff fffe 	bl	0 <_ZN9qindesign7network13EthernetClass4loopEv>
  24:	9b00      	ldr	r3, [sp, #0]
  26:	2b00      	cmp	r3, #0
  28:	d03f      	beq.n	aa <_ZNK9qindesign7network14EthernetServer6acceptEv+0xaa>
  2a:	f7ff fffe 	bl	0 <_ZN9qindesign7network8internal17ConnectionManager8instanceEv>
  2e:	4669      	mov	r1, sp
  30:	f7ff fffe 	bl	0 <_ZN9qindesign7network8internal17ConnectionManager6removeERKSt10shared_ptrINS1_16ConnectionHolderEE>
  34:	e9dd 2300 	ldrd	r2, r3, [sp]
  38:	e9cd 2302 	strd	r2, r3, [sp, #8]
  3c:	b113      	cbz	r3, 44 <_ZNK9qindesign7network14EthernetServer6acceptEv+0x44>
  3e:	685a      	ldr	r2, [r3, #4]
  40:	3201      	adds	r2, #1
  42:	605a      	str	r2, [r3, #4]
  44:	a902      	add	r1, sp, #8
  46:	4620      	mov	r0, r4
  48:	f7ff fffe 	bl	0 <_ZN9qindesign7network14EthernetClientC1ESt10shared_ptrINS0_8internal16ConnectionHolderEE>
  4c:	9d03      	ldr	r5, [sp, #12]
  4e:	b1a5      	cbz	r5, 7a <_ZNK9qindesign7network14EthernetServer6acceptEv+0x7a>
  50:	686b      	ldr	r3, [r5, #4]
  52:	3b01      	subs	r3, #1
  54:	606b      	str	r3, [r5, #4]
  56:	b983      	cbnz	r3, 7a <_ZNK9qindesign7network14EthernetServer6acceptEv+0x7a>
  58:	682b      	ldr	r3, [r5, #0]
  5a:	4a2e      	ldr	r2, [pc, #184]	; (114 <_ZNK9qindesign7network14EthernetServer6acceptEv+0x114>)
  5c:	689b      	ldr	r3, [r3, #8]
  5e:	4293      	cmp	r3, r2
  60:	d146      	bne.n	f0 <_ZNK9qindesign7network14EthernetServer6acceptEv+0xf0>
  62:	68ab      	ldr	r3, [r5, #8]
  64:	3b01      	subs	r3, #1
  66:	60ab      	str	r3, [r5, #8]
  68:	b93b      	cbnz	r3, 7a <_ZNK9qindesign7network14EthernetServer6acceptEv+0x7a>
  6a:	682b      	ldr	r3, [r5, #0]
  6c:	492a      	ldr	r1, [pc, #168]	; (118 <_ZNK9qindesign7network14EthernetServer6acceptEv+0x118>)
  6e:	68da      	ldr	r2, [r3, #12]
  70:	428a      	cmp	r2, r1
  72:	d143      	bne.n	fc <_ZNK9qindesign7network14EthernetServer6acceptEv+0xfc>
  74:	685b      	ldr	r3, [r3, #4]
  76:	4628      	mov	r0, r5
  78:	4798      	blx	r3
  7a:	9d01      	ldr	r5, [sp, #4]
  7c:	b1d5      	cbz	r5, b4 <_ZNK9qindesign7network14EthernetServer6acceptEv+0xb4>
  7e:	686b      	ldr	r3, [r5, #4]
  80:	3b01      	subs	r3, #1
  82:	606b      	str	r3, [r5, #4]
  84:	b9b3      	cbnz	r3, b4 <_ZNK9qindesign7network14EthernetServer6acceptEv+0xb4>
  86:	682b      	ldr	r3, [r5, #0]
  88:	4a22      	ldr	r2, [pc, #136]	; (114 <_ZNK9qindesign7network14EthernetServer6acceptEv+0x114>)
  8a:	689b      	ldr	r3, [r3, #8]
  8c:	4293      	cmp	r3, r2
  8e:	d132      	bne.n	f6 <_ZNK9qindesign7network14EthernetServer6acceptEv+0xf6>
  90:	68ab      	ldr	r3, [r5, #8]
  92:	3b01      	subs	r3, #1
  94:	60ab      	str	r3, [r5, #8]
  96:	b96b      	cbnz	r3, b4 <_ZNK9qindesign7network14EthernetServer6acceptEv+0xb4>
  98:	682b      	ldr	r3, [r5, #0]
  9a:	491f      	ldr	r1, [pc, #124]	; (118 <_ZNK9qindesign7network14EthernetServer6acceptEv+0x118>)
  9c:	68da      	ldr	r2, [r3, #12]
  9e:	428a      	cmp	r2, r1
  a0:	d12f      	bne.n	102 <_ZNK9qindesign7network14EthernetServer6acceptEv+0x102>
  a2:	685b      	ldr	r3, [r3, #4]
  a4:	4628      	mov	r0, r5
  a6:	4798      	blx	r3
  a8:	e004      	b.n	b4 <_ZNK9qindesign7network14EthernetServer6acceptEv+0xb4>
  aa:	9d01      	ldr	r5, [sp, #4]
  ac:	b92d      	cbnz	r5, ba <_ZNK9qindesign7network14EthernetServer6acceptEv+0xba>
  ae:	4620      	mov	r0, r4
  b0:	f7ff fffe 	bl	0 <_ZN9qindesign7network14EthernetClientC1Ev>
  b4:	4620      	mov	r0, r4
  b6:	b005      	add	sp, #20
  b8:	bd30      	pop	{r4, r5, pc}
  ba:	686b      	ldr	r3, [r5, #4]
  bc:	3b01      	subs	r3, #1
  be:	606b      	str	r3, [r5, #4]
  c0:	2b00      	cmp	r3, #0
  c2:	d1f4      	bne.n	ae <_ZNK9qindesign7network14EthernetServer6acceptEv+0xae>
  c4:	682b      	ldr	r3, [r5, #0]
  c6:	4a13      	ldr	r2, [pc, #76]	; (114 <_ZNK9qindesign7network14EthernetServer6acceptEv+0x114>)
  c8:	689b      	ldr	r3, [r3, #8]
  ca:	4293      	cmp	r3, r2
  cc:	d10d      	bne.n	ea <_ZNK9qindesign7network14EthernetServer6acceptEv+0xea>
  ce:	68ab      	ldr	r3, [r5, #8]
  d0:	3b01      	subs	r3, #1
  d2:	60ab      	str	r3, [r5, #8]
  d4:	2b00      	cmp	r3, #0
  d6:	d1ea      	bne.n	ae <_ZNK9qindesign7network14EthernetServer6acceptEv+0xae>
  d8:	682b      	ldr	r3, [r5, #0]
  da:	490f      	ldr	r1, [pc, #60]	; (118 <_ZNK9qindesign7network14EthernetServer6acceptEv+0x118>)
  dc:	68da      	ldr	r2, [r3, #12]
  de:	428a      	cmp	r2, r1
  e0:	d112      	bne.n	108 <_ZNK9qindesign7network14EthernetServer6acceptEv+0x108>
  e2:	685b      	ldr	r3, [r3, #4]
  e4:	4628      	mov	r0, r5
  e6:	4798      	blx	r3
  e8:	e7e1      	b.n	ae <_ZNK9qindesign7network14EthernetServer6acceptEv+0xae>
  ea:	4628      	mov	r0, r5
  ec:	4798      	blx	r3
  ee:	e7ee      	b.n	ce <_ZNK9qindesign7network14EthernetServer6acceptEv+0xce>
  f0:	4628      	mov	r0, r5
  f2:	4798      	blx	r3
  f4:	e7b5      	b.n	62 <_ZNK9qindesign7network14EthernetServer6acceptEv+0x62>
  f6:	4628      	mov	r0, r5
  f8:	4798      	blx	r3
  fa:	e7c9      	b.n	90 <_ZNK9qindesign7network14EthernetServer6acceptEv+0x90>
  fc:	4628      	mov	r0, r5
  fe:	4790      	blx	r2
 100:	e7bb      	b.n	7a <_ZNK9qindesign7network14EthernetServer6acceptEv+0x7a>
 102:	4628      	mov	r0, r5
 104:	4790      	blx	r2
 106:	e7d5      	b.n	b4 <_ZNK9qindesign7network14EthernetServer6acceptEv+0xb4>
 108:	4628      	mov	r0, r5
 10a:	4790      	blx	r2
 10c:	e7cf      	b.n	ae <_ZNK9qindesign7network14EthernetServer6acceptEv+0xae>
 10e:	bf00      	nop
 110:	00000000 	.word	0x00000000
 114:	00000000 	.word	0x00000000
 118:	00000000 	.word	0x00000000

Disassembly of section .text._ZNK9qindesign7network14EthernetServer9availableEv:

00000000 <_ZNK9qindesign7network14EthernetServer9availableEv>:
   0:	89cb      	ldrh	r3, [r1, #14]
   2:	b530      	push	{r4, r5, lr}
   4:	4604      	mov	r4, r0
   6:	b085      	sub	sp, #20
   8:	2b00      	cmp	r3, #0
   a:	d04e      	beq.n	aa <_ZNK9qindesign7network14EthernetServer9availableEv+0xaa>
   c:	460d      	mov	r5, r1
   e:	f7ff fffe 	bl	0 <_ZN9qindesign7network8internal17ConnectionManager8instanceEv>
  12:	4601      	mov	r1, r0
  14:	4668      	mov	r0, sp
  16:	89ea      	ldrh	r2, [r5, #14]
  18:	f7ff fffe 	bl	0 <_ZNK9qindesign7network8internal17ConnectionManager13findAvailableEt>
  1c:	4b38      	ldr	r3, [pc, #224]	; (100 <_ZNK9qindesign7network14EthernetServer9availableEv+0x100>)
  1e:	6818      	ldr	r0, [r3, #0]
  20:	f7ff fffe 	bl	0 <_ZN9qindesign7network13EthernetClass4loopEv>
  24:	9a00      	ldr	r2, [sp, #0]
  26:	2a00      	cmp	r2, #0
  28:	d039      	beq.n	9e <_ZNK9qindesign7network14EthernetServer9availableEv+0x9e>
  2a:	9b01      	ldr	r3, [sp, #4]
  2c:	e9cd 2302 	strd	r2, r3, [sp, #8]
  30:	b113      	cbz	r3, 38 <_ZNK9qindesign7network14EthernetServer9availableEv+0x38>
  32:	685a      	ldr	r2, [r3, #4]
  34:	3201      	adds	r2, #1
  36:	605a      	str	r2, [r3, #4]
  38:	a902      	add	r1, sp, #8
  3a:	4620      	mov	r0, r4
  3c:	f7ff fffe 	bl	0 <_ZN9qindesign7network14EthernetClientC1ESt10shared_ptrINS0_8internal16ConnectionHolderEE>
  40:	9d03      	ldr	r5, [sp, #12]
  42:	b1a5      	cbz	r5, 6e <_ZNK9qindesign7network14EthernetServer9availableEv+0x6e>
  44:	686b      	ldr	r3, [r5, #4]
  46:	3b01      	subs	r3, #1
  48:	606b      	str	r3, [r5, #4]
  4a:	b983      	cbnz	r3, 6e <_ZNK9qindesign7network14EthernetServer9availableEv+0x6e>
  4c:	682b      	ldr	r3, [r5, #0]
  4e:	4a2d      	ldr	r2, [pc, #180]	; (104 <_ZNK9qindesign7network14EthernetServer9availableEv+0x104>)
  50:	689b      	ldr	r3, [r3, #8]
  52:	4293      	cmp	r3, r2
  54:	d142      	bne.n	dc <_ZNK9qindesign7network14EthernetServer9availableEv+0xdc>
  56:	68ab      	ldr	r3, [r5, #8]
  58:	3b01      	subs	r3, #1
  5a:	60ab      	str	r3, [r5, #8]
  5c:	b93b      	cbnz	r3, 6e <_ZNK9qindesign7network14EthernetServer9availableEv+0x6e>
  5e:	682b      	ldr	r3, [r5, #0]
  60:	4929      	ldr	r1, [pc, #164]	; (108 <_ZNK9qindesign7network14EthernetServer9availableEv+0x108>)
  62:	68da      	ldr	r2, [r3, #12]
  64:	428a      	cmp	r2, r1
  66:	d13f      	bne.n	e8 <_ZNK9qindesign7network14EthernetServer9availableEv+0xe8>
  68:	685b      	ldr	r3, [r3, #4]
  6a:	4628      	mov	r0, r5
  6c:	4798      	blx	r3
  6e:	9d01      	ldr	r5, [sp, #4]
  70:	b1f5      	cbz	r5, b0 <_ZNK9qindesign7network14EthernetServer9availableEv+0xb0>
  72:	686b      	ldr	r3, [r5, #4]
  74:	3b01      	subs	r3, #1
  76:	606b      	str	r3, [r5, #4]
  78:	b9d3      	cbnz	r3, b0 <_ZNK9qindesign7network14EthernetServer9availableEv+0xb0>
  7a:	682b      	ldr	r3, [r5, #0]
  7c:	4a21      	ldr	r2, [pc, #132]	; (104 <_ZNK9qindesign7network14EthernetServer9availableEv+0x104>)
  7e:	689b      	ldr	r3, [r3, #8]
  80:	4293      	cmp	r3, r2
  82:	d12e      	bne.n	e2 <_ZNK9qindesign7network14EthernetServer9availableEv+0xe2>
  84:	68ab      	ldr	r3, [r5, #8]
  86:	3b01      	subs	r3, #1
  88:	60ab      	str	r3, [r5, #8]
  8a:	b98b      	cbnz	r3, b0 <_ZNK9qindesign7network14EthernetServer9availableEv+0xb0>
  8c:	682b      	ldr	r3, [r5, #0]
  8e:	491e      	ldr	r1, [pc, #120]	; (108 <_ZNK9qindesign7network14EthernetServer9availableEv+0x108>)
  90:	68da      	ldr	r2, [r3, #12]
  92:	428a      	cmp	r2, r1
  94:	d12b      	bne.n	ee <_ZNK9qindesign7network14EthernetServer9availableEv+0xee>
  96:	685b      	ldr	r3, [r3, #4]
  98:	4628      	mov	r0, r5
  9a:	4798      	blx	r3
  9c:	e008      	b.n	b0 <_ZNK9qindesign7network14EthernetServer9availableEv+0xb0>
  9e:	9d01      	ldr	r5, [sp, #4]
  a0:	b11d      	cbz	r5, aa <_ZNK9qindesign7network14EthernetServer9availableEv+0xaa>
  a2:	686b      	ldr	r3, [r5, #4]
  a4:	3b01      	subs	r3, #1
  a6:	606b      	str	r3, [r5, #4]
  a8:	b12b      	cbz	r3, b6 <_ZNK9qindesign7network14EthernetServer9availableEv+0xb6>
  aa:	4620      	mov	r0, r4
  ac:	f7ff fffe 	bl	0 <_ZN9qindesign7network14EthernetClientC1Ev>
  b0:	4620      	mov	r0, r4
  b2:	b005      	add	sp, #20
  b4:	bd30      	pop	{r4, r5, pc}
  b6:	682b      	ldr	r3, [r5, #0]
  b8:	4a12      	ldr	r2, [pc, #72]	; (104 <_ZNK9qindesign7network14EthernetServer9availableEv+0x104>)
  ba:	689b      	ldr	r3, [r3, #8]
  bc:	4293      	cmp	r3, r2
  be:	d119      	bne.n	f4 <_ZNK9qindesign7network14EthernetServer9availableEv+0xf4>
  c0:	68ab      	ldr	r3, [r5, #8]
  c2:	3b01      	subs	r3, #1
  c4:	60ab      	str	r3, [r5, #8]
  c6:	2b00      	cmp	r3, #0
  c8:	d1ef      	bne.n	aa <_ZNK9qindesign7network14EthernetServer9availableEv+0xaa>
  ca:	682b      	ldr	r3, [r5, #0]
  cc:	490e      	ldr	r1, [pc, #56]	; (108 <_ZNK9qindesign7network14EthernetServer9availableEv+0x108>)
  ce:	68da      	ldr	r2, [r3, #12]
  d0:	428a      	cmp	r2, r1
  d2:	d112      	bne.n	fa <_ZNK9qindesign7network14EthernetServer9availableEv+0xfa>
  d4:	685b      	ldr	r3, [r3, #4]
  d6:	4628      	mov	r0, r5
  d8:	4798      	blx	r3
  da:	e7e6      	b.n	aa <_ZNK9qindesign7network14EthernetServer9availableEv+0xaa>
  dc:	4628      	mov	r0, r5
  de:	4798      	blx	r3
  e0:	e7b9      	b.n	56 <_ZNK9qindesign7network14EthernetServer9availableEv+0x56>
  e2:	4628      	mov	r0, r5
  e4:	4798      	blx	r3
  e6:	e7cd      	b.n	84 <_ZNK9qindesign7network14EthernetServer9availableEv+0x84>
  e8:	4628      	mov	r0, r5
  ea:	4790      	blx	r2
  ec:	e7bf      	b.n	6e <_ZNK9qindesign7network14EthernetServer9availableEv+0x6e>
  ee:	4628      	mov	r0, r5
  f0:	4790      	blx	r2
  f2:	e7dd      	b.n	b0 <_ZNK9qindesign7network14EthernetServer9availableEv+0xb0>
  f4:	4628      	mov	r0, r5
  f6:	4798      	blx	r3
  f8:	e7e2      	b.n	c0 <_ZNK9qindesign7network14EthernetServer9availableEv+0xc0>
  fa:	4628      	mov	r0, r5
  fc:	4790      	blx	r2
  fe:	e7d4      	b.n	aa <_ZNK9qindesign7network14EthernetServer9availableEv+0xaa>
 100:	00000000 	.word	0x00000000
 104:	00000000 	.word	0x00000000
 108:	00000000 	.word	0x00000000

Disassembly of section .text._ZNK9qindesign7network14EthernetServercvbEv:

00000000 <_ZNK9qindesign7network14EthernetServercvbEv>:
   0:	89c0      	ldrh	r0, [r0, #14]
   2:	3800      	subs	r0, #0
   4:	bf18      	it	ne
   6:	2001      	movne	r0, #1
   8:	4770      	bx	lr
   a:	bf00      	nop

Disassembly of section .text.startup._GLOBAL__sub_I__ZN9qindesign7network14EthernetServerC2Ev:

00000000 <_GLOBAL__sub_I__ZN9qindesign7network14EthernetServerC2Ev>:
   0:	4a1a      	ldr	r2, [pc, #104]	; (6c <_GLOBAL__sub_I__ZN9qindesign7network14EthernetServerC2Ev+0x6c>)
   2:	6813      	ldr	r3, [r2, #0]
   4:	1c59      	adds	r1, r3, #1
   6:	b510      	push	{r4, lr}
   8:	6011      	str	r1, [r2, #0]
   a:	b1d3      	cbz	r3, 42 <_GLOBAL__sub_I__ZN9qindesign7network14EthernetServerC2Ev+0x42>
   c:	4a18      	ldr	r2, [pc, #96]	; (70 <_GLOBAL__sub_I__ZN9qindesign7network14EthernetServerC2Ev+0x70>)
   e:	4919      	ldr	r1, [pc, #100]	; (74 <_GLOBAL__sub_I__ZN9qindesign7network14EthernetServerC2Ev+0x74>)
  10:	4819      	ldr	r0, [pc, #100]	; (78 <_GLOBAL__sub_I__ZN9qindesign7network14EthernetServerC2Ev+0x78>)
  12:	f7ff fffe 	bl	0 <__aeabi_atexit>
  16:	4a19      	ldr	r2, [pc, #100]	; (7c <_GLOBAL__sub_I__ZN9qindesign7network14EthernetServerC2Ev+0x7c>)
  18:	6813      	ldr	r3, [r2, #0]
  1a:	1c59      	adds	r1, r3, #1
  1c:	6011      	str	r1, [r2, #0]
  1e:	b1f3      	cbz	r3, 5e <_GLOBAL__sub_I__ZN9qindesign7network14EthernetServerC2Ev+0x5e>
  20:	4a13      	ldr	r2, [pc, #76]	; (70 <_GLOBAL__sub_I__ZN9qindesign7network14EthernetServerC2Ev+0x70>)
  22:	4917      	ldr	r1, [pc, #92]	; (80 <_GLOBAL__sub_I__ZN9qindesign7network14EthernetServerC2Ev+0x80>)
  24:	4817      	ldr	r0, [pc, #92]	; (84 <_GLOBAL__sub_I__ZN9qindesign7network14EthernetServerC2Ev+0x84>)
  26:	f7ff fffe 	bl	0 <__aeabi_atexit>
  2a:	4a17      	ldr	r2, [pc, #92]	; (88 <_GLOBAL__sub_I__ZN9qindesign7network14EthernetServerC2Ev+0x88>)
  2c:	6813      	ldr	r3, [r2, #0]
  2e:	1c59      	adds	r1, r3, #1
  30:	6011      	str	r1, [r2, #0]
  32:	b16b      	cbz	r3, 50 <_GLOBAL__sub_I__ZN9qindesign7network14EthernetServerC2Ev+0x50>
  34:	4a0e      	ldr	r2, [pc, #56]	; (70 <_GLOBAL__sub_I__ZN9qindesign7network14EthernetServerC2Ev+0x70>)
  36:	4915      	ldr	r1, [pc, #84]	; (8c <_GLOBAL__sub_I__ZN9qindesign7network14EthernetServerC2Ev+0x8c>)
  38:	4815      	ldr	r0, [pc, #84]	; (90 <_GLOBAL__sub_I__ZN9qindesign7network14EthernetServerC2Ev+0x90>)
  3a:	e8bd 4010 	ldmia.w	sp!, {r4, lr}
  3e:	f7ff bffe 	b.w	0 <__aeabi_atexit>
  42:	4c14      	ldr	r4, [pc, #80]	; (94 <_GLOBAL__sub_I__ZN9qindesign7network14EthernetServerC2Ev+0x94>)
  44:	4620      	mov	r0, r4
  46:	f7ff fffe 	bl	0 <_ZN9qindesign7network9MDNSClassC1Ev>
  4a:	4b13      	ldr	r3, [pc, #76]	; (98 <_GLOBAL__sub_I__ZN9qindesign7network14EthernetServerC2Ev+0x98>)
  4c:	601c      	str	r4, [r3, #0]
  4e:	e7dd      	b.n	c <_GLOBAL__sub_I__ZN9qindesign7network14EthernetServerC2Ev+0xc>
  50:	4c12      	ldr	r4, [pc, #72]	; (9c <_GLOBAL__sub_I__ZN9qindesign7network14EthernetServerC2Ev+0x9c>)
  52:	4620      	mov	r0, r4
  54:	f7ff fffe 	bl	0 <_ZN9qindesign7network13EthernetClassC1Ev>
  58:	4b11      	ldr	r3, [pc, #68]	; (a0 <_GLOBAL__sub_I__ZN9qindesign7network14EthernetServerC2Ev+0xa0>)
  5a:	601c      	str	r4, [r3, #0]
  5c:	e7ea      	b.n	34 <_GLOBAL__sub_I__ZN9qindesign7network14EthernetServerC2Ev+0x34>
  5e:	4c11      	ldr	r4, [pc, #68]	; (a4 <_GLOBAL__sub_I__ZN9qindesign7network14EthernetServerC2Ev+0xa4>)
  60:	4620      	mov	r0, r4
  62:	f7ff fffe 	bl	0 <_ZN9qindesign8security12RandomDeviceC1Ev>
  66:	4b10      	ldr	r3, [pc, #64]	; (a8 <_GLOBAL__sub_I__ZN9qindesign7network14EthernetServerC2Ev+0xa8>)
  68:	601c      	str	r4, [r3, #0]
  6a:	e7d9      	b.n	20 <_GLOBAL__sub_I__ZN9qindesign7network14EthernetServerC2Ev+0x20>
  6c:	00000000 	.word	0x00000000
  70:	00000000 	.word	0x00000000
  74:	00000000 	.word	0x00000000
  78:	00000000 	.word	0x00000000
  7c:	00000000 	.word	0x00000000
  80:	00000000 	.word	0x00000000
  84:	00000000 	.word	0x00000000
  88:	00000000 	.word	0x00000000
  8c:	00000000 	.word	0x00000000
  90:	00000000 	.word	0x00000000
  94:	00000000 	.word	0x00000000
  98:	00000000 	.word	0x00000000
  9c:	00000000 	.word	0x00000000
  a0:	00000000 	.word	0x00000000
  a4:	00000000 	.word	0x00000000
  a8:	00000000 	.word	0x00000000
