
build/./libraries/QNEthernet/src/lwip/ipv4/autoip.c.o:     file format elf32-littlearm

SYMBOL TABLE:
00000000 l    df *ABS*	00000000 autoip.c
00000000 l    d  .text	00000000 .text
00000000 l    d  .data	00000000 .data
00000000 l    d  .bss	00000000 .bss
00000000 l    d  .rodata.autoip_set_struct.str1.4	00000000 .rodata.autoip_set_struct.str1.4
00000000 l    d  .text.autoip_set_struct	00000000 .text.autoip_set_struct
00000000 l    d  .rodata.autoip_remove_struct.str1.4	00000000 .rodata.autoip_remove_struct.str1.4
00000000 l    d  .text.autoip_remove_struct	00000000 .text.autoip_remove_struct
00000000 l    d  .text.autoip_start	00000000 .text.autoip_start
00000000 l     F .text.autoip_conflict_callback	0000007c autoip_conflict_callback
00000000 l    d  .text.autoip_conflict_callback	00000000 .text.autoip_conflict_callback
00000000 l    d  .text.autoip_network_changed_link_up	00000000 .text.autoip_network_changed_link_up
00000000 l    d  .text.autoip_network_changed_link_down	00000000 .text.autoip_network_changed_link_down
00000000 l    d  .text.autoip_stop	00000000 .text.autoip_stop
00000000 l    d  .text.autoip_supplied_address	00000000 .text.autoip_supplied_address
00000000 l    d  .text.autoip_accept_packet	00000000 .text.autoip_accept_packet
00000000 l    d  .rodata.__FUNCTION__.0	00000000 .rodata.__FUNCTION__.0
00000000 l     O .rodata.__FUNCTION__.0	0000000c __FUNCTION__.0
00000000 l    d  .rodata.__FUNCTION__.1	00000000 .rodata.__FUNCTION__.1
00000000 l     O .rodata.__FUNCTION__.1	0000000d __FUNCTION__.1
00000000 l    d  .rodata.__FUNCTION__.2	00000000 .rodata.__FUNCTION__.2
00000000 l     O .rodata.__FUNCTION__.2	00000015 __FUNCTION__.2
00000000 l    d  .rodata.__FUNCTION__.3	00000000 .rodata.__FUNCTION__.3
00000000 l     O .rodata.__FUNCTION__.3	00000012 __FUNCTION__.3
00000000 l    d  .comment	00000000 .comment
00000000 l    d  .ARM.attributes	00000000 .ARM.attributes
00000000 g     F .text.autoip_set_struct	00000070 autoip_set_struct
00000000         *UND*	00000000 qnethernet_hal_check_core_locking
00000000         *UND*	00000000 printf
00000000         *UND*	00000000 fflush
00000000         *UND*	00000000 qnethernet_hal_stdio_flush
00000000         *UND*	00000000 abort
00000000 g     F .text.autoip_remove_struct	00000068 autoip_remove_struct
00000000 g     F .text.autoip_start	000000b8 autoip_start
00000000         *UND*	00000000 acd_add
00000000         *UND*	00000000 acd_start
00000000         *UND*	00000000 mem_calloc
00000000         *UND*	00000000 netif_set_addr
00000000         *UND*	00000000 ip_addr_any
00000000 g     F .text.autoip_network_changed_link_up	00000002 autoip_network_changed_link_up
00000000 g     F .text.autoip_network_changed_link_down	00000044 autoip_network_changed_link_down
00000000 g     F .text.autoip_stop	00000044 autoip_stop
00000000 g     F .text.autoip_supplied_address	0000001e autoip_supplied_address
00000000 g     F .text.autoip_accept_packet	0000001e autoip_accept_packet


Contents of section .rodata.autoip_set_struct.str1.4:
 0000 6c696272 61726965 732f514e 45746865  libraries/QNEthe
 0010 726e6574 2f737263 2f6c7769 702f6970  rnet/src/lwip/ip
 0020 76342f61 75746f69 702e6300 6e657469  v4/autoip.c.neti
 0030 6620213d 204e554c 4c000000 41737365  f != NULL...Asse
 0040 7274696f 6e202225 73222066 61696c65  rtion "%s" faile
 0050 64206174 206c696e 65202564 20696e20  d at line %d in 
 0060 25730a00 6175746f 69702021 3d204e55  %s..autoip != NU
 0070 4c4c0000 6e657469 6620616c 72656164  LL..netif alread
 0080 79206861 73206120 73747275 63742061  y has a struct a
 0090 75746f69 70207365 7400               utoip set.      
Contents of section .text.autoip_set_struct:
 0000 38b50546 0c46144a 64211448 fff7feff  8..F.F.Jd!.H....
 0010 5db1e4b1 2b6ab3b9 23606360 a360e360  ]...+j..#`c`.`.`
 0020 23616361 a3612c62 38bd0c4b 65220c49  #aca.a,b8..Ke".I
 0030 0c48fff7 feff0020 fff7feff 0120fff7  .H..... ..... ..
 0040 fefffff7 feff054b 67220749 f0e7034b  .......Kg".I...K
 0050 66220649 ece700bf 00000000 00000000  f".I............
 0060 2c000000 3c000000 74000000 64000000  ,...<...t...d...
Contents of section .rodata.autoip_remove_struct.str1.4:
 0000 6e657469 66206861 73206e6f 20737472  netif has no str
 0010 75637420 6175746f 69702073 657400    uct autoip set. 
Contents of section .text.autoip_remove_struct:
 0000 38b50446 134a7921 1348fff7 feff24b1  8..F.Jy!.H....$.
 0010 256a85b1 00232362 38bd0f4b 7a220f49  %j...##b8..Kz".I
 0020 0f48fff7 feff2046 fff7feff 0120fff7  .H.... F..... ..
 0030 fefffff7 feff084b 7b220a49 0848fff7  .......K{".I.H..
 0040 feff2846 fff7feff 0120fff7 fefffff7  ..(F..... ......
 0050 feff00bf 00000000 00000000 2c000000  ............,...
 0060 3c000000 00000000                    <.......        
Contents of section .text.autoip_start:
 0000 30b50446 83b0254a f8212548 256afff7  0..F..%J.!%H%j..
 0010 feff94f8 3d30db07 3ad55db3 2b7913b1  ....=0..:.].+y..
 0020 002003b0 30bd05f1 08011e4a 20460191  . ..0......J F..
 0030 fff7feff 2a884ff6 a9630199 9a4208d1  ....*.O..c...B..
 0040 01232a68 20462b71 fff7feff 002003b0  .#*h F+q..... ..
 0050 30bd628f 144b1344 226a5279 1a44134b  0.b..K.D"jRy.D.K
 0060 92b21343 124a9342 0cd803f5 7e431bba  ...C.J.B....~C..
 0070 2b60e5e7 1c210120 fff7feff 054650b1  +`...!. .....FP.
 0080 2062cbe7 0b4a9342 88bfa3f5 7e43eee7   b...J.B....~C..
 0090 6ff00f00 c5e74ff0 ff30c2e7 00000000  o.....O..0......
 00a0 00000000 00000000 0001fea9 0000fea9  ................
 00b0 ff00fea9 fffefea9                    ........        
Contents of section .text.autoip_conflict_callback:
 0000 012970b5 056a82b0 04d00229 17d049b1  .)p..j.....)..I.
 0010 02b070bd 6b790133 6b7102b0 bde87040  ..p.ky.3kq....p@
 0020 fff7febf 4ff6ff72 02240191 01ab0092  ....O..r.$......
 0030 29466a46 2c71fff7 feff02b0 70bd0026  )FjF,q......p..&
 0040 04460b4a 4ff4ac71 0a482e60 fff7feff  .F.JO..q.H.`....
 0050 4ff6a963 2e712288 9a42d9d1 064b2046  O..c.q"..B...K F
 0060 1a461946 02b0bde8 7040fff7 febf00bf  .F.F....p@......
 0070 00000000 00000000 00000000           ............    
Contents of section .text.autoip_network_changed_link_up:
 0000 704700bf                             pG..            
Contents of section .text.autoip_network_changed_link_down:
 0000 70b5056a 0db12b79 03b970bd 04460a4a  p..j..+y..p..F.J
 0010 4ff4ac71 0948fff7 feff0022 4ff6a963  O..q.H....."O..c
 0020 2a712288 9a42f0d1 054b2046 1a461946  *q"..B...K F.F.F
 0030 bde87040 fff7febf 00000000 00000000  ..p@............
 0040 00000000                             ....            
Contents of section .text.autoip_stop:
 0000 38b50446 0c4a4ff4 ac710c48 256afff7  8..F.JO..q.H%j..
 0010 feff35b1 00224ff6 a9632a71 22889a42  ..5.."O..c*q"..B
 0020 01d00020 38bd064b 20461a46 1946fff7  ... 8..K F.F.F..
 0030 feff0020 38bd00bf 00000000 00000000  ... 8...........
 0040 00000000                             ....            
Contents of section .text.autoip_supplied_address:
 0000 036a1bb1 01681a68 914201d0 00207047  .j...h.h.B... pG
 0010 1879a0f1 0200b0fa 80f04009 704700bf  .y........@.pG..
Contents of section .text.autoip_accept_packet:
 0000 006a20b1 0a680368 9a4201d0 00207047  .j ..h.h.B... pG
 0010 0079a0f1 0200b0fa 80f04009 704700bf  .y........@.pG..
Contents of section .rodata.__FUNCTION__.0:
 0000 6175746f 69705f73 746f7000           autoip_stop.    
Contents of section .rodata.__FUNCTION__.1:
 0000 6175746f 69705f73 74617274 00        autoip_start.   
Contents of section .rodata.__FUNCTION__.2:
 0000 6175746f 69705f72 656d6f76 655f7374  autoip_remove_st
 0010 72756374 00                          ruct.           
Contents of section .rodata.__FUNCTION__.3:
 0000 6175746f 69705f73 65745f73 74727563  autoip_set_struc
 0010 7400                                 t.              
Contents of section .comment:
 0000 00474343 3a202841 726d2047 4e552054  .GCC: (Arm GNU T
 0010 6f6f6c63 6861696e 2031312e 332e5265  oolchain 11.3.Re
 0020 6c312920 31312e33 2e312032 30323230  l1) 11.3.1 20220
 0030 37313200                             712.            
Contents of section .ARM.attributes:
 0000 41310000 00616561 62690001 27000000  A1...aeabi..'...
 0010 0537452d 4d00060d 074d0902 0a081204  .7E-M....M......
 0020 14011501 17031801 19011a01 1c011e02  ................
 0030 2201                                 ".              

Disassembly of section .text.autoip_set_struct:

00000000 <autoip_set_struct>:
   0:	b538      	push	{r3, r4, r5, lr}
   2:	4605      	mov	r5, r0
   4:	460c      	mov	r4, r1
   6:	4a14      	ldr	r2, [pc, #80]	; (58 <autoip_set_struct+0x58>)
   8:	2164      	movs	r1, #100	; 0x64
   a:	4814      	ldr	r0, [pc, #80]	; (5c <autoip_set_struct+0x5c>)
   c:	f7ff fffe 	bl	0 <qnethernet_hal_check_core_locking>
  10:	b15d      	cbz	r5, 2a <autoip_set_struct+0x2a>
  12:	b1e4      	cbz	r4, 4e <autoip_set_struct+0x4e>
  14:	6a2b      	ldr	r3, [r5, #32]
  16:	b9b3      	cbnz	r3, 46 <autoip_set_struct+0x46>
  18:	6023      	str	r3, [r4, #0]
  1a:	6063      	str	r3, [r4, #4]
  1c:	60a3      	str	r3, [r4, #8]
  1e:	60e3      	str	r3, [r4, #12]
  20:	6123      	str	r3, [r4, #16]
  22:	6163      	str	r3, [r4, #20]
  24:	61a3      	str	r3, [r4, #24]
  26:	622c      	str	r4, [r5, #32]
  28:	bd38      	pop	{r3, r4, r5, pc}
  2a:	4b0c      	ldr	r3, [pc, #48]	; (5c <autoip_set_struct+0x5c>)
  2c:	2265      	movs	r2, #101	; 0x65
  2e:	490c      	ldr	r1, [pc, #48]	; (60 <autoip_set_struct+0x60>)
  30:	480c      	ldr	r0, [pc, #48]	; (64 <autoip_set_struct+0x64>)
  32:	f7ff fffe 	bl	0 <printf>
  36:	2000      	movs	r0, #0
  38:	f7ff fffe 	bl	0 <fflush>
  3c:	2001      	movs	r0, #1
  3e:	f7ff fffe 	bl	0 <qnethernet_hal_stdio_flush>
  42:	f7ff fffe 	bl	0 <abort>
  46:	4b05      	ldr	r3, [pc, #20]	; (5c <autoip_set_struct+0x5c>)
  48:	2267      	movs	r2, #103	; 0x67
  4a:	4907      	ldr	r1, [pc, #28]	; (68 <autoip_set_struct+0x68>)
  4c:	e7f0      	b.n	30 <autoip_set_struct+0x30>
  4e:	4b03      	ldr	r3, [pc, #12]	; (5c <autoip_set_struct+0x5c>)
  50:	2266      	movs	r2, #102	; 0x66
  52:	4906      	ldr	r1, [pc, #24]	; (6c <autoip_set_struct+0x6c>)
  54:	e7ec      	b.n	30 <autoip_set_struct+0x30>
  56:	bf00      	nop
  58:	00000000 	.word	0x00000000
  5c:	00000000 	.word	0x00000000
  60:	0000002c 	.word	0x0000002c
  64:	0000003c 	.word	0x0000003c
  68:	00000074 	.word	0x00000074
  6c:	00000064 	.word	0x00000064

Disassembly of section .text.autoip_remove_struct:

00000000 <autoip_remove_struct>:
   0:	b538      	push	{r3, r4, r5, lr}
   2:	4604      	mov	r4, r0
   4:	4a13      	ldr	r2, [pc, #76]	; (54 <autoip_remove_struct+0x54>)
   6:	2179      	movs	r1, #121	; 0x79
   8:	4813      	ldr	r0, [pc, #76]	; (58 <autoip_remove_struct+0x58>)
   a:	f7ff fffe 	bl	0 <qnethernet_hal_check_core_locking>
   e:	b124      	cbz	r4, 1a <autoip_remove_struct+0x1a>
  10:	6a25      	ldr	r5, [r4, #32]
  12:	b185      	cbz	r5, 36 <autoip_remove_struct+0x36>
  14:	2300      	movs	r3, #0
  16:	6223      	str	r3, [r4, #32]
  18:	bd38      	pop	{r3, r4, r5, pc}
  1a:	4b0f      	ldr	r3, [pc, #60]	; (58 <autoip_remove_struct+0x58>)
  1c:	227a      	movs	r2, #122	; 0x7a
  1e:	490f      	ldr	r1, [pc, #60]	; (5c <autoip_remove_struct+0x5c>)
  20:	480f      	ldr	r0, [pc, #60]	; (60 <autoip_remove_struct+0x60>)
  22:	f7ff fffe 	bl	0 <printf>
  26:	4620      	mov	r0, r4
  28:	f7ff fffe 	bl	0 <fflush>
  2c:	2001      	movs	r0, #1
  2e:	f7ff fffe 	bl	0 <qnethernet_hal_stdio_flush>
  32:	f7ff fffe 	bl	0 <abort>
  36:	4b08      	ldr	r3, [pc, #32]	; (58 <autoip_remove_struct+0x58>)
  38:	227b      	movs	r2, #123	; 0x7b
  3a:	490a      	ldr	r1, [pc, #40]	; (64 <autoip_remove_struct+0x64>)
  3c:	4808      	ldr	r0, [pc, #32]	; (60 <autoip_remove_struct+0x60>)
  3e:	f7ff fffe 	bl	0 <printf>
  42:	4628      	mov	r0, r5
  44:	f7ff fffe 	bl	0 <fflush>
  48:	2001      	movs	r0, #1
  4a:	f7ff fffe 	bl	0 <qnethernet_hal_stdio_flush>
  4e:	f7ff fffe 	bl	0 <abort>
  52:	bf00      	nop
  54:	00000000 	.word	0x00000000
  58:	00000000 	.word	0x00000000
  5c:	0000002c 	.word	0x0000002c
  60:	0000003c 	.word	0x0000003c
  64:	00000000 	.word	0x00000000

Disassembly of section .text.autoip_start:

00000000 <autoip_start>:
   0:	b530      	push	{r4, r5, lr}
   2:	4604      	mov	r4, r0
   4:	b083      	sub	sp, #12
   6:	4a25      	ldr	r2, [pc, #148]	; (9c <autoip_start+0x9c>)
   8:	21f8      	movs	r1, #248	; 0xf8
   a:	4825      	ldr	r0, [pc, #148]	; (a0 <autoip_start+0xa0>)
   c:	6a25      	ldr	r5, [r4, #32]
   e:	f7ff fffe 	bl	0 <qnethernet_hal_check_core_locking>
  12:	f894 303d 	ldrb.w	r3, [r4, #61]	; 0x3d
  16:	07db      	lsls	r3, r3, #31
  18:	d53a      	bpl.n	90 <autoip_start+0x90>
  1a:	b35d      	cbz	r5, 74 <autoip_start+0x74>
  1c:	792b      	ldrb	r3, [r5, #4]
  1e:	b113      	cbz	r3, 26 <autoip_start+0x26>
  20:	2000      	movs	r0, #0
  22:	b003      	add	sp, #12
  24:	bd30      	pop	{r4, r5, pc}
  26:	f105 0108 	add.w	r1, r5, #8
  2a:	4a1e      	ldr	r2, [pc, #120]	; (a4 <autoip_start+0xa4>)
  2c:	4620      	mov	r0, r4
  2e:	9101      	str	r1, [sp, #4]
  30:	f7ff fffe 	bl	0 <acd_add>
  34:	882a      	ldrh	r2, [r5, #0]
  36:	f64f 63a9 	movw	r3, #65193	; 0xfea9
  3a:	9901      	ldr	r1, [sp, #4]
  3c:	429a      	cmp	r2, r3
  3e:	d108      	bne.n	52 <autoip_start+0x52>
  40:	2301      	movs	r3, #1
  42:	682a      	ldr	r2, [r5, #0]
  44:	4620      	mov	r0, r4
  46:	712b      	strb	r3, [r5, #4]
  48:	f7ff fffe 	bl	0 <acd_start>
  4c:	2000      	movs	r0, #0
  4e:	b003      	add	sp, #12
  50:	bd30      	pop	{r4, r5, pc}
  52:	8f62      	ldrh	r2, [r4, #58]	; 0x3a
  54:	4b14      	ldr	r3, [pc, #80]	; (a8 <autoip_start+0xa8>)
  56:	4413      	add	r3, r2
  58:	6a22      	ldr	r2, [r4, #32]
  5a:	7952      	ldrb	r2, [r2, #5]
  5c:	441a      	add	r2, r3
  5e:	4b13      	ldr	r3, [pc, #76]	; (ac <autoip_start+0xac>)
  60:	b292      	uxth	r2, r2
  62:	4313      	orrs	r3, r2
  64:	4a12      	ldr	r2, [pc, #72]	; (b0 <autoip_start+0xb0>)
  66:	4293      	cmp	r3, r2
  68:	d80c      	bhi.n	84 <autoip_start+0x84>
  6a:	f503 437e 	add.w	r3, r3, #65024	; 0xfe00
  6e:	ba1b      	rev	r3, r3
  70:	602b      	str	r3, [r5, #0]
  72:	e7e5      	b.n	40 <autoip_start+0x40>
  74:	211c      	movs	r1, #28
  76:	2001      	movs	r0, #1
  78:	f7ff fffe 	bl	0 <mem_calloc>
  7c:	4605      	mov	r5, r0
  7e:	b150      	cbz	r0, 96 <autoip_start+0x96>
  80:	6220      	str	r0, [r4, #32]
  82:	e7cb      	b.n	1c <autoip_start+0x1c>
  84:	4a0b      	ldr	r2, [pc, #44]	; (b4 <autoip_start+0xb4>)
  86:	4293      	cmp	r3, r2
  88:	bf88      	it	hi
  8a:	f5a3 437e 	subhi.w	r3, r3, #65024	; 0xfe00
  8e:	e7ee      	b.n	6e <autoip_start+0x6e>
  90:	f06f 000f 	mvn.w	r0, #15
  94:	e7c5      	b.n	22 <autoip_start+0x22>
  96:	f04f 30ff 	mov.w	r0, #4294967295	; 0xffffffff
  9a:	e7c2      	b.n	22 <autoip_start+0x22>
  9c:	00000000 	.word	0x00000000
  a0:	00000000 	.word	0x00000000
  a4:	00000000 	.word	0x00000000
  a8:	a9fe0100 	.word	0xa9fe0100
  ac:	a9fe0000 	.word	0xa9fe0000
  b0:	a9fe00ff 	.word	0xa9fe00ff
  b4:	a9fefeff 	.word	0xa9fefeff

Disassembly of section .text.autoip_conflict_callback:

00000000 <autoip_conflict_callback>:
   0:	2901      	cmp	r1, #1
   2:	b570      	push	{r4, r5, r6, lr}
   4:	6a05      	ldr	r5, [r0, #32]
   6:	b082      	sub	sp, #8
   8:	d004      	beq.n	14 <autoip_conflict_callback+0x14>
   a:	2902      	cmp	r1, #2
   c:	d017      	beq.n	3e <autoip_conflict_callback+0x3e>
   e:	b149      	cbz	r1, 24 <autoip_conflict_callback+0x24>
  10:	b002      	add	sp, #8
  12:	bd70      	pop	{r4, r5, r6, pc}
  14:	796b      	ldrb	r3, [r5, #5]
  16:	3301      	adds	r3, #1
  18:	716b      	strb	r3, [r5, #5]
  1a:	b002      	add	sp, #8
  1c:	e8bd 4070 	ldmia.w	sp!, {r4, r5, r6, lr}
  20:	f7ff bffe 	b.w	0 <autoip_conflict_callback>
  24:	f64f 72ff 	movw	r2, #65535	; 0xffff
  28:	2402      	movs	r4, #2
  2a:	9101      	str	r1, [sp, #4]
  2c:	ab01      	add	r3, sp, #4
  2e:	9200      	str	r2, [sp, #0]
  30:	4629      	mov	r1, r5
  32:	466a      	mov	r2, sp
  34:	712c      	strb	r4, [r5, #4]
  36:	f7ff fffe 	bl	0 <netif_set_addr>
  3a:	b002      	add	sp, #8
  3c:	bd70      	pop	{r4, r5, r6, pc}
  3e:	2600      	movs	r6, #0
  40:	4604      	mov	r4, r0
  42:	4a0b      	ldr	r2, [pc, #44]	; (70 <autoip_conflict_callback+0x70>)
  44:	f44f 71ac 	mov.w	r1, #344	; 0x158
  48:	480a      	ldr	r0, [pc, #40]	; (74 <autoip_conflict_callback+0x74>)
  4a:	602e      	str	r6, [r5, #0]
  4c:	f7ff fffe 	bl	0 <qnethernet_hal_check_core_locking>
  50:	f64f 63a9 	movw	r3, #65193	; 0xfea9
  54:	712e      	strb	r6, [r5, #4]
  56:	8822      	ldrh	r2, [r4, #0]
  58:	429a      	cmp	r2, r3
  5a:	d1d9      	bne.n	10 <autoip_conflict_callback+0x10>
  5c:	4b06      	ldr	r3, [pc, #24]	; (78 <autoip_conflict_callback+0x78>)
  5e:	4620      	mov	r0, r4
  60:	461a      	mov	r2, r3
  62:	4619      	mov	r1, r3
  64:	b002      	add	sp, #8
  66:	e8bd 4070 	ldmia.w	sp!, {r4, r5, r6, lr}
  6a:	f7ff bffe 	b.w	0 <netif_set_addr>
  6e:	bf00      	nop
  70:	00000000 	.word	0x00000000
  74:	00000000 	.word	0x00000000
  78:	00000000 	.word	0x00000000

Disassembly of section .text.autoip_network_changed_link_up:

00000000 <autoip_network_changed_link_up>:
   0:	4770      	bx	lr
   2:	bf00      	nop

Disassembly of section .text.autoip_network_changed_link_down:

00000000 <autoip_network_changed_link_down>:
   0:	b570      	push	{r4, r5, r6, lr}
   2:	6a05      	ldr	r5, [r0, #32]
   4:	b10d      	cbz	r5, a <autoip_network_changed_link_down+0xa>
   6:	792b      	ldrb	r3, [r5, #4]
   8:	b903      	cbnz	r3, c <autoip_network_changed_link_down+0xc>
   a:	bd70      	pop	{r4, r5, r6, pc}
   c:	4604      	mov	r4, r0
   e:	4a0a      	ldr	r2, [pc, #40]	; (38 <autoip_network_changed_link_down+0x38>)
  10:	f44f 71ac 	mov.w	r1, #344	; 0x158
  14:	4809      	ldr	r0, [pc, #36]	; (3c <autoip_network_changed_link_down+0x3c>)
  16:	f7ff fffe 	bl	0 <qnethernet_hal_check_core_locking>
  1a:	2200      	movs	r2, #0
  1c:	f64f 63a9 	movw	r3, #65193	; 0xfea9
  20:	712a      	strb	r2, [r5, #4]
  22:	8822      	ldrh	r2, [r4, #0]
  24:	429a      	cmp	r2, r3
  26:	d1f0      	bne.n	a <autoip_network_changed_link_down+0xa>
  28:	4b05      	ldr	r3, [pc, #20]	; (40 <autoip_network_changed_link_down+0x40>)
  2a:	4620      	mov	r0, r4
  2c:	461a      	mov	r2, r3
  2e:	4619      	mov	r1, r3
  30:	e8bd 4070 	ldmia.w	sp!, {r4, r5, r6, lr}
  34:	f7ff bffe 	b.w	0 <netif_set_addr>
  38:	00000000 	.word	0x00000000
  3c:	00000000 	.word	0x00000000
  40:	00000000 	.word	0x00000000

Disassembly of section .text.autoip_stop:

00000000 <autoip_stop>:
   0:	b538      	push	{r3, r4, r5, lr}
   2:	4604      	mov	r4, r0
   4:	4a0c      	ldr	r2, [pc, #48]	; (38 <autoip_stop+0x38>)
   6:	f44f 71ac 	mov.w	r1, #344	; 0x158
   a:	480c      	ldr	r0, [pc, #48]	; (3c <autoip_stop+0x3c>)
   c:	6a25      	ldr	r5, [r4, #32]
   e:	f7ff fffe 	bl	0 <qnethernet_hal_check_core_locking>
  12:	b135      	cbz	r5, 22 <autoip_stop+0x22>
  14:	2200      	movs	r2, #0
  16:	f64f 63a9 	movw	r3, #65193	; 0xfea9
  1a:	712a      	strb	r2, [r5, #4]
  1c:	8822      	ldrh	r2, [r4, #0]
  1e:	429a      	cmp	r2, r3
  20:	d001      	beq.n	26 <autoip_stop+0x26>
  22:	2000      	movs	r0, #0
  24:	bd38      	pop	{r3, r4, r5, pc}
  26:	4b06      	ldr	r3, [pc, #24]	; (40 <autoip_stop+0x40>)
  28:	4620      	mov	r0, r4
  2a:	461a      	mov	r2, r3
  2c:	4619      	mov	r1, r3
  2e:	f7ff fffe 	bl	0 <netif_set_addr>
  32:	2000      	movs	r0, #0
  34:	bd38      	pop	{r3, r4, r5, pc}
  36:	bf00      	nop
  38:	00000000 	.word	0x00000000
  3c:	00000000 	.word	0x00000000
  40:	00000000 	.word	0x00000000

Disassembly of section .text.autoip_supplied_address:

00000000 <autoip_supplied_address>:
   0:	6a03      	ldr	r3, [r0, #32]
   2:	b11b      	cbz	r3, c <autoip_supplied_address+0xc>
   4:	6801      	ldr	r1, [r0, #0]
   6:	681a      	ldr	r2, [r3, #0]
   8:	4291      	cmp	r1, r2
   a:	d001      	beq.n	10 <autoip_supplied_address+0x10>
   c:	2000      	movs	r0, #0
   e:	4770      	bx	lr
  10:	7918      	ldrb	r0, [r3, #4]
  12:	f1a0 0002 	sub.w	r0, r0, #2
  16:	fab0 f080 	clz	r0, r0
  1a:	0940      	lsrs	r0, r0, #5
  1c:	4770      	bx	lr
  1e:	bf00      	nop

Disassembly of section .text.autoip_accept_packet:

00000000 <autoip_accept_packet>:
   0:	6a00      	ldr	r0, [r0, #32]
   2:	b120      	cbz	r0, e <autoip_accept_packet+0xe>
   4:	680a      	ldr	r2, [r1, #0]
   6:	6803      	ldr	r3, [r0, #0]
   8:	429a      	cmp	r2, r3
   a:	d001      	beq.n	10 <autoip_accept_packet+0x10>
   c:	2000      	movs	r0, #0
   e:	4770      	bx	lr
  10:	7900      	ldrb	r0, [r0, #4]
  12:	f1a0 0002 	sub.w	r0, r0, #2
  16:	fab0 f080 	clz	r0, r0
  1a:	0940      	lsrs	r0, r0, #5
  1c:	4770      	bx	lr
  1e:	bf00      	nop
