
build/./libraries/QNEthernet/src/lwip/ipv4/dhcp.c.o:     file format elf32-littlearm

SYMBOL TABLE:
00000000 l    df *ABS*	00000000 dhcp.c
00000000 l    d  .text	00000000 .text
00000000 l    d  .data	00000000 .data
00000000 l    d  .bss	00000000 .bss
00000000 l    d  .rodata.dhcp_create_msg.str1.4	00000000 .rodata.dhcp_create_msg.str1.4
00000000 l    d  .text.dhcp_create_msg	00000000 .text.dhcp_create_msg
00000000 l     F .text.dhcp_create_msg	00000150 dhcp_create_msg
00000000 l    d  .rodata.dhcp_inc_pcb_refcount.str1.4	00000000 .rodata.dhcp_inc_pcb_refcount.str1.4
00000000 l    d  .text.dhcp_inc_pcb_refcount	00000000 .text.dhcp_inc_pcb_refcount
00000000 l     F .text.dhcp_inc_pcb_refcount	00000084 dhcp_inc_pcb_refcount
00000000 l     F .text.dhcp_recv	00000554 dhcp_recv
00000000 l    d  .text.dhcp_bind	00000000 .text.dhcp_bind
00000000 l     F .text.dhcp_bind	0000010c dhcp_bind
00000000 l    d  .rodata.dhcp_option_short.part.0.str1.4	00000000 .rodata.dhcp_option_short.part.0.str1.4
00000000 l    d  .text.dhcp_option_short.part.0	00000000 .text.dhcp_option_short.part.0
00000000 l     F .text.dhcp_option_short.part.0	0000002c dhcp_option_short.part.0
00000000 l    d  .rodata.dhcp_option.part.0.str1.4	00000000 .rodata.dhcp_option.part.0.str1.4
00000000 l    d  .text.dhcp_option.part.0	00000000 .text.dhcp_option.part.0
00000000 l     F .text.dhcp_option.part.0	0000002c dhcp_option.part.0
00000000 l    d  .rodata.dhcp_option_byte.part.0.str1.4	00000000 .rodata.dhcp_option_byte.part.0.str1.4
00000000 l    d  .text.dhcp_option_byte.part.0	00000000 .text.dhcp_option_byte.part.0
00000000 l     F .text.dhcp_option_byte.part.0	0000002c dhcp_option_byte.part.0
00000000 l    d  .rodata.dhcp_option_long.str1.4	00000000 .rodata.dhcp_option_long.str1.4
00000000 l    d  .text.dhcp_option_long	00000000 .text.dhcp_option_long
00000000 l     F .text.dhcp_option_long	00000060 dhcp_option_long
00000000 l    d  .rodata.dhcp_dec_pcb_refcount.str1.4	00000000 .rodata.dhcp_dec_pcb_refcount.str1.4
00000000 l    d  .text.dhcp_dec_pcb_refcount	00000000 .text.dhcp_dec_pcb_refcount
00000000 l     F .text.dhcp_dec_pcb_refcount	00000050 dhcp_dec_pcb_refcount
00000000 l    d  .text.dhcp_handle_ack.isra.0	00000000 .text.dhcp_handle_ack.isra.0
00000000 l     F .text.dhcp_handle_ack.isra.0	0000009c dhcp_handle_ack.isra.0
00000000 l    d  .rodata.dhcp_option_hostname.isra.0.str1.4	00000000 .rodata.dhcp_option_hostname.isra.0.str1.4
00000000 l    d  .text.dhcp_option_hostname.isra.0	00000000 .text.dhcp_option_hostname.isra.0
00000000 l     F .text.dhcp_option_hostname.isra.0	000000a8 dhcp_option_hostname.isra.0
00000000 l    d  .text.dhcp_discover	00000000 .text.dhcp_discover
00000000 l     F .text.dhcp_discover	00000190 dhcp_discover
00000000 l    d  .text.dhcp_select.isra.0	00000000 .text.dhcp_select.isra.0
00000000 l     F .text.dhcp_select.isra.0	000001d4 dhcp_select.isra.0
00000000 l    d  .text.dhcp_recv	00000000 .text.dhcp_recv
00000000 l    d  .text.dhcp_reboot.isra.0	00000000 .text.dhcp_reboot.isra.0
00000000 l     F .text.dhcp_reboot.isra.0	000001c4 dhcp_reboot.isra.0
00000000 l    d  .rodata.dhcp_set_struct.str1.4	00000000 .rodata.dhcp_set_struct.str1.4
00000000 l    d  .text.dhcp_set_struct	00000000 .text.dhcp_set_struct
00000000 l    d  .text.dhcp_cleanup	00000000 .text.dhcp_cleanup
00000000 l    d  .text.dhcp_inform	00000000 .text.dhcp_inform
00000000 l    d  .rodata.dhcp_network_changed_link_up.str1.4	00000000 .rodata.dhcp_network_changed_link_up.str1.4
00000000 l    d  .text.dhcp_network_changed_link_up	00000000 .text.dhcp_network_changed_link_up
00000000 l    d  .text.dhcp_renew	00000000 .text.dhcp_renew
00000000 l    d  .text.dhcp_release_and_stop	00000000 .text.dhcp_release_and_stop
00000000 l    d  .text.dhcp_start	00000000 .text.dhcp_start
00000000 l    d  .text.dhcp_coarse_tmr	00000000 .text.dhcp_coarse_tmr
00000000 l    d  .text.dhcp_fine_tmr	00000000 .text.dhcp_fine_tmr
00000000 l    d  .text.dhcp_release	00000000 .text.dhcp_release
00000000 l    d  .text.dhcp_stop	00000000 .text.dhcp_stop
00000000 l    d  .text.dhcp_supplied_address	00000000 .text.dhcp_supplied_address
00000000 l    d  .bss.dhcp_pcb	00000000 .bss.dhcp_pcb
00000000 l     O .bss.dhcp_pcb	00000004 dhcp_pcb
00000000 l    d  .bss.dhcp_pcb_refcount	00000000 .bss.dhcp_pcb_refcount
00000000 l     O .bss.dhcp_pcb_refcount	00000001 dhcp_pcb_refcount
00000000 l    d  .bss.dhcp_rx_options_given	00000000 .bss.dhcp_rx_options_given
00000000 l     O .bss.dhcp_rx_options_given	0000000a dhcp_rx_options_given
00000000 l    d  .bss.dhcp_rx_options_val	00000000 .bss.dhcp_rx_options_val
00000000 l     O .bss.dhcp_rx_options_val	00000028 dhcp_rx_options_val
00000000 l    d  .bss.xid.6	00000000 .bss.xid.6
00000000 l     O .bss.xid.6	00000004 xid.6
00000000 l    d  .rodata.__FUNCTION__.0	00000000 .rodata.__FUNCTION__.0
00000000 l     O .rodata.__FUNCTION__.0	00000016 __FUNCTION__.0
00000000 l    d  .rodata.__FUNCTION__.1	00000000 .rodata.__FUNCTION__.1
00000000 l     O .rodata.__FUNCTION__.1	0000000b __FUNCTION__.1
00000000 l    d  .rodata.__FUNCTION__.2	00000000 .rodata.__FUNCTION__.2
00000000 l     O .rodata.__FUNCTION__.2	0000000c __FUNCTION__.2
00000000 l    d  .rodata.__FUNCTION__.3	00000000 .rodata.__FUNCTION__.3
00000000 l     O .rodata.__FUNCTION__.3	0000000b __FUNCTION__.3
00000000 l    d  .rodata.__FUNCTION__.4	00000000 .rodata.__FUNCTION__.4
00000000 l     O .rodata.__FUNCTION__.4	0000000d __FUNCTION__.4
00000000 l    d  .rodata.__FUNCTION__.5	00000000 .rodata.__FUNCTION__.5
00000000 l     O .rodata.__FUNCTION__.5	00000010 __FUNCTION__.5
00000000 l    d  .rodata.dhcp_discover_request_options	00000000 .rodata.dhcp_discover_request_options
00000000 l     O .rodata.dhcp_discover_request_options	00000004 dhcp_discover_request_options
00000000 l    d  .comment	00000000 .comment
00000000 l    d  .ARM.attributes	00000000 .ARM.attributes
00000000         *UND*	00000000 pbuf_alloc
00000000         *UND*	00000000 memset
00000000         *UND*	00000000 qnethernet_hal_rand
00000000         *UND*	00000000 printf
00000000         *UND*	00000000 fflush
00000000         *UND*	00000000 qnethernet_hal_stdio_flush
00000000         *UND*	00000000 abort
00000000         *UND*	00000000 udp_new
00000000         *UND*	00000000 udp_bind
00000000         *UND*	00000000 udp_connect
00000000         *UND*	00000000 udp_recv
00000000         *UND*	00000000 ip_addr_any
00000000         *UND*	00000000 netif_set_addr
00000000         *UND*	00000000 udp_remove
00000000         *UND*	00000000 dns_setserver
00000000         *UND*	00000000 strlen
00000000         *UND*	00000000 pbuf_realloc
00000000         *UND*	00000000 udp_sendto_if_src
00000000         *UND*	00000000 pbuf_free
00000000         *UND*	00000000 autoip_start
00000000         *UND*	00000000 ip_addr_broadcast
00000000         *UND*	00000000 ip_data
00000000         *UND*	00000000 pbuf_copy_partial
00000000         *UND*	00000000 udp_sendto_if
00000000 g     F .text.dhcp_set_struct	00000074 dhcp_set_struct
00000000         *UND*	00000000 qnethernet_hal_check_core_locking
00000000 g     F .text.dhcp_cleanup	0000005c dhcp_cleanup
00000000         *UND*	00000000 mem_free
00000000 g     F .text.dhcp_inform	000000f8 dhcp_inform
00000000 g     F .text.dhcp_network_changed_link_up	00000060 dhcp_network_changed_link_up
00000000 g     F .text.dhcp_renew	000001b4 dhcp_renew
00000000 g     F .text.dhcp_release_and_stop	00000128 dhcp_release_and_stop
00000000 g     F .text.dhcp_start	0000009c dhcp_start
00000000         *UND*	00000000 mem_malloc
00000000 g     F .text.dhcp_coarse_tmr	00000230 dhcp_coarse_tmr
00000000         *UND*	00000000 netif_default
00000000 g     F .text.dhcp_fine_tmr	00000064 dhcp_fine_tmr
00000000 g     F .text.dhcp_release	0000000a dhcp_release
00000000 g     F .text.dhcp_stop	00000004 dhcp_stop
00000000 g     F .text.dhcp_supplied_address	00000018 dhcp_supplied_address


Contents of section .rodata.dhcp_create_msg.str1.4:
 0000 6c696272 61726965 732f514e 45746865  libraries/QNEthe
 0010 726e6574 2f737263 2f6c7769 702f6970  rnet/src/lwip/ip
 0020 76342f64 6863702e 63000000 64686370  v4/dhcp.c...dhcp
 0030 5f637265 6174655f 6d73673a 20636865  _create_msg: che
 0040 636b2074 68617420 66697273 74207062  ck that first pb
 0050 75662063 616e2068 6f6c6420 73747275  uf can hold stru
 0060 63742064 6863705f 6d736700 41737365  ct dhcp_msg.Asse
 0070 7274696f 6e202225 73222066 61696c65  rtion "%s" faile
 0080 64206174 206c696e 65202564 20696e20  d at line %d in 
 0090 25730a00                             %s..            
Contents of section .text.dhcp_create_msg:
 0000 2de9f843 002974d0 b0fa80f5 04466d09  -..C.)t......Fm.
 0010 00286ed0 0e469146 4ff49a71 4ff42072  .(n..F.FO..qO. r
 0020 38209846 fff7feff 07460028 61d04389  8 .F.....F.(a.C.
 0030 b3f59a7f 74d3b9f1 030f42d0 b379002b  ....t.....B..y.+
 0040 69d03f4b 18687d68 4ff49a72 30600021  i.?K.h}hO..r0`.!
 0050 2846fff7 feff0123 2b706b70 94f83c30  (F.....#+pkp..<0
 0060 ab704ff4 88733268 23fa09f3 12badb07  .pO..s2h#.......
 0070 6a6042d5 2368eb60 04f13501 05f11b0c  j`B.#h.`..5.....
 0080 3b3411f8 01efa142 0cf801ef f9d16323  ;4.....B......c#
 0090 6ff07d02 85f8f290 384685f8 ec3085f8  o.}.....8F...0..
 00a0 ef303523 85f8ed20 532285f8 f0300123  .05#... S"...0.#
 00b0 85f8ee20 85f8f130 0323a8f8 0030bde8  ... ...0.#...0..
 00c0 f8837379 032b1fd0 29467d68 4ff49a72  ..sy.+..)F}hO..r
 00d0 2846fff7 feff0123 2b706b70 94f83c30  (F.....#+pkp..<0
 00e0 ab703368 1bba6b60 7379043b 012bc3d8  .p3h..k`sy.;.+..
 00f0 c0e70027 3846bde8 f883b9f1 070fb9d0  ...'8F..........
 0100 b9f1030f b8d1efe7 b37923b1 0c4b2946  .........y#..K)F
 0110 1b683360 d9e7fff7 feff094b 186092e7  .h3`.......K.`..
 0120 084b40f2 7a720849 0848fff7 feff2846  .K@.zr.I.H....(F
 0130 fff7feff 0120fff7 fefffff7 feff00bf  ..... ..........
 0140 00000000 00000000 2c000000 6c000000  ........,...l...
Contents of section .rodata.dhcp_inc_pcb_refcount.str1.4:
 0000 64686370 5f696e63 5f706362 5f726566  dhcp_inc_pcb_ref
 0010 636f756e 7428293a 206d656d 6f727920  count(): memory 
 0020 6c65616b 00                          leak.           
Contents of section .text.dhcp_inc_pcb_refcount:
 0000 70b5194d 2c78ccb9 184e3368 d3b9fff7  p..M,x...N3h....
 0010 feff3060 28b3427a 154942f0 20024272  ..0`(.Bz.IB. .Br
 0020 4422fff7 feff1249 43223068 fff7feff  D".....IC"0h....
 0030 22461049 3068fff7 feff2c78 01340020  "F.I0h....,x.4. 
 0040 2c7070bd 0c4b4ff4 8a720c49 0c48fff7  ,pp..KO..r.I.H..
 0050 feff2046 fff7feff 0120fff7 fefffff7  .. F..... ......
 0060 feff4ff0 ff3070bd 00000000 00000000  ..O..0p.........
 0070 00000000 00000000 00000000 00000000  ................
 0080 6c000000                             l...            
Contents of section .text.dhcp_bind:
 0000 00287fd0 c1690029 7cd08b6a 002210b5  .(...i.)|..j."..
 0010 5c1c82b0 4a820dd0 1e33b3f5 701f67d2  \...J....3..p.g.
 0020 a2f17732 a2fb0323 5b09012b 38bf0123  ..w2...#[..+8..#
 0030 9bb28b82 cb6a5a1c 3ad01e33 b3f5701f  .....jZ.:..3..p.
 0040 4ed2314a a2fb0323 5b09012b 38bf0123  N.1J...#[..+8..#
 0050 9bb20a6b 4b81541c cb812dd0 1e32b2f5  ...kK.T...-..2..
 0060 701f40d2 284ca4fb 02425209 012a38bf  p.@.(L...BR..*8.
 0070 012292b2 02f1ff3c 1ffa8cfc 63458a81  .".....<....cE..
 0080 0a8221d8 cb79db07 23d50b6a 4a790093  ..!..y..#..jJy..
 0090 0a2a4b6a 019304d0 00230a22 8b714a71  .*Kj.....#.".qJq
 00a0 0b8101ab 6a461c31 fff7feff 02b010bd  ....jF.1........
 00b0 0a6b4b89 541cd1d1 b1f80cc0 0cf1ff3c  .kK.T..........<
 00c0 1ffa8cfc 6345ddd9 00234b81 cb79db07  ....cE...#K..y..
 00d0 dbd491f9 1c300a7f 002b0cdb ff23d5e7  .....0...+...#..
 00e0 4ff6ff73 b5e74ff6 fe7c4ff6 ff72c5e7  O..s..O..|O..r..
 00f0 4ff6ff73 9de7c02a 4ff6ff73 28bf6ff0  O..s...*O..s(.o.
 0100 7f43c3e7 704700bf 89888888           .C..pG......    
Contents of section .rodata.dhcp_option_short.part.0.str1.4:
 0000 64686370 5f6f7074 696f6e5f 73686f72  dhcp_option_shor
 0010 743a206f 7074696f 6e735f6f 75745f6c  t: options_out_l
 0020 656e202b 2032203c 3d204448 43505f4f  en + 2 <= DHCP_O
 0030 5054494f 4e535f4c 454e00             PTIONS_LEN.     
Contents of section .text.dhcp_option_short.part.0:
 0000 08b540f2 b452064b 06490748 fff7feff  ..@..R.K.I.H....
 0010 0020fff7 feff0120 fff7feff fff7feff  . ..... ........
 0020 00000000 00000000 6c000000           ........l...    
Contents of section .rodata.dhcp_option.part.0.str1.4:
 0000 64686370 5f6f7074 696f6e3a 206f7074  dhcp_option: opt
 0010 696f6e73 5f6f7574 5f6c656e 202b2032  ions_out_len + 2
 0020 202b206f 7074696f 6e5f6c65 6e203c3d   + option_len <=
 0030 20444843 505f4f50 54494f4e 535f4c45   DHCP_OPTIONS_LE
 0040 4e00                                 N.              
Contents of section .text.dhcp_option.part.0:
 0000 08b54ff4 b462064b 06490748 fff7feff  ..O..b.K.I.H....
 0010 0020fff7 feff0120 fff7feff fff7feff  . ..... ........
 0020 00000000 00000000 6c000000           ........l...    
Contents of section .rodata.dhcp_option_byte.part.0.str1.4:
 0000 64686370 5f6f7074 696f6e5f 62797465  dhcp_option_byte
 0010 3a206f70 74696f6e 735f6f75 745f6c65  : options_out_le
 0020 6e203c20 44484350 5f4f5054 494f4e53  n < DHCP_OPTIONS
 0030 5f4c454e 00                          _LEN.           
Contents of section .text.dhcp_option_byte.part.0:
 0000 08b540f2 ac52064b 06490748 fff7feff  ..@..R.K.I.H....
 0010 0020fff7 feff0120 fff7feff fff7feff  . ..... ........
 0020 00000000 00000000 6c000000           ........l...    
Contents of section .rodata.dhcp_option_long.str1.4:
 0000 64686370 5f6f7074 696f6e5f 6c6f6e67  dhcp_option_long
 0010 3a206f70 74696f6e 735f6f75 745f6c65  : options_out_le
 0020 6e202b20 34203c3d 20444843 505f4f50  n + 4 <= DHCP_OP
 0030 54494f4e 535f4c45 4e00               TIONS_LEN.      
Contents of section .text.dhcp_option_long:
 0000 03460430 442810b5 15d8140e 03f1010e  .F.0D(..........
 0010 03f1020c 80b2cc54 1ffa8efe 140c0333  .......T.......3
 0020 1ffa8cfc 01f80e40 9bb24fea 122e01f8  .......@..O.....
 0030 0ce0ca54 10bd074b 40f2bd52 06490748  ...T...K@..R.I.H
 0040 fff7feff 0020fff7 feff0120 fff7feff  ..... ..... ....
 0050 fff7feff 00000000 00000000 6c000000  ............l...
Contents of section .rodata.dhcp_dec_pcb_refcount.str1.4:
 0000 64686370 5f706362 5f726566 636f756e  dhcp_pcb_refcoun
 0010 7428293a 20726566 636f756e 74206572  t(): refcount er
 0020 726f7200                             ror.            
Contents of section .text.dhcp_dec_pcb_refcount:
 0000 38b50e4b 1c7854b1 013ce4b2 1c7004b1  8..K.xT..<...p..
 0010 38bd0b4d 2868fff7 feff2c60 38bd094b  8..M(h....,`8..K
 0020 4ff49772 08490948 fff7feff 2046fff7  O..r.I.H.... F..
 0030 feff0120 fff7feff fff7feff 00000000  ... ............
 0040 00000000 00000000 00000000 6c000000  ............l...
Contents of section .text.dhcp_handle_ack.isra.0:
 0000 30b5244c 002383b0 e278c0e9 083312b1  0.$L.#...x...3..
 0010 214bdb68 83622379 002b38d0 1e4b1b69  !K.h.b#y.+8..K.i
 0020 6279c362 002a2dd0 1b4b5b69 0363a379  by.b.*-..K[i.c.y
 0030 0a69c261 13b3184a c3799269 43f00103  .i.a...J.y.iC...
 0040 12ba0262 c371e379 1bb1134b db691bba  ...b.q.y...K.i..
 0050 4362237a 83b1104d 002001a9 2b6a1bba  Cb#z...M. ..+j..
 0060 0193fff7 feff637a 33b16b6a 01a90120  ......cz3.kj... 
 0070 1bba0193 fff7feff 03b030bd c37903f0  ..........0..y..
 0080 fe03dfe7 836ac3eb c303db08 cee7836a  .....j.........j
 0090 5b08c5e7 00000000 00000000           [...........    
Contents of section .rodata.dhcp_option_hostname.isra.0.str1.4:
 0000 44484350 3a20686f 73746e61 6d652069  DHCP: hostname i
 0010 7320746f 6f206c6f 6e672100           s too long!.    
Contents of section .text.dhcp_option_hostname.isra.0:
 0000 70b50446 62b31046 0d461646 fff7feff  p..Fb..F.F.F....
 0010 30b3c4f1 41039842 33d8ff28 36d8a11c  0...A..B3..(6...
 0020 c2b24318 442b35d8 631c4ff0 0c0c9bb2  ..C.D+5.c.O.....
 0030 05f804c0 8cb2ea54 3346432c 13f801cb  .......T3FC,....
 0040 10d889b2 32180139 294403e0 442c13f8  ....2..9)D..D,..
 0050 01cb07d0 01349342 01f801cf a4b2f5d1  .....4.B........
 0060 204670bd 0c4b40f2 ac520c49 0c48fff7   Fp..K@..R.I.H..
 0070 feff0020 fff7feff 0120fff7 fefffff7  ... ..... ......
 0080 feff054b 40f2d152 0649efe7 024b40f2  ...K@..R.I...K@.
 0090 d352f9e7 fff7feff 00000000 00000000  .R..............
 00a0 6c000000 00000000                    l.......        
Contents of section .text.dhcp_discover:
 0000 2de9f041 c56984b0 0646ab79 082b00f2  -..A.i...F.y.+..
 0010 ad806a79 0023062a eb6103d0 0622ab71  ..jy.#.*.a...".q
 0020 2b816a71 0df10e03 01222946 3046fff7  +.jq.....")F0F..
 0030 feff0446 00287cd0 bdf80e30 d0f80480  ...F.(|....0....
 0040 181d03f1 020c08f1 f0074428 00f29180  ..........D(....
 0050 4ff0390e 5a1c1ffa 8cf107f8 03e092b2  O.9.Z...........
 0060 4ff0020e 07f802e0 adf80ec0 01eb0e0c  O...............
 0070 b28ebcf1 440f7ed8 03334fea 122c80b2  ....D.~..3O..,..
 0080 9bb207f8 01c03946 fa54326b adf80e00  ......9F.T2k....
 0090 fff7feff 00f1060c adf80e00 bcf1440f  ..............D.
 00a0 67d8821c 431c4ff0 370e1ffa 8cfc92b2  g...C.O.7.......
 00b0 07f800e0 9bb20420 02f1ef01 432adff8  ....... ....C*..
 00c0 cce0f854 41444ff0 0100adf8 0e200cd8  ...TADO...... ..
 00d0 531c01f8 010f9bb2 9c45adf8 0e3006d0  S........E...0..
 00e0 1a461ef8 010f432a f2d9fff7 feff901c  .F....C*........
 00f0 ff2380b2 07f80c30 432807d8 c2f14202  .#.....0C(....B.
 0100 38440021 92b2fff7 feff4420 00f1f001  8D.!......D ....
 0110 20461a4f 89b2fff7 feff1948 4323194a   F.O.......HC#.J
 0120 00682146 cde90067 fff7feff 2046fff7  .h!F...g.... F..
 0130 feffab79 ff2b13d0 0133dab2 052aaa71  ...y.+...3...*.q
 0140 0ed84ff4 7a731049 00209340 03f2f313  ..O.zs.I. .@....
 0150 9bb2a1fb 03135b09 2b8104b0 bde8f081  ......[.+.......
 0160 78230020 2b8104b0 bde8f081 fff7feff  x#. +...........
 0170 4fe7fff7 fefffff7 feff00bf 00000000  O...............
 0180 00000000 00000000 d34d6210 00000000  .........Mb.....
Contents of section .text.dhcp_select.isra.0:
 0000 002800f0 d8802de9 f043c569 85b00646  .(....-..C.i...F
 0010 002d00f0 cb806b79 012b04d0 00230122  .-....ky.+...#."
 0020 ab716a71 2b810df1 0e030322 29463046  .qjq+......")F0F
 0030 fff7feff 04460028 00f0a580 bdf80e00  .....F.(........
 0040 d4f80480 031d811c 08f1f007 442b00f2  ............D+..
 0050 b3804ff0 390e421c 1ffa81fc 07f800e0  ..O.9.B.........
 0060 92b24ff0 020e07f8 02e00ceb 0e02adf8  ..O.............
 0070 0e10442a b18e00f2 a180c21c 4fea112e  ..D*........O...
 0080 92b207f8 0ce0b954 00f10a02 adf80e30  .......T.......0
 0090 442a00f2 9180421d 32214ff0 04090630  D*....B.2!O....0
 00a0 92b2f954 80b23946 07f80290 ea69adf8  ...T..9F.....i..
 00b0 0e0012ba fff7feff 831dadf8 0e00442b  ..............D+
 00c0 7ad8421c 831c3621 92b23954 9bb207f8  z.B...6!..9T....
 00d0 02903946 aa691846 adf80e30 12bafff7  ..9F.i.F...0....
 00e0 feff00f1 060cadf8 0e00bcf1 440f63d8  ............D.c.
 00f0 831c411c 4ff0370e 1ffa8cfc 9bb289b2  ..A.O.7.........
 0100 07f800e0 03f1ef02 432b07f8 01904ff0  ........C+....O.
 0110 01014244 2a48adf8 0e300bd8 013302f8  ..BD*H...0...3..
 0120 011f9bb2 6345adf8 0e3005d0 432b10f8  ....cE...0..C+..
 0130 011ff3d9 fff7feff 1846326b 3946fff7  .........F2k9F..
 0140 feff431c ff22adf8 0e009bb2 3a54432b  ..C.."......:TC+
 0150 07d8c0f1 43020021 f81892b2 fff7feff  ....C..!........
 0160 4423f033 2046174f 99b2fff7 feff1648  D#.3 F.O.......H
 0170 4323164a 00682146 cde90067 fff7feff  C#.J.h!F...g....
 0180 2046fff7 feffab79 ff2b12d0 0133dab2   F.....y.+...3..
 0190 052aaa71 0dd84ff4 7a730d49 934003f2  .*.q..O.zs.I.@..
 01a0 f3139bb2 a1fb0313 5b092b81 05b0bde8  ........[.+.....
 01b0 f0837823 f9e77047 fff7feff fff7feff  ..x#..pG........
 01c0 00000000 00000000 00000000 00000000  ................
 01d0 d34d6210                             .Mb.            
Contents of section .text.dhcp_recv:
 0000 704b5168 2de9f04f d3f804a0 8bb09346  pKQh-..O.......F
 0010 daf81c90 b9f1000f 43d099f8 0430002b  ........C....0.+
 0020 3fd05389 2b2b3cd9 0a78022a 39d19af8  ?.S.++<..x.*9...
 0030 3c7087b1 0af13504 01f11b00 002214f8  <p....5......"..
 0040 016f0132 10f8015f d2b2ae42 29d1062a  .o.2..._...B)..*
 0050 01d0ba42 f3d34a68 d9f80010 12ba8a42  ...B..Jh.......B
 0060 1fd10022 5849cdf8 08b00a81 0492c1e9  ..."XI..........
 0070 0022f022 bbf80880 0392cde9 06a9dde9  ."."............
 0080 026400e0 7389a342 a4eb0302 a8eb0303  .d..s..B........
 0090 0dd83668 94b21ffa 83f8002e f2d1ddf8  ..6h............
 00a0 08b05846 0bb0bde8 f04ffff7 febf7368  ..XF.....O....sh
 00b0 44450193 68d2019b 195dff29 64d0a31c  DE..h....].)d...
 00c0 1ffa83fb a345ead3 671c7289 974254da  .....E..g.r..BT.
 00d0 019b1819 45783b29 00f2f980 dfe811f0  ....Ex;)........
 00e0 3c000101 f7009701 f700f700 8001f700  <...............
 00f0 f700f700 f700f700 f700f700 f700f700  ................
 0100 f700f700 f700f700 f700f700 f700f700  ................
 0110 f700f700 f700f700 f700f700 f700f700  ................
 0120 f700f700 f700f700 f700f700 f700f700  ................
 0130 f700f700 f700f700 f700f700 f700f700  ................
 0140 f700f700 f7007301 5f01b401 a701f700  ......s._.......
 0150 f700f700 53014601 bcb29442 12d3a41a  ....S.F....B....
 0160 a8eb0202 a4b21ffa 82f84445 97d23668  ..........DE..6h
 0170 002e94d0 73680193 9de73068 40b34068  ....sh....0h@.@h
 0180 0578a8e7 a04596d8 0f4b1b78 63b10023  .x...E...K.xc..#
 0190 0d4a1370 0d4b1b68 012b00f0 7781022b  .J.p.K.h.+..w..+
 01a0 06d0032b 00f07081 049b002b 00f07381  ...+..p....+..s.
 01b0 00234ff0 6c080493 2c230393 029b5b89  .#O.l...,#....[.
 01c0 5de700bf 00000000 00000000 00000000  ]...............
 01d0 3b297bd8 01a050f8 21f000bf 59010000  ;){...P.!...Y...
 01e0 9f000000 cd020000 9f000000 cd020000  ................
 01f0 cd020000 61040000 cd020000 cd020000  ....a...........
 0200 cd020000 cd020000 cd020000 cd020000  ................
 0210 cd020000 cd020000 cd020000 cd020000  ................
 0220 cd020000 cd020000 cd020000 cd020000  ................
 0230 cd020000 cd020000 cd020000 cd020000  ................
 0240 cd020000 cd020000 cd020000 cd020000  ................
 0250 cd020000 cd020000 cd020000 cd020000  ................
 0260 cd020000 cd020000 cd020000 cd020000  ................
 0270 cd020000 cd020000 cd020000 cd020000  ................
 0280 cd020000 cd020000 cd020000 cd020000  ................
 0290 cd020000 cd020000 cd020000 cd020000  ................
 02a0 cd020000 cd020000 9f000000 9f000000  ................
 02b0 9f000000 9f000000 cd020000 cd020000  ................
 02c0 cd020000 9f000000 9f000000 00252c44  .............%,D
 02d0 4ff6fd71 8c423ff7 e2ae0beb 05039cb2  O..q.B?.........
 02e0 3be7042d 7ff4dbae 4ff6f972 94423ff6  ;..-....O..r.B?.
 02f0 d6ae0634 4ff00609 a4b2934b 00220594  ...4O......K."..
 0300 03eb0907 914b0992 03eb890a 23e05b46  .....K......#.[F
 0310 224609a9 3046fff7 feff8442 7ff4bfae  "F..0F.....B....
 0320 042d40f2 9f8015f0 030fa5f1 040509f1  .-@.............
 0330 0109edb2 7ff4b3ae 4ff00103 0bf10402  ........O.......
 0340 07f8013c 92b2099b 5a459346 1bba4af8  ...<....ZE.F..J.
 0350 043bfff4 a4ae042d 17f8013b 2c4628bf  .;.....-...;,F(.
 0360 0424002b d3d0059c 7289f6e6 042d7ff4  .$.+....r....-..
 0370 96ae4ff6 f9729442 3ff691ae 06344ff0  ..O..r.B?....4O.
 0380 0509a4b2 b9e7042d 7ff489ae 4ff6f972  .......-....O..r
 0390 94423ff6 84ae0634 a946a4b2 ade7039b  .B?....4.F......
 03a0 f02b7ff4 7cae013d 18bf0125 002d7ff4  .+..|..=...%.-..
 03b0 76ae4ff6 fe729742 3ff471ae 0334a946  v.O..r.B?.q..4.F
 03c0 0125a4b2 99e7042d 7ff469ae 4ff6f972  .%.....-..i.O..r
 03d0 94423ff6 64ae0634 4ff00309 a4b28ce7  .B?.d..4O.......
 03e0 ab077ff4 5cae082d 2c444ff6 fd712846  ....\..-,DO..q(F
 03f0 28bf0820 8c423ff7 52ae0beb 0504a4b2  (.. .B?.R.......
 0400 002d3ff4 aaae0546 4ff00809 75e7032d  .-?....FO...u..-
 0410 7ff645ae 2c444ff6 fd729442 3ff73fae  ..E.,DO..r.B?.?.
 0420 0beb0504 4ff00709 0425a4b2 65e7042d  ....O....%..e..-
 0430 7ff435ae 4ff6f972 94423ff6 30ae0634  ..5.O..r.B?.0..4
 0440 4ff00209 a4b258e7 012d7ff4 28ae4ff6  O.....X..-..(.O.
 0450 fe729742 3ff423ae 0334a946 a4b24ce7  .r.B?.#..4.F..L.
 0460 5c467ae6 059c0cd0 012d7ff4 18ae9df8  \Fz......-......
 0470 2430364a 42f82930 0123334a 02f80930  $06JB.)0.#3J...0
 0480 72e7099b 1bbaf4e7 01230493 6c234ff0  r........#..l#O.
 0490 ec080393 92e62c4b ddf808b0 5b78dde9  ......,K....[x..
 04a0 06a9002b 3ff4fdad 284adbf8 04101379  ...+?...(J.....y
 04b0 052b1bd0 062b2bd0 022b7ff4 f2ad99f8  .+...++..+......
 04c0 0530062b 7ff4edad 1f4b9878 daf81c30  .0.+.....K.x...0
 04d0 00283ff4 e6ad9268 049812ba 18815046  .(?....h......PF
 04e0 9a610a69 da61fff7 feffdae5 99f80530  .a.i.a.........0
 04f0 03f0fd02 012a03d0 043b012b 3ff6d1ad  .....*...;.+?...
 0500 daf81c00 fff7feff 5046fff7 feffc8e5  ........PF......
 0510 99f80530 da1e022a 02d9012b 7ff4c1ad  ...0...*...+....
 0520 daf81c30 5a790c2a 04d00022 0c219a71  ...0Zy.*...".!.q
 0530 59711a81 064b5046 1a461946 fff7feff  Yq...KPF.F.F....
 0540 5046fff7 fefface5 00000000 00000000  PF..............
 0550 00000000                             ....            
Contents of section .text.dhcp_reboot.isra.0:
 0000 2de9f043 c66985b0 05467379 032b04d0  -..C.i...Fsy.+..
 0010 00230322 b3717271 33810df1 0e030322  .#.".qrq3......"
 0020 31462846 fff7feff 04460028 00f09a80  1F(F.....F.(....
 0030 bdf80e00 d4f80480 021d00f1 020e08f1  ................
 0040 f007442a 00f2ab80 4ff0390c 431c1ffa  ..D*....O.9.C...
 0050 8ef107f8 00c09bb2 4ff0020c 07f803c0  ........O.......
 0060 01eb0c03 adf80ee0 442b00f2 9a80c31c  ........D+......
 0070 07f801c0 40219bb2 f95400f1 0a03adf8  ....@!...T......
 0080 0e20442b 00f28b80 431d3221 4ff00409  . D+....C.2!O...
 0090 06309bb2 b95480b2 394607f8 0390f269  .0...T..9F.....i
 00a0 adf80e00 12bafff7 feff00f1 060cadf8  ................
 00b0 0e00bcf1 440f72d8 831c411c 4ff0370e  ....D.r...A.O.7.
 00c0 1ffa8cfc 9bb289b2 07f800e0 03f1ef02  ................
 00d0 432b07f8 01904ff0 01014244 3248adf8  C+....O...BD2H..
 00e0 0e300bd8 013302f8 011f9bb2 6345adf8  .0...3......cE..
 00f0 0e3012d0 432b10f8 011ff3d9 2b4b40f2  .0..C+......+K@.
 0100 ac522b49 2b48fff7 feff0020 fff7feff  .R+I+H..... ....
 0110 0120fff7 fefffff7 feff1846 2a6b3946  . .........F*k9F
 0120 fff7feff 431cff22 adf80e00 99b23a54  ....C.."......:T
 0130 432907d8 c0f14302 78180021 92b2fff7  C)....C.x..!....
 0140 feff4421 f0312046 89b2fff7 feff1a48  ..D!.1 F.......H
 0150 43231a4a 00682146 0095fff7 feff2046  C#.J.h!F...... F
 0160 fff7feff b379ff2b 14d00133 dbb2092b  .....y.+...3...+
 0170 b3710fd8 c3eb4311 114a03eb 8103db00  .q....C..J......
 0180 03f2f313 9bb2a2fb 03235b09 338105b0  .........#[.3...
 0190 bde8f083 14233381 05b0bde8 f083fff7  .....#3.........
 01a0 fefffff7 feff00bf 00000000 00000000  ................
 01b0 00000000 6c000000 00000000 00000000  ....l...........
 01c0 d34d6210                             .Mb.            
Contents of section .rodata.dhcp_set_struct.str1.4:
 0000 6e657469 6620213d 204e554c 4c000000  netif != NULL...
 0010 64686370 20213d20 4e554c4c 00000000  dhcp != NULL....
 0020 6e657469 6620616c 72656164 79206861  netif already ha
 0030 73206120 73747275 63742064 68637020  s a struct dhcp 
 0040 73657400                             set.            
Contents of section .text.dhcp_set_struct:
 0000 38b50546 0c46154a 40f2f721 1448fff7  8..F.F.J@..!.H..
 0010 feff55b1 ecb1e969 b1b93422 2046fff7  ..U....i..4" F..
 0020 feff0223 e371ec61 38bd0d4b 4ff43e72  ...#.q.a8..KO.>r
 0030 0c490d48 fff7feff 0020fff7 feff0120  .I.H..... ..... 
 0040 fff7feff fff7feff 054b40f2 fa220749  .........K@..".I
 0050 efe7034b 40f2f922 0549eae7 00000000  ...K@..".I......
 0060 00000000 00000000 6c000000 20000000  ........l... ...
 0070 10000000                             ....            
Contents of section .text.dhcp_cleanup:
 0000 10b50446 114a4ff4 44711148 fff7feff  ...F.JO.Dq.H....
 0010 64b1e069 20b1c379 9b0702d5 0023e361  d..i ..y.....#.a
 0020 10bdfff7 feff0023 e361f9e7 084b40f2  .......#.a...K@.
 0030 11320849 0848fff7 feff2046 fff7feff  .2.I.H.... F....
 0040 0120fff7 fefffff7 feff00bf 00000000  . ..............
 0050 00000000 00000000 6c000000           ........l...    
Contents of section .text.dhcp_inform:
 0000 2de9f041 044690b0 374a4ff4 61713748  -..A.F..7JO.aq7H
 0010 fff7feff 1cb1fff7 feff0646 10b110b0  ...........F....
 0020 bde8f081 01463422 03a8fff7 feff0722  .....F4"......."
 0030 0df10a03 03a98df8 11202046 0822fff7  .........  F."..
 0040 feff0546 002846d0 bdf80a20 4068111d  ...F.(F.... @h..
 0050 02f1020c f0304429 42d84ff0 390e531c  .....0D)B.O.9.S.
 0060 1ffa8cf7 00f802e0 9bb24ff0 020e00f8  ..........O.....
 0070 03e007eb 0e03adf8 0ac0442b b4f834e0  ..........D+..4.
 0080 30d8531d 02f1030c 4fea1e28 9bb200f8  0.S.....O..(....
 0090 07801ffa 8cfcff27 432b00f8 0ce0adf8  .......'C+......
 00a0 0a104754 07d8c2f1 3f021844 314692b2  ..GT....?..D1F..
 00b0 fff7feff 4423f033 284699b2 fff7feff  ....D#.3(F......
 00c0 0b494323 0b4a0868 29460094 fff7feff  .IC#.J.h)F......
 00d0 2846fff7 fefffff7 feff10b0 bde8f081  (F..............
 00e0 fff7feff fff7feff 00000000 00000000  ................
 00f0 00000000 00000000                    ........        
Contents of section .rodata.dhcp_network_changed_link_up.str1.4:
 0000 696e7661 6c696420 64686370 2d3e7374  invalid dhcp->st
 0010 61746500                             ate.            
Contents of section .text.dhcp_network_changed_link_up:
 0000 c26932b3 08b55379 052b03d8 022b14d8  .i2...Sy.+...+..
 0010 cbb908bd 0a2b10d0 0c2b14d9 0d4b40f2  .....+...+...K@.
 0020 bd320d49 0d48fff7 feff0020 fff7feff  .2.I.H..... ....
 0030 0120fff7 fefffff7 feff0023 9371bde8  . .........#.q..
 0040 0840fff7 febf0023 9371bde8 0840fff7  .@.....#.q...@..
 0050 febf7047 00000000 00000000 6c000000  ..pG........l...
Contents of section .text.dhcp_renew:
 0000 2de9f041 064684b0 634a40f2 8e41f569  -..A.F..cJ@..A.i
 0010 6248fff7 feff6b79 052b04d0 00230522  bH....ky.+...#."
 0020 ab716a71 2b810df1 0e030322 29463046  .qjq+......")F0F
 0030 fff7feff 04460028 00f0a680 bdf80e20  .....F.(....... 
 0040 416802f1 040c901c 01f1f007 bcf1440f  Ah............D.
 0050 00f29d80 4ff03908 531c1ffa 80fe07f8  ....O.9.S.......
 0060 02809bb2 4ff00208 07f80380 0eeb0803  ....O...........
 0070 adf80e00 442bb08e 00f28b80 d31c4fea  ....D+........O.
 0080 10289bb2 07f80e80 f85402f1 0a00adf8  .(.......T......
 0090 0ec04428 7bd8931d 4ff0370e 053280b2  ..D({...O.7..2..
 00a0 9bb207f8 0ce092b2 03f1ef0c 432b6144  ............C+aD
 00b0 4ff0040c 07f802c0 4ff00102 dff8f0c0  O.......O.......
 00c0 adf80e30 0bd80133 01f8012f 9bb29842  ...0...3.../...B
 00d0 adf80e30 12d0432b 1cf8012f f3d92f4b  ...0..C+.../../K
 00e0 40f2ac52 2e492f48 fff7feff 0020fff7  @..R.I/H..... ..
 00f0 feff0120 fff7feff fff7feff 326b3946  ... ........2k9F
 0100 fff7feff 431cff22 adf80e00 99b23a54  ....C.."......:T
 0110 432907d8 c0f14302 78180021 92b2fff7  C)....C.x..!....
 0120 feff4421 f0312046 89b2fff7 feff1e48  ..D!.1 F.......H
 0130 43232146 006805f1 18020096 fff7feff  C#!F.h..........
 0140 03462046 1c46fff7 feffab79 ff2b15d0  .F F.F.....y.+..
 0150 0133dbb2 092bab71 10d8c3eb 4311134a  .3...+.q....C..J
 0160 204603eb 81031b01 03f2f313 9bb2a2fb   F..............
 0170 03235b09 2b8104b0 bde8f081 28232046  .#[.+.......(# F
 0180 2b8104b0 bde8f081 4ff0ff34 dde7fff7  +.......O..4....
 0190 fefffff7 feff00bf 00000000 00000000  ................
 01a0 00000000 6c000000 00000000 d34d6210  ....l........Mb.
 01b0 00000000                             ....            
Contents of section .text.dhcp_release_and_stop:
 0000 2de9f041 054684b0 434a40f2 3251ec69  -..A.F..CJ@.2Q.i
 0010 4248fff7 feff002c 6ad06379 002b67d0  BH.....,j.cy.+g.
 0020 0023ea69 a169a362 0391e381 2361a382  .#.i.i.b....#a..
 0030 c4e90633 c4e90833 c4e90b33 002a5ad0  ...3...3...3.*Z.
 0040 53791a1f 012a01d9 0a2b54d1 00270df1  Sy...*...+T..'..
 0050 0a030722 21462846 6771a771 2781fff7  ..."!F(Fgq.q'...
 0060 feff0646 00283bd0 7368bdf8 0a0003f1  ...F.(;.sh......
 0070 f008831d 442b4cd8 431c3622 414608f8  ....D+L.C.6"AF..
 0080 00209bb2 04220230 08f80320 80b2039a  . ...".0... ....
 0090 adf80a00 12bafff7 feff431c ff21adf8  ..........C..!..
 00a0 0a009bb2 024608f8 0010432b 08d8c2f1  .....F....C+....
 00b0 430208eb 03003946 92b2fff7 feff4423  C.....9F......D#
 00c0 f0333046 99b2fff7 feff154a 00954323  .30F.......J..C#
 00d0 10683146 03aafff7 feff3046 fff7feff  .h1F......0F....
 00e0 104b2846 1a461946 fff7feff 23794bb9  .K(F.F.F....#yK.
 00f0 04b0bde8 f0810023 6371a371 23812379  .......#cq.q#.#y
 0100 002bf5d0 fff7feff 00232371 04b0bde8  .+.......##q....
 0110 f081fff7 feff00bf 00000000 00000000  ................
 0120 00000000 00000000                    ........        
Contents of section .text.dhcp_start:
 0000 70b50446 234a40f2 2f312348 fff7feff  p..F#J@./1#H....
 0010 002c3bd0 94f83d30 da0737d5 a38ee569  .,;...=0..7....i
 0020 b3f5107f 2fd33db3 2b7913bb 34220021  ..../.=.+y..4".!
 0030 2846fff7 fefffff7 feff0646 18bb0123  (F.........F...#
 0040 2b7194f8 3d305b07 08d46b79 022b03d0  +q..=0[...ky.+..
 0050 0223a871 28816b71 304670bd 2046fff7  .#.q(.kq0Fp. F..
 0060 feff0028 f8d02046 4ff0ff36 fff7feff  ...(.. FO..6....
 0070 f2e7fff7 feffd9e7 3420fff7 feff0546  ........4 .....F
 0080 08b1e061 d2e74ff0 ff36e5e7 6ff00f06  ...a..O..6..o...
 0090 e2e700bf 00000000 00000000           ............    
Contents of section .text.dhcp_coarse_tmr:
 0000 824b2de9 f0411d68 84b0adb1 ec699cb1  .K-..A.h.....i..
 0010 63798bb1 a18a31b1 628a0132 92b29142  cy....1.b..2...B
 0020 628200f0 8c80228a 4ab9e289 22b1511e  b.....".J...".Q.
 0030 012ae181 00f08c80 04b0bde8 f081511e  .*............Q.
 0040 012a2182 f1d15a1e d2b2092a f4d87049  .*!...Z....*..pI
 0050 41fa02f2 12f00102 eed1042b 03d00423  A..........+...#
 0060 a2712281 63710df1 0e030322 21462846  .q".cq....."!F(F
 0070 fff7feff 06460028 00f0a480 bdf80e20  .....F.(....... 
 0080 416802f1 040c901c 01f1f007 bcf1440f  Ah............D.
 0090 00f2b880 4ff03908 531c1ffa 80fe07f8  ....O.9.S.......
 00a0 02809bb2 4ff00208 07f80380 0eeb0803  ....O...........
 00b0 adf80e00 442ba88e 00f2a680 d31c4fea  ....D+........O.
 00c0 10289bb2 07f80e80 f85402f1 0a00adf8  .(.......T......
 00d0 0ec04428 00f29680 931d4ff0 370e0532  ..D(......O.7..2
 00e0 80b29bb2 07f80ce0 92b203f1 ef0c432b  ..............C+
 00f0 61444ff0 040c07f8 02c04ff0 0102dff8  aDO.......O.....
 0100 2cc1adf8 0e300bd8 013301f8 012f9bb2  ,....0...3.../..
 0110 8342adf8 0e302ed0 432b1cf8 012ff3d9  .B...0..C+.../..
 0120 3c4b40f2 ac523c49 3c48fff7 feff0020  <K@..R<I<H..... 
 0130 fff7feff 0120fff7 fefffff7 feff2846  ..... ........(F
 0140 fff7feff 284604b0 bde8f041 fff7febf  ....(F.....A....
 0150 03f0fb02 012a02d0 0a2b7ff4 6daf2846  .....*...+..m.(F
 0160 fff7feff a389628a 9b1a012b 7ff764af  ......b....+..d.
 0170 5b10e381 60e71846 2a6b3946 fff7feff  [...`..F*k9F....
 0180 431c0246 adf80e00 98b2ff21 4328b954  C..F.......!C(.T
 0190 07d8c2f1 43023844 002192b2 fff7feff  ....C.8D.!......
 01a0 442000f1 f0013046 89b2fff7 feff1c4a  D ....0F.......J
 01b0 00954323 10683146 1a4afff7 feff3046  ..C#.h1F.J....0F
 01c0 fff7feff a379ff2b 1ad00133 dbb2092b  .....y.+...3...+
 01d0 a37115d8 c3eb4311 134a03eb 8103db00  .q....C..J......
 01e0 03f2f313 9bb2a2fb 03235b09 a28a618a  .........#[...a.
 01f0 2381531a 012b7ff7 1faf5b10 23821be7  #.S..+....[.#...
 0200 1423f3e7 fff7feff fff7feff 00000000  .#..............
 0210 e6fdffff 00000000 00000000 6c000000  ............l...
 0220 00000000 00000000 d34d6210 00000000  .........Mb.....
Contents of section .text.dhcp_fine_tmr:
 0000 174b1868 40b1c369 33b11a89 012a02d9  .K.h@..i3....*..
 0010 013a1a81 704700d0 70475a79 00210c2a  .:..pG..pGZy.!.*
 0020 198108d0 062a06d0 012a06d0 032af3d1  .....*...*...*..
 0030 9b79012b 11d9fff7 febf9b79 052b01d8  .y.+.......y.+..
 0040 fff7febf 00b583b0 0190fff7 feff0198  ................
 0050 03b05df8 04ebfff7 febffff7 febf00bf  ..].............
 0060 00000000                             ....            
Contents of section .text.dhcp_release:
 0000 08b5fff7 feff0020 08bd00bf           ....... ....    
Contents of section .text.dhcp_stop:
 0000 fff7febf                             ....            
Contents of section .text.dhcp_supplied_address:
 0000 48b1c069 38b14379 181f0a2b 18bf0128  H..i8.Cy...+...(
 0010 94bf0120 00207047                    ... . pG        
Contents of section .rodata.__FUNCTION__.0:
 0000 64686370 5f72656c 65617365 5f616e64  dhcp_release_and
 0010 5f73746f 7000                        _stop.          
Contents of section .rodata.__FUNCTION__.1:
 0000 64686370 5f72656e 657700             dhcp_renew.     
Contents of section .rodata.__FUNCTION__.2:
 0000 64686370 5f696e66 6f726d00           dhcp_inform.    
Contents of section .rodata.__FUNCTION__.3:
 0000 64686370 5f737461 727400             dhcp_start.     
Contents of section .rodata.__FUNCTION__.4:
 0000 64686370 5f636c65 616e7570 00        dhcp_cleanup.   
Contents of section .rodata.__FUNCTION__.5:
 0000 64686370 5f736574 5f737472 75637400  dhcp_set_struct.
Contents of section .rodata.dhcp_discover_request_options:
 0000 01031c06                             ....            
Contents of section .comment:
 0000 00474343 3a202841 726d2047 4e552054  .GCC: (Arm GNU T
 0010 6f6f6c63 6861696e 2031312e 332e5265  oolchain 11.3.Re
 0020 6c312920 31312e33 2e312032 30323230  l1) 11.3.1 20220
 0030 37313200                             712.            
Contents of section .ARM.attributes:
 0000 41310000 00616561 62690001 27000000  A1...aeabi..'...
 0010 0537452d 4d00060d 074d0902 0a081204  .7E-M....M......
 0020 14011501 17031801 19011a01 1c011e02  ................
 0030 2201                                 ".              

Disassembly of section .text.dhcp_create_msg:

00000000 <dhcp_create_msg>:
   0:	e92d 43f8 	stmdb	sp!, {r3, r4, r5, r6, r7, r8, r9, lr}
   4:	2900      	cmp	r1, #0
   6:	d074      	beq.n	f2 <dhcp_create_msg+0xf2>
   8:	fab0 f580 	clz	r5, r0
   c:	4604      	mov	r4, r0
   e:	096d      	lsrs	r5, r5, #5
  10:	2800      	cmp	r0, #0
  12:	d06e      	beq.n	f2 <dhcp_create_msg+0xf2>
  14:	460e      	mov	r6, r1
  16:	4691      	mov	r9, r2
  18:	f44f 719a 	mov.w	r1, #308	; 0x134
  1c:	f44f 7220 	mov.w	r2, #640	; 0x280
  20:	2038      	movs	r0, #56	; 0x38
  22:	4698      	mov	r8, r3
  24:	f7ff fffe 	bl	0 <pbuf_alloc>
  28:	4607      	mov	r7, r0
  2a:	2800      	cmp	r0, #0
  2c:	d061      	beq.n	f2 <dhcp_create_msg+0xf2>
  2e:	8943      	ldrh	r3, [r0, #10]
  30:	f5b3 7f9a 	cmp.w	r3, #308	; 0x134
  34:	d374      	bcc.n	120 <dhcp_create_msg+0x120>
  36:	f1b9 0f03 	cmp.w	r9, #3
  3a:	d042      	beq.n	c2 <dhcp_create_msg+0xc2>
  3c:	79b3      	ldrb	r3, [r6, #6]
  3e:	2b00      	cmp	r3, #0
  40:	d069      	beq.n	116 <dhcp_create_msg+0x116>
  42:	4b3f      	ldr	r3, [pc, #252]	; (140 <dhcp_create_msg+0x140>)
  44:	6818      	ldr	r0, [r3, #0]
  46:	687d      	ldr	r5, [r7, #4]
  48:	f44f 729a 	mov.w	r2, #308	; 0x134
  4c:	6030      	str	r0, [r6, #0]
  4e:	2100      	movs	r1, #0
  50:	4628      	mov	r0, r5
  52:	f7ff fffe 	bl	0 <memset>
  56:	2301      	movs	r3, #1
  58:	702b      	strb	r3, [r5, #0]
  5a:	706b      	strb	r3, [r5, #1]
  5c:	f894 303c 	ldrb.w	r3, [r4, #60]	; 0x3c
  60:	70ab      	strb	r3, [r5, #2]
  62:	f44f 7388 	mov.w	r3, #272	; 0x110
  66:	6832      	ldr	r2, [r6, #0]
  68:	fa23 f309 	lsr.w	r3, r3, r9
  6c:	ba12      	rev	r2, r2
  6e:	07db      	lsls	r3, r3, #31
  70:	606a      	str	r2, [r5, #4]
  72:	d542      	bpl.n	fa <dhcp_create_msg+0xfa>
  74:	6823      	ldr	r3, [r4, #0]
  76:	60eb      	str	r3, [r5, #12]
  78:	f104 0135 	add.w	r1, r4, #53	; 0x35
  7c:	f105 0c1b 	add.w	ip, r5, #27
  80:	343b      	adds	r4, #59	; 0x3b
  82:	f811 ef01 	ldrb.w	lr, [r1, #1]!
  86:	42a1      	cmp	r1, r4
  88:	f80c ef01 	strb.w	lr, [ip, #1]!
  8c:	d1f9      	bne.n	82 <dhcp_create_msg+0x82>
  8e:	2363      	movs	r3, #99	; 0x63
  90:	f06f 027d 	mvn.w	r2, #125	; 0x7d
  94:	f885 90f2 	strb.w	r9, [r5, #242]	; 0xf2
  98:	4638      	mov	r0, r7
  9a:	f885 30ec 	strb.w	r3, [r5, #236]	; 0xec
  9e:	f885 30ef 	strb.w	r3, [r5, #239]	; 0xef
  a2:	2335      	movs	r3, #53	; 0x35
  a4:	f885 20ed 	strb.w	r2, [r5, #237]	; 0xed
  a8:	2253      	movs	r2, #83	; 0x53
  aa:	f885 30f0 	strb.w	r3, [r5, #240]	; 0xf0
  ae:	2301      	movs	r3, #1
  b0:	f885 20ee 	strb.w	r2, [r5, #238]	; 0xee
  b4:	f885 30f1 	strb.w	r3, [r5, #241]	; 0xf1
  b8:	2303      	movs	r3, #3
  ba:	f8a8 3000 	strh.w	r3, [r8]
  be:	e8bd 83f8 	ldmia.w	sp!, {r3, r4, r5, r6, r7, r8, r9, pc}
  c2:	7973      	ldrb	r3, [r6, #5]
  c4:	2b03      	cmp	r3, #3
  c6:	d01f      	beq.n	108 <dhcp_create_msg+0x108>
  c8:	4629      	mov	r1, r5
  ca:	687d      	ldr	r5, [r7, #4]
  cc:	f44f 729a 	mov.w	r2, #308	; 0x134
  d0:	4628      	mov	r0, r5
  d2:	f7ff fffe 	bl	0 <memset>
  d6:	2301      	movs	r3, #1
  d8:	702b      	strb	r3, [r5, #0]
  da:	706b      	strb	r3, [r5, #1]
  dc:	f894 303c 	ldrb.w	r3, [r4, #60]	; 0x3c
  e0:	70ab      	strb	r3, [r5, #2]
  e2:	6833      	ldr	r3, [r6, #0]
  e4:	ba1b      	rev	r3, r3
  e6:	606b      	str	r3, [r5, #4]
  e8:	7973      	ldrb	r3, [r6, #5]
  ea:	3b04      	subs	r3, #4
  ec:	2b01      	cmp	r3, #1
  ee:	d8c3      	bhi.n	78 <dhcp_create_msg+0x78>
  f0:	e7c0      	b.n	74 <dhcp_create_msg+0x74>
  f2:	2700      	movs	r7, #0
  f4:	4638      	mov	r0, r7
  f6:	e8bd 83f8 	ldmia.w	sp!, {r3, r4, r5, r6, r7, r8, r9, pc}
  fa:	f1b9 0f07 	cmp.w	r9, #7
  fe:	d0b9      	beq.n	74 <dhcp_create_msg+0x74>
 100:	f1b9 0f03 	cmp.w	r9, #3
 104:	d1b8      	bne.n	78 <dhcp_create_msg+0x78>
 106:	e7ef      	b.n	e8 <dhcp_create_msg+0xe8>
 108:	79b3      	ldrb	r3, [r6, #6]
 10a:	b123      	cbz	r3, 116 <dhcp_create_msg+0x116>
 10c:	4b0c      	ldr	r3, [pc, #48]	; (140 <dhcp_create_msg+0x140>)
 10e:	4629      	mov	r1, r5
 110:	681b      	ldr	r3, [r3, #0]
 112:	6033      	str	r3, [r6, #0]
 114:	e7d9      	b.n	ca <dhcp_create_msg+0xca>
 116:	f7ff fffe 	bl	0 <qnethernet_hal_rand>
 11a:	4b09      	ldr	r3, [pc, #36]	; (140 <dhcp_create_msg+0x140>)
 11c:	6018      	str	r0, [r3, #0]
 11e:	e792      	b.n	46 <dhcp_create_msg+0x46>
 120:	4b08      	ldr	r3, [pc, #32]	; (144 <dhcp_create_msg+0x144>)
 122:	f240 727a 	movw	r2, #1914	; 0x77a
 126:	4908      	ldr	r1, [pc, #32]	; (148 <dhcp_create_msg+0x148>)
 128:	4808      	ldr	r0, [pc, #32]	; (14c <dhcp_create_msg+0x14c>)
 12a:	f7ff fffe 	bl	0 <printf>
 12e:	4628      	mov	r0, r5
 130:	f7ff fffe 	bl	0 <fflush>
 134:	2001      	movs	r0, #1
 136:	f7ff fffe 	bl	0 <qnethernet_hal_stdio_flush>
 13a:	f7ff fffe 	bl	0 <abort>
 13e:	bf00      	nop
 140:	00000000 	.word	0x00000000
 144:	00000000 	.word	0x00000000
 148:	0000002c 	.word	0x0000002c
 14c:	0000006c 	.word	0x0000006c

Disassembly of section .text.dhcp_inc_pcb_refcount:

00000000 <dhcp_inc_pcb_refcount>:
   0:	b570      	push	{r4, r5, r6, lr}
   2:	4d19      	ldr	r5, [pc, #100]	; (68 <dhcp_inc_pcb_refcount+0x68>)
   4:	782c      	ldrb	r4, [r5, #0]
   6:	b9cc      	cbnz	r4, 3c <dhcp_inc_pcb_refcount+0x3c>
   8:	4e18      	ldr	r6, [pc, #96]	; (6c <dhcp_inc_pcb_refcount+0x6c>)
   a:	6833      	ldr	r3, [r6, #0]
   c:	b9d3      	cbnz	r3, 44 <dhcp_inc_pcb_refcount+0x44>
   e:	f7ff fffe 	bl	0 <udp_new>
  12:	6030      	str	r0, [r6, #0]
  14:	b328      	cbz	r0, 62 <dhcp_inc_pcb_refcount+0x62>
  16:	7a42      	ldrb	r2, [r0, #9]
  18:	4915      	ldr	r1, [pc, #84]	; (70 <dhcp_inc_pcb_refcount+0x70>)
  1a:	f042 0220 	orr.w	r2, r2, #32
  1e:	7242      	strb	r2, [r0, #9]
  20:	2244      	movs	r2, #68	; 0x44
  22:	f7ff fffe 	bl	0 <udp_bind>
  26:	4912      	ldr	r1, [pc, #72]	; (70 <dhcp_inc_pcb_refcount+0x70>)
  28:	2243      	movs	r2, #67	; 0x43
  2a:	6830      	ldr	r0, [r6, #0]
  2c:	f7ff fffe 	bl	0 <udp_connect>
  30:	4622      	mov	r2, r4
  32:	4910      	ldr	r1, [pc, #64]	; (74 <dhcp_inc_pcb_refcount+0x74>)
  34:	6830      	ldr	r0, [r6, #0]
  36:	f7ff fffe 	bl	0 <udp_recv>
  3a:	782c      	ldrb	r4, [r5, #0]
  3c:	3401      	adds	r4, #1
  3e:	2000      	movs	r0, #0
  40:	702c      	strb	r4, [r5, #0]
  42:	bd70      	pop	{r4, r5, r6, pc}
  44:	4b0c      	ldr	r3, [pc, #48]	; (78 <dhcp_inc_pcb_refcount+0x78>)
  46:	f44f 728a 	mov.w	r2, #276	; 0x114
  4a:	490c      	ldr	r1, [pc, #48]	; (7c <dhcp_inc_pcb_refcount+0x7c>)
  4c:	480c      	ldr	r0, [pc, #48]	; (80 <dhcp_inc_pcb_refcount+0x80>)
  4e:	f7ff fffe 	bl	0 <printf>
  52:	4620      	mov	r0, r4
  54:	f7ff fffe 	bl	0 <fflush>
  58:	2001      	movs	r0, #1
  5a:	f7ff fffe 	bl	0 <qnethernet_hal_stdio_flush>
  5e:	f7ff fffe 	bl	0 <abort>
  62:	f04f 30ff 	mov.w	r0, #4294967295	; 0xffffffff
  66:	bd70      	pop	{r4, r5, r6, pc}
  68:	00000000 	.word	0x00000000
  6c:	00000000 	.word	0x00000000
  70:	00000000 	.word	0x00000000
  74:	00000000 	.word	0x00000000
  78:	00000000 	.word	0x00000000
  7c:	00000000 	.word	0x00000000
  80:	0000006c 	.word	0x0000006c

Disassembly of section .text.dhcp_bind:

00000000 <dhcp_bind>:
   0:	2800      	cmp	r0, #0
   2:	d07f      	beq.n	104 <dhcp_bind+0x104>
   4:	69c1      	ldr	r1, [r0, #28]
   6:	2900      	cmp	r1, #0
   8:	d07c      	beq.n	104 <dhcp_bind+0x104>
   a:	6a8b      	ldr	r3, [r1, #40]	; 0x28
   c:	2200      	movs	r2, #0
   e:	b510      	push	{r4, lr}
  10:	1c5c      	adds	r4, r3, #1
  12:	b082      	sub	sp, #8
  14:	824a      	strh	r2, [r1, #18]
  16:	d00d      	beq.n	34 <dhcp_bind+0x34>
  18:	331e      	adds	r3, #30
  1a:	f5b3 1f70 	cmp.w	r3, #3932160	; 0x3c0000
  1e:	d267      	bcs.n	f0 <dhcp_bind+0xf0>
  20:	f1a2 3277 	sub.w	r2, r2, #2004318071	; 0x77777777
  24:	fba2 2303 	umull	r2, r3, r2, r3
  28:	095b      	lsrs	r3, r3, #5
  2a:	2b01      	cmp	r3, #1
  2c:	bf38      	it	cc
  2e:	2301      	movcc	r3, #1
  30:	b29b      	uxth	r3, r3
  32:	828b      	strh	r3, [r1, #20]
  34:	6acb      	ldr	r3, [r1, #44]	; 0x2c
  36:	1c5a      	adds	r2, r3, #1
  38:	d03a      	beq.n	b0 <dhcp_bind+0xb0>
  3a:	331e      	adds	r3, #30
  3c:	f5b3 1f70 	cmp.w	r3, #3932160	; 0x3c0000
  40:	d24e      	bcs.n	e0 <dhcp_bind+0xe0>
  42:	4a31      	ldr	r2, [pc, #196]	; (108 <dhcp_bind+0x108>)
  44:	fba2 2303 	umull	r2, r3, r2, r3
  48:	095b      	lsrs	r3, r3, #5
  4a:	2b01      	cmp	r3, #1
  4c:	bf38      	it	cc
  4e:	2301      	movcc	r3, #1
  50:	b29b      	uxth	r3, r3
  52:	6b0a      	ldr	r2, [r1, #48]	; 0x30
  54:	814b      	strh	r3, [r1, #10]
  56:	1c54      	adds	r4, r2, #1
  58:	81cb      	strh	r3, [r1, #14]
  5a:	d02d      	beq.n	b8 <dhcp_bind+0xb8>
  5c:	321e      	adds	r2, #30
  5e:	f5b2 1f70 	cmp.w	r2, #3932160	; 0x3c0000
  62:	d240      	bcs.n	e6 <dhcp_bind+0xe6>
  64:	4c28      	ldr	r4, [pc, #160]	; (108 <dhcp_bind+0x108>)
  66:	fba4 4202 	umull	r4, r2, r4, r2
  6a:	0952      	lsrs	r2, r2, #5
  6c:	2a01      	cmp	r2, #1
  6e:	bf38      	it	cc
  70:	2201      	movcc	r2, #1
  72:	b292      	uxth	r2, r2
  74:	f102 3cff 	add.w	ip, r2, #4294967295	; 0xffffffff
  78:	fa1f fc8c 	uxth.w	ip, ip
  7c:	4563      	cmp	r3, ip
  7e:	818a      	strh	r2, [r1, #12]
  80:	820a      	strh	r2, [r1, #16]
  82:	d821      	bhi.n	c8 <dhcp_bind+0xc8>
  84:	79cb      	ldrb	r3, [r1, #7]
  86:	07db      	lsls	r3, r3, #31
  88:	d523      	bpl.n	d2 <dhcp_bind+0xd2>
  8a:	6a0b      	ldr	r3, [r1, #32]
  8c:	794a      	ldrb	r2, [r1, #5]
  8e:	9300      	str	r3, [sp, #0]
  90:	2a0a      	cmp	r2, #10
  92:	6a4b      	ldr	r3, [r1, #36]	; 0x24
  94:	9301      	str	r3, [sp, #4]
  96:	d004      	beq.n	a2 <dhcp_bind+0xa2>
  98:	2300      	movs	r3, #0
  9a:	220a      	movs	r2, #10
  9c:	718b      	strb	r3, [r1, #6]
  9e:	714a      	strb	r2, [r1, #5]
  a0:	810b      	strh	r3, [r1, #8]
  a2:	ab01      	add	r3, sp, #4
  a4:	466a      	mov	r2, sp
  a6:	311c      	adds	r1, #28
  a8:	f7ff fffe 	bl	0 <netif_set_addr>
  ac:	b002      	add	sp, #8
  ae:	bd10      	pop	{r4, pc}
  b0:	6b0a      	ldr	r2, [r1, #48]	; 0x30
  b2:	894b      	ldrh	r3, [r1, #10]
  b4:	1c54      	adds	r4, r2, #1
  b6:	d1d1      	bne.n	5c <dhcp_bind+0x5c>
  b8:	f8b1 c00c 	ldrh.w	ip, [r1, #12]
  bc:	f10c 3cff 	add.w	ip, ip, #4294967295	; 0xffffffff
  c0:	fa1f fc8c 	uxth.w	ip, ip
  c4:	4563      	cmp	r3, ip
  c6:	d9dd      	bls.n	84 <dhcp_bind+0x84>
  c8:	2300      	movs	r3, #0
  ca:	814b      	strh	r3, [r1, #10]
  cc:	79cb      	ldrb	r3, [r1, #7]
  ce:	07db      	lsls	r3, r3, #31
  d0:	d4db      	bmi.n	8a <dhcp_bind+0x8a>
  d2:	f991 301c 	ldrsb.w	r3, [r1, #28]
  d6:	7f0a      	ldrb	r2, [r1, #28]
  d8:	2b00      	cmp	r3, #0
  da:	db0c      	blt.n	f6 <dhcp_bind+0xf6>
  dc:	23ff      	movs	r3, #255	; 0xff
  de:	e7d5      	b.n	8c <dhcp_bind+0x8c>
  e0:	f64f 73ff 	movw	r3, #65535	; 0xffff
  e4:	e7b5      	b.n	52 <dhcp_bind+0x52>
  e6:	f64f 7cfe 	movw	ip, #65534	; 0xfffe
  ea:	f64f 72ff 	movw	r2, #65535	; 0xffff
  ee:	e7c5      	b.n	7c <dhcp_bind+0x7c>
  f0:	f64f 73ff 	movw	r3, #65535	; 0xffff
  f4:	e79d      	b.n	32 <dhcp_bind+0x32>
  f6:	2ac0      	cmp	r2, #192	; 0xc0
  f8:	f64f 73ff 	movw	r3, #65535	; 0xffff
  fc:	bf28      	it	cs
  fe:	f06f 437f 	mvncs.w	r3, #4278190080	; 0xff000000
 102:	e7c3      	b.n	8c <dhcp_bind+0x8c>
 104:	4770      	bx	lr
 106:	bf00      	nop
 108:	88888889 	.word	0x88888889

Disassembly of section .text.dhcp_option_short.part.0:

00000000 <dhcp_option_short.part.0>:
   0:	b508      	push	{r3, lr}
   2:	f240 52b4 	movw	r2, #1460	; 0x5b4
   6:	4b06      	ldr	r3, [pc, #24]	; (20 <dhcp_option_short.part.0+0x20>)
   8:	4906      	ldr	r1, [pc, #24]	; (24 <dhcp_option_short.part.0+0x24>)
   a:	4807      	ldr	r0, [pc, #28]	; (28 <dhcp_option_short.part.0+0x28>)
   c:	f7ff fffe 	bl	0 <printf>
  10:	2000      	movs	r0, #0
  12:	f7ff fffe 	bl	0 <fflush>
  16:	2001      	movs	r0, #1
  18:	f7ff fffe 	bl	0 <qnethernet_hal_stdio_flush>
  1c:	f7ff fffe 	bl	0 <abort>
  20:	00000000 	.word	0x00000000
  24:	00000000 	.word	0x00000000
  28:	0000006c 	.word	0x0000006c

Disassembly of section .text.dhcp_option.part.0:

00000000 <dhcp_option.part.0>:
   0:	b508      	push	{r3, lr}
   2:	f44f 62b4 	mov.w	r2, #1440	; 0x5a0
   6:	4b06      	ldr	r3, [pc, #24]	; (20 <dhcp_option.part.0+0x20>)
   8:	4906      	ldr	r1, [pc, #24]	; (24 <dhcp_option.part.0+0x24>)
   a:	4807      	ldr	r0, [pc, #28]	; (28 <dhcp_option.part.0+0x28>)
   c:	f7ff fffe 	bl	0 <printf>
  10:	2000      	movs	r0, #0
  12:	f7ff fffe 	bl	0 <fflush>
  16:	2001      	movs	r0, #1
  18:	f7ff fffe 	bl	0 <qnethernet_hal_stdio_flush>
  1c:	f7ff fffe 	bl	0 <abort>
  20:	00000000 	.word	0x00000000
  24:	00000000 	.word	0x00000000
  28:	0000006c 	.word	0x0000006c

Disassembly of section .text.dhcp_option_byte.part.0:

00000000 <dhcp_option_byte.part.0>:
   0:	b508      	push	{r3, lr}
   2:	f240 52ac 	movw	r2, #1452	; 0x5ac
   6:	4b06      	ldr	r3, [pc, #24]	; (20 <dhcp_option_byte.part.0+0x20>)
   8:	4906      	ldr	r1, [pc, #24]	; (24 <dhcp_option_byte.part.0+0x24>)
   a:	4807      	ldr	r0, [pc, #28]	; (28 <dhcp_option_byte.part.0+0x28>)
   c:	f7ff fffe 	bl	0 <printf>
  10:	2000      	movs	r0, #0
  12:	f7ff fffe 	bl	0 <fflush>
  16:	2001      	movs	r0, #1
  18:	f7ff fffe 	bl	0 <qnethernet_hal_stdio_flush>
  1c:	f7ff fffe 	bl	0 <abort>
  20:	00000000 	.word	0x00000000
  24:	00000000 	.word	0x00000000
  28:	0000006c 	.word	0x0000006c

Disassembly of section .text.dhcp_option_long:

00000000 <dhcp_option_long>:
   0:	4603      	mov	r3, r0
   2:	3004      	adds	r0, #4
   4:	2844      	cmp	r0, #68	; 0x44
   6:	b510      	push	{r4, lr}
   8:	d815      	bhi.n	36 <dhcp_option_long+0x36>
   a:	0e14      	lsrs	r4, r2, #24
   c:	f103 0e01 	add.w	lr, r3, #1
  10:	f103 0c02 	add.w	ip, r3, #2
  14:	b280      	uxth	r0, r0
  16:	54cc      	strb	r4, [r1, r3]
  18:	fa1f fe8e 	uxth.w	lr, lr
  1c:	0c14      	lsrs	r4, r2, #16
  1e:	3303      	adds	r3, #3
  20:	fa1f fc8c 	uxth.w	ip, ip
  24:	f801 400e 	strb.w	r4, [r1, lr]
  28:	b29b      	uxth	r3, r3
  2a:	ea4f 2e12 	mov.w	lr, r2, lsr #8
  2e:	f801 e00c 	strb.w	lr, [r1, ip]
  32:	54ca      	strb	r2, [r1, r3]
  34:	bd10      	pop	{r4, pc}
  36:	4b07      	ldr	r3, [pc, #28]	; (54 <dhcp_option_long+0x54>)
  38:	f240 52bd 	movw	r2, #1469	; 0x5bd
  3c:	4906      	ldr	r1, [pc, #24]	; (58 <dhcp_option_long+0x58>)
  3e:	4807      	ldr	r0, [pc, #28]	; (5c <dhcp_option_long+0x5c>)
  40:	f7ff fffe 	bl	0 <printf>
  44:	2000      	movs	r0, #0
  46:	f7ff fffe 	bl	0 <fflush>
  4a:	2001      	movs	r0, #1
  4c:	f7ff fffe 	bl	0 <qnethernet_hal_stdio_flush>
  50:	f7ff fffe 	bl	0 <abort>
  54:	00000000 	.word	0x00000000
  58:	00000000 	.word	0x00000000
  5c:	0000006c 	.word	0x0000006c

Disassembly of section .text.dhcp_dec_pcb_refcount:

00000000 <dhcp_dec_pcb_refcount>:
   0:	b538      	push	{r3, r4, r5, lr}
   2:	4b0e      	ldr	r3, [pc, #56]	; (3c <dhcp_dec_pcb_refcount+0x3c>)
   4:	781c      	ldrb	r4, [r3, #0]
   6:	b154      	cbz	r4, 1e <dhcp_dec_pcb_refcount+0x1e>
   8:	3c01      	subs	r4, #1
   a:	b2e4      	uxtb	r4, r4
   c:	701c      	strb	r4, [r3, #0]
   e:	b104      	cbz	r4, 12 <dhcp_dec_pcb_refcount+0x12>
  10:	bd38      	pop	{r3, r4, r5, pc}
  12:	4d0b      	ldr	r5, [pc, #44]	; (40 <dhcp_dec_pcb_refcount+0x40>)
  14:	6828      	ldr	r0, [r5, #0]
  16:	f7ff fffe 	bl	0 <udp_remove>
  1a:	602c      	str	r4, [r5, #0]
  1c:	bd38      	pop	{r3, r4, r5, pc}
  1e:	4b09      	ldr	r3, [pc, #36]	; (44 <dhcp_dec_pcb_refcount+0x44>)
  20:	f44f 7297 	mov.w	r2, #302	; 0x12e
  24:	4908      	ldr	r1, [pc, #32]	; (48 <dhcp_dec_pcb_refcount+0x48>)
  26:	4809      	ldr	r0, [pc, #36]	; (4c <dhcp_dec_pcb_refcount+0x4c>)
  28:	f7ff fffe 	bl	0 <printf>
  2c:	4620      	mov	r0, r4
  2e:	f7ff fffe 	bl	0 <fflush>
  32:	2001      	movs	r0, #1
  34:	f7ff fffe 	bl	0 <qnethernet_hal_stdio_flush>
  38:	f7ff fffe 	bl	0 <abort>
  3c:	00000000 	.word	0x00000000
  40:	00000000 	.word	0x00000000
  44:	00000000 	.word	0x00000000
  48:	00000000 	.word	0x00000000
  4c:	0000006c 	.word	0x0000006c

Disassembly of section .text.dhcp_handle_ack.isra.0:

00000000 <dhcp_handle_ack.isra.0>:
   0:	b530      	push	{r4, r5, lr}
   2:	4c24      	ldr	r4, [pc, #144]	; (94 <dhcp_handle_ack.isra.0+0x94>)
   4:	2300      	movs	r3, #0
   6:	b083      	sub	sp, #12
   8:	78e2      	ldrb	r2, [r4, #3]
   a:	e9c0 3308 	strd	r3, r3, [r0, #32]
   e:	b112      	cbz	r2, 16 <dhcp_handle_ack.isra.0+0x16>
  10:	4b21      	ldr	r3, [pc, #132]	; (98 <dhcp_handle_ack.isra.0+0x98>)
  12:	68db      	ldr	r3, [r3, #12]
  14:	6283      	str	r3, [r0, #40]	; 0x28
  16:	7923      	ldrb	r3, [r4, #4]
  18:	2b00      	cmp	r3, #0
  1a:	d038      	beq.n	8e <dhcp_handle_ack.isra.0+0x8e>
  1c:	4b1e      	ldr	r3, [pc, #120]	; (98 <dhcp_handle_ack.isra.0+0x98>)
  1e:	691b      	ldr	r3, [r3, #16]
  20:	7962      	ldrb	r2, [r4, #5]
  22:	62c3      	str	r3, [r0, #44]	; 0x2c
  24:	2a00      	cmp	r2, #0
  26:	d02d      	beq.n	84 <dhcp_handle_ack.isra.0+0x84>
  28:	4b1b      	ldr	r3, [pc, #108]	; (98 <dhcp_handle_ack.isra.0+0x98>)
  2a:	695b      	ldr	r3, [r3, #20]
  2c:	6303      	str	r3, [r0, #48]	; 0x30
  2e:	79a3      	ldrb	r3, [r4, #6]
  30:	690a      	ldr	r2, [r1, #16]
  32:	61c2      	str	r2, [r0, #28]
  34:	b313      	cbz	r3, 7c <dhcp_handle_ack.isra.0+0x7c>
  36:	4a18      	ldr	r2, [pc, #96]	; (98 <dhcp_handle_ack.isra.0+0x98>)
  38:	79c3      	ldrb	r3, [r0, #7]
  3a:	6992      	ldr	r2, [r2, #24]
  3c:	f043 0301 	orr.w	r3, r3, #1
  40:	ba12      	rev	r2, r2
  42:	6202      	str	r2, [r0, #32]
  44:	71c3      	strb	r3, [r0, #7]
  46:	79e3      	ldrb	r3, [r4, #7]
  48:	b11b      	cbz	r3, 52 <dhcp_handle_ack.isra.0+0x52>
  4a:	4b13      	ldr	r3, [pc, #76]	; (98 <dhcp_handle_ack.isra.0+0x98>)
  4c:	69db      	ldr	r3, [r3, #28]
  4e:	ba1b      	rev	r3, r3
  50:	6243      	str	r3, [r0, #36]	; 0x24
  52:	7a23      	ldrb	r3, [r4, #8]
  54:	b183      	cbz	r3, 78 <dhcp_handle_ack.isra.0+0x78>
  56:	4d10      	ldr	r5, [pc, #64]	; (98 <dhcp_handle_ack.isra.0+0x98>)
  58:	2000      	movs	r0, #0
  5a:	a901      	add	r1, sp, #4
  5c:	6a2b      	ldr	r3, [r5, #32]
  5e:	ba1b      	rev	r3, r3
  60:	9301      	str	r3, [sp, #4]
  62:	f7ff fffe 	bl	0 <dns_setserver>
  66:	7a63      	ldrb	r3, [r4, #9]
  68:	b133      	cbz	r3, 78 <dhcp_handle_ack.isra.0+0x78>
  6a:	6a6b      	ldr	r3, [r5, #36]	; 0x24
  6c:	a901      	add	r1, sp, #4
  6e:	2001      	movs	r0, #1
  70:	ba1b      	rev	r3, r3
  72:	9301      	str	r3, [sp, #4]
  74:	f7ff fffe 	bl	0 <dns_setserver>
  78:	b003      	add	sp, #12
  7a:	bd30      	pop	{r4, r5, pc}
  7c:	79c3      	ldrb	r3, [r0, #7]
  7e:	f003 03fe 	and.w	r3, r3, #254	; 0xfe
  82:	e7df      	b.n	44 <dhcp_handle_ack.isra.0+0x44>
  84:	6a83      	ldr	r3, [r0, #40]	; 0x28
  86:	ebc3 03c3 	rsb	r3, r3, r3, lsl #3
  8a:	08db      	lsrs	r3, r3, #3
  8c:	e7ce      	b.n	2c <dhcp_handle_ack.isra.0+0x2c>
  8e:	6a83      	ldr	r3, [r0, #40]	; 0x28
  90:	085b      	lsrs	r3, r3, #1
  92:	e7c5      	b.n	20 <dhcp_handle_ack.isra.0+0x20>
  94:	00000000 	.word	0x00000000
  98:	00000000 	.word	0x00000000

Disassembly of section .text.dhcp_option_hostname.isra.0:

00000000 <dhcp_option_hostname.isra.0>:
   0:	b570      	push	{r4, r5, r6, lr}
   2:	4604      	mov	r4, r0
   4:	b362      	cbz	r2, 60 <dhcp_option_hostname.isra.0+0x60>
   6:	4610      	mov	r0, r2
   8:	460d      	mov	r5, r1
   a:	4616      	mov	r6, r2
   c:	f7ff fffe 	bl	0 <strlen>
  10:	b330      	cbz	r0, 60 <dhcp_option_hostname.isra.0+0x60>
  12:	f1c4 0341 	rsb	r3, r4, #65	; 0x41
  16:	4298      	cmp	r0, r3
  18:	d833      	bhi.n	82 <dhcp_option_hostname.isra.0+0x82>
  1a:	28ff      	cmp	r0, #255	; 0xff
  1c:	d836      	bhi.n	8c <dhcp_option_hostname.isra.0+0x8c>
  1e:	1ca1      	adds	r1, r4, #2
  20:	b2c2      	uxtb	r2, r0
  22:	1843      	adds	r3, r0, r1
  24:	2b44      	cmp	r3, #68	; 0x44
  26:	d835      	bhi.n	94 <dhcp_option_hostname.isra.0+0x94>
  28:	1c63      	adds	r3, r4, #1
  2a:	f04f 0c0c 	mov.w	ip, #12
  2e:	b29b      	uxth	r3, r3
  30:	f805 c004 	strb.w	ip, [r5, r4]
  34:	b28c      	uxth	r4, r1
  36:	54ea      	strb	r2, [r5, r3]
  38:	4633      	mov	r3, r6
  3a:	2c43      	cmp	r4, #67	; 0x43
  3c:	f813 cb01 	ldrb.w	ip, [r3], #1
  40:	d810      	bhi.n	64 <dhcp_option_hostname.isra.0+0x64>
  42:	b289      	uxth	r1, r1
  44:	1832      	adds	r2, r6, r0
  46:	3901      	subs	r1, #1
  48:	4429      	add	r1, r5
  4a:	e003      	b.n	54 <dhcp_option_hostname.isra.0+0x54>
  4c:	2c44      	cmp	r4, #68	; 0x44
  4e:	f813 cb01 	ldrb.w	ip, [r3], #1
  52:	d007      	beq.n	64 <dhcp_option_hostname.isra.0+0x64>
  54:	3401      	adds	r4, #1
  56:	4293      	cmp	r3, r2
  58:	f801 cf01 	strb.w	ip, [r1, #1]!
  5c:	b2a4      	uxth	r4, r4
  5e:	d1f5      	bne.n	4c <dhcp_option_hostname.isra.0+0x4c>
  60:	4620      	mov	r0, r4
  62:	bd70      	pop	{r4, r5, r6, pc}
  64:	4b0c      	ldr	r3, [pc, #48]	; (98 <dhcp_option_hostname.isra.0+0x98>)
  66:	f240 52ac 	movw	r2, #1452	; 0x5ac
  6a:	490c      	ldr	r1, [pc, #48]	; (9c <dhcp_option_hostname.isra.0+0x9c>)
  6c:	480c      	ldr	r0, [pc, #48]	; (a0 <dhcp_option_hostname.isra.0+0xa0>)
  6e:	f7ff fffe 	bl	0 <printf>
  72:	2000      	movs	r0, #0
  74:	f7ff fffe 	bl	0 <fflush>
  78:	2001      	movs	r0, #1
  7a:	f7ff fffe 	bl	0 <qnethernet_hal_stdio_flush>
  7e:	f7ff fffe 	bl	0 <abort>
  82:	4b05      	ldr	r3, [pc, #20]	; (98 <dhcp_option_hostname.isra.0+0x98>)
  84:	f240 52d1 	movw	r2, #1489	; 0x5d1
  88:	4906      	ldr	r1, [pc, #24]	; (a4 <dhcp_option_hostname.isra.0+0xa4>)
  8a:	e7ef      	b.n	6c <dhcp_option_hostname.isra.0+0x6c>
  8c:	4b02      	ldr	r3, [pc, #8]	; (98 <dhcp_option_hostname.isra.0+0x98>)
  8e:	f240 52d3 	movw	r2, #1491	; 0x5d3
  92:	e7f9      	b.n	88 <dhcp_option_hostname.isra.0+0x88>
  94:	f7ff fffe 	bl	0 <dhcp_option_hostname.isra.0>
  98:	00000000 	.word	0x00000000
  9c:	00000000 	.word	0x00000000
  a0:	0000006c 	.word	0x0000006c
  a4:	00000000 	.word	0x00000000

Disassembly of section .text.dhcp_discover:

00000000 <dhcp_discover>:
   0:	e92d 41f0 	stmdb	sp!, {r4, r5, r6, r7, r8, lr}
   4:	69c5      	ldr	r5, [r0, #28]
   6:	b084      	sub	sp, #16
   8:	4606      	mov	r6, r0
   a:	79ab      	ldrb	r3, [r5, #6]
   c:	2b08      	cmp	r3, #8
   e:	f200 80ad 	bhi.w	16c <dhcp_discover+0x16c>
  12:	796a      	ldrb	r2, [r5, #5]
  14:	2300      	movs	r3, #0
  16:	2a06      	cmp	r2, #6
  18:	61eb      	str	r3, [r5, #28]
  1a:	d003      	beq.n	24 <dhcp_discover+0x24>
  1c:	2206      	movs	r2, #6
  1e:	71ab      	strb	r3, [r5, #6]
  20:	812b      	strh	r3, [r5, #8]
  22:	716a      	strb	r2, [r5, #5]
  24:	f10d 030e 	add.w	r3, sp, #14
  28:	2201      	movs	r2, #1
  2a:	4629      	mov	r1, r5
  2c:	4630      	mov	r0, r6
  2e:	f7ff fffe 	bl	0 <dhcp_discover>
  32:	4604      	mov	r4, r0
  34:	2800      	cmp	r0, #0
  36:	d07c      	beq.n	132 <dhcp_discover+0x132>
  38:	f8bd 300e 	ldrh.w	r3, [sp, #14]
  3c:	f8d0 8004 	ldr.w	r8, [r0, #4]
  40:	1d18      	adds	r0, r3, #4
  42:	f103 0c02 	add.w	ip, r3, #2
  46:	f108 07f0 	add.w	r7, r8, #240	; 0xf0
  4a:	2844      	cmp	r0, #68	; 0x44
  4c:	f200 8091 	bhi.w	172 <dhcp_discover+0x172>
  50:	f04f 0e39 	mov.w	lr, #57	; 0x39
  54:	1c5a      	adds	r2, r3, #1
  56:	fa1f f18c 	uxth.w	r1, ip
  5a:	f807 e003 	strb.w	lr, [r7, r3]
  5e:	b292      	uxth	r2, r2
  60:	f04f 0e02 	mov.w	lr, #2
  64:	f807 e002 	strb.w	lr, [r7, r2]
  68:	f8ad c00e 	strh.w	ip, [sp, #14]
  6c:	eb01 0c0e 	add.w	ip, r1, lr
  70:	8eb2      	ldrh	r2, [r6, #52]	; 0x34
  72:	f1bc 0f44 	cmp.w	ip, #68	; 0x44
  76:	d87e      	bhi.n	176 <dhcp_discover+0x176>
  78:	3303      	adds	r3, #3
  7a:	ea4f 2c12 	mov.w	ip, r2, lsr #8
  7e:	b280      	uxth	r0, r0
  80:	b29b      	uxth	r3, r3
  82:	f807 c001 	strb.w	ip, [r7, r1]
  86:	4639      	mov	r1, r7
  88:	54fa      	strb	r2, [r7, r3]
  8a:	6b32      	ldr	r2, [r6, #48]	; 0x30
  8c:	f8ad 000e 	strh.w	r0, [sp, #14]
  90:	f7ff fffe 	bl	0 <dhcp_discover>
  94:	f100 0c06 	add.w	ip, r0, #6
  98:	f8ad 000e 	strh.w	r0, [sp, #14]
  9c:	f1bc 0f44 	cmp.w	ip, #68	; 0x44
  a0:	d867      	bhi.n	172 <dhcp_discover+0x172>
  a2:	1c82      	adds	r2, r0, #2
  a4:	1c43      	adds	r3, r0, #1
  a6:	f04f 0e37 	mov.w	lr, #55	; 0x37
  aa:	fa1f fc8c 	uxth.w	ip, ip
  ae:	b292      	uxth	r2, r2
  b0:	f807 e000 	strb.w	lr, [r7, r0]
  b4:	b29b      	uxth	r3, r3
  b6:	2004      	movs	r0, #4
  b8:	f102 01ef 	add.w	r1, r2, #239	; 0xef
  bc:	2a43      	cmp	r2, #67	; 0x43
  be:	f8df e0cc 	ldr.w	lr, [pc, #204]	; 18c <dhcp_discover+0x18c>
  c2:	54f8      	strb	r0, [r7, r3]
  c4:	4441      	add	r1, r8
  c6:	f04f 0001 	mov.w	r0, #1
  ca:	f8ad 200e 	strh.w	r2, [sp, #14]
  ce:	d80c      	bhi.n	ea <dhcp_discover+0xea>
  d0:	1c53      	adds	r3, r2, #1
  d2:	f801 0f01 	strb.w	r0, [r1, #1]!
  d6:	b29b      	uxth	r3, r3
  d8:	459c      	cmp	ip, r3
  da:	f8ad 300e 	strh.w	r3, [sp, #14]
  de:	d006      	beq.n	ee <dhcp_discover+0xee>
  e0:	461a      	mov	r2, r3
  e2:	f81e 0f01 	ldrb.w	r0, [lr, #1]!
  e6:	2a43      	cmp	r2, #67	; 0x43
  e8:	d9f2      	bls.n	d0 <dhcp_discover+0xd0>
  ea:	f7ff fffe 	bl	0 <dhcp_discover>
  ee:	1c90      	adds	r0, r2, #2
  f0:	23ff      	movs	r3, #255	; 0xff
  f2:	b280      	uxth	r0, r0
  f4:	f807 300c 	strb.w	r3, [r7, ip]
  f8:	2843      	cmp	r0, #67	; 0x43
  fa:	d807      	bhi.n	10c <dhcp_discover+0x10c>
  fc:	f1c2 0242 	rsb	r2, r2, #66	; 0x42
 100:	4438      	add	r0, r7
 102:	2100      	movs	r1, #0
 104:	b292      	uxth	r2, r2
 106:	f7ff fffe 	bl	0 <memset>
 10a:	2044      	movs	r0, #68	; 0x44
 10c:	f100 01f0 	add.w	r1, r0, #240	; 0xf0
 110:	4620      	mov	r0, r4
 112:	4f1a      	ldr	r7, [pc, #104]	; (17c <dhcp_discover+0x17c>)
 114:	b289      	uxth	r1, r1
 116:	f7ff fffe 	bl	0 <pbuf_realloc>
 11a:	4819      	ldr	r0, [pc, #100]	; (180 <dhcp_discover+0x180>)
 11c:	2343      	movs	r3, #67	; 0x43
 11e:	4a19      	ldr	r2, [pc, #100]	; (184 <dhcp_discover+0x184>)
 120:	6800      	ldr	r0, [r0, #0]
 122:	4621      	mov	r1, r4
 124:	e9cd 6700 	strd	r6, r7, [sp]
 128:	f7ff fffe 	bl	0 <udp_sendto_if_src>
 12c:	4620      	mov	r0, r4
 12e:	f7ff fffe 	bl	0 <pbuf_free>
 132:	79ab      	ldrb	r3, [r5, #6]
 134:	2bff      	cmp	r3, #255	; 0xff
 136:	d013      	beq.n	160 <dhcp_discover+0x160>
 138:	3301      	adds	r3, #1
 13a:	b2da      	uxtb	r2, r3
 13c:	2a05      	cmp	r2, #5
 13e:	71aa      	strb	r2, [r5, #6]
 140:	d80e      	bhi.n	160 <dhcp_discover+0x160>
 142:	f44f 737a 	mov.w	r3, #1000	; 0x3e8
 146:	4910      	ldr	r1, [pc, #64]	; (188 <dhcp_discover+0x188>)
 148:	2000      	movs	r0, #0
 14a:	4093      	lsls	r3, r2
 14c:	f203 13f3 	addw	r3, r3, #499	; 0x1f3
 150:	b29b      	uxth	r3, r3
 152:	fba1 1303 	umull	r1, r3, r1, r3
 156:	095b      	lsrs	r3, r3, #5
 158:	812b      	strh	r3, [r5, #8]
 15a:	b004      	add	sp, #16
 15c:	e8bd 81f0 	ldmia.w	sp!, {r4, r5, r6, r7, r8, pc}
 160:	2378      	movs	r3, #120	; 0x78
 162:	2000      	movs	r0, #0
 164:	812b      	strh	r3, [r5, #8]
 166:	b004      	add	sp, #16
 168:	e8bd 81f0 	ldmia.w	sp!, {r4, r5, r6, r7, r8, pc}
 16c:	f7ff fffe 	bl	0 <autoip_start>
 170:	e74f      	b.n	12 <dhcp_discover+0x12>
 172:	f7ff fffe 	bl	0 <dhcp_discover>
 176:	f7ff fffe 	bl	0 <dhcp_discover>
 17a:	bf00      	nop
 17c:	00000000 	.word	0x00000000
 180:	00000000 	.word	0x00000000
 184:	00000000 	.word	0x00000000
 188:	10624dd3 	.word	0x10624dd3
 18c:	00000000 	.word	0x00000000

Disassembly of section .text.dhcp_select.isra.0:

00000000 <dhcp_select.isra.0>:
   0:	2800      	cmp	r0, #0
   2:	f000 80d8 	beq.w	1b6 <dhcp_select.isra.0+0x1b6>
   6:	e92d 43f0 	stmdb	sp!, {r4, r5, r6, r7, r8, r9, lr}
   a:	69c5      	ldr	r5, [r0, #28]
   c:	b085      	sub	sp, #20
   e:	4606      	mov	r6, r0
  10:	2d00      	cmp	r5, #0
  12:	f000 80cb 	beq.w	1ac <dhcp_select.isra.0+0x1ac>
  16:	796b      	ldrb	r3, [r5, #5]
  18:	2b01      	cmp	r3, #1
  1a:	d004      	beq.n	26 <dhcp_select.isra.0+0x26>
  1c:	2300      	movs	r3, #0
  1e:	2201      	movs	r2, #1
  20:	71ab      	strb	r3, [r5, #6]
  22:	716a      	strb	r2, [r5, #5]
  24:	812b      	strh	r3, [r5, #8]
  26:	f10d 030e 	add.w	r3, sp, #14
  2a:	2203      	movs	r2, #3
  2c:	4629      	mov	r1, r5
  2e:	4630      	mov	r0, r6
  30:	f7ff fffe 	bl	0 <dhcp_select.isra.0>
  34:	4604      	mov	r4, r0
  36:	2800      	cmp	r0, #0
  38:	f000 80a5 	beq.w	186 <dhcp_select.isra.0+0x186>
  3c:	f8bd 000e 	ldrh.w	r0, [sp, #14]
  40:	f8d4 8004 	ldr.w	r8, [r4, #4]
  44:	1d03      	adds	r3, r0, #4
  46:	1c81      	adds	r1, r0, #2
  48:	f108 07f0 	add.w	r7, r8, #240	; 0xf0
  4c:	2b44      	cmp	r3, #68	; 0x44
  4e:	f200 80b3 	bhi.w	1b8 <dhcp_select.isra.0+0x1b8>
  52:	f04f 0e39 	mov.w	lr, #57	; 0x39
  56:	1c42      	adds	r2, r0, #1
  58:	fa1f fc81 	uxth.w	ip, r1
  5c:	f807 e000 	strb.w	lr, [r7, r0]
  60:	b292      	uxth	r2, r2
  62:	f04f 0e02 	mov.w	lr, #2
  66:	f807 e002 	strb.w	lr, [r7, r2]
  6a:	eb0c 020e 	add.w	r2, ip, lr
  6e:	f8ad 100e 	strh.w	r1, [sp, #14]
  72:	2a44      	cmp	r2, #68	; 0x44
  74:	8eb1      	ldrh	r1, [r6, #52]	; 0x34
  76:	f200 80a1 	bhi.w	1bc <dhcp_select.isra.0+0x1bc>
  7a:	1cc2      	adds	r2, r0, #3
  7c:	ea4f 2e11 	mov.w	lr, r1, lsr #8
  80:	b292      	uxth	r2, r2
  82:	f807 e00c 	strb.w	lr, [r7, ip]
  86:	54b9      	strb	r1, [r7, r2]
  88:	f100 020a 	add.w	r2, r0, #10
  8c:	f8ad 300e 	strh.w	r3, [sp, #14]
  90:	2a44      	cmp	r2, #68	; 0x44
  92:	f200 8091 	bhi.w	1b8 <dhcp_select.isra.0+0x1b8>
  96:	1d42      	adds	r2, r0, #5
  98:	2132      	movs	r1, #50	; 0x32
  9a:	f04f 0904 	mov.w	r9, #4
  9e:	3006      	adds	r0, #6
  a0:	b292      	uxth	r2, r2
  a2:	54f9      	strb	r1, [r7, r3]
  a4:	b280      	uxth	r0, r0
  a6:	4639      	mov	r1, r7
  a8:	f807 9002 	strb.w	r9, [r7, r2]
  ac:	69ea      	ldr	r2, [r5, #28]
  ae:	f8ad 000e 	strh.w	r0, [sp, #14]
  b2:	ba12      	rev	r2, r2
  b4:	f7ff fffe 	bl	0 <dhcp_select.isra.0>
  b8:	1d83      	adds	r3, r0, #6
  ba:	f8ad 000e 	strh.w	r0, [sp, #14]
  be:	2b44      	cmp	r3, #68	; 0x44
  c0:	d87a      	bhi.n	1b8 <dhcp_select.isra.0+0x1b8>
  c2:	1c42      	adds	r2, r0, #1
  c4:	1c83      	adds	r3, r0, #2
  c6:	2136      	movs	r1, #54	; 0x36
  c8:	b292      	uxth	r2, r2
  ca:	5439      	strb	r1, [r7, r0]
  cc:	b29b      	uxth	r3, r3
  ce:	f807 9002 	strb.w	r9, [r7, r2]
  d2:	4639      	mov	r1, r7
  d4:	69aa      	ldr	r2, [r5, #24]
  d6:	4618      	mov	r0, r3
  d8:	f8ad 300e 	strh.w	r3, [sp, #14]
  dc:	ba12      	rev	r2, r2
  de:	f7ff fffe 	bl	0 <dhcp_select.isra.0>
  e2:	f100 0c06 	add.w	ip, r0, #6
  e6:	f8ad 000e 	strh.w	r0, [sp, #14]
  ea:	f1bc 0f44 	cmp.w	ip, #68	; 0x44
  ee:	d863      	bhi.n	1b8 <dhcp_select.isra.0+0x1b8>
  f0:	1c83      	adds	r3, r0, #2
  f2:	1c41      	adds	r1, r0, #1
  f4:	f04f 0e37 	mov.w	lr, #55	; 0x37
  f8:	fa1f fc8c 	uxth.w	ip, ip
  fc:	b29b      	uxth	r3, r3
  fe:	b289      	uxth	r1, r1
 100:	f807 e000 	strb.w	lr, [r7, r0]
 104:	f103 02ef 	add.w	r2, r3, #239	; 0xef
 108:	2b43      	cmp	r3, #67	; 0x43
 10a:	f807 9001 	strb.w	r9, [r7, r1]
 10e:	f04f 0101 	mov.w	r1, #1
 112:	4442      	add	r2, r8
 114:	482a      	ldr	r0, [pc, #168]	; (1c0 <dhcp_select.isra.0+0x1c0>)
 116:	f8ad 300e 	strh.w	r3, [sp, #14]
 11a:	d80b      	bhi.n	134 <dhcp_select.isra.0+0x134>
 11c:	3301      	adds	r3, #1
 11e:	f802 1f01 	strb.w	r1, [r2, #1]!
 122:	b29b      	uxth	r3, r3
 124:	4563      	cmp	r3, ip
 126:	f8ad 300e 	strh.w	r3, [sp, #14]
 12a:	d005      	beq.n	138 <dhcp_select.isra.0+0x138>
 12c:	2b43      	cmp	r3, #67	; 0x43
 12e:	f810 1f01 	ldrb.w	r1, [r0, #1]!
 132:	d9f3      	bls.n	11c <dhcp_select.isra.0+0x11c>
 134:	f7ff fffe 	bl	0 <dhcp_select.isra.0>
 138:	4618      	mov	r0, r3
 13a:	6b32      	ldr	r2, [r6, #48]	; 0x30
 13c:	4639      	mov	r1, r7
 13e:	f7ff fffe 	bl	0 <dhcp_select.isra.0>
 142:	1c43      	adds	r3, r0, #1
 144:	22ff      	movs	r2, #255	; 0xff
 146:	f8ad 000e 	strh.w	r0, [sp, #14]
 14a:	b29b      	uxth	r3, r3
 14c:	543a      	strb	r2, [r7, r0]
 14e:	2b43      	cmp	r3, #67	; 0x43
 150:	d807      	bhi.n	162 <dhcp_select.isra.0+0x162>
 152:	f1c0 0243 	rsb	r2, r0, #67	; 0x43
 156:	2100      	movs	r1, #0
 158:	18f8      	adds	r0, r7, r3
 15a:	b292      	uxth	r2, r2
 15c:	f7ff fffe 	bl	0 <memset>
 160:	2344      	movs	r3, #68	; 0x44
 162:	33f0      	adds	r3, #240	; 0xf0
 164:	4620      	mov	r0, r4
 166:	4f17      	ldr	r7, [pc, #92]	; (1c4 <dhcp_select.isra.0+0x1c4>)
 168:	b299      	uxth	r1, r3
 16a:	f7ff fffe 	bl	0 <pbuf_realloc>
 16e:	4816      	ldr	r0, [pc, #88]	; (1c8 <dhcp_select.isra.0+0x1c8>)
 170:	2343      	movs	r3, #67	; 0x43
 172:	4a16      	ldr	r2, [pc, #88]	; (1cc <dhcp_select.isra.0+0x1cc>)
 174:	6800      	ldr	r0, [r0, #0]
 176:	4621      	mov	r1, r4
 178:	e9cd 6700 	strd	r6, r7, [sp]
 17c:	f7ff fffe 	bl	0 <udp_sendto_if_src>
 180:	4620      	mov	r0, r4
 182:	f7ff fffe 	bl	0 <pbuf_free>
 186:	79ab      	ldrb	r3, [r5, #6]
 188:	2bff      	cmp	r3, #255	; 0xff
 18a:	d012      	beq.n	1b2 <dhcp_select.isra.0+0x1b2>
 18c:	3301      	adds	r3, #1
 18e:	b2da      	uxtb	r2, r3
 190:	2a05      	cmp	r2, #5
 192:	71aa      	strb	r2, [r5, #6]
 194:	d80d      	bhi.n	1b2 <dhcp_select.isra.0+0x1b2>
 196:	f44f 737a 	mov.w	r3, #1000	; 0x3e8
 19a:	490d      	ldr	r1, [pc, #52]	; (1d0 <dhcp_select.isra.0+0x1d0>)
 19c:	4093      	lsls	r3, r2
 19e:	f203 13f3 	addw	r3, r3, #499	; 0x1f3
 1a2:	b29b      	uxth	r3, r3
 1a4:	fba1 1303 	umull	r1, r3, r1, r3
 1a8:	095b      	lsrs	r3, r3, #5
 1aa:	812b      	strh	r3, [r5, #8]
 1ac:	b005      	add	sp, #20
 1ae:	e8bd 83f0 	ldmia.w	sp!, {r4, r5, r6, r7, r8, r9, pc}
 1b2:	2378      	movs	r3, #120	; 0x78
 1b4:	e7f9      	b.n	1aa <dhcp_select.isra.0+0x1aa>
 1b6:	4770      	bx	lr
 1b8:	f7ff fffe 	bl	0 <dhcp_select.isra.0>
 1bc:	f7ff fffe 	bl	0 <dhcp_select.isra.0>
 1c0:	00000000 	.word	0x00000000
 1c4:	00000000 	.word	0x00000000
 1c8:	00000000 	.word	0x00000000
 1cc:	00000000 	.word	0x00000000
 1d0:	10624dd3 	.word	0x10624dd3

Disassembly of section .text.dhcp_recv:

00000000 <dhcp_recv>:
   0:	4b70      	ldr	r3, [pc, #448]	; (1c4 <dhcp_recv+0x1c4>)
   2:	6851      	ldr	r1, [r2, #4]
   4:	e92d 4ff0 	stmdb	sp!, {r4, r5, r6, r7, r8, r9, sl, fp, lr}
   8:	f8d3 a004 	ldr.w	sl, [r3, #4]
   c:	b08b      	sub	sp, #44	; 0x2c
   e:	4693      	mov	fp, r2
  10:	f8da 901c 	ldr.w	r9, [sl, #28]
  14:	f1b9 0f00 	cmp.w	r9, #0
  18:	d043      	beq.n	a2 <dhcp_recv+0xa2>
  1a:	f899 3004 	ldrb.w	r3, [r9, #4]
  1e:	2b00      	cmp	r3, #0
  20:	d03f      	beq.n	a2 <dhcp_recv+0xa2>
  22:	8953      	ldrh	r3, [r2, #10]
  24:	2b2b      	cmp	r3, #43	; 0x2b
  26:	d93c      	bls.n	a2 <dhcp_recv+0xa2>
  28:	780a      	ldrb	r2, [r1, #0]
  2a:	2a02      	cmp	r2, #2
  2c:	d139      	bne.n	a2 <dhcp_recv+0xa2>
  2e:	f89a 703c 	ldrb.w	r7, [sl, #60]	; 0x3c
  32:	b187      	cbz	r7, 56 <dhcp_recv+0x56>
  34:	f10a 0435 	add.w	r4, sl, #53	; 0x35
  38:	f101 001b 	add.w	r0, r1, #27
  3c:	2200      	movs	r2, #0
  3e:	f814 6f01 	ldrb.w	r6, [r4, #1]!
  42:	3201      	adds	r2, #1
  44:	f810 5f01 	ldrb.w	r5, [r0, #1]!
  48:	b2d2      	uxtb	r2, r2
  4a:	42ae      	cmp	r6, r5
  4c:	d129      	bne.n	a2 <dhcp_recv+0xa2>
  4e:	2a06      	cmp	r2, #6
  50:	d001      	beq.n	56 <dhcp_recv+0x56>
  52:	42ba      	cmp	r2, r7
  54:	d3f3      	bcc.n	3e <dhcp_recv+0x3e>
  56:	684a      	ldr	r2, [r1, #4]
  58:	f8d9 1000 	ldr.w	r1, [r9]
  5c:	ba12      	rev	r2, r2
  5e:	428a      	cmp	r2, r1
  60:	d11f      	bne.n	a2 <dhcp_recv+0xa2>
  62:	2200      	movs	r2, #0
  64:	4958      	ldr	r1, [pc, #352]	; (1c8 <dhcp_recv+0x1c8>)
  66:	f8cd b008 	str.w	fp, [sp, #8]
  6a:	810a      	strh	r2, [r1, #8]
  6c:	9204      	str	r2, [sp, #16]
  6e:	e9c1 2200 	strd	r2, r2, [r1]
  72:	22f0      	movs	r2, #240	; 0xf0
  74:	f8bb 8008 	ldrh.w	r8, [fp, #8]
  78:	9203      	str	r2, [sp, #12]
  7a:	e9cd a906 	strd	sl, r9, [sp, #24]
  7e:	e9dd 6402 	ldrd	r6, r4, [sp, #8]
  82:	e000      	b.n	86 <dhcp_recv+0x86>
  84:	8973      	ldrh	r3, [r6, #10]
  86:	42a3      	cmp	r3, r4
  88:	eba4 0203 	sub.w	r2, r4, r3
  8c:	eba8 0303 	sub.w	r3, r8, r3
  90:	d80d      	bhi.n	ae <dhcp_recv+0xae>
  92:	6836      	ldr	r6, [r6, #0]
  94:	b294      	uxth	r4, r2
  96:	fa1f f883 	uxth.w	r8, r3
  9a:	2e00      	cmp	r6, #0
  9c:	d1f2      	bne.n	84 <dhcp_recv+0x84>
  9e:	f8dd b008 	ldr.w	fp, [sp, #8]
  a2:	4658      	mov	r0, fp
  a4:	b00b      	add	sp, #44	; 0x2c
  a6:	e8bd 4ff0 	ldmia.w	sp!, {r4, r5, r6, r7, r8, r9, sl, fp, lr}
  aa:	f7ff bffe 	b.w	0 <pbuf_free>
  ae:	6873      	ldr	r3, [r6, #4]
  b0:	4544      	cmp	r4, r8
  b2:	9301      	str	r3, [sp, #4]
  b4:	d268      	bcs.n	188 <dhcp_recv+0x188>
  b6:	9b01      	ldr	r3, [sp, #4]
  b8:	5d19      	ldrb	r1, [r3, r4]
  ba:	29ff      	cmp	r1, #255	; 0xff
  bc:	d064      	beq.n	188 <dhcp_recv+0x188>
  be:	1ca3      	adds	r3, r4, #2
  c0:	fa1f fb83 	uxth.w	fp, r3
  c4:	45a3      	cmp	fp, r4
  c6:	d3ea      	bcc.n	9e <dhcp_recv+0x9e>
  c8:	1c67      	adds	r7, r4, #1
  ca:	8972      	ldrh	r2, [r6, #10]
  cc:	4297      	cmp	r7, r2
  ce:	da54      	bge.n	17a <dhcp_recv+0x17a>
  d0:	9b01      	ldr	r3, [sp, #4]
  d2:	1918      	adds	r0, r3, r4
  d4:	7845      	ldrb	r5, [r0, #1]
  d6:	293b      	cmp	r1, #59	; 0x3b
  d8:	f200 80f9 	bhi.w	2ce <dhcp_recv+0x2ce>
  dc:	e8df f011 	tbh	[pc, r1, lsl #1]
  e0:	0101003c 	.word	0x0101003c
  e4:	019700f7 	.word	0x019700f7
  e8:	00f700f7 	.word	0x00f700f7
  ec:	00f70180 	.word	0x00f70180
  f0:	00f700f7 	.word	0x00f700f7
  f4:	00f700f7 	.word	0x00f700f7
  f8:	00f700f7 	.word	0x00f700f7
  fc:	00f700f7 	.word	0x00f700f7
 100:	00f700f7 	.word	0x00f700f7
 104:	00f700f7 	.word	0x00f700f7
 108:	00f700f7 	.word	0x00f700f7
 10c:	00f700f7 	.word	0x00f700f7
 110:	00f700f7 	.word	0x00f700f7
 114:	00f700f7 	.word	0x00f700f7
 118:	00f700f7 	.word	0x00f700f7
 11c:	00f700f7 	.word	0x00f700f7
 120:	00f700f7 	.word	0x00f700f7
 124:	00f700f7 	.word	0x00f700f7
 128:	00f700f7 	.word	0x00f700f7
 12c:	00f700f7 	.word	0x00f700f7
 130:	00f700f7 	.word	0x00f700f7
 134:	00f700f7 	.word	0x00f700f7
 138:	00f700f7 	.word	0x00f700f7
 13c:	00f700f7 	.word	0x00f700f7
 140:	00f700f7 	.word	0x00f700f7
 144:	017300f7 	.word	0x017300f7
 148:	01b4015f 	.word	0x01b4015f
 14c:	00f701a7 	.word	0x00f701a7
 150:	00f700f7 	.word	0x00f700f7
 154:	01460153 	.word	0x01460153
 158:	b2bc      	uxth	r4, r7
 15a:	4294      	cmp	r4, r2
 15c:	d312      	bcc.n	184 <dhcp_recv+0x184>
 15e:	1aa4      	subs	r4, r4, r2
 160:	eba8 0202 	sub.w	r2, r8, r2
 164:	b2a4      	uxth	r4, r4
 166:	fa1f f882 	uxth.w	r8, r2
 16a:	4544      	cmp	r4, r8
 16c:	d297      	bcs.n	9e <dhcp_recv+0x9e>
 16e:	6836      	ldr	r6, [r6, #0]
 170:	2e00      	cmp	r6, #0
 172:	d094      	beq.n	9e <dhcp_recv+0x9e>
 174:	6873      	ldr	r3, [r6, #4]
 176:	9301      	str	r3, [sp, #4]
 178:	e79d      	b.n	b6 <dhcp_recv+0xb6>
 17a:	6830      	ldr	r0, [r6, #0]
 17c:	b340      	cbz	r0, 1d0 <dhcp_recv+0x1d0>
 17e:	6840      	ldr	r0, [r0, #4]
 180:	7805      	ldrb	r5, [r0, #0]
 182:	e7a8      	b.n	d6 <dhcp_recv+0xd6>
 184:	45a0      	cmp	r8, r4
 186:	d896      	bhi.n	b6 <dhcp_recv+0xb6>
 188:	4b0f      	ldr	r3, [pc, #60]	; (1c8 <dhcp_recv+0x1c8>)
 18a:	781b      	ldrb	r3, [r3, #0]
 18c:	b163      	cbz	r3, 1a8 <dhcp_recv+0x1a8>
 18e:	2300      	movs	r3, #0
 190:	4a0d      	ldr	r2, [pc, #52]	; (1c8 <dhcp_recv+0x1c8>)
 192:	7013      	strb	r3, [r2, #0]
 194:	4b0d      	ldr	r3, [pc, #52]	; (1cc <dhcp_recv+0x1cc>)
 196:	681b      	ldr	r3, [r3, #0]
 198:	2b01      	cmp	r3, #1
 19a:	f000 8177 	beq.w	48c <dhcp_recv+0x48c>
 19e:	2b02      	cmp	r3, #2
 1a0:	d006      	beq.n	1b0 <dhcp_recv+0x1b0>
 1a2:	2b03      	cmp	r3, #3
 1a4:	f000 8170 	beq.w	488 <dhcp_recv+0x488>
 1a8:	9b04      	ldr	r3, [sp, #16]
 1aa:	2b00      	cmp	r3, #0
 1ac:	f000 8173 	beq.w	496 <dhcp_recv+0x496>
 1b0:	2300      	movs	r3, #0
 1b2:	f04f 086c 	mov.w	r8, #108	; 0x6c
 1b6:	9304      	str	r3, [sp, #16]
 1b8:	232c      	movs	r3, #44	; 0x2c
 1ba:	9303      	str	r3, [sp, #12]
 1bc:	9b02      	ldr	r3, [sp, #8]
 1be:	895b      	ldrh	r3, [r3, #10]
 1c0:	e75d      	b.n	7e <dhcp_recv+0x7e>
 1c2:	bf00      	nop
 1c4:	00000000 	.word	0x00000000
 1c8:	00000000 	.word	0x00000000
 1cc:	00000000 	.word	0x00000000
 1d0:	293b      	cmp	r1, #59	; 0x3b
 1d2:	d87b      	bhi.n	2cc <dhcp_recv+0x2cc>
 1d4:	a001      	add	r0, pc, #4	; (adr r0, 1dc <dhcp_recv+0x1dc>)
 1d6:	f850 f021 	ldr.w	pc, [r0, r1, lsl #2]
 1da:	bf00      	nop
 1dc:	00000159 	.word	0x00000159
 1e0:	0000009f 	.word	0x0000009f
 1e4:	000002cd 	.word	0x000002cd
 1e8:	0000009f 	.word	0x0000009f
 1ec:	000002cd 	.word	0x000002cd
 1f0:	000002cd 	.word	0x000002cd
 1f4:	00000461 	.word	0x00000461
 1f8:	000002cd 	.word	0x000002cd
 1fc:	000002cd 	.word	0x000002cd
 200:	000002cd 	.word	0x000002cd
 204:	000002cd 	.word	0x000002cd
 208:	000002cd 	.word	0x000002cd
 20c:	000002cd 	.word	0x000002cd
 210:	000002cd 	.word	0x000002cd
 214:	000002cd 	.word	0x000002cd
 218:	000002cd 	.word	0x000002cd
 21c:	000002cd 	.word	0x000002cd
 220:	000002cd 	.word	0x000002cd
 224:	000002cd 	.word	0x000002cd
 228:	000002cd 	.word	0x000002cd
 22c:	000002cd 	.word	0x000002cd
 230:	000002cd 	.word	0x000002cd
 234:	000002cd 	.word	0x000002cd
 238:	000002cd 	.word	0x000002cd
 23c:	000002cd 	.word	0x000002cd
 240:	000002cd 	.word	0x000002cd
 244:	000002cd 	.word	0x000002cd
 248:	000002cd 	.word	0x000002cd
 24c:	000002cd 	.word	0x000002cd
 250:	000002cd 	.word	0x000002cd
 254:	000002cd 	.word	0x000002cd
 258:	000002cd 	.word	0x000002cd
 25c:	000002cd 	.word	0x000002cd
 260:	000002cd 	.word	0x000002cd
 264:	000002cd 	.word	0x000002cd
 268:	000002cd 	.word	0x000002cd
 26c:	000002cd 	.word	0x000002cd
 270:	000002cd 	.word	0x000002cd
 274:	000002cd 	.word	0x000002cd
 278:	000002cd 	.word	0x000002cd
 27c:	000002cd 	.word	0x000002cd
 280:	000002cd 	.word	0x000002cd
 284:	000002cd 	.word	0x000002cd
 288:	000002cd 	.word	0x000002cd
 28c:	000002cd 	.word	0x000002cd
 290:	000002cd 	.word	0x000002cd
 294:	000002cd 	.word	0x000002cd
 298:	000002cd 	.word	0x000002cd
 29c:	000002cd 	.word	0x000002cd
 2a0:	000002cd 	.word	0x000002cd
 2a4:	000002cd 	.word	0x000002cd
 2a8:	0000009f 	.word	0x0000009f
 2ac:	0000009f 	.word	0x0000009f
 2b0:	0000009f 	.word	0x0000009f
 2b4:	0000009f 	.word	0x0000009f
 2b8:	000002cd 	.word	0x000002cd
 2bc:	000002cd 	.word	0x000002cd
 2c0:	000002cd 	.word	0x000002cd
 2c4:	0000009f 	.word	0x0000009f
 2c8:	0000009f 	.word	0x0000009f
 2cc:	2500      	movs	r5, #0
 2ce:	442c      	add	r4, r5
 2d0:	f64f 71fd 	movw	r1, #65533	; 0xfffd
 2d4:	428c      	cmp	r4, r1
 2d6:	f73f aee2 	bgt.w	9e <dhcp_recv+0x9e>
 2da:	eb0b 0305 	add.w	r3, fp, r5
 2de:	b29c      	uxth	r4, r3
 2e0:	e73b      	b.n	15a <dhcp_recv+0x15a>
 2e2:	2d04      	cmp	r5, #4
 2e4:	f47f aedb 	bne.w	9e <dhcp_recv+0x9e>
 2e8:	f64f 72f9 	movw	r2, #65529	; 0xfff9
 2ec:	4294      	cmp	r4, r2
 2ee:	f63f aed6 	bhi.w	9e <dhcp_recv+0x9e>
 2f2:	3406      	adds	r4, #6
 2f4:	f04f 0906 	mov.w	r9, #6
 2f8:	b2a4      	uxth	r4, r4
 2fa:	4b93      	ldr	r3, [pc, #588]	; (548 <dhcp_recv+0x548>)
 2fc:	2200      	movs	r2, #0
 2fe:	9405      	str	r4, [sp, #20]
 300:	eb03 0709 	add.w	r7, r3, r9
 304:	4b91      	ldr	r3, [pc, #580]	; (54c <dhcp_recv+0x54c>)
 306:	9209      	str	r2, [sp, #36]	; 0x24
 308:	eb03 0a89 	add.w	sl, r3, r9, lsl #2
 30c:	e023      	b.n	356 <dhcp_recv+0x356>
 30e:	465b      	mov	r3, fp
 310:	4622      	mov	r2, r4
 312:	a909      	add	r1, sp, #36	; 0x24
 314:	4630      	mov	r0, r6
 316:	f7ff fffe 	bl	0 <pbuf_copy_partial>
 31a:	4284      	cmp	r4, r0
 31c:	f47f aebf 	bne.w	9e <dhcp_recv+0x9e>
 320:	2d04      	cmp	r5, #4
 322:	f240 809f 	bls.w	464 <dhcp_recv+0x464>
 326:	f015 0f03 	tst.w	r5, #3
 32a:	f1a5 0504 	sub.w	r5, r5, #4
 32e:	f109 0901 	add.w	r9, r9, #1
 332:	b2ed      	uxtb	r5, r5
 334:	f47f aeb3 	bne.w	9e <dhcp_recv+0x9e>
 338:	f04f 0301 	mov.w	r3, #1
 33c:	f10b 0204 	add.w	r2, fp, #4
 340:	f807 3c01 	strb.w	r3, [r7, #-1]
 344:	b292      	uxth	r2, r2
 346:	9b09      	ldr	r3, [sp, #36]	; 0x24
 348:	455a      	cmp	r2, fp
 34a:	4693      	mov	fp, r2
 34c:	ba1b      	rev	r3, r3
 34e:	f84a 3b04 	str.w	r3, [sl], #4
 352:	f4ff aea4 	bcc.w	9e <dhcp_recv+0x9e>
 356:	2d04      	cmp	r5, #4
 358:	f817 3b01 	ldrb.w	r3, [r7], #1
 35c:	462c      	mov	r4, r5
 35e:	bf28      	it	cs
 360:	2404      	movcs	r4, #4
 362:	2b00      	cmp	r3, #0
 364:	d0d3      	beq.n	30e <dhcp_recv+0x30e>
 366:	9c05      	ldr	r4, [sp, #20]
 368:	8972      	ldrh	r2, [r6, #10]
 36a:	e6f6      	b.n	15a <dhcp_recv+0x15a>
 36c:	2d04      	cmp	r5, #4
 36e:	f47f ae96 	bne.w	9e <dhcp_recv+0x9e>
 372:	f64f 72f9 	movw	r2, #65529	; 0xfff9
 376:	4294      	cmp	r4, r2
 378:	f63f ae91 	bhi.w	9e <dhcp_recv+0x9e>
 37c:	3406      	adds	r4, #6
 37e:	f04f 0905 	mov.w	r9, #5
 382:	b2a4      	uxth	r4, r4
 384:	e7b9      	b.n	2fa <dhcp_recv+0x2fa>
 386:	2d04      	cmp	r5, #4
 388:	f47f ae89 	bne.w	9e <dhcp_recv+0x9e>
 38c:	f64f 72f9 	movw	r2, #65529	; 0xfff9
 390:	4294      	cmp	r4, r2
 392:	f63f ae84 	bhi.w	9e <dhcp_recv+0x9e>
 396:	3406      	adds	r4, #6
 398:	46a9      	mov	r9, r5
 39a:	b2a4      	uxth	r4, r4
 39c:	e7ad      	b.n	2fa <dhcp_recv+0x2fa>
 39e:	9b03      	ldr	r3, [sp, #12]
 3a0:	2bf0      	cmp	r3, #240	; 0xf0
 3a2:	f47f ae7c 	bne.w	9e <dhcp_recv+0x9e>
 3a6:	3d01      	subs	r5, #1
 3a8:	bf18      	it	ne
 3aa:	2501      	movne	r5, #1
 3ac:	2d00      	cmp	r5, #0
 3ae:	f47f ae76 	bne.w	9e <dhcp_recv+0x9e>
 3b2:	f64f 72fe 	movw	r2, #65534	; 0xfffe
 3b6:	4297      	cmp	r7, r2
 3b8:	f43f ae71 	beq.w	9e <dhcp_recv+0x9e>
 3bc:	3403      	adds	r4, #3
 3be:	46a9      	mov	r9, r5
 3c0:	2501      	movs	r5, #1
 3c2:	b2a4      	uxth	r4, r4
 3c4:	e799      	b.n	2fa <dhcp_recv+0x2fa>
 3c6:	2d04      	cmp	r5, #4
 3c8:	f47f ae69 	bne.w	9e <dhcp_recv+0x9e>
 3cc:	f64f 72f9 	movw	r2, #65529	; 0xfff9
 3d0:	4294      	cmp	r4, r2
 3d2:	f63f ae64 	bhi.w	9e <dhcp_recv+0x9e>
 3d6:	3406      	adds	r4, #6
 3d8:	f04f 0903 	mov.w	r9, #3
 3dc:	b2a4      	uxth	r4, r4
 3de:	e78c      	b.n	2fa <dhcp_recv+0x2fa>
 3e0:	07ab      	lsls	r3, r5, #30
 3e2:	f47f ae5c 	bne.w	9e <dhcp_recv+0x9e>
 3e6:	2d08      	cmp	r5, #8
 3e8:	442c      	add	r4, r5
 3ea:	f64f 71fd 	movw	r1, #65533	; 0xfffd
 3ee:	4628      	mov	r0, r5
 3f0:	bf28      	it	cs
 3f2:	2008      	movcs	r0, #8
 3f4:	428c      	cmp	r4, r1
 3f6:	f73f ae52 	bgt.w	9e <dhcp_recv+0x9e>
 3fa:	eb0b 0405 	add.w	r4, fp, r5
 3fe:	b2a4      	uxth	r4, r4
 400:	2d00      	cmp	r5, #0
 402:	f43f aeaa 	beq.w	15a <dhcp_recv+0x15a>
 406:	4605      	mov	r5, r0
 408:	f04f 0908 	mov.w	r9, #8
 40c:	e775      	b.n	2fa <dhcp_recv+0x2fa>
 40e:	2d03      	cmp	r5, #3
 410:	f67f ae45 	bls.w	9e <dhcp_recv+0x9e>
 414:	442c      	add	r4, r5
 416:	f64f 72fd 	movw	r2, #65533	; 0xfffd
 41a:	4294      	cmp	r4, r2
 41c:	f73f ae3f 	bgt.w	9e <dhcp_recv+0x9e>
 420:	eb0b 0405 	add.w	r4, fp, r5
 424:	f04f 0907 	mov.w	r9, #7
 428:	2504      	movs	r5, #4
 42a:	b2a4      	uxth	r4, r4
 42c:	e765      	b.n	2fa <dhcp_recv+0x2fa>
 42e:	2d04      	cmp	r5, #4
 430:	f47f ae35 	bne.w	9e <dhcp_recv+0x9e>
 434:	f64f 72f9 	movw	r2, #65529	; 0xfff9
 438:	4294      	cmp	r4, r2
 43a:	f63f ae30 	bhi.w	9e <dhcp_recv+0x9e>
 43e:	3406      	adds	r4, #6
 440:	f04f 0902 	mov.w	r9, #2
 444:	b2a4      	uxth	r4, r4
 446:	e758      	b.n	2fa <dhcp_recv+0x2fa>
 448:	2d01      	cmp	r5, #1
 44a:	f47f ae28 	bne.w	9e <dhcp_recv+0x9e>
 44e:	f64f 72fe 	movw	r2, #65534	; 0xfffe
 452:	4297      	cmp	r7, r2
 454:	f43f ae23 	beq.w	9e <dhcp_recv+0x9e>
 458:	3403      	adds	r4, #3
 45a:	46a9      	mov	r9, r5
 45c:	b2a4      	uxth	r4, r4
 45e:	e74c      	b.n	2fa <dhcp_recv+0x2fa>
 460:	465c      	mov	r4, fp
 462:	e67a      	b.n	15a <dhcp_recv+0x15a>
 464:	9c05      	ldr	r4, [sp, #20]
 466:	d00c      	beq.n	482 <dhcp_recv+0x482>
 468:	2d01      	cmp	r5, #1
 46a:	f47f ae18 	bne.w	9e <dhcp_recv+0x9e>
 46e:	f89d 3024 	ldrb.w	r3, [sp, #36]	; 0x24
 472:	4a36      	ldr	r2, [pc, #216]	; (54c <dhcp_recv+0x54c>)
 474:	f842 3029 	str.w	r3, [r2, r9, lsl #2]
 478:	2301      	movs	r3, #1
 47a:	4a33      	ldr	r2, [pc, #204]	; (548 <dhcp_recv+0x548>)
 47c:	f802 3009 	strb.w	r3, [r2, r9]
 480:	e772      	b.n	368 <dhcp_recv+0x368>
 482:	9b09      	ldr	r3, [sp, #36]	; 0x24
 484:	ba1b      	rev	r3, r3
 486:	e7f4      	b.n	472 <dhcp_recv+0x472>
 488:	2301      	movs	r3, #1
 48a:	9304      	str	r3, [sp, #16]
 48c:	236c      	movs	r3, #108	; 0x6c
 48e:	f04f 08ec 	mov.w	r8, #236	; 0xec
 492:	9303      	str	r3, [sp, #12]
 494:	e692      	b.n	1bc <dhcp_recv+0x1bc>
 496:	4b2c      	ldr	r3, [pc, #176]	; (548 <dhcp_recv+0x548>)
 498:	f8dd b008 	ldr.w	fp, [sp, #8]
 49c:	785b      	ldrb	r3, [r3, #1]
 49e:	e9dd a906 	ldrd	sl, r9, [sp, #24]
 4a2:	2b00      	cmp	r3, #0
 4a4:	f43f adfd 	beq.w	a2 <dhcp_recv+0xa2>
 4a8:	4a28      	ldr	r2, [pc, #160]	; (54c <dhcp_recv+0x54c>)
 4aa:	f8db 1004 	ldr.w	r1, [fp, #4]
 4ae:	7913      	ldrb	r3, [r2, #4]
 4b0:	2b05      	cmp	r3, #5
 4b2:	d01b      	beq.n	4ec <dhcp_recv+0x4ec>
 4b4:	2b06      	cmp	r3, #6
 4b6:	d02b      	beq.n	510 <dhcp_recv+0x510>
 4b8:	2b02      	cmp	r3, #2
 4ba:	f47f adf2 	bne.w	a2 <dhcp_recv+0xa2>
 4be:	f899 3005 	ldrb.w	r3, [r9, #5]
 4c2:	2b06      	cmp	r3, #6
 4c4:	f47f aded 	bne.w	a2 <dhcp_recv+0xa2>
 4c8:	4b1f      	ldr	r3, [pc, #124]	; (548 <dhcp_recv+0x548>)
 4ca:	7898      	ldrb	r0, [r3, #2]
 4cc:	f8da 301c 	ldr.w	r3, [sl, #28]
 4d0:	2800      	cmp	r0, #0
 4d2:	f43f ade6 	beq.w	a2 <dhcp_recv+0xa2>
 4d6:	6892      	ldr	r2, [r2, #8]
 4d8:	9804      	ldr	r0, [sp, #16]
 4da:	ba12      	rev	r2, r2
 4dc:	8118      	strh	r0, [r3, #8]
 4de:	4650      	mov	r0, sl
 4e0:	619a      	str	r2, [r3, #24]
 4e2:	690a      	ldr	r2, [r1, #16]
 4e4:	61da      	str	r2, [r3, #28]
 4e6:	f7ff fffe 	bl	0 <dhcp_recv>
 4ea:	e5da      	b.n	a2 <dhcp_recv+0xa2>
 4ec:	f899 3005 	ldrb.w	r3, [r9, #5]
 4f0:	f003 02fd 	and.w	r2, r3, #253	; 0xfd
 4f4:	2a01      	cmp	r2, #1
 4f6:	d003      	beq.n	500 <dhcp_recv+0x500>
 4f8:	3b04      	subs	r3, #4
 4fa:	2b01      	cmp	r3, #1
 4fc:	f63f add1 	bhi.w	a2 <dhcp_recv+0xa2>
 500:	f8da 001c 	ldr.w	r0, [sl, #28]
 504:	f7ff fffe 	bl	0 <dhcp_recv>
 508:	4650      	mov	r0, sl
 50a:	f7ff fffe 	bl	0 <dhcp_recv>
 50e:	e5c8      	b.n	a2 <dhcp_recv+0xa2>
 510:	f899 3005 	ldrb.w	r3, [r9, #5]
 514:	1eda      	subs	r2, r3, #3
 516:	2a02      	cmp	r2, #2
 518:	d902      	bls.n	520 <dhcp_recv+0x520>
 51a:	2b01      	cmp	r3, #1
 51c:	f47f adc1 	bne.w	a2 <dhcp_recv+0xa2>
 520:	f8da 301c 	ldr.w	r3, [sl, #28]
 524:	795a      	ldrb	r2, [r3, #5]
 526:	2a0c      	cmp	r2, #12
 528:	d004      	beq.n	534 <dhcp_recv+0x534>
 52a:	2200      	movs	r2, #0
 52c:	210c      	movs	r1, #12
 52e:	719a      	strb	r2, [r3, #6]
 530:	7159      	strb	r1, [r3, #5]
 532:	811a      	strh	r2, [r3, #8]
 534:	4b06      	ldr	r3, [pc, #24]	; (550 <dhcp_recv+0x550>)
 536:	4650      	mov	r0, sl
 538:	461a      	mov	r2, r3
 53a:	4619      	mov	r1, r3
 53c:	f7ff fffe 	bl	0 <netif_set_addr>
 540:	4650      	mov	r0, sl
 542:	f7ff fffe 	bl	0 <dhcp_recv>
 546:	e5ac      	b.n	a2 <dhcp_recv+0xa2>
 548:	00000000 	.word	0x00000000
 54c:	00000000 	.word	0x00000000
 550:	00000000 	.word	0x00000000

Disassembly of section .text.dhcp_reboot.isra.0:

00000000 <dhcp_reboot.isra.0>:
   0:	e92d 43f0 	stmdb	sp!, {r4, r5, r6, r7, r8, r9, lr}
   4:	69c6      	ldr	r6, [r0, #28]
   6:	b085      	sub	sp, #20
   8:	4605      	mov	r5, r0
   a:	7973      	ldrb	r3, [r6, #5]
   c:	2b03      	cmp	r3, #3
   e:	d004      	beq.n	1a <dhcp_reboot.isra.0+0x1a>
  10:	2300      	movs	r3, #0
  12:	2203      	movs	r2, #3
  14:	71b3      	strb	r3, [r6, #6]
  16:	7172      	strb	r2, [r6, #5]
  18:	8133      	strh	r3, [r6, #8]
  1a:	f10d 030e 	add.w	r3, sp, #14
  1e:	2203      	movs	r2, #3
  20:	4631      	mov	r1, r6
  22:	4628      	mov	r0, r5
  24:	f7ff fffe 	bl	0 <dhcp_reboot.isra.0>
  28:	4604      	mov	r4, r0
  2a:	2800      	cmp	r0, #0
  2c:	f000 809a 	beq.w	164 <dhcp_reboot.isra.0+0x164>
  30:	f8bd 000e 	ldrh.w	r0, [sp, #14]
  34:	f8d4 8004 	ldr.w	r8, [r4, #4]
  38:	1d02      	adds	r2, r0, #4
  3a:	f100 0e02 	add.w	lr, r0, #2
  3e:	f108 07f0 	add.w	r7, r8, #240	; 0xf0
  42:	2a44      	cmp	r2, #68	; 0x44
  44:	f200 80ab 	bhi.w	19e <dhcp_reboot.isra.0+0x19e>
  48:	f04f 0c39 	mov.w	ip, #57	; 0x39
  4c:	1c43      	adds	r3, r0, #1
  4e:	fa1f f18e 	uxth.w	r1, lr
  52:	f807 c000 	strb.w	ip, [r7, r0]
  56:	b29b      	uxth	r3, r3
  58:	f04f 0c02 	mov.w	ip, #2
  5c:	f807 c003 	strb.w	ip, [r7, r3]
  60:	eb01 030c 	add.w	r3, r1, ip
  64:	f8ad e00e 	strh.w	lr, [sp, #14]
  68:	2b44      	cmp	r3, #68	; 0x44
  6a:	f200 809a 	bhi.w	1a2 <dhcp_reboot.isra.0+0x1a2>
  6e:	1cc3      	adds	r3, r0, #3
  70:	f807 c001 	strb.w	ip, [r7, r1]
  74:	2140      	movs	r1, #64	; 0x40
  76:	b29b      	uxth	r3, r3
  78:	54f9      	strb	r1, [r7, r3]
  7a:	f100 030a 	add.w	r3, r0, #10
  7e:	f8ad 200e 	strh.w	r2, [sp, #14]
  82:	2b44      	cmp	r3, #68	; 0x44
  84:	f200 808b 	bhi.w	19e <dhcp_reboot.isra.0+0x19e>
  88:	1d43      	adds	r3, r0, #5
  8a:	2132      	movs	r1, #50	; 0x32
  8c:	f04f 0904 	mov.w	r9, #4
  90:	3006      	adds	r0, #6
  92:	b29b      	uxth	r3, r3
  94:	54b9      	strb	r1, [r7, r2]
  96:	b280      	uxth	r0, r0
  98:	4639      	mov	r1, r7
  9a:	f807 9003 	strb.w	r9, [r7, r3]
  9e:	69f2      	ldr	r2, [r6, #28]
  a0:	f8ad 000e 	strh.w	r0, [sp, #14]
  a4:	ba12      	rev	r2, r2
  a6:	f7ff fffe 	bl	0 <dhcp_reboot.isra.0>
  aa:	f100 0c06 	add.w	ip, r0, #6
  ae:	f8ad 000e 	strh.w	r0, [sp, #14]
  b2:	f1bc 0f44 	cmp.w	ip, #68	; 0x44
  b6:	d872      	bhi.n	19e <dhcp_reboot.isra.0+0x19e>
  b8:	1c83      	adds	r3, r0, #2
  ba:	1c41      	adds	r1, r0, #1
  bc:	f04f 0e37 	mov.w	lr, #55	; 0x37
  c0:	fa1f fc8c 	uxth.w	ip, ip
  c4:	b29b      	uxth	r3, r3
  c6:	b289      	uxth	r1, r1
  c8:	f807 e000 	strb.w	lr, [r7, r0]
  cc:	f103 02ef 	add.w	r2, r3, #239	; 0xef
  d0:	2b43      	cmp	r3, #67	; 0x43
  d2:	f807 9001 	strb.w	r9, [r7, r1]
  d6:	f04f 0101 	mov.w	r1, #1
  da:	4442      	add	r2, r8
  dc:	4832      	ldr	r0, [pc, #200]	; (1a8 <dhcp_reboot.isra.0+0x1a8>)
  de:	f8ad 300e 	strh.w	r3, [sp, #14]
  e2:	d80b      	bhi.n	fc <dhcp_reboot.isra.0+0xfc>
  e4:	3301      	adds	r3, #1
  e6:	f802 1f01 	strb.w	r1, [r2, #1]!
  ea:	b29b      	uxth	r3, r3
  ec:	4563      	cmp	r3, ip
  ee:	f8ad 300e 	strh.w	r3, [sp, #14]
  f2:	d012      	beq.n	11a <dhcp_reboot.isra.0+0x11a>
  f4:	2b43      	cmp	r3, #67	; 0x43
  f6:	f810 1f01 	ldrb.w	r1, [r0, #1]!
  fa:	d9f3      	bls.n	e4 <dhcp_reboot.isra.0+0xe4>
  fc:	4b2b      	ldr	r3, [pc, #172]	; (1ac <dhcp_reboot.isra.0+0x1ac>)
  fe:	f240 52ac 	movw	r2, #1452	; 0x5ac
 102:	492b      	ldr	r1, [pc, #172]	; (1b0 <dhcp_reboot.isra.0+0x1b0>)
 104:	482b      	ldr	r0, [pc, #172]	; (1b4 <dhcp_reboot.isra.0+0x1b4>)
 106:	f7ff fffe 	bl	0 <printf>
 10a:	2000      	movs	r0, #0
 10c:	f7ff fffe 	bl	0 <fflush>
 110:	2001      	movs	r0, #1
 112:	f7ff fffe 	bl	0 <qnethernet_hal_stdio_flush>
 116:	f7ff fffe 	bl	0 <abort>
 11a:	4618      	mov	r0, r3
 11c:	6b2a      	ldr	r2, [r5, #48]	; 0x30
 11e:	4639      	mov	r1, r7
 120:	f7ff fffe 	bl	0 <dhcp_reboot.isra.0>
 124:	1c43      	adds	r3, r0, #1
 126:	22ff      	movs	r2, #255	; 0xff
 128:	f8ad 000e 	strh.w	r0, [sp, #14]
 12c:	b299      	uxth	r1, r3
 12e:	543a      	strb	r2, [r7, r0]
 130:	2943      	cmp	r1, #67	; 0x43
 132:	d807      	bhi.n	144 <dhcp_reboot.isra.0+0x144>
 134:	f1c0 0243 	rsb	r2, r0, #67	; 0x43
 138:	1878      	adds	r0, r7, r1
 13a:	2100      	movs	r1, #0
 13c:	b292      	uxth	r2, r2
 13e:	f7ff fffe 	bl	0 <memset>
 142:	2144      	movs	r1, #68	; 0x44
 144:	31f0      	adds	r1, #240	; 0xf0
 146:	4620      	mov	r0, r4
 148:	b289      	uxth	r1, r1
 14a:	f7ff fffe 	bl	0 <pbuf_realloc>
 14e:	481a      	ldr	r0, [pc, #104]	; (1b8 <dhcp_reboot.isra.0+0x1b8>)
 150:	2343      	movs	r3, #67	; 0x43
 152:	4a1a      	ldr	r2, [pc, #104]	; (1bc <dhcp_reboot.isra.0+0x1bc>)
 154:	6800      	ldr	r0, [r0, #0]
 156:	4621      	mov	r1, r4
 158:	9500      	str	r5, [sp, #0]
 15a:	f7ff fffe 	bl	0 <udp_sendto_if>
 15e:	4620      	mov	r0, r4
 160:	f7ff fffe 	bl	0 <pbuf_free>
 164:	79b3      	ldrb	r3, [r6, #6]
 166:	2bff      	cmp	r3, #255	; 0xff
 168:	d014      	beq.n	194 <dhcp_reboot.isra.0+0x194>
 16a:	3301      	adds	r3, #1
 16c:	b2db      	uxtb	r3, r3
 16e:	2b09      	cmp	r3, #9
 170:	71b3      	strb	r3, [r6, #6]
 172:	d80f      	bhi.n	194 <dhcp_reboot.isra.0+0x194>
 174:	ebc3 1143 	rsb	r1, r3, r3, lsl #5
 178:	4a11      	ldr	r2, [pc, #68]	; (1c0 <dhcp_reboot.isra.0+0x1c0>)
 17a:	eb03 0381 	add.w	r3, r3, r1, lsl #2
 17e:	00db      	lsls	r3, r3, #3
 180:	f203 13f3 	addw	r3, r3, #499	; 0x1f3
 184:	b29b      	uxth	r3, r3
 186:	fba2 2303 	umull	r2, r3, r2, r3
 18a:	095b      	lsrs	r3, r3, #5
 18c:	8133      	strh	r3, [r6, #8]
 18e:	b005      	add	sp, #20
 190:	e8bd 83f0 	ldmia.w	sp!, {r4, r5, r6, r7, r8, r9, pc}
 194:	2314      	movs	r3, #20
 196:	8133      	strh	r3, [r6, #8]
 198:	b005      	add	sp, #20
 19a:	e8bd 83f0 	ldmia.w	sp!, {r4, r5, r6, r7, r8, r9, pc}
 19e:	f7ff fffe 	bl	0 <dhcp_reboot.isra.0>
 1a2:	f7ff fffe 	bl	0 <dhcp_reboot.isra.0>
 1a6:	bf00      	nop
 1a8:	00000000 	.word	0x00000000
 1ac:	00000000 	.word	0x00000000
 1b0:	00000000 	.word	0x00000000
 1b4:	0000006c 	.word	0x0000006c
 1b8:	00000000 	.word	0x00000000
 1bc:	00000000 	.word	0x00000000
 1c0:	10624dd3 	.word	0x10624dd3

Disassembly of section .text.dhcp_set_struct:

00000000 <dhcp_set_struct>:
   0:	b538      	push	{r3, r4, r5, lr}
   2:	4605      	mov	r5, r0
   4:	460c      	mov	r4, r1
   6:	4a15      	ldr	r2, [pc, #84]	; (5c <dhcp_set_struct+0x5c>)
   8:	f240 21f7 	movw	r1, #759	; 0x2f7
   c:	4814      	ldr	r0, [pc, #80]	; (60 <dhcp_set_struct+0x60>)
   e:	f7ff fffe 	bl	0 <qnethernet_hal_check_core_locking>
  12:	b155      	cbz	r5, 2a <dhcp_set_struct+0x2a>
  14:	b1ec      	cbz	r4, 52 <dhcp_set_struct+0x52>
  16:	69e9      	ldr	r1, [r5, #28]
  18:	b9b1      	cbnz	r1, 48 <dhcp_set_struct+0x48>
  1a:	2234      	movs	r2, #52	; 0x34
  1c:	4620      	mov	r0, r4
  1e:	f7ff fffe 	bl	0 <memset>
  22:	2302      	movs	r3, #2
  24:	71e3      	strb	r3, [r4, #7]
  26:	61ec      	str	r4, [r5, #28]
  28:	bd38      	pop	{r3, r4, r5, pc}
  2a:	4b0d      	ldr	r3, [pc, #52]	; (60 <dhcp_set_struct+0x60>)
  2c:	f44f 723e 	mov.w	r2, #760	; 0x2f8
  30:	490c      	ldr	r1, [pc, #48]	; (64 <dhcp_set_struct+0x64>)
  32:	480d      	ldr	r0, [pc, #52]	; (68 <dhcp_set_struct+0x68>)
  34:	f7ff fffe 	bl	0 <printf>
  38:	2000      	movs	r0, #0
  3a:	f7ff fffe 	bl	0 <fflush>
  3e:	2001      	movs	r0, #1
  40:	f7ff fffe 	bl	0 <qnethernet_hal_stdio_flush>
  44:	f7ff fffe 	bl	0 <abort>
  48:	4b05      	ldr	r3, [pc, #20]	; (60 <dhcp_set_struct+0x60>)
  4a:	f240 22fa 	movw	r2, #762	; 0x2fa
  4e:	4907      	ldr	r1, [pc, #28]	; (6c <dhcp_set_struct+0x6c>)
  50:	e7ef      	b.n	32 <dhcp_set_struct+0x32>
  52:	4b03      	ldr	r3, [pc, #12]	; (60 <dhcp_set_struct+0x60>)
  54:	f240 22f9 	movw	r2, #761	; 0x2f9
  58:	4905      	ldr	r1, [pc, #20]	; (70 <dhcp_set_struct+0x70>)
  5a:	e7ea      	b.n	32 <dhcp_set_struct+0x32>
  5c:	00000000 	.word	0x00000000
  60:	00000000 	.word	0x00000000
  64:	00000000 	.word	0x00000000
  68:	0000006c 	.word	0x0000006c
  6c:	00000020 	.word	0x00000020
  70:	00000010 	.word	0x00000010

Disassembly of section .text.dhcp_cleanup:

00000000 <dhcp_cleanup>:
   0:	b510      	push	{r4, lr}
   2:	4604      	mov	r4, r0
   4:	4a11      	ldr	r2, [pc, #68]	; (4c <dhcp_cleanup+0x4c>)
   6:	f44f 7144 	mov.w	r1, #784	; 0x310
   a:	4811      	ldr	r0, [pc, #68]	; (50 <dhcp_cleanup+0x50>)
   c:	f7ff fffe 	bl	0 <qnethernet_hal_check_core_locking>
  10:	b164      	cbz	r4, 2c <dhcp_cleanup+0x2c>
  12:	69e0      	ldr	r0, [r4, #28]
  14:	b120      	cbz	r0, 20 <dhcp_cleanup+0x20>
  16:	79c3      	ldrb	r3, [r0, #7]
  18:	079b      	lsls	r3, r3, #30
  1a:	d502      	bpl.n	22 <dhcp_cleanup+0x22>
  1c:	2300      	movs	r3, #0
  1e:	61e3      	str	r3, [r4, #28]
  20:	bd10      	pop	{r4, pc}
  22:	f7ff fffe 	bl	0 <mem_free>
  26:	2300      	movs	r3, #0
  28:	61e3      	str	r3, [r4, #28]
  2a:	e7f9      	b.n	20 <dhcp_cleanup+0x20>
  2c:	4b08      	ldr	r3, [pc, #32]	; (50 <dhcp_cleanup+0x50>)
  2e:	f240 3211 	movw	r2, #785	; 0x311
  32:	4908      	ldr	r1, [pc, #32]	; (54 <dhcp_cleanup+0x54>)
  34:	4808      	ldr	r0, [pc, #32]	; (58 <dhcp_cleanup+0x58>)
  36:	f7ff fffe 	bl	0 <printf>
  3a:	4620      	mov	r0, r4
  3c:	f7ff fffe 	bl	0 <fflush>
  40:	2001      	movs	r0, #1
  42:	f7ff fffe 	bl	0 <qnethernet_hal_stdio_flush>
  46:	f7ff fffe 	bl	0 <abort>
  4a:	bf00      	nop
  4c:	00000000 	.word	0x00000000
  50:	00000000 	.word	0x00000000
  54:	00000000 	.word	0x00000000
  58:	0000006c 	.word	0x0000006c

Disassembly of section .text.dhcp_inform:

00000000 <dhcp_inform>:
   0:	e92d 41f0 	stmdb	sp!, {r4, r5, r6, r7, r8, lr}
   4:	4604      	mov	r4, r0
   6:	b090      	sub	sp, #64	; 0x40
   8:	4a37      	ldr	r2, [pc, #220]	; (e8 <dhcp_inform+0xe8>)
   a:	f44f 7161 	mov.w	r1, #900	; 0x384
   e:	4837      	ldr	r0, [pc, #220]	; (ec <dhcp_inform+0xec>)
  10:	f7ff fffe 	bl	0 <qnethernet_hal_check_core_locking>
  14:	b11c      	cbz	r4, 1e <dhcp_inform+0x1e>
  16:	f7ff fffe 	bl	0 <dhcp_inform>
  1a:	4606      	mov	r6, r0
  1c:	b110      	cbz	r0, 24 <dhcp_inform+0x24>
  1e:	b010      	add	sp, #64	; 0x40
  20:	e8bd 81f0 	ldmia.w	sp!, {r4, r5, r6, r7, r8, pc}
  24:	4601      	mov	r1, r0
  26:	2234      	movs	r2, #52	; 0x34
  28:	a803      	add	r0, sp, #12
  2a:	f7ff fffe 	bl	0 <memset>
  2e:	2207      	movs	r2, #7
  30:	f10d 030a 	add.w	r3, sp, #10
  34:	a903      	add	r1, sp, #12
  36:	f88d 2011 	strb.w	r2, [sp, #17]
  3a:	4620      	mov	r0, r4
  3c:	2208      	movs	r2, #8
  3e:	f7ff fffe 	bl	0 <dhcp_inform>
  42:	4605      	mov	r5, r0
  44:	2800      	cmp	r0, #0
  46:	d046      	beq.n	d6 <dhcp_inform+0xd6>
  48:	f8bd 200a 	ldrh.w	r2, [sp, #10]
  4c:	6840      	ldr	r0, [r0, #4]
  4e:	1d11      	adds	r1, r2, #4
  50:	f102 0c02 	add.w	ip, r2, #2
  54:	30f0      	adds	r0, #240	; 0xf0
  56:	2944      	cmp	r1, #68	; 0x44
  58:	d842      	bhi.n	e0 <dhcp_inform+0xe0>
  5a:	f04f 0e39 	mov.w	lr, #57	; 0x39
  5e:	1c53      	adds	r3, r2, #1
  60:	fa1f f78c 	uxth.w	r7, ip
  64:	f800 e002 	strb.w	lr, [r0, r2]
  68:	b29b      	uxth	r3, r3
  6a:	f04f 0e02 	mov.w	lr, #2
  6e:	f800 e003 	strb.w	lr, [r0, r3]
  72:	eb07 030e 	add.w	r3, r7, lr
  76:	f8ad c00a 	strh.w	ip, [sp, #10]
  7a:	2b44      	cmp	r3, #68	; 0x44
  7c:	f8b4 e034 	ldrh.w	lr, [r4, #52]	; 0x34
  80:	d830      	bhi.n	e4 <dhcp_inform+0xe4>
  82:	1d53      	adds	r3, r2, #5
  84:	f102 0c03 	add.w	ip, r2, #3
  88:	ea4f 281e 	mov.w	r8, lr, lsr #8
  8c:	b29b      	uxth	r3, r3
  8e:	f800 8007 	strb.w	r8, [r0, r7]
  92:	fa1f fc8c 	uxth.w	ip, ip
  96:	27ff      	movs	r7, #255	; 0xff
  98:	2b43      	cmp	r3, #67	; 0x43
  9a:	f800 e00c 	strb.w	lr, [r0, ip]
  9e:	f8ad 100a 	strh.w	r1, [sp, #10]
  a2:	5447      	strb	r7, [r0, r1]
  a4:	d807      	bhi.n	b6 <dhcp_inform+0xb6>
  a6:	f1c2 023f 	rsb	r2, r2, #63	; 0x3f
  aa:	4418      	add	r0, r3
  ac:	4631      	mov	r1, r6
  ae:	b292      	uxth	r2, r2
  b0:	f7ff fffe 	bl	0 <memset>
  b4:	2344      	movs	r3, #68	; 0x44
  b6:	33f0      	adds	r3, #240	; 0xf0
  b8:	4628      	mov	r0, r5
  ba:	b299      	uxth	r1, r3
  bc:	f7ff fffe 	bl	0 <pbuf_realloc>
  c0:	490b      	ldr	r1, [pc, #44]	; (f0 <dhcp_inform+0xf0>)
  c2:	2343      	movs	r3, #67	; 0x43
  c4:	4a0b      	ldr	r2, [pc, #44]	; (f4 <dhcp_inform+0xf4>)
  c6:	6808      	ldr	r0, [r1, #0]
  c8:	4629      	mov	r1, r5
  ca:	9400      	str	r4, [sp, #0]
  cc:	f7ff fffe 	bl	0 <udp_sendto_if>
  d0:	4628      	mov	r0, r5
  d2:	f7ff fffe 	bl	0 <pbuf_free>
  d6:	f7ff fffe 	bl	0 <dhcp_inform>
  da:	b010      	add	sp, #64	; 0x40
  dc:	e8bd 81f0 	ldmia.w	sp!, {r4, r5, r6, r7, r8, pc}
  e0:	f7ff fffe 	bl	0 <dhcp_inform>
  e4:	f7ff fffe 	bl	0 <dhcp_inform>
  e8:	00000000 	.word	0x00000000
  ec:	00000000 	.word	0x00000000
  f0:	00000000 	.word	0x00000000
  f4:	00000000 	.word	0x00000000

Disassembly of section .text.dhcp_network_changed_link_up:

00000000 <dhcp_network_changed_link_up>:
   0:	69c2      	ldr	r2, [r0, #28]
   2:	b332      	cbz	r2, 52 <dhcp_network_changed_link_up+0x52>
   4:	b508      	push	{r3, lr}
   6:	7953      	ldrb	r3, [r2, #5]
   8:	2b05      	cmp	r3, #5
   a:	d803      	bhi.n	14 <dhcp_network_changed_link_up+0x14>
   c:	2b02      	cmp	r3, #2
   e:	d814      	bhi.n	3a <dhcp_network_changed_link_up+0x3a>
  10:	b9cb      	cbnz	r3, 46 <dhcp_network_changed_link_up+0x46>
  12:	bd08      	pop	{r3, pc}
  14:	2b0a      	cmp	r3, #10
  16:	d010      	beq.n	3a <dhcp_network_changed_link_up+0x3a>
  18:	2b0c      	cmp	r3, #12
  1a:	d914      	bls.n	46 <dhcp_network_changed_link_up+0x46>
  1c:	4b0d      	ldr	r3, [pc, #52]	; (54 <dhcp_network_changed_link_up+0x54>)
  1e:	f240 32bd 	movw	r2, #957	; 0x3bd
  22:	490d      	ldr	r1, [pc, #52]	; (58 <dhcp_network_changed_link_up+0x58>)
  24:	480d      	ldr	r0, [pc, #52]	; (5c <dhcp_network_changed_link_up+0x5c>)
  26:	f7ff fffe 	bl	0 <printf>
  2a:	2000      	movs	r0, #0
  2c:	f7ff fffe 	bl	0 <fflush>
  30:	2001      	movs	r0, #1
  32:	f7ff fffe 	bl	0 <qnethernet_hal_stdio_flush>
  36:	f7ff fffe 	bl	0 <abort>
  3a:	2300      	movs	r3, #0
  3c:	7193      	strb	r3, [r2, #6]
  3e:	e8bd 4008 	ldmia.w	sp!, {r3, lr}
  42:	f7ff bffe 	b.w	0 <dhcp_network_changed_link_up>
  46:	2300      	movs	r3, #0
  48:	7193      	strb	r3, [r2, #6]
  4a:	e8bd 4008 	ldmia.w	sp!, {r3, lr}
  4e:	f7ff bffe 	b.w	0 <dhcp_network_changed_link_up>
  52:	4770      	bx	lr
  54:	00000000 	.word	0x00000000
  58:	00000000 	.word	0x00000000
  5c:	0000006c 	.word	0x0000006c

Disassembly of section .text.dhcp_renew:

00000000 <dhcp_renew>:
   0:	e92d 41f0 	stmdb	sp!, {r4, r5, r6, r7, r8, lr}
   4:	4606      	mov	r6, r0
   6:	b084      	sub	sp, #16
   8:	4a63      	ldr	r2, [pc, #396]	; (198 <dhcp_renew+0x198>)
   a:	f240 418e 	movw	r1, #1166	; 0x48e
   e:	69f5      	ldr	r5, [r6, #28]
  10:	4862      	ldr	r0, [pc, #392]	; (19c <dhcp_renew+0x19c>)
  12:	f7ff fffe 	bl	0 <qnethernet_hal_check_core_locking>
  16:	796b      	ldrb	r3, [r5, #5]
  18:	2b05      	cmp	r3, #5
  1a:	d004      	beq.n	26 <dhcp_renew+0x26>
  1c:	2300      	movs	r3, #0
  1e:	2205      	movs	r2, #5
  20:	71ab      	strb	r3, [r5, #6]
  22:	716a      	strb	r2, [r5, #5]
  24:	812b      	strh	r3, [r5, #8]
  26:	f10d 030e 	add.w	r3, sp, #14
  2a:	2203      	movs	r2, #3
  2c:	4629      	mov	r1, r5
  2e:	4630      	mov	r0, r6
  30:	f7ff fffe 	bl	0 <dhcp_renew>
  34:	4604      	mov	r4, r0
  36:	2800      	cmp	r0, #0
  38:	f000 80a6 	beq.w	188 <dhcp_renew+0x188>
  3c:	f8bd 200e 	ldrh.w	r2, [sp, #14]
  40:	6841      	ldr	r1, [r0, #4]
  42:	f102 0c04 	add.w	ip, r2, #4
  46:	1c90      	adds	r0, r2, #2
  48:	f101 07f0 	add.w	r7, r1, #240	; 0xf0
  4c:	f1bc 0f44 	cmp.w	ip, #68	; 0x44
  50:	f200 809d 	bhi.w	18e <dhcp_renew+0x18e>
  54:	f04f 0839 	mov.w	r8, #57	; 0x39
  58:	1c53      	adds	r3, r2, #1
  5a:	fa1f fe80 	uxth.w	lr, r0
  5e:	f807 8002 	strb.w	r8, [r7, r2]
  62:	b29b      	uxth	r3, r3
  64:	f04f 0802 	mov.w	r8, #2
  68:	f807 8003 	strb.w	r8, [r7, r3]
  6c:	eb0e 0308 	add.w	r3, lr, r8
  70:	f8ad 000e 	strh.w	r0, [sp, #14]
  74:	2b44      	cmp	r3, #68	; 0x44
  76:	8eb0      	ldrh	r0, [r6, #52]	; 0x34
  78:	f200 808b 	bhi.w	192 <dhcp_renew+0x192>
  7c:	1cd3      	adds	r3, r2, #3
  7e:	ea4f 2810 	mov.w	r8, r0, lsr #8
  82:	b29b      	uxth	r3, r3
  84:	f807 800e 	strb.w	r8, [r7, lr]
  88:	54f8      	strb	r0, [r7, r3]
  8a:	f102 000a 	add.w	r0, r2, #10
  8e:	f8ad c00e 	strh.w	ip, [sp, #14]
  92:	2844      	cmp	r0, #68	; 0x44
  94:	d87b      	bhi.n	18e <dhcp_renew+0x18e>
  96:	1d93      	adds	r3, r2, #6
  98:	f04f 0e37 	mov.w	lr, #55	; 0x37
  9c:	3205      	adds	r2, #5
  9e:	b280      	uxth	r0, r0
  a0:	b29b      	uxth	r3, r3
  a2:	f807 e00c 	strb.w	lr, [r7, ip]
  a6:	b292      	uxth	r2, r2
  a8:	f103 0cef 	add.w	ip, r3, #239	; 0xef
  ac:	2b43      	cmp	r3, #67	; 0x43
  ae:	4461      	add	r1, ip
  b0:	f04f 0c04 	mov.w	ip, #4
  b4:	f807 c002 	strb.w	ip, [r7, r2]
  b8:	f04f 0201 	mov.w	r2, #1
  bc:	f8df c0f0 	ldr.w	ip, [pc, #240]	; 1b0 <dhcp_renew+0x1b0>
  c0:	f8ad 300e 	strh.w	r3, [sp, #14]
  c4:	d80b      	bhi.n	de <dhcp_renew+0xde>
  c6:	3301      	adds	r3, #1
  c8:	f801 2f01 	strb.w	r2, [r1, #1]!
  cc:	b29b      	uxth	r3, r3
  ce:	4298      	cmp	r0, r3
  d0:	f8ad 300e 	strh.w	r3, [sp, #14]
  d4:	d012      	beq.n	fc <dhcp_renew+0xfc>
  d6:	2b43      	cmp	r3, #67	; 0x43
  d8:	f81c 2f01 	ldrb.w	r2, [ip, #1]!
  dc:	d9f3      	bls.n	c6 <dhcp_renew+0xc6>
  de:	4b2f      	ldr	r3, [pc, #188]	; (19c <dhcp_renew+0x19c>)
  e0:	f240 52ac 	movw	r2, #1452	; 0x5ac
  e4:	492e      	ldr	r1, [pc, #184]	; (1a0 <dhcp_renew+0x1a0>)
  e6:	482f      	ldr	r0, [pc, #188]	; (1a4 <dhcp_renew+0x1a4>)
  e8:	f7ff fffe 	bl	0 <printf>
  ec:	2000      	movs	r0, #0
  ee:	f7ff fffe 	bl	0 <fflush>
  f2:	2001      	movs	r0, #1
  f4:	f7ff fffe 	bl	0 <qnethernet_hal_stdio_flush>
  f8:	f7ff fffe 	bl	0 <abort>
  fc:	6b32      	ldr	r2, [r6, #48]	; 0x30
  fe:	4639      	mov	r1, r7
 100:	f7ff fffe 	bl	0 <dhcp_renew>
 104:	1c43      	adds	r3, r0, #1
 106:	22ff      	movs	r2, #255	; 0xff
 108:	f8ad 000e 	strh.w	r0, [sp, #14]
 10c:	b299      	uxth	r1, r3
 10e:	543a      	strb	r2, [r7, r0]
 110:	2943      	cmp	r1, #67	; 0x43
 112:	d807      	bhi.n	124 <dhcp_renew+0x124>
 114:	f1c0 0243 	rsb	r2, r0, #67	; 0x43
 118:	1878      	adds	r0, r7, r1
 11a:	2100      	movs	r1, #0
 11c:	b292      	uxth	r2, r2
 11e:	f7ff fffe 	bl	0 <memset>
 122:	2144      	movs	r1, #68	; 0x44
 124:	31f0      	adds	r1, #240	; 0xf0
 126:	4620      	mov	r0, r4
 128:	b289      	uxth	r1, r1
 12a:	f7ff fffe 	bl	0 <pbuf_realloc>
 12e:	481e      	ldr	r0, [pc, #120]	; (1a8 <dhcp_renew+0x1a8>)
 130:	2343      	movs	r3, #67	; 0x43
 132:	4621      	mov	r1, r4
 134:	6800      	ldr	r0, [r0, #0]
 136:	f105 0218 	add.w	r2, r5, #24
 13a:	9600      	str	r6, [sp, #0]
 13c:	f7ff fffe 	bl	0 <udp_sendto_if>
 140:	4603      	mov	r3, r0
 142:	4620      	mov	r0, r4
 144:	461c      	mov	r4, r3
 146:	f7ff fffe 	bl	0 <pbuf_free>
 14a:	79ab      	ldrb	r3, [r5, #6]
 14c:	2bff      	cmp	r3, #255	; 0xff
 14e:	d015      	beq.n	17c <dhcp_renew+0x17c>
 150:	3301      	adds	r3, #1
 152:	b2db      	uxtb	r3, r3
 154:	2b09      	cmp	r3, #9
 156:	71ab      	strb	r3, [r5, #6]
 158:	d810      	bhi.n	17c <dhcp_renew+0x17c>
 15a:	ebc3 1143 	rsb	r1, r3, r3, lsl #5
 15e:	4a13      	ldr	r2, [pc, #76]	; (1ac <dhcp_renew+0x1ac>)
 160:	4620      	mov	r0, r4
 162:	eb03 0381 	add.w	r3, r3, r1, lsl #2
 166:	011b      	lsls	r3, r3, #4
 168:	f203 13f3 	addw	r3, r3, #499	; 0x1f3
 16c:	b29b      	uxth	r3, r3
 16e:	fba2 2303 	umull	r2, r3, r2, r3
 172:	095b      	lsrs	r3, r3, #5
 174:	812b      	strh	r3, [r5, #8]
 176:	b004      	add	sp, #16
 178:	e8bd 81f0 	ldmia.w	sp!, {r4, r5, r6, r7, r8, pc}
 17c:	2328      	movs	r3, #40	; 0x28
 17e:	4620      	mov	r0, r4
 180:	812b      	strh	r3, [r5, #8]
 182:	b004      	add	sp, #16
 184:	e8bd 81f0 	ldmia.w	sp!, {r4, r5, r6, r7, r8, pc}
 188:	f04f 34ff 	mov.w	r4, #4294967295	; 0xffffffff
 18c:	e7dd      	b.n	14a <dhcp_renew+0x14a>
 18e:	f7ff fffe 	bl	0 <dhcp_renew>
 192:	f7ff fffe 	bl	0 <dhcp_renew>
 196:	bf00      	nop
 198:	00000000 	.word	0x00000000
 19c:	00000000 	.word	0x00000000
 1a0:	00000000 	.word	0x00000000
 1a4:	0000006c 	.word	0x0000006c
 1a8:	00000000 	.word	0x00000000
 1ac:	10624dd3 	.word	0x10624dd3
 1b0:	00000000 	.word	0x00000000

Disassembly of section .text.dhcp_release_and_stop:

00000000 <dhcp_release_and_stop>:
   0:	e92d 41f0 	stmdb	sp!, {r4, r5, r6, r7, r8, lr}
   4:	4605      	mov	r5, r0
   6:	b084      	sub	sp, #16
   8:	4a43      	ldr	r2, [pc, #268]	; (118 <dhcp_release_and_stop+0x118>)
   a:	f240 5132 	movw	r1, #1330	; 0x532
   e:	69ec      	ldr	r4, [r5, #28]
  10:	4842      	ldr	r0, [pc, #264]	; (11c <dhcp_release_and_stop+0x11c>)
  12:	f7ff fffe 	bl	0 <qnethernet_hal_check_core_locking>
  16:	2c00      	cmp	r4, #0
  18:	d06a      	beq.n	f0 <dhcp_release_and_stop+0xf0>
  1a:	7963      	ldrb	r3, [r4, #5]
  1c:	2b00      	cmp	r3, #0
  1e:	d067      	beq.n	f0 <dhcp_release_and_stop+0xf0>
  20:	2300      	movs	r3, #0
  22:	69ea      	ldr	r2, [r5, #28]
  24:	69a1      	ldr	r1, [r4, #24]
  26:	62a3      	str	r3, [r4, #40]	; 0x28
  28:	9103      	str	r1, [sp, #12]
  2a:	81e3      	strh	r3, [r4, #14]
  2c:	6123      	str	r3, [r4, #16]
  2e:	82a3      	strh	r3, [r4, #20]
  30:	e9c4 3306 	strd	r3, r3, [r4, #24]
  34:	e9c4 3308 	strd	r3, r3, [r4, #32]
  38:	e9c4 330b 	strd	r3, r3, [r4, #44]	; 0x2c
  3c:	2a00      	cmp	r2, #0
  3e:	d05a      	beq.n	f6 <dhcp_release_and_stop+0xf6>
  40:	7953      	ldrb	r3, [r2, #5]
  42:	1f1a      	subs	r2, r3, #4
  44:	2a01      	cmp	r2, #1
  46:	d901      	bls.n	4c <dhcp_release_and_stop+0x4c>
  48:	2b0a      	cmp	r3, #10
  4a:	d154      	bne.n	f6 <dhcp_release_and_stop+0xf6>
  4c:	2700      	movs	r7, #0
  4e:	f10d 030a 	add.w	r3, sp, #10
  52:	2207      	movs	r2, #7
  54:	4621      	mov	r1, r4
  56:	4628      	mov	r0, r5
  58:	7167      	strb	r7, [r4, #5]
  5a:	71a7      	strb	r7, [r4, #6]
  5c:	8127      	strh	r7, [r4, #8]
  5e:	f7ff fffe 	bl	0 <dhcp_release_and_stop>
  62:	4606      	mov	r6, r0
  64:	2800      	cmp	r0, #0
  66:	d03b      	beq.n	e0 <dhcp_release_and_stop+0xe0>
  68:	6873      	ldr	r3, [r6, #4]
  6a:	f8bd 000a 	ldrh.w	r0, [sp, #10]
  6e:	f103 08f0 	add.w	r8, r3, #240	; 0xf0
  72:	1d83      	adds	r3, r0, #6
  74:	2b44      	cmp	r3, #68	; 0x44
  76:	d84c      	bhi.n	112 <dhcp_release_and_stop+0x112>
  78:	1c43      	adds	r3, r0, #1
  7a:	2236      	movs	r2, #54	; 0x36
  7c:	4641      	mov	r1, r8
  7e:	f808 2000 	strb.w	r2, [r8, r0]
  82:	b29b      	uxth	r3, r3
  84:	2204      	movs	r2, #4
  86:	3002      	adds	r0, #2
  88:	f808 2003 	strb.w	r2, [r8, r3]
  8c:	b280      	uxth	r0, r0
  8e:	9a03      	ldr	r2, [sp, #12]
  90:	f8ad 000a 	strh.w	r0, [sp, #10]
  94:	ba12      	rev	r2, r2
  96:	f7ff fffe 	bl	0 <dhcp_release_and_stop>
  9a:	1c43      	adds	r3, r0, #1
  9c:	21ff      	movs	r1, #255	; 0xff
  9e:	f8ad 000a 	strh.w	r0, [sp, #10]
  a2:	b29b      	uxth	r3, r3
  a4:	4602      	mov	r2, r0
  a6:	f808 1000 	strb.w	r1, [r8, r0]
  aa:	2b43      	cmp	r3, #67	; 0x43
  ac:	d808      	bhi.n	c0 <dhcp_release_and_stop+0xc0>
  ae:	f1c2 0243 	rsb	r2, r2, #67	; 0x43
  b2:	eb08 0003 	add.w	r0, r8, r3
  b6:	4639      	mov	r1, r7
  b8:	b292      	uxth	r2, r2
  ba:	f7ff fffe 	bl	0 <memset>
  be:	2344      	movs	r3, #68	; 0x44
  c0:	33f0      	adds	r3, #240	; 0xf0
  c2:	4630      	mov	r0, r6
  c4:	b299      	uxth	r1, r3
  c6:	f7ff fffe 	bl	0 <pbuf_realloc>
  ca:	4a15      	ldr	r2, [pc, #84]	; (120 <dhcp_release_and_stop+0x120>)
  cc:	9500      	str	r5, [sp, #0]
  ce:	2343      	movs	r3, #67	; 0x43
  d0:	6810      	ldr	r0, [r2, #0]
  d2:	4631      	mov	r1, r6
  d4:	aa03      	add	r2, sp, #12
  d6:	f7ff fffe 	bl	0 <udp_sendto_if>
  da:	4630      	mov	r0, r6
  dc:	f7ff fffe 	bl	0 <pbuf_free>
  e0:	4b10      	ldr	r3, [pc, #64]	; (124 <dhcp_release_and_stop+0x124>)
  e2:	4628      	mov	r0, r5
  e4:	461a      	mov	r2, r3
  e6:	4619      	mov	r1, r3
  e8:	f7ff fffe 	bl	0 <netif_set_addr>
  ec:	7923      	ldrb	r3, [r4, #4]
  ee:	b94b      	cbnz	r3, 104 <dhcp_release_and_stop+0x104>
  f0:	b004      	add	sp, #16
  f2:	e8bd 81f0 	ldmia.w	sp!, {r4, r5, r6, r7, r8, pc}
  f6:	2300      	movs	r3, #0
  f8:	7163      	strb	r3, [r4, #5]
  fa:	71a3      	strb	r3, [r4, #6]
  fc:	8123      	strh	r3, [r4, #8]
  fe:	7923      	ldrb	r3, [r4, #4]
 100:	2b00      	cmp	r3, #0
 102:	d0f5      	beq.n	f0 <dhcp_release_and_stop+0xf0>
 104:	f7ff fffe 	bl	0 <dhcp_release_and_stop>
 108:	2300      	movs	r3, #0
 10a:	7123      	strb	r3, [r4, #4]
 10c:	b004      	add	sp, #16
 10e:	e8bd 81f0 	ldmia.w	sp!, {r4, r5, r6, r7, r8, pc}
 112:	f7ff fffe 	bl	0 <dhcp_release_and_stop>
 116:	bf00      	nop
 118:	00000000 	.word	0x00000000
 11c:	00000000 	.word	0x00000000
 120:	00000000 	.word	0x00000000
 124:	00000000 	.word	0x00000000

Disassembly of section .text.dhcp_start:

00000000 <dhcp_start>:
   0:	b570      	push	{r4, r5, r6, lr}
   2:	4604      	mov	r4, r0
   4:	4a23      	ldr	r2, [pc, #140]	; (94 <dhcp_start+0x94>)
   6:	f240 312f 	movw	r1, #815	; 0x32f
   a:	4823      	ldr	r0, [pc, #140]	; (98 <dhcp_start+0x98>)
   c:	f7ff fffe 	bl	0 <qnethernet_hal_check_core_locking>
  10:	2c00      	cmp	r4, #0
  12:	d03b      	beq.n	8c <dhcp_start+0x8c>
  14:	f894 303d 	ldrb.w	r3, [r4, #61]	; 0x3d
  18:	07da      	lsls	r2, r3, #31
  1a:	d537      	bpl.n	8c <dhcp_start+0x8c>
  1c:	8ea3      	ldrh	r3, [r4, #52]	; 0x34
  1e:	69e5      	ldr	r5, [r4, #28]
  20:	f5b3 7f10 	cmp.w	r3, #576	; 0x240
  24:	d32f      	bcc.n	86 <dhcp_start+0x86>
  26:	b33d      	cbz	r5, 78 <dhcp_start+0x78>
  28:	792b      	ldrb	r3, [r5, #4]
  2a:	bb13      	cbnz	r3, 72 <dhcp_start+0x72>
  2c:	2234      	movs	r2, #52	; 0x34
  2e:	2100      	movs	r1, #0
  30:	4628      	mov	r0, r5
  32:	f7ff fffe 	bl	0 <memset>
  36:	f7ff fffe 	bl	0 <dhcp_start>
  3a:	4606      	mov	r6, r0
  3c:	bb18      	cbnz	r0, 86 <dhcp_start+0x86>
  3e:	2301      	movs	r3, #1
  40:	712b      	strb	r3, [r5, #4]
  42:	f894 303d 	ldrb.w	r3, [r4, #61]	; 0x3d
  46:	075b      	lsls	r3, r3, #29
  48:	d408      	bmi.n	5c <dhcp_start+0x5c>
  4a:	796b      	ldrb	r3, [r5, #5]
  4c:	2b02      	cmp	r3, #2
  4e:	d003      	beq.n	58 <dhcp_start+0x58>
  50:	2302      	movs	r3, #2
  52:	71a8      	strb	r0, [r5, #6]
  54:	8128      	strh	r0, [r5, #8]
  56:	716b      	strb	r3, [r5, #5]
  58:	4630      	mov	r0, r6
  5a:	bd70      	pop	{r4, r5, r6, pc}
  5c:	4620      	mov	r0, r4
  5e:	f7ff fffe 	bl	0 <dhcp_start>
  62:	2800      	cmp	r0, #0
  64:	d0f8      	beq.n	58 <dhcp_start+0x58>
  66:	4620      	mov	r0, r4
  68:	f04f 36ff 	mov.w	r6, #4294967295	; 0xffffffff
  6c:	f7ff fffe 	bl	0 <dhcp_start>
  70:	e7f2      	b.n	58 <dhcp_start+0x58>
  72:	f7ff fffe 	bl	0 <dhcp_start>
  76:	e7d9      	b.n	2c <dhcp_start+0x2c>
  78:	2034      	movs	r0, #52	; 0x34
  7a:	f7ff fffe 	bl	0 <mem_malloc>
  7e:	4605      	mov	r5, r0
  80:	b108      	cbz	r0, 86 <dhcp_start+0x86>
  82:	61e0      	str	r0, [r4, #28]
  84:	e7d2      	b.n	2c <dhcp_start+0x2c>
  86:	f04f 36ff 	mov.w	r6, #4294967295	; 0xffffffff
  8a:	e7e5      	b.n	58 <dhcp_start+0x58>
  8c:	f06f 060f 	mvn.w	r6, #15
  90:	e7e2      	b.n	58 <dhcp_start+0x58>
  92:	bf00      	nop
  94:	00000000 	.word	0x00000000
  98:	00000000 	.word	0x00000000

Disassembly of section .text.dhcp_coarse_tmr:

00000000 <dhcp_coarse_tmr>:
   0:	4b82      	ldr	r3, [pc, #520]	; (20c <dhcp_coarse_tmr+0x20c>)
   2:	e92d 41f0 	stmdb	sp!, {r4, r5, r6, r7, r8, lr}
   6:	681d      	ldr	r5, [r3, #0]
   8:	b084      	sub	sp, #16
   a:	b1ad      	cbz	r5, 38 <dhcp_coarse_tmr+0x38>
   c:	69ec      	ldr	r4, [r5, #28]
   e:	b19c      	cbz	r4, 38 <dhcp_coarse_tmr+0x38>
  10:	7963      	ldrb	r3, [r4, #5]
  12:	b18b      	cbz	r3, 38 <dhcp_coarse_tmr+0x38>
  14:	8aa1      	ldrh	r1, [r4, #20]
  16:	b131      	cbz	r1, 26 <dhcp_coarse_tmr+0x26>
  18:	8a62      	ldrh	r2, [r4, #18]
  1a:	3201      	adds	r2, #1
  1c:	b292      	uxth	r2, r2
  1e:	4291      	cmp	r1, r2
  20:	8262      	strh	r2, [r4, #18]
  22:	f000 808c 	beq.w	13e <dhcp_coarse_tmr+0x13e>
  26:	8a22      	ldrh	r2, [r4, #16]
  28:	b94a      	cbnz	r2, 3e <dhcp_coarse_tmr+0x3e>
  2a:	89e2      	ldrh	r2, [r4, #14]
  2c:	b122      	cbz	r2, 38 <dhcp_coarse_tmr+0x38>
  2e:	1e51      	subs	r1, r2, #1
  30:	2a01      	cmp	r2, #1
  32:	81e1      	strh	r1, [r4, #14]
  34:	f000 808c 	beq.w	150 <dhcp_coarse_tmr+0x150>
  38:	b004      	add	sp, #16
  3a:	e8bd 81f0 	ldmia.w	sp!, {r4, r5, r6, r7, r8, pc}
  3e:	1e51      	subs	r1, r2, #1
  40:	2a01      	cmp	r2, #1
  42:	8221      	strh	r1, [r4, #16]
  44:	d1f1      	bne.n	2a <dhcp_coarse_tmr+0x2a>
  46:	1e5a      	subs	r2, r3, #1
  48:	b2d2      	uxtb	r2, r2
  4a:	2a09      	cmp	r2, #9
  4c:	d8f4      	bhi.n	38 <dhcp_coarse_tmr+0x38>
  4e:	4970      	ldr	r1, [pc, #448]	; (210 <dhcp_coarse_tmr+0x210>)
  50:	fa41 f202 	asr.w	r2, r1, r2
  54:	f012 0201 	ands.w	r2, r2, #1
  58:	d1ee      	bne.n	38 <dhcp_coarse_tmr+0x38>
  5a:	2b04      	cmp	r3, #4
  5c:	d003      	beq.n	66 <dhcp_coarse_tmr+0x66>
  5e:	2304      	movs	r3, #4
  60:	71a2      	strb	r2, [r4, #6]
  62:	8122      	strh	r2, [r4, #8]
  64:	7163      	strb	r3, [r4, #5]
  66:	f10d 030e 	add.w	r3, sp, #14
  6a:	2203      	movs	r2, #3
  6c:	4621      	mov	r1, r4
  6e:	4628      	mov	r0, r5
  70:	f7ff fffe 	bl	0 <dhcp_coarse_tmr>
  74:	4606      	mov	r6, r0
  76:	2800      	cmp	r0, #0
  78:	f000 80a4 	beq.w	1c4 <dhcp_coarse_tmr+0x1c4>
  7c:	f8bd 200e 	ldrh.w	r2, [sp, #14]
  80:	6841      	ldr	r1, [r0, #4]
  82:	f102 0c04 	add.w	ip, r2, #4
  86:	1c90      	adds	r0, r2, #2
  88:	f101 07f0 	add.w	r7, r1, #240	; 0xf0
  8c:	f1bc 0f44 	cmp.w	ip, #68	; 0x44
  90:	f200 80b8 	bhi.w	204 <dhcp_coarse_tmr+0x204>
  94:	f04f 0839 	mov.w	r8, #57	; 0x39
  98:	1c53      	adds	r3, r2, #1
  9a:	fa1f fe80 	uxth.w	lr, r0
  9e:	f807 8002 	strb.w	r8, [r7, r2]
  a2:	b29b      	uxth	r3, r3
  a4:	f04f 0802 	mov.w	r8, #2
  a8:	f807 8003 	strb.w	r8, [r7, r3]
  ac:	eb0e 0308 	add.w	r3, lr, r8
  b0:	f8ad 000e 	strh.w	r0, [sp, #14]
  b4:	2b44      	cmp	r3, #68	; 0x44
  b6:	8ea8      	ldrh	r0, [r5, #52]	; 0x34
  b8:	f200 80a6 	bhi.w	208 <dhcp_coarse_tmr+0x208>
  bc:	1cd3      	adds	r3, r2, #3
  be:	ea4f 2810 	mov.w	r8, r0, lsr #8
  c2:	b29b      	uxth	r3, r3
  c4:	f807 800e 	strb.w	r8, [r7, lr]
  c8:	54f8      	strb	r0, [r7, r3]
  ca:	f102 000a 	add.w	r0, r2, #10
  ce:	f8ad c00e 	strh.w	ip, [sp, #14]
  d2:	2844      	cmp	r0, #68	; 0x44
  d4:	f200 8096 	bhi.w	204 <dhcp_coarse_tmr+0x204>
  d8:	1d93      	adds	r3, r2, #6
  da:	f04f 0e37 	mov.w	lr, #55	; 0x37
  de:	3205      	adds	r2, #5
  e0:	b280      	uxth	r0, r0
  e2:	b29b      	uxth	r3, r3
  e4:	f807 e00c 	strb.w	lr, [r7, ip]
  e8:	b292      	uxth	r2, r2
  ea:	f103 0cef 	add.w	ip, r3, #239	; 0xef
  ee:	2b43      	cmp	r3, #67	; 0x43
  f0:	4461      	add	r1, ip
  f2:	f04f 0c04 	mov.w	ip, #4
  f6:	f807 c002 	strb.w	ip, [r7, r2]
  fa:	f04f 0201 	mov.w	r2, #1
  fe:	f8df c12c 	ldr.w	ip, [pc, #300]	; 22c <dhcp_coarse_tmr+0x22c>
 102:	f8ad 300e 	strh.w	r3, [sp, #14]
 106:	d80b      	bhi.n	120 <dhcp_coarse_tmr+0x120>
 108:	3301      	adds	r3, #1
 10a:	f801 2f01 	strb.w	r2, [r1, #1]!
 10e:	b29b      	uxth	r3, r3
 110:	4283      	cmp	r3, r0
 112:	f8ad 300e 	strh.w	r3, [sp, #14]
 116:	d02e      	beq.n	176 <dhcp_coarse_tmr+0x176>
 118:	2b43      	cmp	r3, #67	; 0x43
 11a:	f81c 2f01 	ldrb.w	r2, [ip, #1]!
 11e:	d9f3      	bls.n	108 <dhcp_coarse_tmr+0x108>
 120:	4b3c      	ldr	r3, [pc, #240]	; (214 <dhcp_coarse_tmr+0x214>)
 122:	f240 52ac 	movw	r2, #1452	; 0x5ac
 126:	493c      	ldr	r1, [pc, #240]	; (218 <dhcp_coarse_tmr+0x218>)
 128:	483c      	ldr	r0, [pc, #240]	; (21c <dhcp_coarse_tmr+0x21c>)
 12a:	f7ff fffe 	bl	0 <printf>
 12e:	2000      	movs	r0, #0
 130:	f7ff fffe 	bl	0 <fflush>
 134:	2001      	movs	r0, #1
 136:	f7ff fffe 	bl	0 <qnethernet_hal_stdio_flush>
 13a:	f7ff fffe 	bl	0 <abort>
 13e:	4628      	mov	r0, r5
 140:	f7ff fffe 	bl	0 <dhcp_coarse_tmr>
 144:	4628      	mov	r0, r5
 146:	b004      	add	sp, #16
 148:	e8bd 41f0 	ldmia.w	sp!, {r4, r5, r6, r7, r8, lr}
 14c:	f7ff bffe 	b.w	0 <dhcp_coarse_tmr>
 150:	f003 02fb 	and.w	r2, r3, #251	; 0xfb
 154:	2a01      	cmp	r2, #1
 156:	d002      	beq.n	15e <dhcp_coarse_tmr+0x15e>
 158:	2b0a      	cmp	r3, #10
 15a:	f47f af6d 	bne.w	38 <dhcp_coarse_tmr+0x38>
 15e:	4628      	mov	r0, r5
 160:	f7ff fffe 	bl	0 <dhcp_coarse_tmr>
 164:	89a3      	ldrh	r3, [r4, #12]
 166:	8a62      	ldrh	r2, [r4, #18]
 168:	1a9b      	subs	r3, r3, r2
 16a:	2b01      	cmp	r3, #1
 16c:	f77f af64 	ble.w	38 <dhcp_coarse_tmr+0x38>
 170:	105b      	asrs	r3, r3, #1
 172:	81e3      	strh	r3, [r4, #14]
 174:	e760      	b.n	38 <dhcp_coarse_tmr+0x38>
 176:	4618      	mov	r0, r3
 178:	6b2a      	ldr	r2, [r5, #48]	; 0x30
 17a:	4639      	mov	r1, r7
 17c:	f7ff fffe 	bl	0 <dhcp_coarse_tmr>
 180:	1c43      	adds	r3, r0, #1
 182:	4602      	mov	r2, r0
 184:	f8ad 000e 	strh.w	r0, [sp, #14]
 188:	b298      	uxth	r0, r3
 18a:	21ff      	movs	r1, #255	; 0xff
 18c:	2843      	cmp	r0, #67	; 0x43
 18e:	54b9      	strb	r1, [r7, r2]
 190:	d807      	bhi.n	1a2 <dhcp_coarse_tmr+0x1a2>
 192:	f1c2 0243 	rsb	r2, r2, #67	; 0x43
 196:	4438      	add	r0, r7
 198:	2100      	movs	r1, #0
 19a:	b292      	uxth	r2, r2
 19c:	f7ff fffe 	bl	0 <memset>
 1a0:	2044      	movs	r0, #68	; 0x44
 1a2:	f100 01f0 	add.w	r1, r0, #240	; 0xf0
 1a6:	4630      	mov	r0, r6
 1a8:	b289      	uxth	r1, r1
 1aa:	f7ff fffe 	bl	0 <pbuf_realloc>
 1ae:	4a1c      	ldr	r2, [pc, #112]	; (220 <dhcp_coarse_tmr+0x220>)
 1b0:	9500      	str	r5, [sp, #0]
 1b2:	2343      	movs	r3, #67	; 0x43
 1b4:	6810      	ldr	r0, [r2, #0]
 1b6:	4631      	mov	r1, r6
 1b8:	4a1a      	ldr	r2, [pc, #104]	; (224 <dhcp_coarse_tmr+0x224>)
 1ba:	f7ff fffe 	bl	0 <udp_sendto_if>
 1be:	4630      	mov	r0, r6
 1c0:	f7ff fffe 	bl	0 <pbuf_free>
 1c4:	79a3      	ldrb	r3, [r4, #6]
 1c6:	2bff      	cmp	r3, #255	; 0xff
 1c8:	d01a      	beq.n	200 <dhcp_coarse_tmr+0x200>
 1ca:	3301      	adds	r3, #1
 1cc:	b2db      	uxtb	r3, r3
 1ce:	2b09      	cmp	r3, #9
 1d0:	71a3      	strb	r3, [r4, #6]
 1d2:	d815      	bhi.n	200 <dhcp_coarse_tmr+0x200>
 1d4:	ebc3 1143 	rsb	r1, r3, r3, lsl #5
 1d8:	4a13      	ldr	r2, [pc, #76]	; (228 <dhcp_coarse_tmr+0x228>)
 1da:	eb03 0381 	add.w	r3, r3, r1, lsl #2
 1de:	00db      	lsls	r3, r3, #3
 1e0:	f203 13f3 	addw	r3, r3, #499	; 0x1f3
 1e4:	b29b      	uxth	r3, r3
 1e6:	fba2 2303 	umull	r2, r3, r2, r3
 1ea:	095b      	lsrs	r3, r3, #5
 1ec:	8aa2      	ldrh	r2, [r4, #20]
 1ee:	8a61      	ldrh	r1, [r4, #18]
 1f0:	8123      	strh	r3, [r4, #8]
 1f2:	1a53      	subs	r3, r2, r1
 1f4:	2b01      	cmp	r3, #1
 1f6:	f77f af1f 	ble.w	38 <dhcp_coarse_tmr+0x38>
 1fa:	105b      	asrs	r3, r3, #1
 1fc:	8223      	strh	r3, [r4, #16]
 1fe:	e71b      	b.n	38 <dhcp_coarse_tmr+0x38>
 200:	2314      	movs	r3, #20
 202:	e7f3      	b.n	1ec <dhcp_coarse_tmr+0x1ec>
 204:	f7ff fffe 	bl	0 <dhcp_coarse_tmr>
 208:	f7ff fffe 	bl	0 <dhcp_coarse_tmr>
 20c:	00000000 	.word	0x00000000
 210:	fffffde6 	.word	0xfffffde6
 214:	00000000 	.word	0x00000000
 218:	00000000 	.word	0x00000000
 21c:	0000006c 	.word	0x0000006c
 220:	00000000 	.word	0x00000000
 224:	00000000 	.word	0x00000000
 228:	10624dd3 	.word	0x10624dd3
 22c:	00000000 	.word	0x00000000

Disassembly of section .text.dhcp_fine_tmr:

00000000 <dhcp_fine_tmr>:
   0:	4b17      	ldr	r3, [pc, #92]	; (60 <dhcp_fine_tmr+0x60>)
   2:	6818      	ldr	r0, [r3, #0]
   4:	b140      	cbz	r0, 18 <dhcp_fine_tmr+0x18>
   6:	69c3      	ldr	r3, [r0, #28]
   8:	b133      	cbz	r3, 18 <dhcp_fine_tmr+0x18>
   a:	891a      	ldrh	r2, [r3, #8]
   c:	2a01      	cmp	r2, #1
   e:	d902      	bls.n	16 <dhcp_fine_tmr+0x16>
  10:	3a01      	subs	r2, #1
  12:	811a      	strh	r2, [r3, #8]
  14:	4770      	bx	lr
  16:	d000      	beq.n	1a <dhcp_fine_tmr+0x1a>
  18:	4770      	bx	lr
  1a:	795a      	ldrb	r2, [r3, #5]
  1c:	2100      	movs	r1, #0
  1e:	2a0c      	cmp	r2, #12
  20:	8119      	strh	r1, [r3, #8]
  22:	d008      	beq.n	36 <dhcp_fine_tmr+0x36>
  24:	2a06      	cmp	r2, #6
  26:	d006      	beq.n	36 <dhcp_fine_tmr+0x36>
  28:	2a01      	cmp	r2, #1
  2a:	d006      	beq.n	3a <dhcp_fine_tmr+0x3a>
  2c:	2a03      	cmp	r2, #3
  2e:	d1f3      	bne.n	18 <dhcp_fine_tmr+0x18>
  30:	799b      	ldrb	r3, [r3, #6]
  32:	2b01      	cmp	r3, #1
  34:	d911      	bls.n	5a <dhcp_fine_tmr+0x5a>
  36:	f7ff bffe 	b.w	0 <dhcp_fine_tmr>
  3a:	799b      	ldrb	r3, [r3, #6]
  3c:	2b05      	cmp	r3, #5
  3e:	d801      	bhi.n	44 <dhcp_fine_tmr+0x44>
  40:	f7ff bffe 	b.w	0 <dhcp_fine_tmr>
  44:	b500      	push	{lr}
  46:	b083      	sub	sp, #12
  48:	9001      	str	r0, [sp, #4]
  4a:	f7ff fffe 	bl	0 <dhcp_fine_tmr>
  4e:	9801      	ldr	r0, [sp, #4]
  50:	b003      	add	sp, #12
  52:	f85d eb04 	ldr.w	lr, [sp], #4
  56:	f7ff bffe 	b.w	0 <dhcp_fine_tmr>
  5a:	f7ff bffe 	b.w	0 <dhcp_fine_tmr>
  5e:	bf00      	nop
  60:	00000000 	.word	0x00000000

Disassembly of section .text.dhcp_release:

00000000 <dhcp_release>:
   0:	b508      	push	{r3, lr}
   2:	f7ff fffe 	bl	0 <dhcp_release>
   6:	2000      	movs	r0, #0
   8:	bd08      	pop	{r3, pc}
   a:	bf00      	nop

Disassembly of section .text.dhcp_stop:

00000000 <dhcp_stop>:
   0:	f7ff bffe 	b.w	0 <dhcp_stop>

Disassembly of section .text.dhcp_supplied_address:

00000000 <dhcp_supplied_address>:
   0:	b148      	cbz	r0, 16 <dhcp_supplied_address+0x16>
   2:	69c0      	ldr	r0, [r0, #28]
   4:	b138      	cbz	r0, 16 <dhcp_supplied_address+0x16>
   6:	7943      	ldrb	r3, [r0, #5]
   8:	1f18      	subs	r0, r3, #4
   a:	2b0a      	cmp	r3, #10
   c:	bf18      	it	ne
   e:	2801      	cmpne	r0, #1
  10:	bf94      	ite	ls
  12:	2001      	movls	r0, #1
  14:	2000      	movhi	r0, #0
  16:	4770      	bx	lr
