
build/./src/sensors/AS7341_ColorSens.cpp.o:     file format elf32-littlearm

SYMBOL TABLE:
00000000 l    df *ABS*	00000000 AS7341_ColorSens.cpp
00000000 l    d  .text	00000000 .text
00000000 l    d  .data	00000000 .data
00000000 l    d  .bss	00000000 .bss
00000000 l    d  .text._ZN6AS7341C2Ev	00000000 .text._ZN6AS7341C2Ev
00000000 l    d  .rodata._ZN6AS73415beginER7TwoWire.str1.4	00000000 .rodata._ZN6AS73415beginER7TwoWire.str1.4
00000000 l    d  .text._ZN6AS73415beginER7TwoWire	00000000 .text._ZN6AS73415beginER7TwoWire
00000000 l    d  .rodata._ZN6AS73419printDataEv.str1.4	00000000 .rodata._ZN6AS73419printDataEv.str1.4
00000000 l    d  .text._ZN6AS73419printDataEv	00000000 .text._ZN6AS73419printDataEv
00000000 l    d  .text._ZN6AS734110detectLineEv	00000000 .text._ZN6AS734110detectLineEv
00000000 l    d  .comment	00000000 .comment
00000000 l    d  .ARM.attributes	00000000 .ARM.attributes
00000000 g     F .text._ZN6AS7341C2Ev	0000000c _ZN6AS7341C2Ev
00000000         *UND*	00000000 _ZN15Adafruit_AS7341C1Ev
00000000 g     F .text._ZN6AS7341C2Ev	0000000c _ZN6AS7341C1Ev
00000000 g     F .text._ZN6AS73415beginER7TwoWire	00000060 _ZN6AS73415beginER7TwoWire
00000000         *UND*	00000000 _ZN15Adafruit_AS73415beginEhP7TwoWirel
00000000         *UND*	00000000 usb_serial_write
00000000         *UND*	00000000 _ZN5Print7printlnEv
00000000         *UND*	00000000 _ZN15Adafruit_AS73418setATIMEEh
00000000         *UND*	00000000 _ZN15Adafruit_AS73418setASTEPEt
00000000         *UND*	00000000 _ZN15Adafruit_AS73417setGainE13as7341_gain_t
00000000         *UND*	00000000 _ZN15Adafruit_AS73419enableLEDEb
00000000         *UND*	00000000 Serial
00000000 g     F .text._ZN6AS73419printDataEv	0000004c _ZN6AS73419printDataEv
00000000         *UND*	00000000 _ZN15Adafruit_AS734115readAllChannelsEv
00000000         *UND*	00000000 _ZN15Adafruit_AS734110getChannelE22as7341_color_channel_t
00000000         *UND*	00000000 _ZN5Print5printEl
00000000 g     F .text._ZN6AS734110detectLineEv	00000044 _ZN6AS734110detectLineEv


Contents of section .text._ZN6AS7341C2Ev:
 0000 10b50446 fff7feff 204610bd           ...F.... F..    
Contents of section .rodata._ZN6AS73415beginER7TwoWire.str1.4:
 0000 436f756c 64206e6f 74206669 6e642041  Could not find A
 0010 53373334 31000000 41533733 34312043  S7341...AS7341 C
 0020 6c725365 6e732069 6e697469 616c697a  lrSens initializ
 0030 65642e00                             ed..            
Contents of section .text._ZN6AS73415beginER7TwoWire:
 0000 10b50a46 00233921 0446fff7 feffc0b9  ...F.#9!.F......
 0010 15211048 fff7feff 0f48fff7 feff0a21  .!.H.....H.....!
 0020 2046fff7 feff6321 2046fff7 feff0921   F....c! F.....!
 0030 2046fff7 feff2046 0121bde8 1040fff7   F.... F.!...@..
 0040 febf1b21 0548fff7 feff0348 fff7feff  ...!.H.....H....
 0050 e5e700bf 00000000 00000000 18000000  ................
Contents of section .rodata._ZN6AS73419printDataEv.str1.4:
 0000 4572726f 72207265 6164696e 6720616c  Error reading al
 0010 6c206368 616e6e65 6c732100 46362035  l channels!.F6 5
 0020 39306e6d 203a2000                    90nm : .        
Contents of section .text._ZN6AS73419printDataEv:
 0000 10b50446 fff7feff 80b10b21 0c48fff7  ...F.......!.H..
 0010 feff0721 2046fff7 feff0146 0948fff7  ...! F.....F.H..
 0020 feff0848 bde81040 fff7febf 1b210648  ...H...@.....!.H
 0030 fff7feff 0348bde8 1040fff7 febf00bf  .....H...@......
 0040 1c000000 00000000 00000000           ............    
Contents of section .text._ZN6AS734110detectLineEv:
 0000 10b50446 fff7feff 80b10721 2046fff7  ...F.......! F..
 0010 feff0446 09482146 fff7feff 0748fff7  ...F.H!F.....H..
 0020 feff1d2c ccbf0020 012010bd 1b210448  ...,... . ...!.H
 0030 fff7feff 0148fff7 feffe6e7 00000000  .....H..........
 0040 00000000                             ....            
Contents of section .comment:
 0000 00474343 3a202841 726d2047 4e552054  .GCC: (Arm GNU T
 0010 6f6f6c63 6861696e 2031312e 332e5265  oolchain 11.3.Re
 0020 6c312920 31312e33 2e312032 30323230  l1) 11.3.1 20220
 0030 37313200                             712.            
Contents of section .ARM.attributes:
 0000 41310000 00616561 62690001 27000000  A1...aeabi..'...
 0010 0537452d 4d00060d 074d0902 0a081204  .7E-M....M......
 0020 14011501 17031801 19011a01 1c011e02  ................
 0030 2201                                 ".              

Disassembly of section .text._ZN6AS7341C2Ev:

00000000 <_ZN6AS7341C1Ev>:
   0:	b510      	push	{r4, lr}
   2:	4604      	mov	r4, r0
   4:	f7ff fffe 	bl	0 <_ZN15Adafruit_AS7341C1Ev>
   8:	4620      	mov	r0, r4
   a:	bd10      	pop	{r4, pc}

Disassembly of section .text._ZN6AS73415beginER7TwoWire:

00000000 <_ZN6AS73415beginER7TwoWire>:
   0:	b510      	push	{r4, lr}
   2:	460a      	mov	r2, r1
   4:	2300      	movs	r3, #0
   6:	2139      	movs	r1, #57	; 0x39
   8:	4604      	mov	r4, r0
   a:	f7ff fffe 	bl	0 <_ZN15Adafruit_AS73415beginEhP7TwoWirel>
   e:	b9c0      	cbnz	r0, 42 <_ZN6AS73415beginER7TwoWire+0x42>
  10:	2115      	movs	r1, #21
  12:	4810      	ldr	r0, [pc, #64]	; (54 <_ZN6AS73415beginER7TwoWire+0x54>)
  14:	f7ff fffe 	bl	0 <usb_serial_write>
  18:	480f      	ldr	r0, [pc, #60]	; (58 <_ZN6AS73415beginER7TwoWire+0x58>)
  1a:	f7ff fffe 	bl	0 <_ZN5Print7printlnEv>
  1e:	210a      	movs	r1, #10
  20:	4620      	mov	r0, r4
  22:	f7ff fffe 	bl	0 <_ZN15Adafruit_AS73418setATIMEEh>
  26:	2163      	movs	r1, #99	; 0x63
  28:	4620      	mov	r0, r4
  2a:	f7ff fffe 	bl	0 <_ZN15Adafruit_AS73418setASTEPEt>
  2e:	2109      	movs	r1, #9
  30:	4620      	mov	r0, r4
  32:	f7ff fffe 	bl	0 <_ZN15Adafruit_AS73417setGainE13as7341_gain_t>
  36:	4620      	mov	r0, r4
  38:	2101      	movs	r1, #1
  3a:	e8bd 4010 	ldmia.w	sp!, {r4, lr}
  3e:	f7ff bffe 	b.w	0 <_ZN15Adafruit_AS73419enableLEDEb>
  42:	211b      	movs	r1, #27
  44:	4805      	ldr	r0, [pc, #20]	; (5c <_ZN6AS73415beginER7TwoWire+0x5c>)
  46:	f7ff fffe 	bl	0 <usb_serial_write>
  4a:	4803      	ldr	r0, [pc, #12]	; (58 <_ZN6AS73415beginER7TwoWire+0x58>)
  4c:	f7ff fffe 	bl	0 <_ZN5Print7printlnEv>
  50:	e7e5      	b.n	1e <_ZN6AS73415beginER7TwoWire+0x1e>
  52:	bf00      	nop
  54:	00000000 	.word	0x00000000
  58:	00000000 	.word	0x00000000
  5c:	00000018 	.word	0x00000018

Disassembly of section .text._ZN6AS73419printDataEv:

00000000 <_ZN6AS73419printDataEv>:
   0:	b510      	push	{r4, lr}
   2:	4604      	mov	r4, r0
   4:	f7ff fffe 	bl	0 <_ZN15Adafruit_AS734115readAllChannelsEv>
   8:	b180      	cbz	r0, 2c <_ZN6AS73419printDataEv+0x2c>
   a:	210b      	movs	r1, #11
   c:	480c      	ldr	r0, [pc, #48]	; (40 <_ZN6AS73419printDataEv+0x40>)
   e:	f7ff fffe 	bl	0 <usb_serial_write>
  12:	2107      	movs	r1, #7
  14:	4620      	mov	r0, r4
  16:	f7ff fffe 	bl	0 <_ZN15Adafruit_AS734110getChannelE22as7341_color_channel_t>
  1a:	4601      	mov	r1, r0
  1c:	4809      	ldr	r0, [pc, #36]	; (44 <_ZN6AS73419printDataEv+0x44>)
  1e:	f7ff fffe 	bl	0 <_ZN5Print5printEl>
  22:	4808      	ldr	r0, [pc, #32]	; (44 <_ZN6AS73419printDataEv+0x44>)
  24:	e8bd 4010 	ldmia.w	sp!, {r4, lr}
  28:	f7ff bffe 	b.w	0 <_ZN5Print7printlnEv>
  2c:	211b      	movs	r1, #27
  2e:	4806      	ldr	r0, [pc, #24]	; (48 <_ZN6AS73419printDataEv+0x48>)
  30:	f7ff fffe 	bl	0 <usb_serial_write>
  34:	4803      	ldr	r0, [pc, #12]	; (44 <_ZN6AS73419printDataEv+0x44>)
  36:	e8bd 4010 	ldmia.w	sp!, {r4, lr}
  3a:	f7ff bffe 	b.w	0 <_ZN5Print7printlnEv>
  3e:	bf00      	nop
  40:	0000001c 	.word	0x0000001c
  44:	00000000 	.word	0x00000000
  48:	00000000 	.word	0x00000000

Disassembly of section .text._ZN6AS734110detectLineEv:

00000000 <_ZN6AS734110detectLineEv>:
   0:	b510      	push	{r4, lr}
   2:	4604      	mov	r4, r0
   4:	f7ff fffe 	bl	0 <_ZN15Adafruit_AS734115readAllChannelsEv>
   8:	b180      	cbz	r0, 2c <_ZN6AS734110detectLineEv+0x2c>
   a:	2107      	movs	r1, #7
   c:	4620      	mov	r0, r4
   e:	f7ff fffe 	bl	0 <_ZN15Adafruit_AS734110getChannelE22as7341_color_channel_t>
  12:	4604      	mov	r4, r0
  14:	4809      	ldr	r0, [pc, #36]	; (3c <_ZN6AS734110detectLineEv+0x3c>)
  16:	4621      	mov	r1, r4
  18:	f7ff fffe 	bl	0 <_ZN5Print5printEl>
  1c:	4807      	ldr	r0, [pc, #28]	; (3c <_ZN6AS734110detectLineEv+0x3c>)
  1e:	f7ff fffe 	bl	0 <_ZN5Print7printlnEv>
  22:	2c1d      	cmp	r4, #29
  24:	bfcc      	ite	gt
  26:	2000      	movgt	r0, #0
  28:	2001      	movle	r0, #1
  2a:	bd10      	pop	{r4, pc}
  2c:	211b      	movs	r1, #27
  2e:	4804      	ldr	r0, [pc, #16]	; (40 <_ZN6AS734110detectLineEv+0x40>)
  30:	f7ff fffe 	bl	0 <usb_serial_write>
  34:	4801      	ldr	r0, [pc, #4]	; (3c <_ZN6AS734110detectLineEv+0x3c>)
  36:	f7ff fffe 	bl	0 <_ZN5Print7printlnEv>
  3a:	e7e6      	b.n	a <_ZN6AS734110detectLineEv+0xa>
  3c:	00000000 	.word	0x00000000
  40:	00000000 	.word	0x00000000
