
build/./libraries/VL53L4CD/vl53l4cd_calibration.cpp.o:     file format elf32-littlearm

SYMBOL TABLE:
00000000 l    df *ABS*	00000000 vl53l4cd_calibration.cpp
00000000 l    d  .text	00000000 .text
00000000 l    d  .data	00000000 .data
00000000 l    d  .bss	00000000 .bss
00000000 l    d  .text._ZN8VL53L4CD24VL53L4CD_CalibrateOffsetEsPss	00000000 .text._ZN8VL53L4CD24VL53L4CD_CalibrateOffsetEsPss
00000000 l    d  .text._ZN8VL53L4CD23VL53L4CD_CalibrateXtalkEsPts	00000000 .text._ZN8VL53L4CD23VL53L4CD_CalibrateXtalkEsPts
00000000 l    d  .comment	00000000 .comment
00000000 l    d  .ARM.attributes	00000000 .ARM.attributes
00000000 g     F .text._ZN8VL53L4CD24VL53L4CD_CalibrateOffsetEsPss	00000184 _ZN8VL53L4CD24VL53L4CD_CalibrateOffsetEsPss
00000000         *UND*	00000000 _ZN8VL53L4CD15VL53L4CD_WrWordEttt
00000000         *UND*	00000000 _ZN8VL53L4CD21VL53L4CD_StartRangingEv
00000000         *UND*	00000000 _ZN8VL53L4CD26VL53L4CD_CheckForDataReadyEPh
00000000         *UND*	00000000 _ZN8VL53L4CD6WaitMsEm
00000000         *UND*	00000000 _ZN8VL53L4CD18VL53L4CD_GetResultEP17VL53L4CD_Result_t
00000000         *UND*	00000000 _ZN8VL53L4CD23VL53L4CD_ClearInterruptEv
00000000         *UND*	00000000 _ZN8VL53L4CD20VL53L4CD_StopRangingEv
00000000 g     F .text._ZN8VL53L4CD23VL53L4CD_CalibrateXtalkEsPts	000001d8 _ZN8VL53L4CD23VL53L4CD_CalibrateXtalkEsPts


Contents of section .text._ZN8VL53L4CD24VL53L4CD_CalibrateOffsetEsPss:
 0000 2de9f04f 9946053b 89b09bb2 0092fa2b  -..O.F.;.......+
 0010 07d88bb2 40f2b632 0193323b 9bb29342  ....@..2..2;...B
 0020 03d9fe20 09b0bde8 f08f0446 00231e22  ... .......F.#."
 0030 8189fff7 feff0546 00232022 a1892046  .......F.# ".. F
 0040 fff7feff 05430023 2222edb2 a1892046  .....C.#"".... F
 0050 0a27fff7 feff0543 20464ff0 0008edb2  .'.....C FO.....
 0060 fff7feff 2843c6b2 41f28935 8df80f80  ....(C..A..5....
 0070 0df10f01 2046fff7 feff9df8 0f200121  .... F....... .!
 0080 46ea0003 013d2046 8a42deb2 adb204d0  F....= F.B......
 0090 002d6ed0 fff7feff eae71146 fff7feff  .-n........F....
 00a0 04a92046 fff7feff 0546013f 20463543  .. F.....F.? F5C
 00b0 fff7feff 17f0ff07 edb240ea 0500c6b2  ..........@.....
 00c0 d2d12046 5ffa89fb fff7feff 05462046  .. F_........F F
 00d0 b846fff7 feff2843 ba4646ea 0005edb2  .F....(C.FF.....
 00e0 41f28936 8df80fa0 0df10f01 2046fff7  A..6........ F..
 00f0 feff9df8 0f200121 45ea0003 013e2046  ..... .!E....> F
 0100 8a42ddb2 b6b204d0 002e37d0 fff7feff  .B........7.....
 0110 eae71146 fff7feff 04a92046 fff7feff  ...F...... F....
 0120 28430137 c5b22046 fff7feff bdf81230  (C.7.. F.......0
 0130 28434344 c5b20ffa 83f8fbb2 5b45cfd3  (CCD........[E..
 0140 2046fff7 feff019b 009a0646 204698fb   F.........F F..
 0150 f9f8a3eb 08039bb2 13809b00 1e22a189  ............."..
 0160 9bb2fff7 feff3043 2843c0b2 09b0bde8  ......0C(C......
 0170 f08f0121 ff26fff7 feff91e7 ff25fff7  ...!.&.......%..
 0180 feffc9e7                             ....            
Contents of section .text._ZN8VL53L4CD23VL53L4CD_CalibrateXtalkEsPts:
 0000 2de9f04f 9846053b 9bb22ded 048bfa2b  -..O.F.;..-....+
 0010 89b00192 07d8a1f1 320341f2 56328946  ........2.A.V2.F
 0020 9bb29342 05d9fe20 09b0bdec 048bbde8  ...B... ........
 0030 f08f0446 0a27fff7 feff4ff0 000a0646  ...F.'....O....F
 0040 41f28935 8df80fa0 0df10f01 2046fff7  A..5........ F..
 0050 feff9df8 0f200121 46ea0003 013d2046  ..... .!F....= F
 0060 8a42deb2 adb205d0 002d00f0 a880fff7  .B.......-......
 0070 feffe9e7 1146fff7 feff04a9 2046fff7  .....F...... F..
 0080 feff0546 013f2046 3543fff7 feff17f0  ...F.? F5C......
 0090 ff07edb2 40ea0500 c6b2d1d1 20469fed  ....@....... F..
 00a0 4c8afff7 feff0546 2046b0ee 489afff7  L......F F..H...
 00b0 feff2843 f0ee488a 5ffa88fb 46ea0005  ..(C..H._...F...
 00c0 ba46edb2 41f28936 8df80fa0 0df10f01  .F..A..6........
 00d0 2046fff7 feff9df8 0f200121 45ea0003   F....... .!E...
 00e0 013e2046 8a42ddb2 b6b204d0 002e6bd0  .> F.B........k.
 00f0 fff7feff eae71146 fff7feff 04a92046  .......F...... F
 0100 fff7feff 28430137 c5b22046 fff7feff  ....(C.7.. F....
 0110 bdf81230 284307ee 903abdf8 1c30c5b2  ...0(C...:...0..
 0120 f8ee677a 39ee279a 07ee903a bdf81830  ..gz9.'....:...0
 0130 f8ee677a 38ee278a 07ee903a fbb2f8ee  ..gz8.'....:....
 0140 677a5b45 78eea78a bcd32046 fff7feff  gz[Ex..... F....
 0150 07ee908a 07ee109a f7ee006a f8eee77a  ...........j...z
 0160 dfed1c5a b8eec77a 019f0646 1622c9ee  ...Z...z...F."..
 0170 274a2046 88eea75a 88ee276a c4ee877a  'J F...Z..'j...z
 0180 36eee77a 27ee057a 27ee257a c7ee067a  6..z'..z'.%z...z
 0190 fceee77a 17ee903a 9bb2c3eb 431103eb  ...z...:....C...
 01a0 8101c1f3 86113980 a189fff7 feff3043  ......9.......0C
 01b0 2843c0b2 09b0bdec 048bbde8 f08f0121  (C.............!
 01c0 ff26fff7 feff58e7 ff25fff7 feff95e7  .&....X..%......
 01d0 00000000 00000044                    .......D        
Contents of section .comment:
 0000 00474343 3a202841 726d2047 4e552054  .GCC: (Arm GNU T
 0010 6f6f6c63 6861696e 2031312e 332e5265  oolchain 11.3.Re
 0020 6c312920 31312e33 2e312032 30323230  l1) 11.3.1 20220
 0030 37313200                             712.            
Contents of section .ARM.attributes:
 0000 41310000 00616561 62690001 27000000  A1...aeabi..'...
 0010 0537452d 4d00060d 074d0902 0a081204  .7E-M....M......
 0020 14011501 17031801 19011a01 1c011e02  ................
 0030 2201                                 ".              

Disassembly of section .text._ZN8VL53L4CD24VL53L4CD_CalibrateOffsetEsPss:

00000000 <_ZN8VL53L4CD24VL53L4CD_CalibrateOffsetEsPss>:
   0:	e92d 4ff0 	stmdb	sp!, {r4, r5, r6, r7, r8, r9, sl, fp, lr}
   4:	4699      	mov	r9, r3
   6:	3b05      	subs	r3, #5
   8:	b089      	sub	sp, #36	; 0x24
   a:	b29b      	uxth	r3, r3
   c:	9200      	str	r2, [sp, #0]
   e:	2bfa      	cmp	r3, #250	; 0xfa
  10:	d807      	bhi.n	22 <_ZN8VL53L4CD24VL53L4CD_CalibrateOffsetEsPss+0x22>
  12:	b28b      	uxth	r3, r1
  14:	f240 32b6 	movw	r2, #950	; 0x3b6
  18:	9301      	str	r3, [sp, #4]
  1a:	3b32      	subs	r3, #50	; 0x32
  1c:	b29b      	uxth	r3, r3
  1e:	4293      	cmp	r3, r2
  20:	d903      	bls.n	2a <_ZN8VL53L4CD24VL53L4CD_CalibrateOffsetEsPss+0x2a>
  22:	20fe      	movs	r0, #254	; 0xfe
  24:	b009      	add	sp, #36	; 0x24
  26:	e8bd 8ff0 	ldmia.w	sp!, {r4, r5, r6, r7, r8, r9, sl, fp, pc}
  2a:	4604      	mov	r4, r0
  2c:	2300      	movs	r3, #0
  2e:	221e      	movs	r2, #30
  30:	8981      	ldrh	r1, [r0, #12]
  32:	f7ff fffe 	bl	0 <_ZN8VL53L4CD15VL53L4CD_WrWordEttt>
  36:	4605      	mov	r5, r0
  38:	2300      	movs	r3, #0
  3a:	2220      	movs	r2, #32
  3c:	89a1      	ldrh	r1, [r4, #12]
  3e:	4620      	mov	r0, r4
  40:	f7ff fffe 	bl	0 <_ZN8VL53L4CD15VL53L4CD_WrWordEttt>
  44:	4305      	orrs	r5, r0
  46:	2300      	movs	r3, #0
  48:	2222      	movs	r2, #34	; 0x22
  4a:	b2ed      	uxtb	r5, r5
  4c:	89a1      	ldrh	r1, [r4, #12]
  4e:	4620      	mov	r0, r4
  50:	270a      	movs	r7, #10
  52:	f7ff fffe 	bl	0 <_ZN8VL53L4CD15VL53L4CD_WrWordEttt>
  56:	4305      	orrs	r5, r0
  58:	4620      	mov	r0, r4
  5a:	f04f 0800 	mov.w	r8, #0
  5e:	b2ed      	uxtb	r5, r5
  60:	f7ff fffe 	bl	0 <_ZN8VL53L4CD21VL53L4CD_StartRangingEv>
  64:	4328      	orrs	r0, r5
  66:	b2c6      	uxtb	r6, r0
  68:	f241 3589 	movw	r5, #5001	; 0x1389
  6c:	f88d 800f 	strb.w	r8, [sp, #15]
  70:	f10d 010f 	add.w	r1, sp, #15
  74:	4620      	mov	r0, r4
  76:	f7ff fffe 	bl	0 <_ZN8VL53L4CD26VL53L4CD_CheckForDataReadyEPh>
  7a:	f89d 200f 	ldrb.w	r2, [sp, #15]
  7e:	2101      	movs	r1, #1
  80:	ea46 0300 	orr.w	r3, r6, r0
  84:	3d01      	subs	r5, #1
  86:	4620      	mov	r0, r4
  88:	428a      	cmp	r2, r1
  8a:	b2de      	uxtb	r6, r3
  8c:	b2ad      	uxth	r5, r5
  8e:	d004      	beq.n	9a <_ZN8VL53L4CD24VL53L4CD_CalibrateOffsetEsPss+0x9a>
  90:	2d00      	cmp	r5, #0
  92:	d06e      	beq.n	172 <_ZN8VL53L4CD24VL53L4CD_CalibrateOffsetEsPss+0x172>
  94:	f7ff fffe 	bl	0 <_ZN8VL53L4CD6WaitMsEm>
  98:	e7ea      	b.n	70 <_ZN8VL53L4CD24VL53L4CD_CalibrateOffsetEsPss+0x70>
  9a:	4611      	mov	r1, r2
  9c:	f7ff fffe 	bl	0 <_ZN8VL53L4CD6WaitMsEm>
  a0:	a904      	add	r1, sp, #16
  a2:	4620      	mov	r0, r4
  a4:	f7ff fffe 	bl	0 <_ZN8VL53L4CD18VL53L4CD_GetResultEP17VL53L4CD_Result_t>
  a8:	4605      	mov	r5, r0
  aa:	3f01      	subs	r7, #1
  ac:	4620      	mov	r0, r4
  ae:	4335      	orrs	r5, r6
  b0:	f7ff fffe 	bl	0 <_ZN8VL53L4CD23VL53L4CD_ClearInterruptEv>
  b4:	f017 07ff 	ands.w	r7, r7, #255	; 0xff
  b8:	b2ed      	uxtb	r5, r5
  ba:	ea40 0005 	orr.w	r0, r0, r5
  be:	b2c6      	uxtb	r6, r0
  c0:	d1d2      	bne.n	68 <_ZN8VL53L4CD24VL53L4CD_CalibrateOffsetEsPss+0x68>
  c2:	4620      	mov	r0, r4
  c4:	fa5f fb89 	uxtb.w	fp, r9
  c8:	f7ff fffe 	bl	0 <_ZN8VL53L4CD20VL53L4CD_StopRangingEv>
  cc:	4605      	mov	r5, r0
  ce:	4620      	mov	r0, r4
  d0:	46b8      	mov	r8, r7
  d2:	f7ff fffe 	bl	0 <_ZN8VL53L4CD21VL53L4CD_StartRangingEv>
  d6:	4328      	orrs	r0, r5
  d8:	46ba      	mov	sl, r7
  da:	ea46 0500 	orr.w	r5, r6, r0
  de:	b2ed      	uxtb	r5, r5
  e0:	f241 3689 	movw	r6, #5001	; 0x1389
  e4:	f88d a00f 	strb.w	sl, [sp, #15]
  e8:	f10d 010f 	add.w	r1, sp, #15
  ec:	4620      	mov	r0, r4
  ee:	f7ff fffe 	bl	0 <_ZN8VL53L4CD26VL53L4CD_CheckForDataReadyEPh>
  f2:	f89d 200f 	ldrb.w	r2, [sp, #15]
  f6:	2101      	movs	r1, #1
  f8:	ea45 0300 	orr.w	r3, r5, r0
  fc:	3e01      	subs	r6, #1
  fe:	4620      	mov	r0, r4
 100:	428a      	cmp	r2, r1
 102:	b2dd      	uxtb	r5, r3
 104:	b2b6      	uxth	r6, r6
 106:	d004      	beq.n	112 <_ZN8VL53L4CD24VL53L4CD_CalibrateOffsetEsPss+0x112>
 108:	2e00      	cmp	r6, #0
 10a:	d037      	beq.n	17c <_ZN8VL53L4CD24VL53L4CD_CalibrateOffsetEsPss+0x17c>
 10c:	f7ff fffe 	bl	0 <_ZN8VL53L4CD6WaitMsEm>
 110:	e7ea      	b.n	e8 <_ZN8VL53L4CD24VL53L4CD_CalibrateOffsetEsPss+0xe8>
 112:	4611      	mov	r1, r2
 114:	f7ff fffe 	bl	0 <_ZN8VL53L4CD6WaitMsEm>
 118:	a904      	add	r1, sp, #16
 11a:	4620      	mov	r0, r4
 11c:	f7ff fffe 	bl	0 <_ZN8VL53L4CD18VL53L4CD_GetResultEP17VL53L4CD_Result_t>
 120:	4328      	orrs	r0, r5
 122:	3701      	adds	r7, #1
 124:	b2c5      	uxtb	r5, r0
 126:	4620      	mov	r0, r4
 128:	f7ff fffe 	bl	0 <_ZN8VL53L4CD23VL53L4CD_ClearInterruptEv>
 12c:	f8bd 3012 	ldrh.w	r3, [sp, #18]
 130:	4328      	orrs	r0, r5
 132:	4443      	add	r3, r8
 134:	b2c5      	uxtb	r5, r0
 136:	fa0f f883 	sxth.w	r8, r3
 13a:	b2fb      	uxtb	r3, r7
 13c:	455b      	cmp	r3, fp
 13e:	d3cf      	bcc.n	e0 <_ZN8VL53L4CD24VL53L4CD_CalibrateOffsetEsPss+0xe0>
 140:	4620      	mov	r0, r4
 142:	f7ff fffe 	bl	0 <_ZN8VL53L4CD20VL53L4CD_StopRangingEv>
 146:	9b01      	ldr	r3, [sp, #4]
 148:	9a00      	ldr	r2, [sp, #0]
 14a:	4606      	mov	r6, r0
 14c:	4620      	mov	r0, r4
 14e:	fb98 f8f9 	sdiv	r8, r8, r9
 152:	eba3 0308 	sub.w	r3, r3, r8
 156:	b29b      	uxth	r3, r3
 158:	8013      	strh	r3, [r2, #0]
 15a:	009b      	lsls	r3, r3, #2
 15c:	221e      	movs	r2, #30
 15e:	89a1      	ldrh	r1, [r4, #12]
 160:	b29b      	uxth	r3, r3
 162:	f7ff fffe 	bl	0 <_ZN8VL53L4CD15VL53L4CD_WrWordEttt>
 166:	4330      	orrs	r0, r6
 168:	4328      	orrs	r0, r5
 16a:	b2c0      	uxtb	r0, r0
 16c:	b009      	add	sp, #36	; 0x24
 16e:	e8bd 8ff0 	ldmia.w	sp!, {r4, r5, r6, r7, r8, r9, sl, fp, pc}
 172:	2101      	movs	r1, #1
 174:	26ff      	movs	r6, #255	; 0xff
 176:	f7ff fffe 	bl	0 <_ZN8VL53L4CD6WaitMsEm>
 17a:	e791      	b.n	a0 <_ZN8VL53L4CD24VL53L4CD_CalibrateOffsetEsPss+0xa0>
 17c:	25ff      	movs	r5, #255	; 0xff
 17e:	f7ff fffe 	bl	0 <_ZN8VL53L4CD6WaitMsEm>
 182:	e7c9      	b.n	118 <_ZN8VL53L4CD24VL53L4CD_CalibrateOffsetEsPss+0x118>

Disassembly of section .text._ZN8VL53L4CD23VL53L4CD_CalibrateXtalkEsPts:

00000000 <_ZN8VL53L4CD23VL53L4CD_CalibrateXtalkEsPts>:
   0:	e92d 4ff0 	stmdb	sp!, {r4, r5, r6, r7, r8, r9, sl, fp, lr}
   4:	4698      	mov	r8, r3
   6:	3b05      	subs	r3, #5
   8:	b29b      	uxth	r3, r3
   a:	ed2d 8b04 	vpush	{d8-d9}
   e:	2bfa      	cmp	r3, #250	; 0xfa
  10:	b089      	sub	sp, #36	; 0x24
  12:	9201      	str	r2, [sp, #4]
  14:	d807      	bhi.n	26 <_ZN8VL53L4CD23VL53L4CD_CalibrateXtalkEsPts+0x26>
  16:	f1a1 0332 	sub.w	r3, r1, #50	; 0x32
  1a:	f241 3256 	movw	r2, #4950	; 0x1356
  1e:	4689      	mov	r9, r1
  20:	b29b      	uxth	r3, r3
  22:	4293      	cmp	r3, r2
  24:	d905      	bls.n	32 <_ZN8VL53L4CD23VL53L4CD_CalibrateXtalkEsPts+0x32>
  26:	20fe      	movs	r0, #254	; 0xfe
  28:	b009      	add	sp, #36	; 0x24
  2a:	ecbd 8b04 	vpop	{d8-d9}
  2e:	e8bd 8ff0 	ldmia.w	sp!, {r4, r5, r6, r7, r8, r9, sl, fp, pc}
  32:	4604      	mov	r4, r0
  34:	270a      	movs	r7, #10
  36:	f7ff fffe 	bl	0 <_ZN8VL53L4CD21VL53L4CD_StartRangingEv>
  3a:	f04f 0a00 	mov.w	sl, #0
  3e:	4606      	mov	r6, r0
  40:	f241 3589 	movw	r5, #5001	; 0x1389
  44:	f88d a00f 	strb.w	sl, [sp, #15]
  48:	f10d 010f 	add.w	r1, sp, #15
  4c:	4620      	mov	r0, r4
  4e:	f7ff fffe 	bl	0 <_ZN8VL53L4CD26VL53L4CD_CheckForDataReadyEPh>
  52:	f89d 200f 	ldrb.w	r2, [sp, #15]
  56:	2101      	movs	r1, #1
  58:	ea46 0300 	orr.w	r3, r6, r0
  5c:	3d01      	subs	r5, #1
  5e:	4620      	mov	r0, r4
  60:	428a      	cmp	r2, r1
  62:	b2de      	uxtb	r6, r3
  64:	b2ad      	uxth	r5, r5
  66:	d005      	beq.n	74 <_ZN8VL53L4CD23VL53L4CD_CalibrateXtalkEsPts+0x74>
  68:	2d00      	cmp	r5, #0
  6a:	f000 80a8 	beq.w	1be <_ZN8VL53L4CD23VL53L4CD_CalibrateXtalkEsPts+0x1be>
  6e:	f7ff fffe 	bl	0 <_ZN8VL53L4CD6WaitMsEm>
  72:	e7e9      	b.n	48 <_ZN8VL53L4CD23VL53L4CD_CalibrateXtalkEsPts+0x48>
  74:	4611      	mov	r1, r2
  76:	f7ff fffe 	bl	0 <_ZN8VL53L4CD6WaitMsEm>
  7a:	a904      	add	r1, sp, #16
  7c:	4620      	mov	r0, r4
  7e:	f7ff fffe 	bl	0 <_ZN8VL53L4CD18VL53L4CD_GetResultEP17VL53L4CD_Result_t>
  82:	4605      	mov	r5, r0
  84:	3f01      	subs	r7, #1
  86:	4620      	mov	r0, r4
  88:	4335      	orrs	r5, r6
  8a:	f7ff fffe 	bl	0 <_ZN8VL53L4CD23VL53L4CD_ClearInterruptEv>
  8e:	f017 07ff 	ands.w	r7, r7, #255	; 0xff
  92:	b2ed      	uxtb	r5, r5
  94:	ea40 0005 	orr.w	r0, r0, r5
  98:	b2c6      	uxtb	r6, r0
  9a:	d1d1      	bne.n	40 <_ZN8VL53L4CD23VL53L4CD_CalibrateXtalkEsPts+0x40>
  9c:	4620      	mov	r0, r4
  9e:	ed9f 8a4c 	vldr	s16, [pc, #304]	; 1d0 <_ZN8VL53L4CD23VL53L4CD_CalibrateXtalkEsPts+0x1d0>
  a2:	f7ff fffe 	bl	0 <_ZN8VL53L4CD20VL53L4CD_StopRangingEv>
  a6:	4605      	mov	r5, r0
  a8:	4620      	mov	r0, r4
  aa:	eeb0 9a48 	vmov.f32	s18, s16
  ae:	f7ff fffe 	bl	0 <_ZN8VL53L4CD21VL53L4CD_StartRangingEv>
  b2:	4328      	orrs	r0, r5
  b4:	eef0 8a48 	vmov.f32	s17, s16
  b8:	fa5f fb88 	uxtb.w	fp, r8
  bc:	ea46 0500 	orr.w	r5, r6, r0
  c0:	46ba      	mov	sl, r7
  c2:	b2ed      	uxtb	r5, r5
  c4:	f241 3689 	movw	r6, #5001	; 0x1389
  c8:	f88d a00f 	strb.w	sl, [sp, #15]
  cc:	f10d 010f 	add.w	r1, sp, #15
  d0:	4620      	mov	r0, r4
  d2:	f7ff fffe 	bl	0 <_ZN8VL53L4CD26VL53L4CD_CheckForDataReadyEPh>
  d6:	f89d 200f 	ldrb.w	r2, [sp, #15]
  da:	2101      	movs	r1, #1
  dc:	ea45 0300 	orr.w	r3, r5, r0
  e0:	3e01      	subs	r6, #1
  e2:	4620      	mov	r0, r4
  e4:	428a      	cmp	r2, r1
  e6:	b2dd      	uxtb	r5, r3
  e8:	b2b6      	uxth	r6, r6
  ea:	d004      	beq.n	f6 <_ZN8VL53L4CD23VL53L4CD_CalibrateXtalkEsPts+0xf6>
  ec:	2e00      	cmp	r6, #0
  ee:	d06b      	beq.n	1c8 <_ZN8VL53L4CD23VL53L4CD_CalibrateXtalkEsPts+0x1c8>
  f0:	f7ff fffe 	bl	0 <_ZN8VL53L4CD6WaitMsEm>
  f4:	e7ea      	b.n	cc <_ZN8VL53L4CD23VL53L4CD_CalibrateXtalkEsPts+0xcc>
  f6:	4611      	mov	r1, r2
  f8:	f7ff fffe 	bl	0 <_ZN8VL53L4CD6WaitMsEm>
  fc:	a904      	add	r1, sp, #16
  fe:	4620      	mov	r0, r4
 100:	f7ff fffe 	bl	0 <_ZN8VL53L4CD18VL53L4CD_GetResultEP17VL53L4CD_Result_t>
 104:	4328      	orrs	r0, r5
 106:	3701      	adds	r7, #1
 108:	b2c5      	uxtb	r5, r0
 10a:	4620      	mov	r0, r4
 10c:	f7ff fffe 	bl	0 <_ZN8VL53L4CD23VL53L4CD_ClearInterruptEv>
 110:	f8bd 3012 	ldrh.w	r3, [sp, #18]
 114:	4328      	orrs	r0, r5
 116:	ee07 3a90 	vmov	s15, r3
 11a:	f8bd 301c 	ldrh.w	r3, [sp, #28]
 11e:	b2c5      	uxtb	r5, r0
 120:	eef8 7a67 	vcvt.f32.u32	s15, s15
 124:	ee39 9a27 	vadd.f32	s18, s18, s15
 128:	ee07 3a90 	vmov	s15, r3
 12c:	f8bd 3018 	ldrh.w	r3, [sp, #24]
 130:	eef8 7a67 	vcvt.f32.u32	s15, s15
 134:	ee38 8a27 	vadd.f32	s16, s16, s15
 138:	ee07 3a90 	vmov	s15, r3
 13c:	b2fb      	uxtb	r3, r7
 13e:	eef8 7a67 	vcvt.f32.u32	s15, s15
 142:	455b      	cmp	r3, fp
 144:	ee78 8aa7 	vadd.f32	s17, s17, s15
 148:	d3bc      	bcc.n	c4 <_ZN8VL53L4CD23VL53L4CD_CalibrateXtalkEsPts+0xc4>
 14a:	4620      	mov	r0, r4
 14c:	f7ff fffe 	bl	0 <_ZN8VL53L4CD20VL53L4CD_StopRangingEv>
 150:	ee07 8a90 	vmov	s15, r8
 154:	ee07 9a10 	vmov	s14, r9
 158:	eef7 6a00 	vmov.f32	s13, #112	; 0x3f800000  1.0
 15c:	eef8 7ae7 	vcvt.f32.s32	s15, s15
 160:	eddf 5a1c 	vldr	s11, [pc, #112]	; 1d4 <_ZN8VL53L4CD23VL53L4CD_CalibrateXtalkEsPts+0x1d4>
 164:	eeb8 7ac7 	vcvt.f32.s32	s14, s14
 168:	9f01      	ldr	r7, [sp, #4]
 16a:	4606      	mov	r6, r0
 16c:	2216      	movs	r2, #22
 16e:	eec9 4a27 	vdiv.f32	s9, s18, s15
 172:	4620      	mov	r0, r4
 174:	ee88 5aa7 	vdiv.f32	s10, s17, s15
 178:	ee88 6a27 	vdiv.f32	s12, s16, s15
 17c:	eec4 7a87 	vdiv.f32	s15, s9, s14
 180:	ee36 7ae7 	vsub.f32	s14, s13, s15
 184:	ee27 7a05 	vmul.f32	s14, s14, s10
 188:	ee27 7a25 	vmul.f32	s14, s14, s11
 18c:	eec7 7a06 	vdiv.f32	s15, s14, s12
 190:	eefc 7ae7 	vcvt.u32.f32	s15, s15
 194:	ee17 3a90 	vmov	r3, s15
 198:	b29b      	uxth	r3, r3
 19a:	ebc3 1143 	rsb	r1, r3, r3, lsl #5
 19e:	eb03 0181 	add.w	r1, r3, r1, lsl #2
 1a2:	f3c1 1186 	ubfx	r1, r1, #6, #7
 1a6:	8039      	strh	r1, [r7, #0]
 1a8:	89a1      	ldrh	r1, [r4, #12]
 1aa:	f7ff fffe 	bl	0 <_ZN8VL53L4CD15VL53L4CD_WrWordEttt>
 1ae:	4330      	orrs	r0, r6
 1b0:	4328      	orrs	r0, r5
 1b2:	b2c0      	uxtb	r0, r0
 1b4:	b009      	add	sp, #36	; 0x24
 1b6:	ecbd 8b04 	vpop	{d8-d9}
 1ba:	e8bd 8ff0 	ldmia.w	sp!, {r4, r5, r6, r7, r8, r9, sl, fp, pc}
 1be:	2101      	movs	r1, #1
 1c0:	26ff      	movs	r6, #255	; 0xff
 1c2:	f7ff fffe 	bl	0 <_ZN8VL53L4CD6WaitMsEm>
 1c6:	e758      	b.n	7a <_ZN8VL53L4CD23VL53L4CD_CalibrateXtalkEsPts+0x7a>
 1c8:	25ff      	movs	r5, #255	; 0xff
 1ca:	f7ff fffe 	bl	0 <_ZN8VL53L4CD6WaitMsEm>
 1ce:	e795      	b.n	fc <_ZN8VL53L4CD23VL53L4CD_CalibrateXtalkEsPts+0xfc>
 1d0:	00000000 	.word	0x00000000
 1d4:	44000000 	.word	0x44000000
