
build/./libraries/SdFat/src/FatLib/FatFileLFN.cpp.o:     file format elf32-littlearm

SYMBOL TABLE:
00000000 l    df *ABS*	00000000 FatFileLFN.cpp
00000000 l    d  .text	00000000 .text
00000000 l    d  .data	00000000 .data
00000000 l    d  .bss	00000000 .bss
00000000 l    d  .text._ZN7FatFile7cmpNameEtP8FatLfn_th	00000000 .text._ZN7FatFile7cmpNameEtP8FatLfn_th
00000000 l    d  .text._ZN7FatFile9createLFNEtP8FatLfn_th	00000000 .text._ZN7FatFile9createLFNEtP8FatLfn_th
00000000 l    d  .text._ZN7FatFile7makeSFNEP8FatLfn_t	00000000 .text._ZN7FatFile7makeSFNEP8FatLfn_t
00000000 l    d  .text._ZN7FatFile13makeUniqueSfnEP8FatLfn_t	00000000 .text._ZN7FatFile13makeUniqueSfnEP8FatLfn_t
00000000 l    d  .text._ZN7FatFile4openEPS_P8FatLfn_ti	00000000 .text._ZN7FatFile4openEPS_P8FatLfn_ti
00000000 l    d  .text._ZN7FatFile13parsePathNameEPKcP8FatLfn_tPS1_	00000000 .text._ZN7FatFile13parsePathNameEPKcP8FatLfn_tPS1_
00000000 l    d  .text._ZN7FatFile6removeEv	00000000 .text._ZN7FatFile6removeEv
00000000 l    d  .comment	00000000 .comment
00000000 l    d  .ARM.attributes	00000000 .ARM.attributes
00000000 g     F .text._ZN7FatFile7cmpNameEtP8FatLfn_th	000000bc _ZN7FatFile7cmpNameEtP8FatLfn_th
00000000         *UND*	00000000 _ZN7FatFile7seekSetEm
00000000         *UND*	00000000 _ZN7FatFile12readDirCacheEb
00000000         *UND*	00000000 _ZN6FsName5get16Ev
00000000         *UND*	00000000 _Z8toUpcaset
00000000         *UND*	00000000 _ZN7FatFile10getLfnCharEP8DirLfn_th
00000000 g     F .text._ZN7FatFile9createLFNEtP8FatLfn_th	00000122 _ZN7FatFile9createLFNEtP8FatLfn_th
00000000 g     F .text._ZN7FatFile7makeSFNEP8FatLfn_t	00000168 _ZN7FatFile7makeSFNEP8FatLfn_t
00000000 g     F .text._ZN7FatFile13makeUniqueSfnEP8FatLfn_t	000000b4 _ZN7FatFile13makeUniqueSfnEP8FatLfn_t
00000000         *UND*	00000000 memcmp
00000000         *UND*	00000000 systick_millis_count
00000000 g     F .text._ZN7FatFile4openEPS_P8FatLfn_ti	00000298 _ZN7FatFile4openEPS_P8FatLfn_ti
00000000         *UND*	00000000 _ZN7FatFile13addDirClusterEv
00000000         *UND*	00000000 memset
00000000         *UND*	00000000 _ZN7FatFile15openCachedEntryEPS_tih
00000000         *UND*	00000000 _ZN10FsDateTime8callbackE
00000000 g     F .text._ZN7FatFile13parsePathNameEPKcP8FatLfn_tPS1_	000000d4 _ZN7FatFile13parsePathNameEPKcP8FatLfn_tPS1_
00000000         *UND*	00000000 _ZN5FsUtf6mbToCpEPKcS1_Pm
00000000 g     F .text._ZN7FatFile6removeEv	00000110 _ZN7FatFile6removeEv
00000000         *UND*	00000000 _ZN12FatPartition9freeChainEm
00000000         *UND*	00000000 _ZN7FatFile13cacheDirEntryEh
00000000         *UND*	00000000 _ZN7FsCache4syncEv
00000000         *UND*	00000000 _ZN7FatFile11openClusterEPS_


Contents of section .text._ZN7FatFile7cmpNameEtP8FatLfn_th:
 0000 2de9f04f 84468db0 14461568 98460646  -..O.F...F.h.F.F
 0010 894603af 01934ff0 000ebce8 0f000fc7  .F....O.........
 0020 bce80f00 0fc7dcf8 00306560 3b604346  .........0e`;`CF
 0030 a4f80ce0 002b3fd0 4ff0010a a9eb0a01  .....+?.O.......
 0040 03a889b2 4901fff7 feff50b3 002103a8  ....I.....P..!..
 0050 fff7feff 074620b3 00250de0 fff7feff  .....F ..%......
 0060 80465846 fff7feff 83464046 fff7feff  .FXF.....F@F....
 0070 834516d1 0d2d18d0 eab23946 30460135  .E...-....9F0F.5
 0080 fff7feff a3898346 2046002b e6d1d4e9  .......F F.+....
 0090 01329342 e2d1bbfa 8bf04009 0db0bde8  .2.B......@.....
 00a0 f08f0020 0db0bde8 f08f0af1 010a019b  ... ............
 00b0 5ffa8afa 5345c1d2 0120efe7           _...SE... ..    
Contents of section .text._ZN7FatFile9createLFNEtP8FatLfn_th:
 0000 2de9f04f 07468db0 16469a46 0df10c0c  -..O.F...F.F....
 0010 02f11504 02f12005 01914ff0 00090fcf  ...... ...O.....
 0020 ace80f00 0fcface8 0f003b68 ccf80030  ..........;h...0
 0030 4feac913 14f8012f 43ea5903 a54252fa  O....../C.Y..BR.
 0040 83f35ffa 83f9f3d1 33684ff0 00087360  .._.....3hO...s`
 0050 a6f80c80 baf1000f 4ed00127 019b03a8  ........N..'....
 0060 d91b89b2 4901fff7 feff0028 55d00021  ....I......(U..!
 0070 03a8fff7 feff0028 4fd0059a 574500f1  .......(O...WE..
 0080 010b4ff0 010492f8 28304ff0 000543f0  ..O.....(0O...C.
 0090 010382f8 28304ff0 0f030cbf 47f04002  ....(0O.....G.@.
 00a0 3a46c372 4ff00003 02700373 4ff00003  :F.rO....p.sO...
 00b0 80f80d90 438306e0 abf80000 01340135  ....C........4.5
 00c0 0bf1020b e4b2b089 18b9d6e9 01239a42  .............#.B
 00d0 16d03046 fff7feff 042debb2 ecd90a2b  ..0F.....-.....+
 00e0 02d8abf8 0300e9e7 0d2cabf8 0500e5d1  .........,......
 00f0 0137ffb2 ba45b1d2 01200db0 bde8f08f  .7...E... ......
 0100 b8f1000f 06d008f1 01084ff6 ff705ffa  ..........O..p_.
 0110 88f8e1e7 4ff00108 dee70020 0db0bde8  ....O...... ....
 0120 f08f00bf                             ....            
Contents of section .text._ZN7FatFile7makeSFNEP8FatLfn_t:
 0000 02464ff0 203152f8 163b2de9 f043c0f8  .FO. 1R..;-..C..
 0010 16108646 84685160 c2f80710 1a782e2a  ...F.hQ`.....x.*
 0020 14bf0120 002003d1 13f8012f 2e2afbd0  ... . ...../.*..
 0030 611e9942 0bd90a46 02e09342 114606d0  a..B...F...B.F..
 0040 1146013a 91f800c0 bcf12e0f f5d19c42  .F.:...........B
 0050 4ff00005 40f28680 07260827 a946a846  O...@....&.'.F.F
 0060 06e00133 0a264ff0 08091027 9c425bd9  ...3.&O....'.B[.
 0070 1a782e2a 08bf9942 f3d0222a 0dd07c2a  .x.*...B.."*..|*
 0080 0bd0a2f1 5b0cbcf1 020f06d9 a2f12a0c  ....[.........*.
 0090 bcf1050f 21d82d2a 1fd002f0 c002802a  ....!.-*.......*
 00a0 5dd04e45 2fd29942 2cbf0020 01200a2e  ].NE/..B,.. . ..
 00b0 08bf40f0 01000028 47d09ef8 1630202b  ..@....(G....0 +
 00c0 40d09ef8 14300120 7e213122 73448ef8  @....0. ~!1"sD..
 00d0 15009975 da75bde8 f083a2f1 3a0cbcf1  ...u.u......:...
 00e0 050fdad9 a2f1210c bcf15d0f d5d84e45  ......!...]...NE
 00f0 d9d3a2f1 610cbcf1 190f28d8 203a3d43  ....a.....(. :=C
 0100 d2b2edb2 01e00020 5f2209f1 010cf144  ....... _".....D
 0110 013389f8 16205ffa 8cf2062a 914698bf  .3... _....*.F..
 0120 8ef81420 9c42a3d8 9ef81630 202b09d0  ... .B.....0 +..
 0130 0028c6d0 18ea050f 18bf0225 8ef81550  .(.........%...P
 0140 bde8f083 0020bde8 f0830b46 8ee7a2f1  ..... .....F....
 0150 410cbcf1 190f98bf 47ea0808 d5e70133  A.......G......3
 0160 002083e7 a846dfe7                    . ...F..        
Contents of section .text._ZN7FatFile13makeUniqueSfnEP8FatLfn_t:
 0000 2de9f84f 4ff06209 00250f46 0446dff8  -..OO.b..%.F.F..
 0010 a0b04ff0 7e0a91f8 148001f1 1606b8f1  ..O.~...........
 0020 030fdbf8 003028bf 4ff00308 2b449db2  .....0(.O...+D..
 0030 08f10403 dbb205f0 0f02581e 2d09092a  ..........X.-..*
 0040 02f13701 98bf02f1 3001fa18 c3b29175  ..7.....0......u
 0050 9845f0d1 07eb0803 00212046 83f816a0  .E.......! F....
 0060 fff7feff 01212046 fff7feff 03460b22  .....! F.....F."
 0070 30469bb1 93f800c0 1946bcf1 000f13d0  0F.......F......
 0080 db7a1b07 eed4fff7 feff0028 ead109f1  .z.........(....
 0090 ff3919f0 ff09c2d1 484603e0 6078b0fa  .9......HF..`x..
 00a0 80f04009 bde8f88f 0120bde8 f88f00bf  ..@...... ......
 00b0 00000000                             ....            
Contents of section .text._ZN7FatFile4openEPS_P8FatLfn_ti:
 0000 2de9f04f 2ded028b 8bb0cde9 02038b68  -..O-..........h
 0010 07930b78 13f0700f 53d0029b 1b78002b  ...x..p.S....x.+
 0020 4fd11369 90469a4a 0e460c33 a2fb0323  O..i.F.J.F.3...#
 0030 c3f38702 98f81530 98070492 00f0a780  .......0........
 0040 571cffb2 00233046 19461c46 0693fff7  W....#0F.F.F....
 0050 feff08f1 1603a346 a146a246 08ee103a  .......F.F.F...:
 0060 05947569 00213046 fff7feff c5f34f15  ..ui.!0F......O.
 0070 034620b3 0278e52a 29d042b3 bc4238bf  .F ..x.*).B..B8.
 0080 00242e2a 2bd090f8 0bc0bcf1 0f0f54d0  .$.*+.........T.
 0090 1cf0080c 23d1b9f1 000f40f0 d5800b22  ....#.....@...."
 00a0 18ee101a fff7feff 0028dad1 98f81530  .........(.....0
 00b0 13f00103 00f0e480 01230593 d1e77378  .........#....sx
 00c0 83b10020 0bb0bdec 028bbde8 f08f002c  ... ...........,
 00d0 08bfaa46 bc4201d2 0134e4b2 12b14ff0  ...F.B...4....O.
 00e0 0009bee7 039b9a05 ebd503f0 0303013b  ...............;
 00f0 012be6d8 002c08bf aa46bc42 03d348e0  .+...,...F.B..H.
 0100 dcb2a742 45d00021 3046fff7 feff631c  ...BE..!0F....c.
 0110 0028f5d1 7378002b d3d1a742 39d9079d  .(..sx.+...B9...
 0120 05e02b79 04eb0314 e4b2a742 31d93046  ..+y.......B1.0F
 0130 fff7feff 0028f4d1 c3e7b9f1 000f19d1  .....(..........
 0140 02f01f0b 04995945 8bd112f0 400988d0  ......YE....@...
 0150 437b8946 0693bbf1 010f82d1 691c4b46  C{.F........i.KF
 0160 42463046 89b2fff7 feff0028 08bf4ff0  BF0F.......(..O.
 0170 000976e7 0bf1ff3b 5ffa8bfb 5a45aed1  ..v....;_...ZE..
 0180 437b069a 9342e6d0 4ff00009 69e70127  C{...B..O...i..'
 0190 58e7059b 2bb14146 3046fff7 feff0028  X...+.AF0F.....(
 01a0 8fd0013f 42463046 fbb20aeb 03051f46  ...?BF0F.......F
 01b0 adb22946 fff7feff 002882d0 69013046  ..)F.....(..i.0F
 01c0 fff7feff 00283ff4 7caf0021 3046fff7  .....(?.|..!0F..
 01d0 feff0446 00283ff4 74af2022 0021fff7  ...F.(?.t. ".!..
 01e0 feffd8f8 1620d8f8 1a302260 636098f8  ..... ...0"`c`..
 01f0 2030b8f8 1e20a372 228198f8 153003f0   0... .r"....0..
 0200 18032373 234b1b68 002b3bd0 0df12302  ..#s#K.h.+;...#.
 0210 0df12601 09a89847 bdf82430 2382bdf8  ..&....G..$0#...
 0220 2630e381 9df82330 6373079a 92f82830  &0....#0cs....(0
 0230 43f00103 82f82830 039b2a46 31460298  C.....(0..*F1F..
 0240 0097fff7 feff3de7 bbf1010f 7ff439af  ......=.......9.
 0250 0a3001e0 13f8012f 4feacc11 984241ea  .0...../O....BA.
 0260 5c0152fa 81f25ffa 82fcf3d1 069b6345  \.R..._.......cE
 0270 7ff427af 4f46039b 19053ff5 22afdbe7  ..'.OF....?."...
 0280 1f46f8e7 45f62123 23822383 6382cce7  .F..E.!##.#.c...
 0290 4fecc44e 00000000                    O..N....        
Contents of section .text._ZN7FatFile13parsePathNameEPKcP8FatLfn_tPS1_:
 0000 2de9f041 1f460b78 82b00c46 202b1546  -..A.F.x...F +.F
 0010 03d114f8 013f202b fbd02c60 237863b3  .....? +..,`#xc.
 0020 2f2b2ad0 4ff00008 294e211d 204601aa  /+*.O...)N!. F..
 0030 fff7feff 044670b1 019bb3f5 803f40d2  .....Fp......?@.
 0040 7f2b08f1 010831d8 3c2bd9b2 29d82129  .+....1.<+..).!)
 0050 05d81f29 09d80020 02b0bde8 f0812239  ...)... ......"9
 0060 c9b226fa 01f1ca07 f5d42e2b 01d0202b  ..&........+.. +
 0070 1cd12378 0bb12f2b d7d12b69 013bfe2b  ..#x../+..+i.;.+
 0080 e9d82378 202b03d1 14f8013f 202bfbd0  ..#x +.....? +..
 0090 2f2bf9d0 28463c60 02b0bde8 f041fff7  /+..(F<`.....A..
 00a0 febf5c29 d7d005d9 7c29d4d0 c5f81080  ..\)....|)......
 00b0 ac60dee7 3e390129 f8d80020 02b0bde8  .`..>9.)... ....
 00c0 f08108f1 0208ac60 c5f81080 d1e700bf  .......`........
 00d0 01210005                             .!..            
Contents of section .text._ZN7FatFile6removeEv:
 0000 f0b50023 8bb00193 83789a07 24d5016a  ...#.....x..$..j
 0010 054619b1 8068fff7 feffe8b1 01212846  .F...h.......!(F
 0020 fff7feff c0b1421e 00f10a0c 0024e301  ......B......$..
 0030 12f8011f 43ea5403 944551fa 83f3dcb2  ....C.T..EQ.....
 0040 f5d1e526 00230670 af682b70 07f12800  ...&.#.p.h+p..(.
 0050 ab70fff7 feff10b9 00200bb0 f0bd07f5  .p....... ......
 0060 0e70fff7 feff0028 f6d03868 03681b6a  .p.....(..8h.h.j
 0070 98470028 f0d0eb78 002beed0 294601a8  .G.(...x.+..)F..
 0080 fff7feff 0028e7d0 eb78002b e4d00127  .....(...x.+...'
 0090 21e001a8 fff7feff 7b1cf9b2 0028dbd0  !.......{....(..
 00a0 c27a0f2a d8d10278 5ffa83fc 9fb202f0  .z.*...x_.......
 00b0 1f038b42 d0d1437b a342cdd1 0670a968  ...B..C{.B...p.h
 00c0 91f82830 43f00103 81f82830 53060dd4  ..(0C.....(0S...
 00d0 eb786345 c0d3a988 01a8c91b 89b24901  .xcE..........I.
 00e0 fff7feff 00210028 d3d1b5e7 ac6804f1  .....!.(.....h..
 00f0 2800fff7 feff0028 aed004f5 0e70fff7  (......(.....p..
 0100 feff0028 a8d02068 03681b6a 9847a4e7  ...(.. h.h.j.G..
Contents of section .comment:
 0000 00474343 3a202841 726d2047 4e552054  .GCC: (Arm GNU T
 0010 6f6f6c63 6861696e 2031312e 332e5265  oolchain 11.3.Re
 0020 6c312920 31312e33 2e312032 30323230  l1) 11.3.1 20220
 0030 37313200                             712.            
Contents of section .ARM.attributes:
 0000 41310000 00616561 62690001 27000000  A1...aeabi..'...
 0010 0537452d 4d00060d 074d0902 0a081204  .7E-M....M......
 0020 14011501 17031801 19011a01 1c011e02  ................
 0030 2201                                 ".              

Disassembly of section .text._ZN7FatFile7cmpNameEtP8FatLfn_th:

00000000 <_ZN7FatFile7cmpNameEtP8FatLfn_th>:
   0:	e92d 4ff0 	stmdb	sp!, {r4, r5, r6, r7, r8, r9, sl, fp, lr}
   4:	4684      	mov	ip, r0
   6:	b08d      	sub	sp, #52	; 0x34
   8:	4614      	mov	r4, r2
   a:	6815      	ldr	r5, [r2, #0]
   c:	4698      	mov	r8, r3
   e:	4606      	mov	r6, r0
  10:	4689      	mov	r9, r1
  12:	af03      	add	r7, sp, #12
  14:	9301      	str	r3, [sp, #4]
  16:	f04f 0e00 	mov.w	lr, #0
  1a:	e8bc 000f 	ldmia.w	ip!, {r0, r1, r2, r3}
  1e:	c70f      	stmia	r7!, {r0, r1, r2, r3}
  20:	e8bc 000f 	ldmia.w	ip!, {r0, r1, r2, r3}
  24:	c70f      	stmia	r7!, {r0, r1, r2, r3}
  26:	f8dc 3000 	ldr.w	r3, [ip]
  2a:	6065      	str	r5, [r4, #4]
  2c:	603b      	str	r3, [r7, #0]
  2e:	4643      	mov	r3, r8
  30:	f8a4 e00c 	strh.w	lr, [r4, #12]
  34:	2b00      	cmp	r3, #0
  36:	d03f      	beq.n	b8 <_ZN7FatFile7cmpNameEtP8FatLfn_th+0xb8>
  38:	f04f 0a01 	mov.w	sl, #1
  3c:	eba9 010a 	sub.w	r1, r9, sl
  40:	a803      	add	r0, sp, #12
  42:	b289      	uxth	r1, r1
  44:	0149      	lsls	r1, r1, #5
  46:	f7ff fffe 	bl	0 <_ZN7FatFile7seekSetEm>
  4a:	b350      	cbz	r0, a2 <_ZN7FatFile7cmpNameEtP8FatLfn_th+0xa2>
  4c:	2100      	movs	r1, #0
  4e:	a803      	add	r0, sp, #12
  50:	f7ff fffe 	bl	0 <_ZN7FatFile12readDirCacheEb>
  54:	4607      	mov	r7, r0
  56:	b320      	cbz	r0, a2 <_ZN7FatFile7cmpNameEtP8FatLfn_th+0xa2>
  58:	2500      	movs	r5, #0
  5a:	e00d      	b.n	78 <_ZN7FatFile7cmpNameEtP8FatLfn_th+0x78>
  5c:	f7ff fffe 	bl	0 <_ZN6FsName5get16Ev>
  60:	4680      	mov	r8, r0
  62:	4658      	mov	r0, fp
  64:	f7ff fffe 	bl	0 <_Z8toUpcaset>
  68:	4683      	mov	fp, r0
  6a:	4640      	mov	r0, r8
  6c:	f7ff fffe 	bl	0 <_Z8toUpcaset>
  70:	4583      	cmp	fp, r0
  72:	d116      	bne.n	a2 <_ZN7FatFile7cmpNameEtP8FatLfn_th+0xa2>
  74:	2d0d      	cmp	r5, #13
  76:	d018      	beq.n	aa <_ZN7FatFile7cmpNameEtP8FatLfn_th+0xaa>
  78:	b2ea      	uxtb	r2, r5
  7a:	4639      	mov	r1, r7
  7c:	4630      	mov	r0, r6
  7e:	3501      	adds	r5, #1
  80:	f7ff fffe 	bl	0 <_ZN7FatFile10getLfnCharEP8DirLfn_th>
  84:	89a3      	ldrh	r3, [r4, #12]
  86:	4683      	mov	fp, r0
  88:	4620      	mov	r0, r4
  8a:	2b00      	cmp	r3, #0
  8c:	d1e6      	bne.n	5c <_ZN7FatFile7cmpNameEtP8FatLfn_th+0x5c>
  8e:	e9d4 3201 	ldrd	r3, r2, [r4, #4]
  92:	4293      	cmp	r3, r2
  94:	d1e2      	bne.n	5c <_ZN7FatFile7cmpNameEtP8FatLfn_th+0x5c>
  96:	fabb f08b 	clz	r0, fp
  9a:	0940      	lsrs	r0, r0, #5
  9c:	b00d      	add	sp, #52	; 0x34
  9e:	e8bd 8ff0 	ldmia.w	sp!, {r4, r5, r6, r7, r8, r9, sl, fp, pc}
  a2:	2000      	movs	r0, #0
  a4:	b00d      	add	sp, #52	; 0x34
  a6:	e8bd 8ff0 	ldmia.w	sp!, {r4, r5, r6, r7, r8, r9, sl, fp, pc}
  aa:	f10a 0a01 	add.w	sl, sl, #1
  ae:	9b01      	ldr	r3, [sp, #4]
  b0:	fa5f fa8a 	uxtb.w	sl, sl
  b4:	4553      	cmp	r3, sl
  b6:	d2c1      	bcs.n	3c <_ZN7FatFile7cmpNameEtP8FatLfn_th+0x3c>
  b8:	2001      	movs	r0, #1
  ba:	e7ef      	b.n	9c <_ZN7FatFile7cmpNameEtP8FatLfn_th+0x9c>

Disassembly of section .text._ZN7FatFile9createLFNEtP8FatLfn_th:

00000000 <_ZN7FatFile9createLFNEtP8FatLfn_th>:
   0:	e92d 4ff0 	stmdb	sp!, {r4, r5, r6, r7, r8, r9, sl, fp, lr}
   4:	4607      	mov	r7, r0
   6:	b08d      	sub	sp, #52	; 0x34
   8:	4616      	mov	r6, r2
   a:	469a      	mov	sl, r3
   c:	f10d 0c0c 	add.w	ip, sp, #12
  10:	f102 0415 	add.w	r4, r2, #21
  14:	f102 0520 	add.w	r5, r2, #32
  18:	9101      	str	r1, [sp, #4]
  1a:	f04f 0900 	mov.w	r9, #0
  1e:	cf0f      	ldmia	r7!, {r0, r1, r2, r3}
  20:	e8ac 000f 	stmia.w	ip!, {r0, r1, r2, r3}
  24:	cf0f      	ldmia	r7!, {r0, r1, r2, r3}
  26:	e8ac 000f 	stmia.w	ip!, {r0, r1, r2, r3}
  2a:	683b      	ldr	r3, [r7, #0]
  2c:	f8cc 3000 	str.w	r3, [ip]
  30:	ea4f 13c9 	mov.w	r3, r9, lsl #7
  34:	f814 2f01 	ldrb.w	r2, [r4, #1]!
  38:	ea43 0359 	orr.w	r3, r3, r9, lsr #1
  3c:	42a5      	cmp	r5, r4
  3e:	fa52 f383 	uxtab	r3, r2, r3
  42:	fa5f f983 	uxtb.w	r9, r3
  46:	d1f3      	bne.n	30 <_ZN7FatFile9createLFNEtP8FatLfn_th+0x30>
  48:	6833      	ldr	r3, [r6, #0]
  4a:	f04f 0800 	mov.w	r8, #0
  4e:	6073      	str	r3, [r6, #4]
  50:	f8a6 800c 	strh.w	r8, [r6, #12]
  54:	f1ba 0f00 	cmp.w	sl, #0
  58:	d04e      	beq.n	f8 <_ZN7FatFile9createLFNEtP8FatLfn_th+0xf8>
  5a:	2701      	movs	r7, #1
  5c:	9b01      	ldr	r3, [sp, #4]
  5e:	a803      	add	r0, sp, #12
  60:	1bd9      	subs	r1, r3, r7
  62:	b289      	uxth	r1, r1
  64:	0149      	lsls	r1, r1, #5
  66:	f7ff fffe 	bl	0 <_ZN7FatFile7seekSetEm>
  6a:	2800      	cmp	r0, #0
  6c:	d055      	beq.n	11a <_ZN7FatFile9createLFNEtP8FatLfn_th+0x11a>
  6e:	2100      	movs	r1, #0
  70:	a803      	add	r0, sp, #12
  72:	f7ff fffe 	bl	0 <_ZN7FatFile12readDirCacheEb>
  76:	2800      	cmp	r0, #0
  78:	d04f      	beq.n	11a <_ZN7FatFile9createLFNEtP8FatLfn_th+0x11a>
  7a:	9a05      	ldr	r2, [sp, #20]
  7c:	4557      	cmp	r7, sl
  7e:	f100 0b01 	add.w	fp, r0, #1
  82:	f04f 0401 	mov.w	r4, #1
  86:	f892 3028 	ldrb.w	r3, [r2, #40]	; 0x28
  8a:	f04f 0500 	mov.w	r5, #0
  8e:	f043 0301 	orr.w	r3, r3, #1
  92:	f882 3028 	strb.w	r3, [r2, #40]	; 0x28
  96:	f04f 030f 	mov.w	r3, #15
  9a:	bf0c      	ite	eq
  9c:	f047 0240 	orreq.w	r2, r7, #64	; 0x40
  a0:	463a      	movne	r2, r7
  a2:	72c3      	strb	r3, [r0, #11]
  a4:	f04f 0300 	mov.w	r3, #0
  a8:	7002      	strb	r2, [r0, #0]
  aa:	7303      	strb	r3, [r0, #12]
  ac:	f04f 0300 	mov.w	r3, #0
  b0:	f880 900d 	strb.w	r9, [r0, #13]
  b4:	8343      	strh	r3, [r0, #26]
  b6:	e006      	b.n	c6 <_ZN7FatFile9createLFNEtP8FatLfn_th+0xc6>
  b8:	f8ab 0000 	strh.w	r0, [fp]
  bc:	3401      	adds	r4, #1
  be:	3501      	adds	r5, #1
  c0:	f10b 0b02 	add.w	fp, fp, #2
  c4:	b2e4      	uxtb	r4, r4
  c6:	89b0      	ldrh	r0, [r6, #12]
  c8:	b918      	cbnz	r0, d2 <_ZN7FatFile9createLFNEtP8FatLfn_th+0xd2>
  ca:	e9d6 2301 	ldrd	r2, r3, [r6, #4]
  ce:	429a      	cmp	r2, r3
  d0:	d016      	beq.n	100 <_ZN7FatFile9createLFNEtP8FatLfn_th+0x100>
  d2:	4630      	mov	r0, r6
  d4:	f7ff fffe 	bl	0 <_ZN6FsName5get16Ev>
  d8:	2d04      	cmp	r5, #4
  da:	b2eb      	uxtb	r3, r5
  dc:	d9ec      	bls.n	b8 <_ZN7FatFile9createLFNEtP8FatLfn_th+0xb8>
  de:	2b0a      	cmp	r3, #10
  e0:	d802      	bhi.n	e8 <_ZN7FatFile9createLFNEtP8FatLfn_th+0xe8>
  e2:	f8ab 0003 	strh.w	r0, [fp, #3]
  e6:	e7e9      	b.n	bc <_ZN7FatFile9createLFNEtP8FatLfn_th+0xbc>
  e8:	2c0d      	cmp	r4, #13
  ea:	f8ab 0005 	strh.w	r0, [fp, #5]
  ee:	d1e5      	bne.n	bc <_ZN7FatFile9createLFNEtP8FatLfn_th+0xbc>
  f0:	3701      	adds	r7, #1
  f2:	b2ff      	uxtb	r7, r7
  f4:	45ba      	cmp	sl, r7
  f6:	d2b1      	bcs.n	5c <_ZN7FatFile9createLFNEtP8FatLfn_th+0x5c>
  f8:	2001      	movs	r0, #1
  fa:	b00d      	add	sp, #52	; 0x34
  fc:	e8bd 8ff0 	ldmia.w	sp!, {r4, r5, r6, r7, r8, r9, sl, fp, pc}
 100:	f1b8 0f00 	cmp.w	r8, #0
 104:	d006      	beq.n	114 <_ZN7FatFile9createLFNEtP8FatLfn_th+0x114>
 106:	f108 0801 	add.w	r8, r8, #1
 10a:	f64f 70ff 	movw	r0, #65535	; 0xffff
 10e:	fa5f f888 	uxtb.w	r8, r8
 112:	e7e1      	b.n	d8 <_ZN7FatFile9createLFNEtP8FatLfn_th+0xd8>
 114:	f04f 0801 	mov.w	r8, #1
 118:	e7de      	b.n	d8 <_ZN7FatFile9createLFNEtP8FatLfn_th+0xd8>
 11a:	2000      	movs	r0, #0
 11c:	b00d      	add	sp, #52	; 0x34
 11e:	e8bd 8ff0 	ldmia.w	sp!, {r4, r5, r6, r7, r8, r9, sl, fp, pc}
 122:	bf00      	nop

Disassembly of section .text._ZN7FatFile7makeSFNEP8FatLfn_t:

00000000 <_ZN7FatFile7makeSFNEP8FatLfn_t>:
   0:	4602      	mov	r2, r0
   2:	f04f 3120 	mov.w	r1, #538976288	; 0x20202020
   6:	f852 3b16 	ldr.w	r3, [r2], #22
   a:	e92d 43f0 	stmdb	sp!, {r4, r5, r6, r7, r8, r9, lr}
   e:	f8c0 1016 	str.w	r1, [r0, #22]
  12:	4686      	mov	lr, r0
  14:	6884      	ldr	r4, [r0, #8]
  16:	6051      	str	r1, [r2, #4]
  18:	f8c2 1007 	str.w	r1, [r2, #7]
  1c:	781a      	ldrb	r2, [r3, #0]
  1e:	2a2e      	cmp	r2, #46	; 0x2e
  20:	bf14      	ite	ne
  22:	2001      	movne	r0, #1
  24:	2000      	moveq	r0, #0
  26:	d103      	bne.n	30 <_ZN7FatFile7makeSFNEP8FatLfn_t+0x30>
  28:	f813 2f01 	ldrb.w	r2, [r3, #1]!
  2c:	2a2e      	cmp	r2, #46	; 0x2e
  2e:	d0fb      	beq.n	28 <_ZN7FatFile7makeSFNEP8FatLfn_t+0x28>
  30:	1e61      	subs	r1, r4, #1
  32:	4299      	cmp	r1, r3
  34:	d90b      	bls.n	4e <_ZN7FatFile7makeSFNEP8FatLfn_t+0x4e>
  36:	460a      	mov	r2, r1
  38:	e002      	b.n	40 <_ZN7FatFile7makeSFNEP8FatLfn_t+0x40>
  3a:	4293      	cmp	r3, r2
  3c:	4611      	mov	r1, r2
  3e:	d006      	beq.n	4e <_ZN7FatFile7makeSFNEP8FatLfn_t+0x4e>
  40:	4611      	mov	r1, r2
  42:	3a01      	subs	r2, #1
  44:	f891 c000 	ldrb.w	ip, [r1]
  48:	f1bc 0f2e 	cmp.w	ip, #46	; 0x2e
  4c:	d1f5      	bne.n	3a <_ZN7FatFile7makeSFNEP8FatLfn_t+0x3a>
  4e:	429c      	cmp	r4, r3
  50:	f04f 0500 	mov.w	r5, #0
  54:	f240 8086 	bls.w	164 <_ZN7FatFile7makeSFNEP8FatLfn_t+0x164>
  58:	2607      	movs	r6, #7
  5a:	2708      	movs	r7, #8
  5c:	46a9      	mov	r9, r5
  5e:	46a8      	mov	r8, r5
  60:	e006      	b.n	70 <_ZN7FatFile7makeSFNEP8FatLfn_t+0x70>
  62:	3301      	adds	r3, #1
  64:	260a      	movs	r6, #10
  66:	f04f 0908 	mov.w	r9, #8
  6a:	2710      	movs	r7, #16
  6c:	429c      	cmp	r4, r3
  6e:	d95b      	bls.n	128 <_ZN7FatFile7makeSFNEP8FatLfn_t+0x128>
  70:	781a      	ldrb	r2, [r3, #0]
  72:	2a2e      	cmp	r2, #46	; 0x2e
  74:	bf08      	it	eq
  76:	4299      	cmpeq	r1, r3
  78:	d0f3      	beq.n	62 <_ZN7FatFile7makeSFNEP8FatLfn_t+0x62>
  7a:	2a22      	cmp	r2, #34	; 0x22
  7c:	d00d      	beq.n	9a <_ZN7FatFile7makeSFNEP8FatLfn_t+0x9a>
  7e:	2a7c      	cmp	r2, #124	; 0x7c
  80:	d00b      	beq.n	9a <_ZN7FatFile7makeSFNEP8FatLfn_t+0x9a>
  82:	f1a2 0c5b 	sub.w	ip, r2, #91	; 0x5b
  86:	f1bc 0f02 	cmp.w	ip, #2
  8a:	d906      	bls.n	9a <_ZN7FatFile7makeSFNEP8FatLfn_t+0x9a>
  8c:	f1a2 0c2a 	sub.w	ip, r2, #42	; 0x2a
  90:	f1bc 0f05 	cmp.w	ip, #5
  94:	d821      	bhi.n	da <_ZN7FatFile7makeSFNEP8FatLfn_t+0xda>
  96:	2a2d      	cmp	r2, #45	; 0x2d
  98:	d01f      	beq.n	da <_ZN7FatFile7makeSFNEP8FatLfn_t+0xda>
  9a:	f002 02c0 	and.w	r2, r2, #192	; 0xc0
  9e:	2a80      	cmp	r2, #128	; 0x80
  a0:	d05d      	beq.n	15e <_ZN7FatFile7makeSFNEP8FatLfn_t+0x15e>
  a2:	454e      	cmp	r6, r9
  a4:	d22f      	bcs.n	106 <_ZN7FatFile7makeSFNEP8FatLfn_t+0x106>
  a6:	4299      	cmp	r1, r3
  a8:	bf2c      	ite	cs
  aa:	2000      	movcs	r0, #0
  ac:	2001      	movcc	r0, #1
  ae:	2e0a      	cmp	r6, #10
  b0:	bf08      	it	eq
  b2:	f040 0001 	orreq.w	r0, r0, #1
  b6:	2800      	cmp	r0, #0
  b8:	d047      	beq.n	14a <_ZN7FatFile7makeSFNEP8FatLfn_t+0x14a>
  ba:	f89e 3016 	ldrb.w	r3, [lr, #22]
  be:	2b20      	cmp	r3, #32
  c0:	d040      	beq.n	144 <_ZN7FatFile7makeSFNEP8FatLfn_t+0x144>
  c2:	f89e 3014 	ldrb.w	r3, [lr, #20]
  c6:	2001      	movs	r0, #1
  c8:	217e      	movs	r1, #126	; 0x7e
  ca:	2231      	movs	r2, #49	; 0x31
  cc:	4473      	add	r3, lr
  ce:	f88e 0015 	strb.w	r0, [lr, #21]
  d2:	7599      	strb	r1, [r3, #22]
  d4:	75da      	strb	r2, [r3, #23]
  d6:	e8bd 83f0 	ldmia.w	sp!, {r4, r5, r6, r7, r8, r9, pc}
  da:	f1a2 0c3a 	sub.w	ip, r2, #58	; 0x3a
  de:	f1bc 0f05 	cmp.w	ip, #5
  e2:	d9da      	bls.n	9a <_ZN7FatFile7makeSFNEP8FatLfn_t+0x9a>
  e4:	f1a2 0c21 	sub.w	ip, r2, #33	; 0x21
  e8:	f1bc 0f5d 	cmp.w	ip, #93	; 0x5d
  ec:	d8d5      	bhi.n	9a <_ZN7FatFile7makeSFNEP8FatLfn_t+0x9a>
  ee:	454e      	cmp	r6, r9
  f0:	d3d9      	bcc.n	a6 <_ZN7FatFile7makeSFNEP8FatLfn_t+0xa6>
  f2:	f1a2 0c61 	sub.w	ip, r2, #97	; 0x61
  f6:	f1bc 0f19 	cmp.w	ip, #25
  fa:	d828      	bhi.n	14e <_ZN7FatFile7makeSFNEP8FatLfn_t+0x14e>
  fc:	3a20      	subs	r2, #32
  fe:	433d      	orrs	r5, r7
 100:	b2d2      	uxtb	r2, r2
 102:	b2ed      	uxtb	r5, r5
 104:	e001      	b.n	10a <_ZN7FatFile7makeSFNEP8FatLfn_t+0x10a>
 106:	2000      	movs	r0, #0
 108:	225f      	movs	r2, #95	; 0x5f
 10a:	f109 0c01 	add.w	ip, r9, #1
 10e:	44f1      	add	r9, lr
 110:	3301      	adds	r3, #1
 112:	f889 2016 	strb.w	r2, [r9, #22]
 116:	fa5f f28c 	uxtb.w	r2, ip
 11a:	2a06      	cmp	r2, #6
 11c:	4691      	mov	r9, r2
 11e:	bf98      	it	ls
 120:	f88e 2014 	strbls.w	r2, [lr, #20]
 124:	429c      	cmp	r4, r3
 126:	d8a3      	bhi.n	70 <_ZN7FatFile7makeSFNEP8FatLfn_t+0x70>
 128:	f89e 3016 	ldrb.w	r3, [lr, #22]
 12c:	2b20      	cmp	r3, #32
 12e:	d009      	beq.n	144 <_ZN7FatFile7makeSFNEP8FatLfn_t+0x144>
 130:	2800      	cmp	r0, #0
 132:	d0c6      	beq.n	c2 <_ZN7FatFile7makeSFNEP8FatLfn_t+0xc2>
 134:	ea18 0f05 	tst.w	r8, r5
 138:	bf18      	it	ne
 13a:	2502      	movne	r5, #2
 13c:	f88e 5015 	strb.w	r5, [lr, #21]
 140:	e8bd 83f0 	ldmia.w	sp!, {r4, r5, r6, r7, r8, r9, pc}
 144:	2000      	movs	r0, #0
 146:	e8bd 83f0 	ldmia.w	sp!, {r4, r5, r6, r7, r8, r9, pc}
 14a:	460b      	mov	r3, r1
 14c:	e78e      	b.n	6c <_ZN7FatFile7makeSFNEP8FatLfn_t+0x6c>
 14e:	f1a2 0c41 	sub.w	ip, r2, #65	; 0x41
 152:	f1bc 0f19 	cmp.w	ip, #25
 156:	bf98      	it	ls
 158:	ea47 0808 	orrls.w	r8, r7, r8
 15c:	e7d5      	b.n	10a <_ZN7FatFile7makeSFNEP8FatLfn_t+0x10a>
 15e:	3301      	adds	r3, #1
 160:	2000      	movs	r0, #0
 162:	e783      	b.n	6c <_ZN7FatFile7makeSFNEP8FatLfn_t+0x6c>
 164:	46a8      	mov	r8, r5
 166:	e7df      	b.n	128 <_ZN7FatFile7makeSFNEP8FatLfn_t+0x128>

Disassembly of section .text._ZN7FatFile13makeUniqueSfnEP8FatLfn_t:

00000000 <_ZN7FatFile13makeUniqueSfnEP8FatLfn_t>:
   0:	e92d 4ff8 	stmdb	sp!, {r3, r4, r5, r6, r7, r8, r9, sl, fp, lr}
   4:	f04f 0962 	mov.w	r9, #98	; 0x62
   8:	2500      	movs	r5, #0
   a:	460f      	mov	r7, r1
   c:	4604      	mov	r4, r0
   e:	f8df b0a0 	ldr.w	fp, [pc, #160]	; b0 <_ZN7FatFile13makeUniqueSfnEP8FatLfn_t+0xb0>
  12:	f04f 0a7e 	mov.w	sl, #126	; 0x7e
  16:	f891 8014 	ldrb.w	r8, [r1, #20]
  1a:	f101 0616 	add.w	r6, r1, #22
  1e:	f1b8 0f03 	cmp.w	r8, #3
  22:	f8db 3000 	ldr.w	r3, [fp]
  26:	bf28      	it	cs
  28:	f04f 0803 	movcs.w	r8, #3
  2c:	442b      	add	r3, r5
  2e:	b29d      	uxth	r5, r3
  30:	f108 0304 	add.w	r3, r8, #4
  34:	b2db      	uxtb	r3, r3
  36:	f005 020f 	and.w	r2, r5, #15
  3a:	1e58      	subs	r0, r3, #1
  3c:	092d      	lsrs	r5, r5, #4
  3e:	2a09      	cmp	r2, #9
  40:	f102 0137 	add.w	r1, r2, #55	; 0x37
  44:	bf98      	it	ls
  46:	f102 0130 	addls.w	r1, r2, #48	; 0x30
  4a:	18fa      	adds	r2, r7, r3
  4c:	b2c3      	uxtb	r3, r0
  4e:	7591      	strb	r1, [r2, #22]
  50:	4598      	cmp	r8, r3
  52:	d1f0      	bne.n	36 <_ZN7FatFile13makeUniqueSfnEP8FatLfn_t+0x36>
  54:	eb07 0308 	add.w	r3, r7, r8
  58:	2100      	movs	r1, #0
  5a:	4620      	mov	r0, r4
  5c:	f883 a016 	strb.w	sl, [r3, #22]
  60:	f7ff fffe 	bl	0 <_ZN7FatFile7seekSetEm>
  64:	2101      	movs	r1, #1
  66:	4620      	mov	r0, r4
  68:	f7ff fffe 	bl	0 <_ZN7FatFile12readDirCacheEb>
  6c:	4603      	mov	r3, r0
  6e:	220b      	movs	r2, #11
  70:	4630      	mov	r0, r6
  72:	b19b      	cbz	r3, 9c <_ZN7FatFile13makeUniqueSfnEP8FatLfn_t+0x9c>
  74:	f893 c000 	ldrb.w	ip, [r3]
  78:	4619      	mov	r1, r3
  7a:	f1bc 0f00 	cmp.w	ip, #0
  7e:	d013      	beq.n	a8 <_ZN7FatFile13makeUniqueSfnEP8FatLfn_t+0xa8>
  80:	7adb      	ldrb	r3, [r3, #11]
  82:	071b      	lsls	r3, r3, #28
  84:	d4ee      	bmi.n	64 <_ZN7FatFile13makeUniqueSfnEP8FatLfn_t+0x64>
  86:	f7ff fffe 	bl	0 <memcmp>
  8a:	2800      	cmp	r0, #0
  8c:	d1ea      	bne.n	64 <_ZN7FatFile13makeUniqueSfnEP8FatLfn_t+0x64>
  8e:	f109 39ff 	add.w	r9, r9, #4294967295	; 0xffffffff
  92:	f019 09ff 	ands.w	r9, r9, #255	; 0xff
  96:	d1c2      	bne.n	1e <_ZN7FatFile13makeUniqueSfnEP8FatLfn_t+0x1e>
  98:	4648      	mov	r0, r9
  9a:	e003      	b.n	a4 <_ZN7FatFile13makeUniqueSfnEP8FatLfn_t+0xa4>
  9c:	7860      	ldrb	r0, [r4, #1]
  9e:	fab0 f080 	clz	r0, r0
  a2:	0940      	lsrs	r0, r0, #5
  a4:	e8bd 8ff8 	ldmia.w	sp!, {r3, r4, r5, r6, r7, r8, r9, sl, fp, pc}
  a8:	2001      	movs	r0, #1
  aa:	e8bd 8ff8 	ldmia.w	sp!, {r3, r4, r5, r6, r7, r8, r9, sl, fp, pc}
  ae:	bf00      	nop
  b0:	00000000 	.word	0x00000000

Disassembly of section .text._ZN7FatFile4openEPS_P8FatLfn_ti:

00000000 <_ZN7FatFile4openEPS_P8FatLfn_ti>:
   0:	e92d 4ff0 	stmdb	sp!, {r4, r5, r6, r7, r8, r9, sl, fp, lr}
   4:	ed2d 8b02 	vpush	{d8}
   8:	b08b      	sub	sp, #44	; 0x2c
   a:	e9cd 0302 	strd	r0, r3, [sp, #8]
   e:	688b      	ldr	r3, [r1, #8]
  10:	9307      	str	r3, [sp, #28]
  12:	780b      	ldrb	r3, [r1, #0]
  14:	f013 0f70 	tst.w	r3, #112	; 0x70
  18:	d053      	beq.n	c2 <_ZN7FatFile4openEPS_P8FatLfn_ti+0xc2>
  1a:	9b02      	ldr	r3, [sp, #8]
  1c:	781b      	ldrb	r3, [r3, #0]
  1e:	2b00      	cmp	r3, #0
  20:	d14f      	bne.n	c2 <_ZN7FatFile4openEPS_P8FatLfn_ti+0xc2>
  22:	6913      	ldr	r3, [r2, #16]
  24:	4690      	mov	r8, r2
  26:	4a9a      	ldr	r2, [pc, #616]	; (290 <_ZN7FatFile4openEPS_P8FatLfn_ti+0x290>)
  28:	460e      	mov	r6, r1
  2a:	330c      	adds	r3, #12
  2c:	fba2 2303 	umull	r2, r3, r2, r3
  30:	f3c3 0287 	ubfx	r2, r3, #2, #8
  34:	f898 3015 	ldrb.w	r3, [r8, #21]
  38:	0798      	lsls	r0, r3, #30
  3a:	9204      	str	r2, [sp, #16]
  3c:	f000 80a7 	beq.w	18e <_ZN7FatFile4openEPS_P8FatLfn_ti+0x18e>
  40:	1c57      	adds	r7, r2, #1
  42:	b2ff      	uxtb	r7, r7
  44:	2300      	movs	r3, #0
  46:	4630      	mov	r0, r6
  48:	4619      	mov	r1, r3
  4a:	461c      	mov	r4, r3
  4c:	9306      	str	r3, [sp, #24]
  4e:	f7ff fffe 	bl	0 <_ZN7FatFile7seekSetEm>
  52:	f108 0316 	add.w	r3, r8, #22
  56:	46a3      	mov	fp, r4
  58:	46a1      	mov	r9, r4
  5a:	46a2      	mov	sl, r4
  5c:	ee08 3a10 	vmov	s16, r3
  60:	9405      	str	r4, [sp, #20]
  62:	6975      	ldr	r5, [r6, #20]
  64:	2100      	movs	r1, #0
  66:	4630      	mov	r0, r6
  68:	f7ff fffe 	bl	0 <_ZN7FatFile12readDirCacheEb>
  6c:	f3c5 154f 	ubfx	r5, r5, #5, #16
  70:	4603      	mov	r3, r0
  72:	b320      	cbz	r0, be <_ZN7FatFile4openEPS_P8FatLfn_ti+0xbe>
  74:	7802      	ldrb	r2, [r0, #0]
  76:	2ae5      	cmp	r2, #229	; 0xe5
  78:	d029      	beq.n	ce <_ZN7FatFile4openEPS_P8FatLfn_ti+0xce>
  7a:	b342      	cbz	r2, ce <_ZN7FatFile4openEPS_P8FatLfn_ti+0xce>
  7c:	42bc      	cmp	r4, r7
  7e:	bf38      	it	cc
  80:	2400      	movcc	r4, #0
  82:	2a2e      	cmp	r2, #46	; 0x2e
  84:	d02b      	beq.n	de <_ZN7FatFile4openEPS_P8FatLfn_ti+0xde>
  86:	f890 c00b 	ldrb.w	ip, [r0, #11]
  8a:	f1bc 0f0f 	cmp.w	ip, #15
  8e:	d054      	beq.n	13a <_ZN7FatFile4openEPS_P8FatLfn_ti+0x13a>
  90:	f01c 0c08 	ands.w	ip, ip, #8
  94:	d123      	bne.n	de <_ZN7FatFile4openEPS_P8FatLfn_ti+0xde>
  96:	f1b9 0f00 	cmp.w	r9, #0
  9a:	f040 80d5 	bne.w	248 <_ZN7FatFile4openEPS_P8FatLfn_ti+0x248>
  9e:	220b      	movs	r2, #11
  a0:	ee18 1a10 	vmov	r1, s16
  a4:	f7ff fffe 	bl	0 <memcmp>
  a8:	2800      	cmp	r0, #0
  aa:	d1da      	bne.n	62 <_ZN7FatFile4openEPS_P8FatLfn_ti+0x62>
  ac:	f898 3015 	ldrb.w	r3, [r8, #21]
  b0:	f013 0301 	ands.w	r3, r3, #1
  b4:	f000 80e4 	beq.w	280 <_ZN7FatFile4openEPS_P8FatLfn_ti+0x280>
  b8:	2301      	movs	r3, #1
  ba:	9305      	str	r3, [sp, #20]
  bc:	e7d1      	b.n	62 <_ZN7FatFile4openEPS_P8FatLfn_ti+0x62>
  be:	7873      	ldrb	r3, [r6, #1]
  c0:	b183      	cbz	r3, e4 <_ZN7FatFile4openEPS_P8FatLfn_ti+0xe4>
  c2:	2000      	movs	r0, #0
  c4:	b00b      	add	sp, #44	; 0x2c
  c6:	ecbd 8b02 	vpop	{d8}
  ca:	e8bd 8ff0 	ldmia.w	sp!, {r4, r5, r6, r7, r8, r9, sl, fp, pc}
  ce:	2c00      	cmp	r4, #0
  d0:	bf08      	it	eq
  d2:	46aa      	moveq	sl, r5
  d4:	42bc      	cmp	r4, r7
  d6:	d201      	bcs.n	dc <_ZN7FatFile4openEPS_P8FatLfn_ti+0xdc>
  d8:	3401      	adds	r4, #1
  da:	b2e4      	uxtb	r4, r4
  dc:	b112      	cbz	r2, e4 <_ZN7FatFile4openEPS_P8FatLfn_ti+0xe4>
  de:	f04f 0900 	mov.w	r9, #0
  e2:	e7be      	b.n	62 <_ZN7FatFile4openEPS_P8FatLfn_ti+0x62>
  e4:	9b03      	ldr	r3, [sp, #12]
  e6:	059a      	lsls	r2, r3, #22
  e8:	d5eb      	bpl.n	c2 <_ZN7FatFile4openEPS_P8FatLfn_ti+0xc2>
  ea:	f003 0303 	and.w	r3, r3, #3
  ee:	3b01      	subs	r3, #1
  f0:	2b01      	cmp	r3, #1
  f2:	d8e6      	bhi.n	c2 <_ZN7FatFile4openEPS_P8FatLfn_ti+0xc2>
  f4:	2c00      	cmp	r4, #0
  f6:	bf08      	it	eq
  f8:	46aa      	moveq	sl, r5
  fa:	42bc      	cmp	r4, r7
  fc:	d303      	bcc.n	106 <_ZN7FatFile4openEPS_P8FatLfn_ti+0x106>
  fe:	e048      	b.n	192 <_ZN7FatFile4openEPS_P8FatLfn_ti+0x192>
 100:	b2dc      	uxtb	r4, r3
 102:	42a7      	cmp	r7, r4
 104:	d045      	beq.n	192 <_ZN7FatFile4openEPS_P8FatLfn_ti+0x192>
 106:	2100      	movs	r1, #0
 108:	4630      	mov	r0, r6
 10a:	f7ff fffe 	bl	0 <_ZN7FatFile12readDirCacheEb>
 10e:	1c63      	adds	r3, r4, #1
 110:	2800      	cmp	r0, #0
 112:	d1f5      	bne.n	100 <_ZN7FatFile4openEPS_P8FatLfn_ti+0x100>
 114:	7873      	ldrb	r3, [r6, #1]
 116:	2b00      	cmp	r3, #0
 118:	d1d3      	bne.n	c2 <_ZN7FatFile4openEPS_P8FatLfn_ti+0xc2>
 11a:	42a7      	cmp	r7, r4
 11c:	d939      	bls.n	192 <_ZN7FatFile4openEPS_P8FatLfn_ti+0x192>
 11e:	9d07      	ldr	r5, [sp, #28]
 120:	e005      	b.n	12e <_ZN7FatFile4openEPS_P8FatLfn_ti+0x12e>
 122:	792b      	ldrb	r3, [r5, #4]
 124:	eb04 1403 	add.w	r4, r4, r3, lsl #4
 128:	b2e4      	uxtb	r4, r4
 12a:	42a7      	cmp	r7, r4
 12c:	d931      	bls.n	192 <_ZN7FatFile4openEPS_P8FatLfn_ti+0x192>
 12e:	4630      	mov	r0, r6
 130:	f7ff fffe 	bl	0 <_ZN7FatFile13addDirClusterEv>
 134:	2800      	cmp	r0, #0
 136:	d1f4      	bne.n	122 <_ZN7FatFile4openEPS_P8FatLfn_ti+0x122>
 138:	e7c3      	b.n	c2 <_ZN7FatFile4openEPS_P8FatLfn_ti+0xc2>
 13a:	f1b9 0f00 	cmp.w	r9, #0
 13e:	d119      	bne.n	174 <_ZN7FatFile4openEPS_P8FatLfn_ti+0x174>
 140:	f002 0b1f 	and.w	fp, r2, #31
 144:	9904      	ldr	r1, [sp, #16]
 146:	4559      	cmp	r1, fp
 148:	d18b      	bne.n	62 <_ZN7FatFile4openEPS_P8FatLfn_ti+0x62>
 14a:	f012 0940 	ands.w	r9, r2, #64	; 0x40
 14e:	d088      	beq.n	62 <_ZN7FatFile4openEPS_P8FatLfn_ti+0x62>
 150:	7b43      	ldrb	r3, [r0, #13]
 152:	4689      	mov	r9, r1
 154:	9306      	str	r3, [sp, #24]
 156:	f1bb 0f01 	cmp.w	fp, #1
 15a:	d182      	bne.n	62 <_ZN7FatFile4openEPS_P8FatLfn_ti+0x62>
 15c:	1c69      	adds	r1, r5, #1
 15e:	464b      	mov	r3, r9
 160:	4642      	mov	r2, r8
 162:	4630      	mov	r0, r6
 164:	b289      	uxth	r1, r1
 166:	f7ff fffe 	bl	0 <_ZN7FatFile4openEPS_P8FatLfn_ti>
 16a:	2800      	cmp	r0, #0
 16c:	bf08      	it	eq
 16e:	f04f 0900 	moveq.w	r9, #0
 172:	e776      	b.n	62 <_ZN7FatFile4openEPS_P8FatLfn_ti+0x62>
 174:	f10b 3bff 	add.w	fp, fp, #4294967295	; 0xffffffff
 178:	fa5f fb8b 	uxtb.w	fp, fp
 17c:	455a      	cmp	r2, fp
 17e:	d1ae      	bne.n	de <_ZN7FatFile4openEPS_P8FatLfn_ti+0xde>
 180:	7b43      	ldrb	r3, [r0, #13]
 182:	9a06      	ldr	r2, [sp, #24]
 184:	4293      	cmp	r3, r2
 186:	d0e6      	beq.n	156 <_ZN7FatFile4openEPS_P8FatLfn_ti+0x156>
 188:	f04f 0900 	mov.w	r9, #0
 18c:	e769      	b.n	62 <_ZN7FatFile4openEPS_P8FatLfn_ti+0x62>
 18e:	2701      	movs	r7, #1
 190:	e758      	b.n	44 <_ZN7FatFile4openEPS_P8FatLfn_ti+0x44>
 192:	9b05      	ldr	r3, [sp, #20]
 194:	b12b      	cbz	r3, 1a2 <_ZN7FatFile4openEPS_P8FatLfn_ti+0x1a2>
 196:	4641      	mov	r1, r8
 198:	4630      	mov	r0, r6
 19a:	f7ff fffe 	bl	0 <_ZN7FatFile4openEPS_P8FatLfn_ti>
 19e:	2800      	cmp	r0, #0
 1a0:	d08f      	beq.n	c2 <_ZN7FatFile4openEPS_P8FatLfn_ti+0xc2>
 1a2:	3f01      	subs	r7, #1
 1a4:	4642      	mov	r2, r8
 1a6:	4630      	mov	r0, r6
 1a8:	b2fb      	uxtb	r3, r7
 1aa:	eb0a 0503 	add.w	r5, sl, r3
 1ae:	461f      	mov	r7, r3
 1b0:	b2ad      	uxth	r5, r5
 1b2:	4629      	mov	r1, r5
 1b4:	f7ff fffe 	bl	0 <_ZN7FatFile4openEPS_P8FatLfn_ti>
 1b8:	2800      	cmp	r0, #0
 1ba:	d082      	beq.n	c2 <_ZN7FatFile4openEPS_P8FatLfn_ti+0xc2>
 1bc:	0169      	lsls	r1, r5, #5
 1be:	4630      	mov	r0, r6
 1c0:	f7ff fffe 	bl	0 <_ZN7FatFile7seekSetEm>
 1c4:	2800      	cmp	r0, #0
 1c6:	f43f af7c 	beq.w	c2 <_ZN7FatFile4openEPS_P8FatLfn_ti+0xc2>
 1ca:	2100      	movs	r1, #0
 1cc:	4630      	mov	r0, r6
 1ce:	f7ff fffe 	bl	0 <_ZN7FatFile12readDirCacheEb>
 1d2:	4604      	mov	r4, r0
 1d4:	2800      	cmp	r0, #0
 1d6:	f43f af74 	beq.w	c2 <_ZN7FatFile4openEPS_P8FatLfn_ti+0xc2>
 1da:	2220      	movs	r2, #32
 1dc:	2100      	movs	r1, #0
 1de:	f7ff fffe 	bl	0 <memset>
 1e2:	f8d8 2016 	ldr.w	r2, [r8, #22]
 1e6:	f8d8 301a 	ldr.w	r3, [r8, #26]
 1ea:	6022      	str	r2, [r4, #0]
 1ec:	6063      	str	r3, [r4, #4]
 1ee:	f898 3020 	ldrb.w	r3, [r8, #32]
 1f2:	f8b8 201e 	ldrh.w	r2, [r8, #30]
 1f6:	72a3      	strb	r3, [r4, #10]
 1f8:	8122      	strh	r2, [r4, #8]
 1fa:	f898 3015 	ldrb.w	r3, [r8, #21]
 1fe:	f003 0318 	and.w	r3, r3, #24
 202:	7323      	strb	r3, [r4, #12]
 204:	4b23      	ldr	r3, [pc, #140]	; (294 <_ZN7FatFile4openEPS_P8FatLfn_ti+0x294>)
 206:	681b      	ldr	r3, [r3, #0]
 208:	2b00      	cmp	r3, #0
 20a:	d03b      	beq.n	284 <_ZN7FatFile4openEPS_P8FatLfn_ti+0x284>
 20c:	f10d 0223 	add.w	r2, sp, #35	; 0x23
 210:	f10d 0126 	add.w	r1, sp, #38	; 0x26
 214:	a809      	add	r0, sp, #36	; 0x24
 216:	4798      	blx	r3
 218:	f8bd 3024 	ldrh.w	r3, [sp, #36]	; 0x24
 21c:	8223      	strh	r3, [r4, #16]
 21e:	f8bd 3026 	ldrh.w	r3, [sp, #38]	; 0x26
 222:	81e3      	strh	r3, [r4, #14]
 224:	f89d 3023 	ldrb.w	r3, [sp, #35]	; 0x23
 228:	7363      	strb	r3, [r4, #13]
 22a:	9a07      	ldr	r2, [sp, #28]
 22c:	f892 3028 	ldrb.w	r3, [r2, #40]	; 0x28
 230:	f043 0301 	orr.w	r3, r3, #1
 234:	f882 3028 	strb.w	r3, [r2, #40]	; 0x28
 238:	9b03      	ldr	r3, [sp, #12]
 23a:	462a      	mov	r2, r5
 23c:	4631      	mov	r1, r6
 23e:	9802      	ldr	r0, [sp, #8]
 240:	9700      	str	r7, [sp, #0]
 242:	f7ff fffe 	bl	0 <_ZN7FatFile15openCachedEntryEPS_tih>
 246:	e73d      	b.n	c4 <_ZN7FatFile4openEPS_P8FatLfn_ti+0xc4>
 248:	f1bb 0f01 	cmp.w	fp, #1
 24c:	f47f af39 	bne.w	c2 <_ZN7FatFile4openEPS_P8FatLfn_ti+0xc2>
 250:	300a      	adds	r0, #10
 252:	e001      	b.n	258 <_ZN7FatFile4openEPS_P8FatLfn_ti+0x258>
 254:	f813 2f01 	ldrb.w	r2, [r3, #1]!
 258:	ea4f 11cc 	mov.w	r1, ip, lsl #7
 25c:	4298      	cmp	r0, r3
 25e:	ea41 015c 	orr.w	r1, r1, ip, lsr #1
 262:	fa52 f281 	uxtab	r2, r2, r1
 266:	fa5f fc82 	uxtb.w	ip, r2
 26a:	d1f3      	bne.n	254 <_ZN7FatFile4openEPS_P8FatLfn_ti+0x254>
 26c:	9b06      	ldr	r3, [sp, #24]
 26e:	4563      	cmp	r3, ip
 270:	f47f af27 	bne.w	c2 <_ZN7FatFile4openEPS_P8FatLfn_ti+0xc2>
 274:	464f      	mov	r7, r9
 276:	9b03      	ldr	r3, [sp, #12]
 278:	0519      	lsls	r1, r3, #20
 27a:	f53f af22 	bmi.w	c2 <_ZN7FatFile4openEPS_P8FatLfn_ti+0xc2>
 27e:	e7db      	b.n	238 <_ZN7FatFile4openEPS_P8FatLfn_ti+0x238>
 280:	461f      	mov	r7, r3
 282:	e7f8      	b.n	276 <_ZN7FatFile4openEPS_P8FatLfn_ti+0x276>
 284:	f645 2321 	movw	r3, #23073	; 0x5a21
 288:	8223      	strh	r3, [r4, #16]
 28a:	8323      	strh	r3, [r4, #24]
 28c:	8263      	strh	r3, [r4, #18]
 28e:	e7cc      	b.n	22a <_ZN7FatFile4openEPS_P8FatLfn_ti+0x22a>
 290:	4ec4ec4f 	.word	0x4ec4ec4f
 294:	00000000 	.word	0x00000000

Disassembly of section .text._ZN7FatFile13parsePathNameEPKcP8FatLfn_tPS1_:

00000000 <_ZN7FatFile13parsePathNameEPKcP8FatLfn_tPS1_>:
   0:	e92d 41f0 	stmdb	sp!, {r4, r5, r6, r7, r8, lr}
   4:	461f      	mov	r7, r3
   6:	780b      	ldrb	r3, [r1, #0]
   8:	b082      	sub	sp, #8
   a:	460c      	mov	r4, r1
   c:	2b20      	cmp	r3, #32
   e:	4615      	mov	r5, r2
  10:	d103      	bne.n	1a <_ZN7FatFile13parsePathNameEPKcP8FatLfn_tPS1_+0x1a>
  12:	f814 3f01 	ldrb.w	r3, [r4, #1]!
  16:	2b20      	cmp	r3, #32
  18:	d0fb      	beq.n	12 <_ZN7FatFile13parsePathNameEPKcP8FatLfn_tPS1_+0x12>
  1a:	602c      	str	r4, [r5, #0]
  1c:	7823      	ldrb	r3, [r4, #0]
  1e:	b363      	cbz	r3, 7a <_ZN7FatFile13parsePathNameEPKcP8FatLfn_tPS1_+0x7a>
  20:	2b2f      	cmp	r3, #47	; 0x2f
  22:	d02a      	beq.n	7a <_ZN7FatFile13parsePathNameEPKcP8FatLfn_tPS1_+0x7a>
  24:	f04f 0800 	mov.w	r8, #0
  28:	4e29      	ldr	r6, [pc, #164]	; (d0 <_ZN7FatFile13parsePathNameEPKcP8FatLfn_tPS1_+0xd0>)
  2a:	1d21      	adds	r1, r4, #4
  2c:	4620      	mov	r0, r4
  2e:	aa01      	add	r2, sp, #4
  30:	f7ff fffe 	bl	0 <_ZN5FsUtf6mbToCpEPKcS1_Pm>
  34:	4604      	mov	r4, r0
  36:	b170      	cbz	r0, 56 <_ZN7FatFile13parsePathNameEPKcP8FatLfn_tPS1_+0x56>
  38:	9b01      	ldr	r3, [sp, #4]
  3a:	f5b3 3f80 	cmp.w	r3, #65536	; 0x10000
  3e:	d240      	bcs.n	c2 <_ZN7FatFile13parsePathNameEPKcP8FatLfn_tPS1_+0xc2>
  40:	2b7f      	cmp	r3, #127	; 0x7f
  42:	f108 0801 	add.w	r8, r8, #1
  46:	d831      	bhi.n	ac <_ZN7FatFile13parsePathNameEPKcP8FatLfn_tPS1_+0xac>
  48:	2b3c      	cmp	r3, #60	; 0x3c
  4a:	b2d9      	uxtb	r1, r3
  4c:	d829      	bhi.n	a2 <_ZN7FatFile13parsePathNameEPKcP8FatLfn_tPS1_+0xa2>
  4e:	2921      	cmp	r1, #33	; 0x21
  50:	d805      	bhi.n	5e <_ZN7FatFile13parsePathNameEPKcP8FatLfn_tPS1_+0x5e>
  52:	291f      	cmp	r1, #31
  54:	d809      	bhi.n	6a <_ZN7FatFile13parsePathNameEPKcP8FatLfn_tPS1_+0x6a>
  56:	2000      	movs	r0, #0
  58:	b002      	add	sp, #8
  5a:	e8bd 81f0 	ldmia.w	sp!, {r4, r5, r6, r7, r8, pc}
  5e:	3922      	subs	r1, #34	; 0x22
  60:	b2c9      	uxtb	r1, r1
  62:	fa26 f101 	lsr.w	r1, r6, r1
  66:	07ca      	lsls	r2, r1, #31
  68:	d4f5      	bmi.n	56 <_ZN7FatFile13parsePathNameEPKcP8FatLfn_tPS1_+0x56>
  6a:	2b2e      	cmp	r3, #46	; 0x2e
  6c:	d001      	beq.n	72 <_ZN7FatFile13parsePathNameEPKcP8FatLfn_tPS1_+0x72>
  6e:	2b20      	cmp	r3, #32
  70:	d11c      	bne.n	ac <_ZN7FatFile13parsePathNameEPKcP8FatLfn_tPS1_+0xac>
  72:	7823      	ldrb	r3, [r4, #0]
  74:	b10b      	cbz	r3, 7a <_ZN7FatFile13parsePathNameEPKcP8FatLfn_tPS1_+0x7a>
  76:	2b2f      	cmp	r3, #47	; 0x2f
  78:	d1d7      	bne.n	2a <_ZN7FatFile13parsePathNameEPKcP8FatLfn_tPS1_+0x2a>
  7a:	692b      	ldr	r3, [r5, #16]
  7c:	3b01      	subs	r3, #1
  7e:	2bfe      	cmp	r3, #254	; 0xfe
  80:	d8e9      	bhi.n	56 <_ZN7FatFile13parsePathNameEPKcP8FatLfn_tPS1_+0x56>
  82:	7823      	ldrb	r3, [r4, #0]
  84:	2b20      	cmp	r3, #32
  86:	d103      	bne.n	90 <_ZN7FatFile13parsePathNameEPKcP8FatLfn_tPS1_+0x90>
  88:	f814 3f01 	ldrb.w	r3, [r4, #1]!
  8c:	2b20      	cmp	r3, #32
  8e:	d0fb      	beq.n	88 <_ZN7FatFile13parsePathNameEPKcP8FatLfn_tPS1_+0x88>
  90:	2b2f      	cmp	r3, #47	; 0x2f
  92:	d0f9      	beq.n	88 <_ZN7FatFile13parsePathNameEPKcP8FatLfn_tPS1_+0x88>
  94:	4628      	mov	r0, r5
  96:	603c      	str	r4, [r7, #0]
  98:	b002      	add	sp, #8
  9a:	e8bd 41f0 	ldmia.w	sp!, {r4, r5, r6, r7, r8, lr}
  9e:	f7ff bffe 	b.w	0 <_ZN7FatFile13parsePathNameEPKcP8FatLfn_tPS1_>
  a2:	295c      	cmp	r1, #92	; 0x5c
  a4:	d0d7      	beq.n	56 <_ZN7FatFile13parsePathNameEPKcP8FatLfn_tPS1_+0x56>
  a6:	d905      	bls.n	b4 <_ZN7FatFile13parsePathNameEPKcP8FatLfn_tPS1_+0xb4>
  a8:	297c      	cmp	r1, #124	; 0x7c
  aa:	d0d4      	beq.n	56 <_ZN7FatFile13parsePathNameEPKcP8FatLfn_tPS1_+0x56>
  ac:	f8c5 8010 	str.w	r8, [r5, #16]
  b0:	60ac      	str	r4, [r5, #8]
  b2:	e7de      	b.n	72 <_ZN7FatFile13parsePathNameEPKcP8FatLfn_tPS1_+0x72>
  b4:	393e      	subs	r1, #62	; 0x3e
  b6:	2901      	cmp	r1, #1
  b8:	d8f8      	bhi.n	ac <_ZN7FatFile13parsePathNameEPKcP8FatLfn_tPS1_+0xac>
  ba:	2000      	movs	r0, #0
  bc:	b002      	add	sp, #8
  be:	e8bd 81f0 	ldmia.w	sp!, {r4, r5, r6, r7, r8, pc}
  c2:	f108 0802 	add.w	r8, r8, #2
  c6:	60ac      	str	r4, [r5, #8]
  c8:	f8c5 8010 	str.w	r8, [r5, #16]
  cc:	e7d1      	b.n	72 <_ZN7FatFile13parsePathNameEPKcP8FatLfn_tPS1_+0x72>
  ce:	bf00      	nop
  d0:	05002101 	.word	0x05002101

Disassembly of section .text._ZN7FatFile6removeEv:

00000000 <_ZN7FatFile6removeEv>:
   0:	b5f0      	push	{r4, r5, r6, r7, lr}
   2:	2300      	movs	r3, #0
   4:	b08b      	sub	sp, #44	; 0x2c
   6:	9301      	str	r3, [sp, #4]
   8:	7883      	ldrb	r3, [r0, #2]
   a:	079a      	lsls	r2, r3, #30
   c:	d524      	bpl.n	58 <_ZN7FatFile6removeEv+0x58>
   e:	6a01      	ldr	r1, [r0, #32]
  10:	4605      	mov	r5, r0
  12:	b119      	cbz	r1, 1c <_ZN7FatFile6removeEv+0x1c>
  14:	6880      	ldr	r0, [r0, #8]
  16:	f7ff fffe 	bl	0 <_ZN12FatPartition9freeChainEm>
  1a:	b1e8      	cbz	r0, 58 <_ZN7FatFile6removeEv+0x58>
  1c:	2101      	movs	r1, #1
  1e:	4628      	mov	r0, r5
  20:	f7ff fffe 	bl	0 <_ZN7FatFile13cacheDirEntryEh>
  24:	b1c0      	cbz	r0, 58 <_ZN7FatFile6removeEv+0x58>
  26:	1e42      	subs	r2, r0, #1
  28:	f100 0c0a 	add.w	ip, r0, #10
  2c:	2400      	movs	r4, #0
  2e:	01e3      	lsls	r3, r4, #7
  30:	f812 1f01 	ldrb.w	r1, [r2, #1]!
  34:	ea43 0354 	orr.w	r3, r3, r4, lsr #1
  38:	4594      	cmp	ip, r2
  3a:	fa51 f383 	uxtab	r3, r1, r3
  3e:	b2dc      	uxtb	r4, r3
  40:	d1f5      	bne.n	2e <_ZN7FatFile6removeEv+0x2e>
  42:	26e5      	movs	r6, #229	; 0xe5
  44:	2300      	movs	r3, #0
  46:	7006      	strb	r6, [r0, #0]
  48:	68af      	ldr	r7, [r5, #8]
  4a:	702b      	strb	r3, [r5, #0]
  4c:	f107 0028 	add.w	r0, r7, #40	; 0x28
  50:	70ab      	strb	r3, [r5, #2]
  52:	f7ff fffe 	bl	0 <_ZN7FsCache4syncEv>
  56:	b910      	cbnz	r0, 5e <_ZN7FatFile6removeEv+0x5e>
  58:	2000      	movs	r0, #0
  5a:	b00b      	add	sp, #44	; 0x2c
  5c:	bdf0      	pop	{r4, r5, r6, r7, pc}
  5e:	f507 700e 	add.w	r0, r7, #568	; 0x238
  62:	f7ff fffe 	bl	0 <_ZN7FsCache4syncEv>
  66:	2800      	cmp	r0, #0
  68:	d0f6      	beq.n	58 <_ZN7FatFile6removeEv+0x58>
  6a:	6838      	ldr	r0, [r7, #0]
  6c:	6803      	ldr	r3, [r0, #0]
  6e:	6a1b      	ldr	r3, [r3, #32]
  70:	4798      	blx	r3
  72:	2800      	cmp	r0, #0
  74:	d0f0      	beq.n	58 <_ZN7FatFile6removeEv+0x58>
  76:	78eb      	ldrb	r3, [r5, #3]
  78:	2b00      	cmp	r3, #0
  7a:	d0ee      	beq.n	5a <_ZN7FatFile6removeEv+0x5a>
  7c:	4629      	mov	r1, r5
  7e:	a801      	add	r0, sp, #4
  80:	f7ff fffe 	bl	0 <_ZN7FatFile11openClusterEPS_>
  84:	2800      	cmp	r0, #0
  86:	d0e7      	beq.n	58 <_ZN7FatFile6removeEv+0x58>
  88:	78eb      	ldrb	r3, [r5, #3]
  8a:	2b00      	cmp	r3, #0
  8c:	d0e4      	beq.n	58 <_ZN7FatFile6removeEv+0x58>
  8e:	2701      	movs	r7, #1
  90:	e021      	b.n	d6 <_ZN7FatFile6removeEv+0xd6>
  92:	a801      	add	r0, sp, #4
  94:	f7ff fffe 	bl	0 <_ZN7FatFile12readDirCacheEb>
  98:	1c7b      	adds	r3, r7, #1
  9a:	b2f9      	uxtb	r1, r7
  9c:	2800      	cmp	r0, #0
  9e:	d0db      	beq.n	58 <_ZN7FatFile6removeEv+0x58>
  a0:	7ac2      	ldrb	r2, [r0, #11]
  a2:	2a0f      	cmp	r2, #15
  a4:	d1d8      	bne.n	58 <_ZN7FatFile6removeEv+0x58>
  a6:	7802      	ldrb	r2, [r0, #0]
  a8:	fa5f fc83 	uxtb.w	ip, r3
  ac:	b29f      	uxth	r7, r3
  ae:	f002 031f 	and.w	r3, r2, #31
  b2:	428b      	cmp	r3, r1
  b4:	d1d0      	bne.n	58 <_ZN7FatFile6removeEv+0x58>
  b6:	7b43      	ldrb	r3, [r0, #13]
  b8:	42a3      	cmp	r3, r4
  ba:	d1cd      	bne.n	58 <_ZN7FatFile6removeEv+0x58>
  bc:	7006      	strb	r6, [r0, #0]
  be:	68a9      	ldr	r1, [r5, #8]
  c0:	f891 3028 	ldrb.w	r3, [r1, #40]	; 0x28
  c4:	f043 0301 	orr.w	r3, r3, #1
  c8:	f881 3028 	strb.w	r3, [r1, #40]	; 0x28
  cc:	0653      	lsls	r3, r2, #25
  ce:	d40d      	bmi.n	ec <_ZN7FatFile6removeEv+0xec>
  d0:	78eb      	ldrb	r3, [r5, #3]
  d2:	4563      	cmp	r3, ip
  d4:	d3c0      	bcc.n	58 <_ZN7FatFile6removeEv+0x58>
  d6:	88a9      	ldrh	r1, [r5, #4]
  d8:	a801      	add	r0, sp, #4
  da:	1bc9      	subs	r1, r1, r7
  dc:	b289      	uxth	r1, r1
  de:	0149      	lsls	r1, r1, #5
  e0:	f7ff fffe 	bl	0 <_ZN7FatFile7seekSetEm>
  e4:	2100      	movs	r1, #0
  e6:	2800      	cmp	r0, #0
  e8:	d1d3      	bne.n	92 <_ZN7FatFile6removeEv+0x92>
  ea:	e7b5      	b.n	58 <_ZN7FatFile6removeEv+0x58>
  ec:	68ac      	ldr	r4, [r5, #8]
  ee:	f104 0028 	add.w	r0, r4, #40	; 0x28
  f2:	f7ff fffe 	bl	0 <_ZN7FsCache4syncEv>
  f6:	2800      	cmp	r0, #0
  f8:	d0ae      	beq.n	58 <_ZN7FatFile6removeEv+0x58>
  fa:	f504 700e 	add.w	r0, r4, #568	; 0x238
  fe:	f7ff fffe 	bl	0 <_ZN7FsCache4syncEv>
 102:	2800      	cmp	r0, #0
 104:	d0a8      	beq.n	58 <_ZN7FatFile6removeEv+0x58>
 106:	6820      	ldr	r0, [r4, #0]
 108:	6803      	ldr	r3, [r0, #0]
 10a:	6a1b      	ldr	r3, [r3, #32]
 10c:	4798      	blx	r3
 10e:	e7a4      	b.n	5a <_ZN7FatFile6removeEv+0x5a>
