
build/./libraries/SdFat/src/FatLib/FatFormatter.cpp.o:     file format elf32-littlearm

SYMBOL TABLE:
00000000 l    df *ABS*	00000000 FatFormatter.cpp
00000000 l    d  .text	00000000 .text
00000000 l    d  .data	00000000 .data
00000000 l    d  .bss	00000000 .bss
00000000 l    d  .text._ZN22FsBlockDeviceInterface20writeSectorsCallbackEmjPFPKhmPvES2_	00000000 .text._ZN22FsBlockDeviceInterface20writeSectorsCallbackEmjPFPKhmPvES2_
00000000 l    d  .rodata._ZL18initFatDirCallbackmPv.str1.4	00000000 .rodata._ZL18initFatDirCallbackmPv.str1.4
00000000 l    d  .text._ZL18initFatDirCallbackmPv	00000000 .text._ZL18initFatDirCallbackmPv
00000000 l     F .text._ZL18initFatDirCallbackmPv	00000030 _ZL18initFatDirCallbackmPv
00000000 l    d  .rodata._ZN12FatFormatter10initFatDirEhm.str1.4	00000000 .rodata._ZN12FatFormatter10initFatDirEhm.str1.4
00000000 l    d  .text._ZN12FatFormatter10initFatDirEhm	00000000 .text._ZN12FatFormatter10initFatDirEhm
00000000 l    d  .text._ZN12FatFormatter7initPbsEv	00000000 .text._ZN12FatFormatter7initPbsEv
00000000 l    d  .text._ZN12FatFormatter8writeMbrEv	00000000 .text._ZN12FatFormatter8writeMbrEv
00000000 l    d  .rodata._ZN12FatFormatter9makeFat16Ev.str1.4	00000000 .rodata._ZN12FatFormatter9makeFat16Ev.str1.4
00000000 l    d  .text._ZN12FatFormatter9makeFat16Ev	00000000 .text._ZN12FatFormatter9makeFat16Ev
00000000 l    d  .text._ZN12FatFormatter9makeFat32Ev	00000000 .text._ZN12FatFormatter9makeFat32Ev
00000000 l    d  .rodata._ZN12FatFormatter6formatEP22FsBlockDeviceInterfacePhP5Print.str1.4	00000000 .rodata._ZN12FatFormatter6formatEP22FsBlockDeviceInterfacePhP5Print.str1.4
00000000 l    d  .text._ZN12FatFormatter6formatEP22FsBlockDeviceInterfacePhP5Print	00000000 .text._ZN12FatFormatter6formatEP22FsBlockDeviceInterfacePhP5Print
00000000 l    d  .comment	00000000 .comment
00000000 l    d  .ARM.attributes	00000000 .ARM.attributes
00000000 l    d  .group	00000000 .group
00000000  w    F .text._ZN22FsBlockDeviceInterface20writeSectorsCallbackEmjPFPKhmPvES2_	0000003a _ZN22FsBlockDeviceInterface20writeSectorsCallbackEmjPFPKhmPvES2_
00000000 g     F .text._ZN12FatFormatter10initFatDirEhm	00000120 _ZN12FatFormatter10initFatDirEhm
00000000         *UND*	00000000 memset
00000000 g     F .text._ZN12FatFormatter7initPbsEv	00000056 _ZN12FatFormatter7initPbsEv
00000000 g     F .text._ZN12FatFormatter8writeMbrEv	0000005c _ZN12FatFormatter8writeMbrEv
00000000         *UND*	00000000 _Z11lbaToMbrChsPhmm
00000000 g     F .text._ZN12FatFormatter9makeFat16Ev	0000011c _ZN12FatFormatter9makeFat16Ev
00000000 g     F .text._ZN12FatFormatter9makeFat32Ev	000001c4 _ZN12FatFormatter9makeFat32Ev
00000000 g     F .text._ZN12FatFormatter6formatEP22FsBlockDeviceInterfacePhP5Print	000000b4 _ZN12FatFormatter6formatEP22FsBlockDeviceInterfacePhP5Print


Contents of section .group:
 0000 01000000 05000000                    ........        
Contents of section .text._ZN22FsBlockDeviceInterface20writeSectorsCallbackEmjPFPKhmPvES2_:
 0000 2de9f843 ddf82090 a2b10546 0c469846  -..C.. ....F.F.F
 0010 571801e0 bc420dd0 2b682046 49465e6a  W....B..+h FIF^j
 0020 c0472146 02462846 0134b047 0028f1d1  .G!F.F(F.4.G.(..
 0030 bde8f883 0120bde8 f88300bf           ..... ......    
Contents of section .rodata._ZL18initFatDirCallbackmPv.str1.4:
 0000 2e00                                 ..              
Contents of section .text._ZL18initFatDirCallbackmPv:
 0000 486810b5 0c4630b1 0b894a89 01339bb2  Hh...F0...J..3..
 0010 9a420b81 01d92068 10bd0368 01220349  .B.... h...h.".I
 0020 5b689847 00232068 238110bd 00000000  [h.G.# h#.......
Contents of section .rodata._ZN12FatFormatter10initFatDirEhm.str1.4:
 0000 57726974 696e6720 46415420 00000000  Writing FAT ....
 0010 0d0a00                               ...             
Contents of section .text._ZN12FatFormatter10initFatDirEhm:
 0000 2de9f04f 054687b0 88469246 00214ff4  -..O.F...F.F.!O.
 0010 0072406a fff7feff 286a28b1 03680c22  .r@j....(j(..h."
 0020 3a495b68 9847286a 6b6a4ff0 0009ee69  :I[h.G(jkjO....i
 0030 0af1ff32 dff8e0c0 e968adf8 14904c1c  ...2.....h....L.
 0040 cde90330 4fea5a13 adf81630 3368df6a  ...0O.Z....03h.j
 0050 674526d1 6ab301eb 0a07dff8 c0a00ae0  gE&.j...........
 0060 2146039a 30460134 d8470028 3fd0a742  !F..0F.4.G.(?..B
 0070 1ed03368 0498d3f8 24b00028 f0d0bdf8  ..3h....$..(....
 0080 1430bdf8 16200133 9bb29a42 adf81430  .0... .3...B...0
 0090 e6d80368 51460122 5b689847 adf81490  ...hQF."[h.G....
 00a0 dee703ab 21463046 0093194b b847f0b1  ....!F0F...K.G..
 00b0 286a20b1 03680222 16495b68 9847b8f1  (j ..h.".I[h.G..
 00c0 100f4ff0 f8016a6a 4ff00103 0cbf0420  ..O...jjO...... 
 00d0 0c201170 ff216a6a d1540133 9842fad1  . .p.!jj.T.3.B..
 00e0 e8696a6a 0368e968 5b6a9847 18b90020  .ijj.h.h[j.G... 
 00f0 07b0bde8 f08fd5e9 0231e869 19446a6a  .........1.i.Djj
 0100 03685b6a 984707b0 bde8f08f 00000000  .h[j.G..........
 0110 00000000 10000000 00000000 00000000  ................
Contents of section .text._ZN12FatFormatter7initPbsEv:
 0000 38b5436a 4ff40075 04460021 2a461846  8.CjO..u.F.!*F.F
 0010 fff7feff 4ff02031 eb22a0f8 0b50c0f8  ....O. 1."...P..
 0020 03100346 c0f80710 90210270 76209970  ...F.....!.pv .p
 0030 02225870 94f82b10 59734af6 5521208d  ."Xp..+.YsJ.U! .
 0040 1a74f822 d8815a75 2269da61 a269a3f8  .t."..Zu"i.a.i..
 0050 fe111a62 38bd00bf                    ...b8...        
Contents of section .text._ZN12FatFormatter8writeMbrEv:
 0000 70b50446 4ff40072 0021406a fff7feff  p..FO..r.!@j....
 0010 656a2269 216805f2 bf10fff7 feffa369  ej"i!h.........i
 0020 226905f2 c3102168 1a44013a fff7feff  "i....!h.D.:....
 0030 94f82a20 4af65523 85f8c221 2269e069  ..* J.U#...!"i.i
 0040 c5f8c621 626aa169 a5f8fe31 0368c5f8  ...!bj.i...1.h..
 0050 ca110021 5b6abde8 70401847           ...![j..p@.G    
Contents of section .rodata._ZN12FatFormatter9makeFat16Ev.str1.4:
 0000 42616420 636c7573 74657220 636f756e  Bad cluster coun
 0010 740d0a00                             t...            
Contents of section .text._ZN12FatFormatter9makeFat16Ev:
 0000 70b54669 4ff48073 90f82be0 0446a6f5  p.FiO..s..+..F..
 0010 8072456a 4360b2fb fef202f2 011c4fea  .rEjC`........O.
 0020 1c214fea 410c8160 0cf1a100 98420ed9  .!O.A..`.....B..
 0030 8033f21a b2fbfef2 02f20111 090a4fea  .3............O.
 0040 410c0cf1 a1008342 f2d3c4e9 01311b1a  A......B.....1..
 0050 a2f6f571 03f18000 b1f5704f 20614fd2  ...q......pO aO.
 0060 0cf1210c 81332046 02fb0ec2 e360b2f5  ..!..3 F.....`..
 0070 803fa261 34bf0423 062384f8 2a300123  .?.a4..#.#..*0.#
 0080 2385fff7 feff08b9 002070bd 2046fff7  #........ p. F..
 0090 feff2922 a1684ff0 203385f8 26204622  ..)".hO. 3..& F"
 00a0 c5f82f30 802085f8 36205422 c5f82b30  ../0. ..6 T"..+0
 00b0 c5f83230 312385f8 38203622 e9824121  ..201#..8 6"..A!
 00c0 85f83930 85f83710 4ff40071 85f82400  ..90..7.O..q..$.
 00d0 85f83a20 0f4be069 c5f82730 0368a5f8  ..: .K.i..'0.h..
 00e0 1110626a 21695b6a 98470028 ccd06268  ..bj!i[j.G.(..bh
 00f0 2046e368 1021d21a bde87040 fff7febf   F.h.!....p@....
 0100 206a0028 c0d00368 13220349 5b689847   j.(...h.".I[h.G
 0110 002070bd 87d61200 00000000           . p.........    
Contents of section .text._ZN12FatFormatter9makeFat32Ev:
 0000 f8b54669 4ff40053 90f82bc0 4ff48042  ..FiO..S..+.O..B
 0010 a6f58041 036142f2 090e0446 456a4260  ...A.aB....FEjB`
 0020 b1fbfcf1 01f18103 db098360 0eeb4300  ...........`..C.
 0030 904240f2 b68002f5 0052b11a b1fbfcf1  .B@......R......
 0040 01f18103 db090eeb 43005f00 8242f2d3  ........C._..B..
 0050 c4e90123 4ff6f473 994240f2 978001fb  ...#O..s.B@.....
 0060 0c2ca2f5 00522046 d21b92b2 02f50053  .,...R F.......S
 0070 22854d4a e360acf5 00539445 94bf4ff0  ".MJ.`...S.E..O.
 0080 0b0c4ff0 0c0ca361 84f82ac0 fff7feff  ..O....a..*.....
 0090 08b90020 f8bd2046 fff7feff a1682922  ... .. F.....h)"
 00a0 4ff02033 80206962 85f84220 54214622  O. 3. ib..B T!F"
 00b0 c5f84b30 85f84000 4120c5f8 4730c5f8  ..K0..@.A ..G0..
 00c0 4e300223 85f85220 332285f8 54103221  N0.#..R 3"..T.2!
 00d0 85f85520 85f85300 85f85610 eb62e069  ..U ..S...V..b.i
 00e0 324b334a 2b630368 c5f84320 5b6a626a  2K3J+c.h..C [jbj
 00f0 21699847 0028ccd0 e0692169 03680631  !i.G.(...i!i.h.1
 0100 626a5b6a 98470028 c3d04ff4 00720021  bj[j.G.(..O..r.!
 0110 606afff7 feffe069 264a0368 c5f8fc21  `j.....i&J.h...!
 0120 21695b6a 0231626a 98470028 b1d0e069  !i[j.1bj.G.(...i
 0130 21690368 0831626a 5b6a9847 0028a8d0  !i.h.1bj[j.G.(..
 0140 4ff0ff33 e0691c4a c5e97a33 1b4b2a60  O..3.i.J..z3.K*`
 0150 c5f8e431 03682169 626a5b6a 01319847  ...1.h!ibj[j.1.G
 0160 002896d0 e0692169 0368626a 07315b6a  .(...i!i.hbj.1[j
 0170 98470028 8dd0a268 204694f8 2b302021  .G.(...h F..+0 !
 0180 03eb4202 bde8f840 fff7febf 206a0028  ..B....@.... j.(
 0190 3ff47faf 03681322 09495b68 98470020  ?....h.".I[h.G. 
 01a0 f8bd5f00 56e700bf 0004fb00 01000600  .._.V...........
 01b0 87d61200 000055aa 52526141 72724161  ......U.RRaArrAa
 01c0 00000000                             ....            
Contents of section .rodata._ZN12FatFormatter6formatEP22FsBlockDeviceInterfacePhP5Print.str1.4:
 0000 43617264 20697320 746f6f20 736d616c  Card is too smal
 0010 6c2e0d0a 00000000 466f726d 61742044  l.......Format D
 0020 6f6e650d 0a000000 466f726d 61742046  one.....Format F
 0030 61696c65 640d0a00                    ailed...        
Contents of section .text._ZN12FatFormatter6formatEP22FsBlockDeviceInterfacePhP5Print:
 0000 38b50446 0d68c161 08466262 ea692362  8..F.h.a.Fbb.i#b
 0010 904700f2 ff736061 db0a062b 236024d9  .G...s`a...+#`$.
 0020 102b13d8 0223b0f5 800f84f8 2b302046  .+...#......+0 F
 0030 2ed2fff7 feff0546 206a05b3 20b10368  .......F j.. ..h
 0040 0d221949 5b689847 284638bd 202b23d9  .".I[h.G(F8. +#.
 0050 402b23d9 802b23d9 b3f5806f 22d9b3f5  @+#..+#....o"...
 0060 004f8cbf 80234023 dde7206a 20b10368  .O...#@#.. j ..h
 0070 14220e49 5b689847 00252846 38bd0028  .".I[h.G.%(F8..(
 0080 fad00368 0f220a49 5b689847 284638bd  ...h.".I[h.G(F8.
 0090 fff7feff 0546cfe7 0423c4e7 0823c2e7  .....F...#...#..
 00a0 1023c0e7 2023bee7 18000000 00000000  .#.. #..........
 00b0 28000000                             (...            
Contents of section .comment:
 0000 00474343 3a202841 726d2047 4e552054  .GCC: (Arm GNU T
 0010 6f6f6c63 6861696e 2031312e 332e5265  oolchain 11.3.Re
 0020 6c312920 31312e33 2e312032 30323230  l1) 11.3.1 20220
 0030 37313200                             712.            
Contents of section .ARM.attributes:
 0000 41310000 00616561 62690001 27000000  A1...aeabi..'...
 0010 0537452d 4d00060d 074d0902 0a081204  .7E-M....M......
 0020 14011501 17031801 19011a01 1c011e02  ................
 0030 2201                                 ".              

Disassembly of section .text._ZN22FsBlockDeviceInterface20writeSectorsCallbackEmjPFPKhmPvES2_:

00000000 <_ZN22FsBlockDeviceInterface20writeSectorsCallbackEmjPFPKhmPvES2_>:
   0:	e92d 43f8 	stmdb	sp!, {r3, r4, r5, r6, r7, r8, r9, lr}
   4:	f8dd 9020 	ldr.w	r9, [sp, #32]
   8:	b1a2      	cbz	r2, 34 <_ZN22FsBlockDeviceInterface20writeSectorsCallbackEmjPFPKhmPvES2_+0x34>
   a:	4605      	mov	r5, r0
   c:	460c      	mov	r4, r1
   e:	4698      	mov	r8, r3
  10:	1857      	adds	r7, r2, r1
  12:	e001      	b.n	18 <_ZN22FsBlockDeviceInterface20writeSectorsCallbackEmjPFPKhmPvES2_+0x18>
  14:	42bc      	cmp	r4, r7
  16:	d00d      	beq.n	34 <_ZN22FsBlockDeviceInterface20writeSectorsCallbackEmjPFPKhmPvES2_+0x34>
  18:	682b      	ldr	r3, [r5, #0]
  1a:	4620      	mov	r0, r4
  1c:	4649      	mov	r1, r9
  1e:	6a5e      	ldr	r6, [r3, #36]	; 0x24
  20:	47c0      	blx	r8
  22:	4621      	mov	r1, r4
  24:	4602      	mov	r2, r0
  26:	4628      	mov	r0, r5
  28:	3401      	adds	r4, #1
  2a:	47b0      	blx	r6
  2c:	2800      	cmp	r0, #0
  2e:	d1f1      	bne.n	14 <_ZN22FsBlockDeviceInterface20writeSectorsCallbackEmjPFPKhmPvES2_+0x14>
  30:	e8bd 83f8 	ldmia.w	sp!, {r3, r4, r5, r6, r7, r8, r9, pc}
  34:	2001      	movs	r0, #1
  36:	e8bd 83f8 	ldmia.w	sp!, {r3, r4, r5, r6, r7, r8, r9, pc}
  3a:	bf00      	nop

Disassembly of section .text._ZL18initFatDirCallbackmPv:

00000000 <_ZL18initFatDirCallbackmPv>:
   0:	6848      	ldr	r0, [r1, #4]
   2:	b510      	push	{r4, lr}
   4:	460c      	mov	r4, r1
   6:	b130      	cbz	r0, 16 <_ZL18initFatDirCallbackmPv+0x16>
   8:	890b      	ldrh	r3, [r1, #8]
   a:	894a      	ldrh	r2, [r1, #10]
   c:	3301      	adds	r3, #1
   e:	b29b      	uxth	r3, r3
  10:	429a      	cmp	r2, r3
  12:	810b      	strh	r3, [r1, #8]
  14:	d901      	bls.n	1a <_ZL18initFatDirCallbackmPv+0x1a>
  16:	6820      	ldr	r0, [r4, #0]
  18:	bd10      	pop	{r4, pc}
  1a:	6803      	ldr	r3, [r0, #0]
  1c:	2201      	movs	r2, #1
  1e:	4903      	ldr	r1, [pc, #12]	; (2c <_ZL18initFatDirCallbackmPv+0x2c>)
  20:	685b      	ldr	r3, [r3, #4]
  22:	4798      	blx	r3
  24:	2300      	movs	r3, #0
  26:	6820      	ldr	r0, [r4, #0]
  28:	8123      	strh	r3, [r4, #8]
  2a:	bd10      	pop	{r4, pc}
  2c:	00000000 	.word	0x00000000

Disassembly of section .text._ZN12FatFormatter10initFatDirEhm:

00000000 <_ZN12FatFormatter10initFatDirEhm>:
   0:	e92d 4ff0 	stmdb	sp!, {r4, r5, r6, r7, r8, r9, sl, fp, lr}
   4:	4605      	mov	r5, r0
   6:	b087      	sub	sp, #28
   8:	4688      	mov	r8, r1
   a:	4692      	mov	sl, r2
   c:	2100      	movs	r1, #0
   e:	f44f 7200 	mov.w	r2, #512	; 0x200
  12:	6a40      	ldr	r0, [r0, #36]	; 0x24
  14:	f7ff fffe 	bl	0 <memset>
  18:	6a28      	ldr	r0, [r5, #32]
  1a:	b128      	cbz	r0, 28 <_ZN12FatFormatter10initFatDirEhm+0x28>
  1c:	6803      	ldr	r3, [r0, #0]
  1e:	220c      	movs	r2, #12
  20:	493a      	ldr	r1, [pc, #232]	; (10c <_ZN12FatFormatter10initFatDirEhm+0x10c>)
  22:	685b      	ldr	r3, [r3, #4]
  24:	4798      	blx	r3
  26:	6a28      	ldr	r0, [r5, #32]
  28:	6a6b      	ldr	r3, [r5, #36]	; 0x24
  2a:	f04f 0900 	mov.w	r9, #0
  2e:	69ee      	ldr	r6, [r5, #28]
  30:	f10a 32ff 	add.w	r2, sl, #4294967295	; 0xffffffff
  34:	f8df c0e0 	ldr.w	ip, [pc, #224]	; 118 <_ZN12FatFormatter10initFatDirEhm+0x118>
  38:	68e9      	ldr	r1, [r5, #12]
  3a:	f8ad 9014 	strh.w	r9, [sp, #20]
  3e:	1c4c      	adds	r4, r1, #1
  40:	e9cd 3003 	strd	r3, r0, [sp, #12]
  44:	ea4f 135a 	mov.w	r3, sl, lsr #5
  48:	f8ad 3016 	strh.w	r3, [sp, #22]
  4c:	6833      	ldr	r3, [r6, #0]
  4e:	6adf      	ldr	r7, [r3, #44]	; 0x2c
  50:	4567      	cmp	r7, ip
  52:	d126      	bne.n	a2 <_ZN12FatFormatter10initFatDirEhm+0xa2>
  54:	b36a      	cbz	r2, b2 <_ZN12FatFormatter10initFatDirEhm+0xb2>
  56:	eb01 070a 	add.w	r7, r1, sl
  5a:	f8df a0c0 	ldr.w	sl, [pc, #192]	; 11c <_ZN12FatFormatter10initFatDirEhm+0x11c>
  5e:	e00a      	b.n	76 <_ZN12FatFormatter10initFatDirEhm+0x76>
  60:	4621      	mov	r1, r4
  62:	9a03      	ldr	r2, [sp, #12]
  64:	4630      	mov	r0, r6
  66:	3401      	adds	r4, #1
  68:	47d8      	blx	fp
  6a:	2800      	cmp	r0, #0
  6c:	d03f      	beq.n	ee <_ZN12FatFormatter10initFatDirEhm+0xee>
  6e:	42a7      	cmp	r7, r4
  70:	d01e      	beq.n	b0 <_ZN12FatFormatter10initFatDirEhm+0xb0>
  72:	6833      	ldr	r3, [r6, #0]
  74:	9804      	ldr	r0, [sp, #16]
  76:	f8d3 b024 	ldr.w	fp, [r3, #36]	; 0x24
  7a:	2800      	cmp	r0, #0
  7c:	d0f0      	beq.n	60 <_ZN12FatFormatter10initFatDirEhm+0x60>
  7e:	f8bd 3014 	ldrh.w	r3, [sp, #20]
  82:	f8bd 2016 	ldrh.w	r2, [sp, #22]
  86:	3301      	adds	r3, #1
  88:	b29b      	uxth	r3, r3
  8a:	429a      	cmp	r2, r3
  8c:	f8ad 3014 	strh.w	r3, [sp, #20]
  90:	d8e6      	bhi.n	60 <_ZN12FatFormatter10initFatDirEhm+0x60>
  92:	6803      	ldr	r3, [r0, #0]
  94:	4651      	mov	r1, sl
  96:	2201      	movs	r2, #1
  98:	685b      	ldr	r3, [r3, #4]
  9a:	4798      	blx	r3
  9c:	f8ad 9014 	strh.w	r9, [sp, #20]
  a0:	e7de      	b.n	60 <_ZN12FatFormatter10initFatDirEhm+0x60>
  a2:	ab03      	add	r3, sp, #12
  a4:	4621      	mov	r1, r4
  a6:	4630      	mov	r0, r6
  a8:	9300      	str	r3, [sp, #0]
  aa:	4b19      	ldr	r3, [pc, #100]	; (110 <_ZN12FatFormatter10initFatDirEhm+0x110>)
  ac:	47b8      	blx	r7
  ae:	b1f0      	cbz	r0, ee <_ZN12FatFormatter10initFatDirEhm+0xee>
  b0:	6a28      	ldr	r0, [r5, #32]
  b2:	b120      	cbz	r0, be <_ZN12FatFormatter10initFatDirEhm+0xbe>
  b4:	6803      	ldr	r3, [r0, #0]
  b6:	2202      	movs	r2, #2
  b8:	4916      	ldr	r1, [pc, #88]	; (114 <_ZN12FatFormatter10initFatDirEhm+0x114>)
  ba:	685b      	ldr	r3, [r3, #4]
  bc:	4798      	blx	r3
  be:	f1b8 0f10 	cmp.w	r8, #16
  c2:	f04f 01f8 	mov.w	r1, #248	; 0xf8
  c6:	6a6a      	ldr	r2, [r5, #36]	; 0x24
  c8:	f04f 0301 	mov.w	r3, #1
  cc:	bf0c      	ite	eq
  ce:	2004      	moveq	r0, #4
  d0:	200c      	movne	r0, #12
  d2:	7011      	strb	r1, [r2, #0]
  d4:	21ff      	movs	r1, #255	; 0xff
  d6:	6a6a      	ldr	r2, [r5, #36]	; 0x24
  d8:	54d1      	strb	r1, [r2, r3]
  da:	3301      	adds	r3, #1
  dc:	4298      	cmp	r0, r3
  de:	d1fa      	bne.n	d6 <_ZN12FatFormatter10initFatDirEhm+0xd6>
  e0:	69e8      	ldr	r0, [r5, #28]
  e2:	6a6a      	ldr	r2, [r5, #36]	; 0x24
  e4:	6803      	ldr	r3, [r0, #0]
  e6:	68e9      	ldr	r1, [r5, #12]
  e8:	6a5b      	ldr	r3, [r3, #36]	; 0x24
  ea:	4798      	blx	r3
  ec:	b918      	cbnz	r0, f6 <_ZN12FatFormatter10initFatDirEhm+0xf6>
  ee:	2000      	movs	r0, #0
  f0:	b007      	add	sp, #28
  f2:	e8bd 8ff0 	ldmia.w	sp!, {r4, r5, r6, r7, r8, r9, sl, fp, pc}
  f6:	e9d5 3102 	ldrd	r3, r1, [r5, #8]
  fa:	69e8      	ldr	r0, [r5, #28]
  fc:	4419      	add	r1, r3
  fe:	6a6a      	ldr	r2, [r5, #36]	; 0x24
 100:	6803      	ldr	r3, [r0, #0]
 102:	6a5b      	ldr	r3, [r3, #36]	; 0x24
 104:	4798      	blx	r3
 106:	b007      	add	sp, #28
 108:	e8bd 8ff0 	ldmia.w	sp!, {r4, r5, r6, r7, r8, r9, sl, fp, pc}
 10c:	00000000 	.word	0x00000000
 110:	00000000 	.word	0x00000000
 114:	00000010 	.word	0x00000010
 118:	00000000 	.word	0x00000000
 11c:	00000000 	.word	0x00000000

Disassembly of section .text._ZN12FatFormatter7initPbsEv:

00000000 <_ZN12FatFormatter7initPbsEv>:
   0:	b538      	push	{r3, r4, r5, lr}
   2:	6a43      	ldr	r3, [r0, #36]	; 0x24
   4:	f44f 7500 	mov.w	r5, #512	; 0x200
   8:	4604      	mov	r4, r0
   a:	2100      	movs	r1, #0
   c:	462a      	mov	r2, r5
   e:	4618      	mov	r0, r3
  10:	f7ff fffe 	bl	0 <memset>
  14:	f04f 3120 	mov.w	r1, #538976288	; 0x20202020
  18:	22eb      	movs	r2, #235	; 0xeb
  1a:	f8a0 500b 	strh.w	r5, [r0, #11]
  1e:	f8c0 1003 	str.w	r1, [r0, #3]
  22:	4603      	mov	r3, r0
  24:	f8c0 1007 	str.w	r1, [r0, #7]
  28:	2190      	movs	r1, #144	; 0x90
  2a:	7002      	strb	r2, [r0, #0]
  2c:	2076      	movs	r0, #118	; 0x76
  2e:	7099      	strb	r1, [r3, #2]
  30:	2202      	movs	r2, #2
  32:	7058      	strb	r0, [r3, #1]
  34:	f894 102b 	ldrb.w	r1, [r4, #43]	; 0x2b
  38:	7359      	strb	r1, [r3, #13]
  3a:	f64a 2155 	movw	r1, #43605	; 0xaa55
  3e:	8d20      	ldrh	r0, [r4, #40]	; 0x28
  40:	741a      	strb	r2, [r3, #16]
  42:	22f8      	movs	r2, #248	; 0xf8
  44:	81d8      	strh	r0, [r3, #14]
  46:	755a      	strb	r2, [r3, #21]
  48:	6922      	ldr	r2, [r4, #16]
  4a:	61da      	str	r2, [r3, #28]
  4c:	69a2      	ldr	r2, [r4, #24]
  4e:	f8a3 11fe 	strh.w	r1, [r3, #510]	; 0x1fe
  52:	621a      	str	r2, [r3, #32]
  54:	bd38      	pop	{r3, r4, r5, pc}
  56:	bf00      	nop

Disassembly of section .text._ZN12FatFormatter8writeMbrEv:

00000000 <_ZN12FatFormatter8writeMbrEv>:
   0:	b570      	push	{r4, r5, r6, lr}
   2:	4604      	mov	r4, r0
   4:	f44f 7200 	mov.w	r2, #512	; 0x200
   8:	2100      	movs	r1, #0
   a:	6a40      	ldr	r0, [r0, #36]	; 0x24
   c:	f7ff fffe 	bl	0 <memset>
  10:	6a65      	ldr	r5, [r4, #36]	; 0x24
  12:	6922      	ldr	r2, [r4, #16]
  14:	6821      	ldr	r1, [r4, #0]
  16:	f205 10bf 	addw	r0, r5, #447	; 0x1bf
  1a:	f7ff fffe 	bl	0 <_Z11lbaToMbrChsPhmm>
  1e:	69a3      	ldr	r3, [r4, #24]
  20:	6922      	ldr	r2, [r4, #16]
  22:	f205 10c3 	addw	r0, r5, #451	; 0x1c3
  26:	6821      	ldr	r1, [r4, #0]
  28:	441a      	add	r2, r3
  2a:	3a01      	subs	r2, #1
  2c:	f7ff fffe 	bl	0 <_Z11lbaToMbrChsPhmm>
  30:	f894 202a 	ldrb.w	r2, [r4, #42]	; 0x2a
  34:	f64a 2355 	movw	r3, #43605	; 0xaa55
  38:	f885 21c2 	strb.w	r2, [r5, #450]	; 0x1c2
  3c:	6922      	ldr	r2, [r4, #16]
  3e:	69e0      	ldr	r0, [r4, #28]
  40:	f8c5 21c6 	str.w	r2, [r5, #454]	; 0x1c6
  44:	6a62      	ldr	r2, [r4, #36]	; 0x24
  46:	69a1      	ldr	r1, [r4, #24]
  48:	f8a5 31fe 	strh.w	r3, [r5, #510]	; 0x1fe
  4c:	6803      	ldr	r3, [r0, #0]
  4e:	f8c5 11ca 	str.w	r1, [r5, #458]	; 0x1ca
  52:	2100      	movs	r1, #0
  54:	6a5b      	ldr	r3, [r3, #36]	; 0x24
  56:	e8bd 4070 	ldmia.w	sp!, {r4, r5, r6, lr}
  5a:	4718      	bx	r3

Disassembly of section .text._ZN12FatFormatter9makeFat16Ev:

00000000 <_ZN12FatFormatter9makeFat16Ev>:
   0:	b570      	push	{r4, r5, r6, lr}
   2:	6946      	ldr	r6, [r0, #20]
   4:	f44f 7380 	mov.w	r3, #256	; 0x100
   8:	f890 e02b 	ldrb.w	lr, [r0, #43]	; 0x2b
   c:	4604      	mov	r4, r0
   e:	f5a6 7280 	sub.w	r2, r6, #256	; 0x100
  12:	6a45      	ldr	r5, [r0, #36]	; 0x24
  14:	6043      	str	r3, [r0, #4]
  16:	fbb2 f2fe 	udiv	r2, r2, lr
  1a:	f202 1c01 	addw	ip, r2, #257	; 0x101
  1e:	ea4f 211c 	mov.w	r1, ip, lsr #8
  22:	ea4f 0c41 	mov.w	ip, r1, lsl #1
  26:	6081      	str	r1, [r0, #8]
  28:	f10c 00a1 	add.w	r0, ip, #161	; 0xa1
  2c:	4298      	cmp	r0, r3
  2e:	d90e      	bls.n	4e <_ZN12FatFormatter9makeFat16Ev+0x4e>
  30:	3380      	adds	r3, #128	; 0x80
  32:	1af2      	subs	r2, r6, r3
  34:	fbb2 f2fe 	udiv	r2, r2, lr
  38:	f202 1101 	addw	r1, r2, #257	; 0x101
  3c:	0a09      	lsrs	r1, r1, #8
  3e:	ea4f 0c41 	mov.w	ip, r1, lsl #1
  42:	f10c 00a1 	add.w	r0, ip, #161	; 0xa1
  46:	4283      	cmp	r3, r0
  48:	d3f2      	bcc.n	30 <_ZN12FatFormatter9makeFat16Ev+0x30>
  4a:	e9c4 3101 	strd	r3, r1, [r4, #4]
  4e:	1a1b      	subs	r3, r3, r0
  50:	f6a2 71f5 	subw	r1, r2, #4085	; 0xff5
  54:	f103 0080 	add.w	r0, r3, #128	; 0x80
  58:	f5b1 4f70 	cmp.w	r1, #61440	; 0xf000
  5c:	6120      	str	r0, [r4, #16]
  5e:	d24f      	bcs.n	100 <_ZN12FatFormatter9makeFat16Ev+0x100>
  60:	f10c 0c21 	add.w	ip, ip, #33	; 0x21
  64:	3381      	adds	r3, #129	; 0x81
  66:	4620      	mov	r0, r4
  68:	fb02 c20e 	mla	r2, r2, lr, ip
  6c:	60e3      	str	r3, [r4, #12]
  6e:	f5b2 3f80 	cmp.w	r2, #65536	; 0x10000
  72:	61a2      	str	r2, [r4, #24]
  74:	bf34      	ite	cc
  76:	2304      	movcc	r3, #4
  78:	2306      	movcs	r3, #6
  7a:	f884 302a 	strb.w	r3, [r4, #42]	; 0x2a
  7e:	2301      	movs	r3, #1
  80:	8523      	strh	r3, [r4, #40]	; 0x28
  82:	f7ff fffe 	bl	0 <_ZN12FatFormatter9makeFat16Ev>
  86:	b908      	cbnz	r0, 8c <_ZN12FatFormatter9makeFat16Ev+0x8c>
  88:	2000      	movs	r0, #0
  8a:	bd70      	pop	{r4, r5, r6, pc}
  8c:	4620      	mov	r0, r4
  8e:	f7ff fffe 	bl	0 <_ZN12FatFormatter9makeFat16Ev>
  92:	2229      	movs	r2, #41	; 0x29
  94:	68a1      	ldr	r1, [r4, #8]
  96:	f04f 3320 	mov.w	r3, #538976288	; 0x20202020
  9a:	f885 2026 	strb.w	r2, [r5, #38]	; 0x26
  9e:	2246      	movs	r2, #70	; 0x46
  a0:	f8c5 302f 	str.w	r3, [r5, #47]	; 0x2f
  a4:	2080      	movs	r0, #128	; 0x80
  a6:	f885 2036 	strb.w	r2, [r5, #54]	; 0x36
  aa:	2254      	movs	r2, #84	; 0x54
  ac:	f8c5 302b 	str.w	r3, [r5, #43]	; 0x2b
  b0:	f8c5 3032 	str.w	r3, [r5, #50]	; 0x32
  b4:	2331      	movs	r3, #49	; 0x31
  b6:	f885 2038 	strb.w	r2, [r5, #56]	; 0x38
  ba:	2236      	movs	r2, #54	; 0x36
  bc:	82e9      	strh	r1, [r5, #22]
  be:	2141      	movs	r1, #65	; 0x41
  c0:	f885 3039 	strb.w	r3, [r5, #57]	; 0x39
  c4:	f885 1037 	strb.w	r1, [r5, #55]	; 0x37
  c8:	f44f 7100 	mov.w	r1, #512	; 0x200
  cc:	f885 0024 	strb.w	r0, [r5, #36]	; 0x24
  d0:	f885 203a 	strb.w	r2, [r5, #58]	; 0x3a
  d4:	4b0f      	ldr	r3, [pc, #60]	; (114 <_ZN12FatFormatter9makeFat16Ev+0x114>)
  d6:	69e0      	ldr	r0, [r4, #28]
  d8:	f8c5 3027 	str.w	r3, [r5, #39]	; 0x27
  dc:	6803      	ldr	r3, [r0, #0]
  de:	f8a5 1011 	strh.w	r1, [r5, #17]
  e2:	6a62      	ldr	r2, [r4, #36]	; 0x24
  e4:	6921      	ldr	r1, [r4, #16]
  e6:	6a5b      	ldr	r3, [r3, #36]	; 0x24
  e8:	4798      	blx	r3
  ea:	2800      	cmp	r0, #0
  ec:	d0cc      	beq.n	88 <_ZN12FatFormatter9makeFat16Ev+0x88>
  ee:	6862      	ldr	r2, [r4, #4]
  f0:	4620      	mov	r0, r4
  f2:	68e3      	ldr	r3, [r4, #12]
  f4:	2110      	movs	r1, #16
  f6:	1ad2      	subs	r2, r2, r3
  f8:	e8bd 4070 	ldmia.w	sp!, {r4, r5, r6, lr}
  fc:	f7ff bffe 	b.w	0 <_ZN12FatFormatter9makeFat16Ev>
 100:	6a20      	ldr	r0, [r4, #32]
 102:	2800      	cmp	r0, #0
 104:	d0c0      	beq.n	88 <_ZN12FatFormatter9makeFat16Ev+0x88>
 106:	6803      	ldr	r3, [r0, #0]
 108:	2213      	movs	r2, #19
 10a:	4903      	ldr	r1, [pc, #12]	; (118 <_ZN12FatFormatter9makeFat16Ev+0x118>)
 10c:	685b      	ldr	r3, [r3, #4]
 10e:	4798      	blx	r3
 110:	2000      	movs	r0, #0
 112:	bd70      	pop	{r4, r5, r6, pc}
 114:	0012d687 	.word	0x0012d687
 118:	00000000 	.word	0x00000000

Disassembly of section .text._ZN12FatFormatter9makeFat32Ev:

00000000 <_ZN12FatFormatter9makeFat32Ev>:
   0:	b5f8      	push	{r3, r4, r5, r6, r7, lr}
   2:	6946      	ldr	r6, [r0, #20]
   4:	f44f 5300 	mov.w	r3, #8192	; 0x2000
   8:	f890 c02b 	ldrb.w	ip, [r0, #43]	; 0x2b
   c:	f44f 4280 	mov.w	r2, #16384	; 0x4000
  10:	f5a6 4180 	sub.w	r1, r6, #16384	; 0x4000
  14:	6103      	str	r3, [r0, #16]
  16:	f242 0e09 	movw	lr, #8201	; 0x2009
  1a:	4604      	mov	r4, r0
  1c:	6a45      	ldr	r5, [r0, #36]	; 0x24
  1e:	6042      	str	r2, [r0, #4]
  20:	fbb1 f1fc 	udiv	r1, r1, ip
  24:	f101 0381 	add.w	r3, r1, #129	; 0x81
  28:	09db      	lsrs	r3, r3, #7
  2a:	6083      	str	r3, [r0, #8]
  2c:	eb0e 0043 	add.w	r0, lr, r3, lsl #1
  30:	4290      	cmp	r0, r2
  32:	f240 80b6 	bls.w	1a2 <_ZN12FatFormatter9makeFat32Ev+0x1a2>
  36:	f502 5200 	add.w	r2, r2, #8192	; 0x2000
  3a:	1ab1      	subs	r1, r6, r2
  3c:	fbb1 f1fc 	udiv	r1, r1, ip
  40:	f101 0381 	add.w	r3, r1, #129	; 0x81
  44:	09db      	lsrs	r3, r3, #7
  46:	eb0e 0043 	add.w	r0, lr, r3, lsl #1
  4a:	005f      	lsls	r7, r3, #1
  4c:	4282      	cmp	r2, r0
  4e:	d3f2      	bcc.n	36 <_ZN12FatFormatter9makeFat32Ev+0x36>
  50:	e9c4 2301 	strd	r2, r3, [r4, #4]
  54:	f64f 73f4 	movw	r3, #65524	; 0xfff4
  58:	4299      	cmp	r1, r3
  5a:	f240 8097 	bls.w	18c <_ZN12FatFormatter9makeFat32Ev+0x18c>
  5e:	fb01 2c0c 	mla	ip, r1, ip, r2
  62:	f5a2 5200 	sub.w	r2, r2, #8192	; 0x2000
  66:	4620      	mov	r0, r4
  68:	1bd2      	subs	r2, r2, r7
  6a:	b292      	uxth	r2, r2
  6c:	f502 5300 	add.w	r3, r2, #8192	; 0x2000
  70:	8522      	strh	r2, [r4, #40]	; 0x28
  72:	4a4d      	ldr	r2, [pc, #308]	; (1a8 <_ZN12FatFormatter9makeFat32Ev+0x1a8>)
  74:	60e3      	str	r3, [r4, #12]
  76:	f5ac 5300 	sub.w	r3, ip, #8192	; 0x2000
  7a:	4594      	cmp	ip, r2
  7c:	bf94      	ite	ls
  7e:	f04f 0c0b 	movls.w	ip, #11
  82:	f04f 0c0c 	movhi.w	ip, #12
  86:	61a3      	str	r3, [r4, #24]
  88:	f884 c02a 	strb.w	ip, [r4, #42]	; 0x2a
  8c:	f7ff fffe 	bl	0 <_ZN12FatFormatter9makeFat32Ev>
  90:	b908      	cbnz	r0, 96 <_ZN12FatFormatter9makeFat32Ev+0x96>
  92:	2000      	movs	r0, #0
  94:	bdf8      	pop	{r3, r4, r5, r6, r7, pc}
  96:	4620      	mov	r0, r4
  98:	f7ff fffe 	bl	0 <_ZN12FatFormatter9makeFat32Ev>
  9c:	68a1      	ldr	r1, [r4, #8]
  9e:	2229      	movs	r2, #41	; 0x29
  a0:	f04f 3320 	mov.w	r3, #538976288	; 0x20202020
  a4:	2080      	movs	r0, #128	; 0x80
  a6:	6269      	str	r1, [r5, #36]	; 0x24
  a8:	f885 2042 	strb.w	r2, [r5, #66]	; 0x42
  ac:	2154      	movs	r1, #84	; 0x54
  ae:	2246      	movs	r2, #70	; 0x46
  b0:	f8c5 304b 	str.w	r3, [r5, #75]	; 0x4b
  b4:	f885 0040 	strb.w	r0, [r5, #64]	; 0x40
  b8:	2041      	movs	r0, #65	; 0x41
  ba:	f8c5 3047 	str.w	r3, [r5, #71]	; 0x47
  be:	f8c5 304e 	str.w	r3, [r5, #78]	; 0x4e
  c2:	2302      	movs	r3, #2
  c4:	f885 2052 	strb.w	r2, [r5, #82]	; 0x52
  c8:	2233      	movs	r2, #51	; 0x33
  ca:	f885 1054 	strb.w	r1, [r5, #84]	; 0x54
  ce:	2132      	movs	r1, #50	; 0x32
  d0:	f885 2055 	strb.w	r2, [r5, #85]	; 0x55
  d4:	f885 0053 	strb.w	r0, [r5, #83]	; 0x53
  d8:	f885 1056 	strb.w	r1, [r5, #86]	; 0x56
  dc:	62eb      	str	r3, [r5, #44]	; 0x2c
  de:	69e0      	ldr	r0, [r4, #28]
  e0:	4b32      	ldr	r3, [pc, #200]	; (1ac <_ZN12FatFormatter9makeFat32Ev+0x1ac>)
  e2:	4a33      	ldr	r2, [pc, #204]	; (1b0 <_ZN12FatFormatter9makeFat32Ev+0x1b0>)
  e4:	632b      	str	r3, [r5, #48]	; 0x30
  e6:	6803      	ldr	r3, [r0, #0]
  e8:	f8c5 2043 	str.w	r2, [r5, #67]	; 0x43
  ec:	6a5b      	ldr	r3, [r3, #36]	; 0x24
  ee:	6a62      	ldr	r2, [r4, #36]	; 0x24
  f0:	6921      	ldr	r1, [r4, #16]
  f2:	4798      	blx	r3
  f4:	2800      	cmp	r0, #0
  f6:	d0cc      	beq.n	92 <_ZN12FatFormatter9makeFat32Ev+0x92>
  f8:	69e0      	ldr	r0, [r4, #28]
  fa:	6921      	ldr	r1, [r4, #16]
  fc:	6803      	ldr	r3, [r0, #0]
  fe:	3106      	adds	r1, #6
 100:	6a62      	ldr	r2, [r4, #36]	; 0x24
 102:	6a5b      	ldr	r3, [r3, #36]	; 0x24
 104:	4798      	blx	r3
 106:	2800      	cmp	r0, #0
 108:	d0c3      	beq.n	92 <_ZN12FatFormatter9makeFat32Ev+0x92>
 10a:	f44f 7200 	mov.w	r2, #512	; 0x200
 10e:	2100      	movs	r1, #0
 110:	6a60      	ldr	r0, [r4, #36]	; 0x24
 112:	f7ff fffe 	bl	0 <memset>
 116:	69e0      	ldr	r0, [r4, #28]
 118:	4a26      	ldr	r2, [pc, #152]	; (1b4 <_ZN12FatFormatter9makeFat32Ev+0x1b4>)
 11a:	6803      	ldr	r3, [r0, #0]
 11c:	f8c5 21fc 	str.w	r2, [r5, #508]	; 0x1fc
 120:	6921      	ldr	r1, [r4, #16]
 122:	6a5b      	ldr	r3, [r3, #36]	; 0x24
 124:	3102      	adds	r1, #2
 126:	6a62      	ldr	r2, [r4, #36]	; 0x24
 128:	4798      	blx	r3
 12a:	2800      	cmp	r0, #0
 12c:	d0b1      	beq.n	92 <_ZN12FatFormatter9makeFat32Ev+0x92>
 12e:	69e0      	ldr	r0, [r4, #28]
 130:	6921      	ldr	r1, [r4, #16]
 132:	6803      	ldr	r3, [r0, #0]
 134:	3108      	adds	r1, #8
 136:	6a62      	ldr	r2, [r4, #36]	; 0x24
 138:	6a5b      	ldr	r3, [r3, #36]	; 0x24
 13a:	4798      	blx	r3
 13c:	2800      	cmp	r0, #0
 13e:	d0a8      	beq.n	92 <_ZN12FatFormatter9makeFat32Ev+0x92>
 140:	f04f 33ff 	mov.w	r3, #4294967295	; 0xffffffff
 144:	69e0      	ldr	r0, [r4, #28]
 146:	4a1c      	ldr	r2, [pc, #112]	; (1b8 <_ZN12FatFormatter9makeFat32Ev+0x1b8>)
 148:	e9c5 337a 	strd	r3, r3, [r5, #488]	; 0x1e8
 14c:	4b1b      	ldr	r3, [pc, #108]	; (1bc <_ZN12FatFormatter9makeFat32Ev+0x1bc>)
 14e:	602a      	str	r2, [r5, #0]
 150:	f8c5 31e4 	str.w	r3, [r5, #484]	; 0x1e4
 154:	6803      	ldr	r3, [r0, #0]
 156:	6921      	ldr	r1, [r4, #16]
 158:	6a62      	ldr	r2, [r4, #36]	; 0x24
 15a:	6a5b      	ldr	r3, [r3, #36]	; 0x24
 15c:	3101      	adds	r1, #1
 15e:	4798      	blx	r3
 160:	2800      	cmp	r0, #0
 162:	d096      	beq.n	92 <_ZN12FatFormatter9makeFat32Ev+0x92>
 164:	69e0      	ldr	r0, [r4, #28]
 166:	6921      	ldr	r1, [r4, #16]
 168:	6803      	ldr	r3, [r0, #0]
 16a:	6a62      	ldr	r2, [r4, #36]	; 0x24
 16c:	3107      	adds	r1, #7
 16e:	6a5b      	ldr	r3, [r3, #36]	; 0x24
 170:	4798      	blx	r3
 172:	2800      	cmp	r0, #0
 174:	d08d      	beq.n	92 <_ZN12FatFormatter9makeFat32Ev+0x92>
 176:	68a2      	ldr	r2, [r4, #8]
 178:	4620      	mov	r0, r4
 17a:	f894 302b 	ldrb.w	r3, [r4, #43]	; 0x2b
 17e:	2120      	movs	r1, #32
 180:	eb03 0242 	add.w	r2, r3, r2, lsl #1
 184:	e8bd 40f8 	ldmia.w	sp!, {r3, r4, r5, r6, r7, lr}
 188:	f7ff bffe 	b.w	0 <_ZN12FatFormatter9makeFat32Ev>
 18c:	6a20      	ldr	r0, [r4, #32]
 18e:	2800      	cmp	r0, #0
 190:	f43f af7f 	beq.w	92 <_ZN12FatFormatter9makeFat32Ev+0x92>
 194:	6803      	ldr	r3, [r0, #0]
 196:	2213      	movs	r2, #19
 198:	4909      	ldr	r1, [pc, #36]	; (1c0 <_ZN12FatFormatter9makeFat32Ev+0x1c0>)
 19a:	685b      	ldr	r3, [r3, #4]
 19c:	4798      	blx	r3
 19e:	2000      	movs	r0, #0
 1a0:	bdf8      	pop	{r3, r4, r5, r6, r7, pc}
 1a2:	005f      	lsls	r7, r3, #1
 1a4:	e756      	b.n	54 <_ZN12FatFormatter9makeFat32Ev+0x54>
 1a6:	bf00      	nop
 1a8:	00fb0400 	.word	0x00fb0400
 1ac:	00060001 	.word	0x00060001
 1b0:	0012d687 	.word	0x0012d687
 1b4:	aa550000 	.word	0xaa550000
 1b8:	41615252 	.word	0x41615252
 1bc:	61417272 	.word	0x61417272
 1c0:	00000000 	.word	0x00000000

Disassembly of section .text._ZN12FatFormatter6formatEP22FsBlockDeviceInterfacePhP5Print:

00000000 <_ZN12FatFormatter6formatEP22FsBlockDeviceInterfacePhP5Print>:
   0:	b538      	push	{r3, r4, r5, lr}
   2:	4604      	mov	r4, r0
   4:	680d      	ldr	r5, [r1, #0]
   6:	61c1      	str	r1, [r0, #28]
   8:	4608      	mov	r0, r1
   a:	6262      	str	r2, [r4, #36]	; 0x24
   c:	69ea      	ldr	r2, [r5, #28]
   e:	6223      	str	r3, [r4, #32]
  10:	4790      	blx	r2
  12:	f200 73ff 	addw	r3, r0, #2047	; 0x7ff
  16:	6160      	str	r0, [r4, #20]
  18:	0adb      	lsrs	r3, r3, #11
  1a:	2b06      	cmp	r3, #6
  1c:	6023      	str	r3, [r4, #0]
  1e:	d924      	bls.n	6a <_ZN12FatFormatter6formatEP22FsBlockDeviceInterfacePhP5Print+0x6a>
  20:	2b10      	cmp	r3, #16
  22:	d813      	bhi.n	4c <_ZN12FatFormatter6formatEP22FsBlockDeviceInterfacePhP5Print+0x4c>
  24:	2302      	movs	r3, #2
  26:	f5b0 0f80 	cmp.w	r0, #4194304	; 0x400000
  2a:	f884 302b 	strb.w	r3, [r4, #43]	; 0x2b
  2e:	4620      	mov	r0, r4
  30:	d22e      	bcs.n	90 <_ZN12FatFormatter6formatEP22FsBlockDeviceInterfacePhP5Print+0x90>
  32:	f7ff fffe 	bl	0 <_ZN12FatFormatter6formatEP22FsBlockDeviceInterfacePhP5Print>
  36:	4605      	mov	r5, r0
  38:	6a20      	ldr	r0, [r4, #32]
  3a:	b305      	cbz	r5, 7e <_ZN12FatFormatter6formatEP22FsBlockDeviceInterfacePhP5Print+0x7e>
  3c:	b120      	cbz	r0, 48 <_ZN12FatFormatter6formatEP22FsBlockDeviceInterfacePhP5Print+0x48>
  3e:	6803      	ldr	r3, [r0, #0]
  40:	220d      	movs	r2, #13
  42:	4919      	ldr	r1, [pc, #100]	; (a8 <_ZN12FatFormatter6formatEP22FsBlockDeviceInterfacePhP5Print+0xa8>)
  44:	685b      	ldr	r3, [r3, #4]
  46:	4798      	blx	r3
  48:	4628      	mov	r0, r5
  4a:	bd38      	pop	{r3, r4, r5, pc}
  4c:	2b20      	cmp	r3, #32
  4e:	d923      	bls.n	98 <_ZN12FatFormatter6formatEP22FsBlockDeviceInterfacePhP5Print+0x98>
  50:	2b40      	cmp	r3, #64	; 0x40
  52:	d923      	bls.n	9c <_ZN12FatFormatter6formatEP22FsBlockDeviceInterfacePhP5Print+0x9c>
  54:	2b80      	cmp	r3, #128	; 0x80
  56:	d923      	bls.n	a0 <_ZN12FatFormatter6formatEP22FsBlockDeviceInterfacePhP5Print+0xa0>
  58:	f5b3 6f80 	cmp.w	r3, #1024	; 0x400
  5c:	d922      	bls.n	a4 <_ZN12FatFormatter6formatEP22FsBlockDeviceInterfacePhP5Print+0xa4>
  5e:	f5b3 4f00 	cmp.w	r3, #32768	; 0x8000
  62:	bf8c      	ite	hi
  64:	2380      	movhi	r3, #128	; 0x80
  66:	2340      	movls	r3, #64	; 0x40
  68:	e7dd      	b.n	26 <_ZN12FatFormatter6formatEP22FsBlockDeviceInterfacePhP5Print+0x26>
  6a:	6a20      	ldr	r0, [r4, #32]
  6c:	b120      	cbz	r0, 78 <_ZN12FatFormatter6formatEP22FsBlockDeviceInterfacePhP5Print+0x78>
  6e:	6803      	ldr	r3, [r0, #0]
  70:	2214      	movs	r2, #20
  72:	490e      	ldr	r1, [pc, #56]	; (ac <_ZN12FatFormatter6formatEP22FsBlockDeviceInterfacePhP5Print+0xac>)
  74:	685b      	ldr	r3, [r3, #4]
  76:	4798      	blx	r3
  78:	2500      	movs	r5, #0
  7a:	4628      	mov	r0, r5
  7c:	bd38      	pop	{r3, r4, r5, pc}
  7e:	2800      	cmp	r0, #0
  80:	d0fa      	beq.n	78 <_ZN12FatFormatter6formatEP22FsBlockDeviceInterfacePhP5Print+0x78>
  82:	6803      	ldr	r3, [r0, #0]
  84:	220f      	movs	r2, #15
  86:	490a      	ldr	r1, [pc, #40]	; (b0 <_ZN12FatFormatter6formatEP22FsBlockDeviceInterfacePhP5Print+0xb0>)
  88:	685b      	ldr	r3, [r3, #4]
  8a:	4798      	blx	r3
  8c:	4628      	mov	r0, r5
  8e:	bd38      	pop	{r3, r4, r5, pc}
  90:	f7ff fffe 	bl	0 <_ZN12FatFormatter6formatEP22FsBlockDeviceInterfacePhP5Print>
  94:	4605      	mov	r5, r0
  96:	e7cf      	b.n	38 <_ZN12FatFormatter6formatEP22FsBlockDeviceInterfacePhP5Print+0x38>
  98:	2304      	movs	r3, #4
  9a:	e7c4      	b.n	26 <_ZN12FatFormatter6formatEP22FsBlockDeviceInterfacePhP5Print+0x26>
  9c:	2308      	movs	r3, #8
  9e:	e7c2      	b.n	26 <_ZN12FatFormatter6formatEP22FsBlockDeviceInterfacePhP5Print+0x26>
  a0:	2310      	movs	r3, #16
  a2:	e7c0      	b.n	26 <_ZN12FatFormatter6formatEP22FsBlockDeviceInterfacePhP5Print+0x26>
  a4:	2320      	movs	r3, #32
  a6:	e7be      	b.n	26 <_ZN12FatFormatter6formatEP22FsBlockDeviceInterfacePhP5Print+0x26>
  a8:	00000018 	.word	0x00000018
  ac:	00000000 	.word	0x00000000
  b0:	00000028 	.word	0x00000028
